   1              		.syntax unified
   2              		.cpu cortex-m4
   3              		.eabi_attribute 27, 3
   4              		.eabi_attribute 28, 1
   5              		.fpu fpv4-sp-d16
   6              		.eabi_attribute 20, 1
   7              		.eabi_attribute 21, 1
   8              		.eabi_attribute 23, 3
   9              		.eabi_attribute 24, 1
  10              		.eabi_attribute 25, 1
  11              		.eabi_attribute 26, 1
  12              		.eabi_attribute 30, 4
  13              		.eabi_attribute 34, 1
  14              		.eabi_attribute 18, 4
  15              		.thumb
  16              		.file	"filter_Lib.c"
  17              		.text
  18              	.Ltext0:
  19              		.cfi_sections	.debug_frame
  20              		.align	1
  21              		.global	update_intFilter
  22              		.thumb
  23              		.thumb_func
  25              	update_intFilter:
  26              	.LFB0:
  27              		.file 1 "/home/user/Desktop/STM32-Projekte/FH-Vertibot/src/project_src/filter_Lib.c"
   1:/home/user/Desktop/STM32-Projekte/FH-Vertibot/src/project_src/filter_Lib.c **** /*
   2:/home/user/Desktop/STM32-Projekte/FH-Vertibot/src/project_src/filter_Lib.c ****  * filter_Lib.c
   3:/home/user/Desktop/STM32-Projekte/FH-Vertibot/src/project_src/filter_Lib.c ****  *
   4:/home/user/Desktop/STM32-Projekte/FH-Vertibot/src/project_src/filter_Lib.c ****  *  Created on: Nov 1, 2012
   5:/home/user/Desktop/STM32-Projekte/FH-Vertibot/src/project_src/filter_Lib.c ****  *      Author: franz
   6:/home/user/Desktop/STM32-Projekte/FH-Vertibot/src/project_src/filter_Lib.c ****  */
   7:/home/user/Desktop/STM32-Projekte/FH-Vertibot/src/project_src/filter_Lib.c **** #include <filter_Lib.h>
   8:/home/user/Desktop/STM32-Projekte/FH-Vertibot/src/project_src/filter_Lib.c **** #include <math.h>
   9:/home/user/Desktop/STM32-Projekte/FH-Vertibot/src/project_src/filter_Lib.c **** 
  10:/home/user/Desktop/STM32-Projekte/FH-Vertibot/src/project_src/filter_Lib.c **** 
  11:/home/user/Desktop/STM32-Projekte/FH-Vertibot/src/project_src/filter_Lib.c **** void update_intFilter(intFilter *filter, int lowpassValue, int newMeasurement)
  12:/home/user/Desktop/STM32-Projekte/FH-Vertibot/src/project_src/filter_Lib.c **** {
  28              		.loc 1 12 0
  29              		.cfi_startproc
  30              		@ args = 0, pretend = 0, frame = 0
  31              		@ frame_needed = 0, uses_anonymous_args = 0
  32              	.LVL0:
  13:/home/user/Desktop/STM32-Projekte/FH-Vertibot/src/project_src/filter_Lib.c **** 	filter->r = newMeasurement + filter->r - filter->filtered;
  33              		.loc 1 13 0
  34 0000 0368     		ldr	r3, [r0]
  12:/home/user/Desktop/STM32-Projekte/FH-Vertibot/src/project_src/filter_Lib.c **** {
  35              		.loc 1 12 0
  36 0002 10B5     		push	{r4, lr}
  37              	.LCFI0:
  38              		.cfi_def_cfa_offset 8
  39              		.cfi_offset 4, -8
  40              		.cfi_offset 14, -4
  41              		.loc 1 13 0
  42 0004 4468     		ldr	r4, [r0, #4]
  43 0006 1A44     		add	r2, r2, r3
  44              	.LVL1:
  45 0008 121B     		subs	r2, r2, r4
  14:/home/user/Desktop/STM32-Projekte/FH-Vertibot/src/project_src/filter_Lib.c **** 	filter->filtered = filter->r>>lowpassValue;
  46              		.loc 1 14 0
  47 000a 42FA01F1 		asr	r1, r2, r1
  48              	.LVL2:
  13:/home/user/Desktop/STM32-Projekte/FH-Vertibot/src/project_src/filter_Lib.c **** 	filter->r = newMeasurement + filter->r - filter->filtered;
  49              		.loc 1 13 0
  50 000e 0260     		str	r2, [r0]
  51              		.loc 1 14 0
  52 0010 4160     		str	r1, [r0, #4]
  53 0012 10BD     		pop	{r4, pc}
  54              		.cfi_endproc
  55              	.LFE0:
  57              		.align	1
  58              		.global	initAvgValues
  59              		.thumb
  60              		.thumb_func
  62              	initAvgValues:
  63              	.LFB1:
  15:/home/user/Desktop/STM32-Projekte/FH-Vertibot/src/project_src/filter_Lib.c **** }
  16:/home/user/Desktop/STM32-Projekte/FH-Vertibot/src/project_src/filter_Lib.c **** 
  17:/home/user/Desktop/STM32-Projekte/FH-Vertibot/src/project_src/filter_Lib.c **** void initAvgValues(struct movingAverageValues *avg)
  18:/home/user/Desktop/STM32-Projekte/FH-Vertibot/src/project_src/filter_Lib.c **** {
  64              		.loc 1 18 0
  65              		.cfi_startproc
  66              		@ args = 0, pretend = 0, frame = 0
  67              		@ frame_needed = 0, uses_anonymous_args = 0
  68              		@ link register save eliminated.
  69              	.LVL3:
  19:/home/user/Desktop/STM32-Projekte/FH-Vertibot/src/project_src/filter_Lib.c **** 	int i = 0;
  20:/home/user/Desktop/STM32-Projekte/FH-Vertibot/src/project_src/filter_Lib.c **** 	avg->countValue = 0;
  70              		.loc 1 20 0
  71 0014 0023     		movs	r3, #0
  72 0016 4361     		str	r3, [r0, #20]
  21:/home/user/Desktop/STM32-Projekte/FH-Vertibot/src/project_src/filter_Lib.c **** 	for(i = 0;i<MA_VALUE;i++)
  22:/home/user/Desktop/STM32-Projekte/FH-Vertibot/src/project_src/filter_Lib.c **** 	{
  23:/home/user/Desktop/STM32-Projekte/FH-Vertibot/src/project_src/filter_Lib.c **** 		avg->avgArray[i] = 0;
  73              		.loc 1 23 0
  74 0018 0360     		str	r3, [r0]
  75              	.LVL4:
  76 001a 4360     		str	r3, [r0, #4]
  77              	.LVL5:
  78 001c 8360     		str	r3, [r0, #8]
  79              	.LVL6:
  80 001e C360     		str	r3, [r0, #12]
  81              	.LVL7:
  82 0020 0361     		str	r3, [r0, #16]
  83              	.LVL8:
  84 0022 7047     		bx	lr
  85              		.cfi_endproc
  86              	.LFE1:
  88              		.align	1
  89              		.global	calcMovingAvg
  90              		.thumb
  91              		.thumb_func
  93              	calcMovingAvg:
  94              	.LFB2:
  24:/home/user/Desktop/STM32-Projekte/FH-Vertibot/src/project_src/filter_Lib.c **** 	}
  25:/home/user/Desktop/STM32-Projekte/FH-Vertibot/src/project_src/filter_Lib.c **** }
  26:/home/user/Desktop/STM32-Projekte/FH-Vertibot/src/project_src/filter_Lib.c **** 
  27:/home/user/Desktop/STM32-Projekte/FH-Vertibot/src/project_src/filter_Lib.c **** int calcMovingAvg(struct movingAverageValues *avg, int newValue)
  28:/home/user/Desktop/STM32-Projekte/FH-Vertibot/src/project_src/filter_Lib.c **** {
  95              		.loc 1 28 0
  96              		.cfi_startproc
  97              		@ args = 0, pretend = 0, frame = 0
  98              		@ frame_needed = 0, uses_anonymous_args = 0
  99              	.LVL9:
 100 0024 10B5     		push	{r4, lr}
 101              	.LCFI1:
 102              		.cfi_def_cfa_offset 8
 103              		.cfi_offset 4, -8
 104              		.cfi_offset 14, -4
  29:/home/user/Desktop/STM32-Projekte/FH-Vertibot/src/project_src/filter_Lib.c **** 	int i = 0, result = 0;
  30:/home/user/Desktop/STM32-Projekte/FH-Vertibot/src/project_src/filter_Lib.c **** 
  31:/home/user/Desktop/STM32-Projekte/FH-Vertibot/src/project_src/filter_Lib.c **** 	avg->avgArray[avg->countValue] = newValue;
 105              		.loc 1 31 0
 106 0026 4469     		ldr	r4, [r0, #20]
 107 0028 0023     		movs	r3, #0
 108 002a 40F82410 		str	r1, [r0, r4, lsl #2]
  29:/home/user/Desktop/STM32-Projekte/FH-Vertibot/src/project_src/filter_Lib.c **** 	int i = 0, result = 0;
 109              		.loc 1 29 0
 110 002e 1A46     		mov	r2, r3
 111              	.LVL10:
 112              	.L5:
  32:/home/user/Desktop/STM32-Projekte/FH-Vertibot/src/project_src/filter_Lib.c **** 	for(i = 0;i<MA_VALUE;i++)
  33:/home/user/Desktop/STM32-Projekte/FH-Vertibot/src/project_src/filter_Lib.c **** 	{
  34:/home/user/Desktop/STM32-Projekte/FH-Vertibot/src/project_src/filter_Lib.c **** 		result += avg->avgArray[i];
 113              		.loc 1 34 0 discriminator 2
 114 0030 C158     		ldr	r1, [r0, r3]
 115 0032 0433     		adds	r3, r3, #4
  32:/home/user/Desktop/STM32-Projekte/FH-Vertibot/src/project_src/filter_Lib.c **** 	for(i = 0;i<MA_VALUE;i++)
 116              		.loc 1 32 0 discriminator 2
 117 0034 142B     		cmp	r3, #20
 118              		.loc 1 34 0 discriminator 2
 119 0036 0A44     		add	r2, r2, r1
 120              	.LVL11:
  32:/home/user/Desktop/STM32-Projekte/FH-Vertibot/src/project_src/filter_Lib.c **** 	for(i = 0;i<MA_VALUE;i++)
 121              		.loc 1 32 0 discriminator 2
 122 0038 FAD1     		bne	.L5
  35:/home/user/Desktop/STM32-Projekte/FH-Vertibot/src/project_src/filter_Lib.c **** 	}
  36:/home/user/Desktop/STM32-Projekte/FH-Vertibot/src/project_src/filter_Lib.c **** 	avg->countValue++;
 123              		.loc 1 36 0
 124 003a 0134     		adds	r4, r4, #1
 125              	.LVL12:
  37:/home/user/Desktop/STM32-Projekte/FH-Vertibot/src/project_src/filter_Lib.c **** 	if (avg->countValue >= MA_VALUE)
 126              		.loc 1 37 0
 127 003c 042C     		cmp	r4, #4
  38:/home/user/Desktop/STM32-Projekte/FH-Vertibot/src/project_src/filter_Lib.c **** 	{
  39:/home/user/Desktop/STM32-Projekte/FH-Vertibot/src/project_src/filter_Lib.c **** 		avg->countValue = 0;
 128              		.loc 1 39 0
 129 003e CABF     		itet	gt
 130 0040 0023     		movgt	r3, #0
  36:/home/user/Desktop/STM32-Projekte/FH-Vertibot/src/project_src/filter_Lib.c **** 	avg->countValue++;
 131              		.loc 1 36 0
 132 0042 4461     		strle	r4, [r0, #20]
 133              	.LVL13:
 134              		.loc 1 39 0
 135 0044 4361     		strgt	r3, [r0, #20]
  40:/home/user/Desktop/STM32-Projekte/FH-Vertibot/src/project_src/filter_Lib.c **** 	}
  41:/home/user/Desktop/STM32-Projekte/FH-Vertibot/src/project_src/filter_Lib.c **** 	return result/MA_VALUE;
  42:/home/user/Desktop/STM32-Projekte/FH-Vertibot/src/project_src/filter_Lib.c **** }
 136              		.loc 1 42 0
 137 0046 0520     		movs	r0, #5
 138              	.LVL14:
 139 0048 92FBF0F0 		sdiv	r0, r2, r0
 140 004c 10BD     		pop	{r4, pc}
 141              		.cfi_endproc
 142              	.LFE2:
 144              		.align	1
 145              		.global	quickSort
 146              		.thumb
 147              		.thumb_func
 149              	quickSort:
 150              	.LFB3:
  43:/home/user/Desktop/STM32-Projekte/FH-Vertibot/src/project_src/filter_Lib.c **** 
  44:/home/user/Desktop/STM32-Projekte/FH-Vertibot/src/project_src/filter_Lib.c **** 
  45:/home/user/Desktop/STM32-Projekte/FH-Vertibot/src/project_src/filter_Lib.c **** void quickSort (int a[], int lo, int hi)
  46:/home/user/Desktop/STM32-Projekte/FH-Vertibot/src/project_src/filter_Lib.c **** {
 151              		.loc 1 46 0
 152              		.cfi_startproc
 153              		@ args = 0, pretend = 0, frame = 0
 154              		@ frame_needed = 0, uses_anonymous_args = 0
 155              	.LVL15:
 156 004e 2DE9F047 		push	{r4, r5, r6, r7, r8, r9, r10, lr}
 157              	.LCFI2:
 158              		.cfi_def_cfa_offset 32
 159              		.cfi_offset 4, -32
 160              		.cfi_offset 5, -28
 161              		.cfi_offset 6, -24
 162              		.cfi_offset 7, -20
 163              		.cfi_offset 8, -16
 164              		.cfi_offset 9, -12
 165              		.cfi_offset 10, -8
 166              		.cfi_offset 14, -4
 167 0052 0646     		mov	r6, r0
 168 0054 1746     		mov	r7, r2
 169              	.LVL16:
 170              	.L18:
  47:/home/user/Desktop/STM32-Projekte/FH-Vertibot/src/project_src/filter_Lib.c **** //  lo is the lower index, hi is the upper index
  48:/home/user/Desktop/STM32-Projekte/FH-Vertibot/src/project_src/filter_Lib.c **** //  of the region of array a that is to be sorted
  49:/home/user/Desktop/STM32-Projekte/FH-Vertibot/src/project_src/filter_Lib.c ****     int i=lo, j=hi, h;
  50:/home/user/Desktop/STM32-Projekte/FH-Vertibot/src/project_src/filter_Lib.c ****     int x=a[(lo+hi)/2];
 171              		.loc 1 50 0
 172 0056 CA19     		adds	r2, r1, r7
 173 0058 0223     		movs	r3, #2
 174 005a 92FBF3F3 		sdiv	r3, r2, r3
 175 005e 4C1C     		adds	r4, r1, #1
 176 0060 56F82390 		ldr	r9, [r6, r3, lsl #2]
 177              	.LVL17:
 178 0064 06EB8102 		add	r2, r6, r1, lsl #2
  49:/home/user/Desktop/STM32-Projekte/FH-Vertibot/src/project_src/filter_Lib.c ****     int i=lo, j=hi, h;
 179              		.loc 1 49 0
 180 0068 3B46     		mov	r3, r7
 181              	.LVL18:
 182              	.L11:
  51:/home/user/Desktop/STM32-Projekte/FH-Vertibot/src/project_src/filter_Lib.c **** 
  52:/home/user/Desktop/STM32-Projekte/FH-Vertibot/src/project_src/filter_Lib.c ****     //  partition
  53:/home/user/Desktop/STM32-Projekte/FH-Vertibot/src/project_src/filter_Lib.c ****     do
  54:/home/user/Desktop/STM32-Projekte/FH-Vertibot/src/project_src/filter_Lib.c ****     {
  55:/home/user/Desktop/STM32-Projekte/FH-Vertibot/src/project_src/filter_Lib.c ****         while (a[i]<x) i++;
 183              		.loc 1 55 0 discriminator 1
 184 006a 52F804CB 		ldr	ip, [r2], #4
 185 006e CC45     		cmp	ip, r9
 186 0070 04F1FF35 		add	r5, r4, #-1
 187              	.LVL19:
 188 0074 01DA     		bge	.L19
 189              	.L12:
 190 0076 0134     		adds	r4, r4, #1
 191 0078 F7E7     		b	.L11
 192              	.L19:
 193 007a 06EB8300 		add	r0, r6, r3, lsl #2
 194              	.L13:
  56:/home/user/Desktop/STM32-Projekte/FH-Vertibot/src/project_src/filter_Lib.c ****         while (a[j]>x) j--;
 195              		.loc 1 56 0 discriminator 1
 196 007e 8246     		mov	r10, r0
 197 0080 50F80489 		ldr	r8, [r0], #-4
 198 0084 C845     		cmp	r8, r9
 199 0086 01DD     		ble	.L20
 200              		.loc 1 56 0 is_stmt 0 discriminator 2
 201 0088 013B     		subs	r3, r3, #1
 202              	.LVL20:
 203 008a F8E7     		b	.L13
 204              	.L20:
  57:/home/user/Desktop/STM32-Projekte/FH-Vertibot/src/project_src/filter_Lib.c ****         if (i<=j)
 205              		.loc 1 57 0 is_stmt 1
 206 008c 9D42     		cmp	r5, r3
 207 008e 07DC     		bgt	.L15
 208              	.LVL21:
  58:/home/user/Desktop/STM32-Projekte/FH-Vertibot/src/project_src/filter_Lib.c ****         {
  59:/home/user/Desktop/STM32-Projekte/FH-Vertibot/src/project_src/filter_Lib.c ****             h=a[i]; a[i]=a[j]; a[j]=h;
  60:/home/user/Desktop/STM32-Projekte/FH-Vertibot/src/project_src/filter_Lib.c ****             i++; j--;
 209              		.loc 1 60 0
 210 0090 013B     		subs	r3, r3, #1
 211              	.LVL22:
  61:/home/user/Desktop/STM32-Projekte/FH-Vertibot/src/project_src/filter_Lib.c ****         }
  62:/home/user/Desktop/STM32-Projekte/FH-Vertibot/src/project_src/filter_Lib.c ****     } while (i<=j);
 212              		.loc 1 62 0
 213 0092 9C42     		cmp	r4, r3
  59:/home/user/Desktop/STM32-Projekte/FH-Vertibot/src/project_src/filter_Lib.c ****             h=a[i]; a[i]=a[j]; a[j]=h;
 214              		.loc 1 59 0
 215 0094 42F8048C 		str	r8, [r2, #-4]
  60:/home/user/Desktop/STM32-Projekte/FH-Vertibot/src/project_src/filter_Lib.c ****             i++; j--;
 216              		.loc 1 60 0
 217 0098 2546     		mov	r5, r4
 218              	.LVL23:
  59:/home/user/Desktop/STM32-Projekte/FH-Vertibot/src/project_src/filter_Lib.c ****             h=a[i]; a[i]=a[j]; a[j]=h;
 219              		.loc 1 59 0
 220 009a CAF800C0 		str	ip, [r10]
 221              		.loc 1 62 0
 222 009e EADD     		ble	.L12
 223              	.LVL24:
 224              	.L15:
  63:/home/user/Desktop/STM32-Projekte/FH-Vertibot/src/project_src/filter_Lib.c **** 
  64:/home/user/Desktop/STM32-Projekte/FH-Vertibot/src/project_src/filter_Lib.c ****     //  recursion
  65:/home/user/Desktop/STM32-Projekte/FH-Vertibot/src/project_src/filter_Lib.c ****     if (lo<j) quickSort(a, lo, j);
 225              		.loc 1 65 0
 226 00a0 9942     		cmp	r1, r3
 227 00a2 03DA     		bge	.L16
 228              		.loc 1 65 0 is_stmt 0 discriminator 1
 229 00a4 3046     		mov	r0, r6
 230 00a6 1A46     		mov	r2, r3
 231 00a8 FFF7FEFF 		bl	quickSort
 232              	.LVL25:
 233              	.L16:
  66:/home/user/Desktop/STM32-Projekte/FH-Vertibot/src/project_src/filter_Lib.c ****     if (i<hi) quickSort(a, i, hi);
 234              		.loc 1 66 0 is_stmt 1
 235 00ac BD42     		cmp	r5, r7
 236 00ae 01DA     		bge	.L10
 237 00b0 2946     		mov	r1, r5
 238 00b2 D0E7     		b	.L18
 239              	.L10:
 240 00b4 BDE8F087 		pop	{r4, r5, r6, r7, r8, r9, r10, pc}
 241              		.cfi_endproc
 242              	.LFE3:
 244              		.global	__aeabi_i2d
 245              		.global	__aeabi_d2iz
 246              		.align	1
 247              		.global	calcStdDev
 248              		.thumb
 249              		.thumb_func
 251              	calcStdDev:
 252              	.LFB4:
  67:/home/user/Desktop/STM32-Projekte/FH-Vertibot/src/project_src/filter_Lib.c **** }
  68:/home/user/Desktop/STM32-Projekte/FH-Vertibot/src/project_src/filter_Lib.c **** 
  69:/home/user/Desktop/STM32-Projekte/FH-Vertibot/src/project_src/filter_Lib.c **** 
  70:/home/user/Desktop/STM32-Projekte/FH-Vertibot/src/project_src/filter_Lib.c **** 
  71:/home/user/Desktop/STM32-Projekte/FH-Vertibot/src/project_src/filter_Lib.c **** int calcStdDev (int a[], int index, int avgVal)
  72:/home/user/Desktop/STM32-Projekte/FH-Vertibot/src/project_src/filter_Lib.c **** {
 253              		.loc 1 72 0
 254              		.cfi_startproc
 255              		@ args = 0, pretend = 0, frame = 0
 256              		@ frame_needed = 0, uses_anonymous_args = 0
 257              	.LVL26:
  73:/home/user/Desktop/STM32-Projekte/FH-Vertibot/src/project_src/filter_Lib.c **** 	int sum = 0, i = 0;
  74:/home/user/Desktop/STM32-Projekte/FH-Vertibot/src/project_src/filter_Lib.c **** 
  75:/home/user/Desktop/STM32-Projekte/FH-Vertibot/src/project_src/filter_Lib.c **** 	for(i = 0; i<index;i++)
 258              		.loc 1 75 0
 259 00b8 0023     		movs	r3, #0
  72:/home/user/Desktop/STM32-Projekte/FH-Vertibot/src/project_src/filter_Lib.c **** {
 260              		.loc 1 72 0
 261 00ba 10B5     		push	{r4, lr}
 262              	.LCFI3:
 263              		.cfi_def_cfa_offset 8
 264              		.cfi_offset 4, -8
 265              		.cfi_offset 14, -4
  73:/home/user/Desktop/STM32-Projekte/FH-Vertibot/src/project_src/filter_Lib.c **** 	int sum = 0, i = 0;
 266              		.loc 1 73 0
 267 00bc 1C46     		mov	r4, r3
 268              	.LVL27:
 269              	.L22:
 270              		.loc 1 75 0 discriminator 1
 271 00be 8B42     		cmp	r3, r1
 272 00c0 05DA     		bge	.L24
  76:/home/user/Desktop/STM32-Projekte/FH-Vertibot/src/project_src/filter_Lib.c **** 	{
  77:/home/user/Desktop/STM32-Projekte/FH-Vertibot/src/project_src/filter_Lib.c **** 		sum = (a[i]-avgVal)*(a[i]-avgVal);
 273              		.loc 1 77 0 discriminator 2
 274 00c2 50F82340 		ldr	r4, [r0, r3, lsl #2]
 275 00c6 A41A     		subs	r4, r4, r2
 276 00c8 6443     		muls	r4, r4, r4
 277              	.LVL28:
  75:/home/user/Desktop/STM32-Projekte/FH-Vertibot/src/project_src/filter_Lib.c **** 	for(i = 0; i<index;i++)
 278              		.loc 1 75 0 discriminator 2
 279 00ca 0133     		adds	r3, r3, #1
 280              	.LVL29:
 281 00cc F7E7     		b	.L22
 282              	.LVL30:
 283              	.L24:
  78:/home/user/Desktop/STM32-Projekte/FH-Vertibot/src/project_src/filter_Lib.c **** 	}
  79:/home/user/Desktop/STM32-Projekte/FH-Vertibot/src/project_src/filter_Lib.c **** 	return (sqrt(sum/(index-1)));
 284              		.loc 1 79 0
 285 00ce 481E     		subs	r0, r1, #1
 286              	.LVL31:
 287 00d0 94FBF0F0 		sdiv	r0, r4, r0
 288 00d4 FFF7FEFF 		bl	__aeabi_i2d
 289              	.LVL32:
 290 00d8 41EC100B 		fmdrr	d0, r0, r1
 291 00dc FFF7FEFF 		bl	sqrt
 292              	.LVL33:
 293 00e0 51EC100B 		fmrrd	r0, r1, d0
 294 00e4 FFF7FEFF 		bl	__aeabi_d2iz
 295              	.LVL34:
  80:/home/user/Desktop/STM32-Projekte/FH-Vertibot/src/project_src/filter_Lib.c **** }
 296              		.loc 1 80 0
 297 00e8 10BD     		pop	{r4, pc}
 298              		.cfi_endproc
 299              	.LFE4:
 301              		.align	1
 302              		.global	floatFilterAcc1
 303              		.thumb
 304              		.thumb_func
 306              	floatFilterAcc1:
 307              	.LFB5:
  81:/home/user/Desktop/STM32-Projekte/FH-Vertibot/src/project_src/filter_Lib.c **** 
  82:/home/user/Desktop/STM32-Projekte/FH-Vertibot/src/project_src/filter_Lib.c **** 
  83:/home/user/Desktop/STM32-Projekte/FH-Vertibot/src/project_src/filter_Lib.c **** /*
  84:/home/user/Desktop/STM32-Projekte/FH-Vertibot/src/project_src/filter_Lib.c ****  * SampleRate 250Hz cutoff: 5Hz 4th order Butterworth
  85:/home/user/Desktop/STM32-Projekte/FH-Vertibot/src/project_src/filter_Lib.c ****  * http://www-users.cs.york.ac.uk/~fisher/mkfilter/trad.html
  86:/home/user/Desktop/STM32-Projekte/FH-Vertibot/src/project_src/filter_Lib.c ****  */
  87:/home/user/Desktop/STM32-Projekte/FH-Vertibot/src/project_src/filter_Lib.c **** void floatFilterAcc1(floatFilter *value, int newValue)
  88:/home/user/Desktop/STM32-Projekte/FH-Vertibot/src/project_src/filter_Lib.c **** {
 308              		.loc 1 88 0
 309              		.cfi_startproc
 310              		@ args = 0, pretend = 0, frame = 0
 311              		@ frame_needed = 0, uses_anonymous_args = 0
 312              		@ link register save eliminated.
 313              	.LVL35:
  89:/home/user/Desktop/STM32-Projekte/FH-Vertibot/src/project_src/filter_Lib.c **** 	float *xv = &value->filter_xv[0];
  90:/home/user/Desktop/STM32-Projekte/FH-Vertibot/src/project_src/filter_Lib.c **** 	float *yv = &value->filter_yv[0];
  91:/home/user/Desktop/STM32-Projekte/FH-Vertibot/src/project_src/filter_Lib.c **** 	xv[0] = xv[1]; xv[1] = xv[2]; xv[2] = xv[3]; xv[3] = xv[4];
  92:/home/user/Desktop/STM32-Projekte/FH-Vertibot/src/project_src/filter_Lib.c **** 	xv[4] = (float)newValue / 2.674241096e+06 /*GAIN*/;
 314              		.loc 1 92 0
 315 00ea 07EE901A 		fmsr	s15, r1	@ int
 316 00ee B8EEE77A 		fsitos	s14, s15
 317 00f2 DFED237A 		flds	s15, .L26
  91:/home/user/Desktop/STM32-Projekte/FH-Vertibot/src/project_src/filter_Lib.c **** 	xv[0] = xv[1]; xv[1] = xv[2]; xv[2] = xv[3]; xv[3] = xv[4];
 318              		.loc 1 91 0
 319 00f6 D0ED014A 		flds	s9, [r0, #4]
 320 00fa D0ED023A 		flds	s7, [r0, #8]
 321 00fe 90ED044A 		flds	s8, [r0, #16]
 322 0102 90ED035A 		flds	s10, [r0, #12]
 323 0106 80ED034A 		fsts	s8, [r0, #12]
 324              		.loc 1 92 0
 325 010a C7EE277A 		fdivs	s15, s14, s15
  93:/home/user/Desktop/STM32-Projekte/FH-Vertibot/src/project_src/filter_Lib.c **** 	yv[0] = yv[1]; yv[1] = yv[2]; yv[2] = yv[3]; yv[3] = yv[4];
  94:/home/user/Desktop/STM32-Projekte/FH-Vertibot/src/project_src/filter_Lib.c **** 	yv[4] =   (xv[0] + xv[4]) + 4 * (xv[1] + xv[3]) + 6 * xv[2]
 326              		.loc 1 94 0
 327 010e 33EE844A 		fadds	s8, s7, s8
  92:/home/user/Desktop/STM32-Projekte/FH-Vertibot/src/project_src/filter_Lib.c **** 	xv[4] = (float)newValue / 2.674241096e+06 /*GAIN*/;
 328              		.loc 1 92 0
 329 0112 C0ED047A 		fsts	s15, [r0, #16]
 330              		.loc 1 94 0
 331 0116 74EEA77A 		fadds	s15, s9, s15
  91:/home/user/Desktop/STM32-Projekte/FH-Vertibot/src/project_src/filter_Lib.c **** 	xv[0] = xv[1]; xv[1] = xv[2]; xv[2] = xv[3]; xv[3] = xv[4];
 332              		.loc 1 91 0
 333 011a C0ED004A 		fsts	s9, [r0]
 334              		.loc 1 94 0
 335 011e F1EE004A 		fconsts	s9, #16
 336 0122 E4EE247A 		vfma.f32	s15, s8, s9
 337 0126 F1EE084A 		fconsts	s9, #24
 338 012a E5EE247A 		vfma.f32	s15, s10, s9
  93:/home/user/Desktop/STM32-Projekte/FH-Vertibot/src/project_src/filter_Lib.c **** 	yv[0] = yv[1]; yv[1] = yv[2]; yv[2] = yv[3]; yv[3] = yv[4];
 339              		.loc 1 93 0
 340 012e D0ED065A 		flds	s11, [r0, #24]
  91:/home/user/Desktop/STM32-Projekte/FH-Vertibot/src/project_src/filter_Lib.c **** 	xv[0] = xv[1]; xv[1] = xv[2]; xv[2] = xv[3]; xv[3] = xv[4];
 341              		.loc 1 91 0
 342 0132 80ED025A 		fsts	s10, [r0, #8]
  95:/home/user/Desktop/STM32-Projekte/FH-Vertibot/src/project_src/filter_Lib.c **** 				 + ( -0.8768965608 * yv[0]) + (  3.6227607596 * yv[1])
 343              		.loc 1 95 0
 344 0136 9FED135A 		flds	s10, .L26+4
  93:/home/user/Desktop/STM32-Projekte/FH-Vertibot/src/project_src/filter_Lib.c **** 	yv[0] = yv[1]; yv[1] = yv[2]; yv[2] = yv[3]; yv[3] = yv[4];
 345              		.loc 1 93 0
 346 013a 90ED076A 		flds	s12, [r0, #28]
 347 013e C0ED055A 		fsts	s11, [r0, #20]
 348              		.loc 1 95 0
 349 0142 E5EE857A 		vfma.f32	s15, s11, s10
 350 0146 DFED105A 		flds	s11, .L26+8
  93:/home/user/Desktop/STM32-Projekte/FH-Vertibot/src/project_src/filter_Lib.c **** 	yv[0] = yv[1]; yv[1] = yv[2]; yv[2] = yv[3]; yv[3] = yv[4];
 351              		.loc 1 93 0
 352 014a D0ED086A 		flds	s13, [r0, #32]
 353 014e 80ED066A 		fsts	s12, [r0, #24]
 354              		.loc 1 95 0
 355 0152 E6EE257A 		vfma.f32	s15, s12, s11
  96:/home/user/Desktop/STM32-Projekte/FH-Vertibot/src/project_src/filter_Lib.c **** 				 + ( -5.6145268496 * yv[2]) + (  3.8686566679 * yv[3]);
 356              		.loc 1 96 0
 357 0156 9FED0D6A 		flds	s12, .L26+12
  93:/home/user/Desktop/STM32-Projekte/FH-Vertibot/src/project_src/filter_Lib.c **** 	yv[0] = yv[1]; yv[1] = yv[2]; yv[2] = yv[3]; yv[3] = yv[4];
 358              		.loc 1 93 0
 359 015a 90ED097A 		flds	s14, [r0, #36]
 360 015e C0ED076A 		fsts	s13, [r0, #28]
 361              		.loc 1 96 0
 362 0162 E6EE867A 		vfma.f32	s15, s13, s12
 363 0166 DFED0A6A 		flds	s13, .L26+16
  91:/home/user/Desktop/STM32-Projekte/FH-Vertibot/src/project_src/filter_Lib.c **** 	xv[0] = xv[1]; xv[1] = xv[2]; xv[2] = xv[3]; xv[3] = xv[4];
 364              		.loc 1 91 0
 365 016a C0ED013A 		fsts	s7, [r0, #4]
 366              		.loc 1 96 0
 367 016e E7EE267A 		vfma.f32	s15, s14, s13
  93:/home/user/Desktop/STM32-Projekte/FH-Vertibot/src/project_src/filter_Lib.c **** 	yv[0] = yv[1]; yv[1] = yv[2]; yv[2] = yv[3]; yv[3] = yv[4];
 368              		.loc 1 93 0
 369 0172 80ED087A 		fsts	s14, [r0, #32]
  94:/home/user/Desktop/STM32-Projekte/FH-Vertibot/src/project_src/filter_Lib.c **** 	yv[4] =   (xv[0] + xv[4]) + 4 * (xv[1] + xv[3]) + 6 * xv[2]
 370              		.loc 1 94 0
 371 0176 C0ED097A 		fsts	s15, [r0, #36]
  97:/home/user/Desktop/STM32-Projekte/FH-Vertibot/src/project_src/filter_Lib.c **** 	value->currentValue = yv[4];
 372              		.loc 1 97 0
 373 017a C0ED0A7A 		fsts	s15, [r0, #40]
 374 017e 7047     		bx	lr
 375              	.L27:
 376              		.align	2
 377              	.L26:
 378 0180 0439234A 		.word	1243822340
 379 0184 4B7C60BF 		.word	-1084195765
 380 0188 50DB6740 		.word	1080548176
 381 018c 34AAB3C0 		.word	-1061967308
 382 0190 12987740 		.word	1081579538
 383              		.cfi_endproc
 384              	.LFE5:
 386              		.align	1
 387              		.global	floatFilterAcc2
 388              		.thumb
 389              		.thumb_func
 391              	floatFilterAcc2:
 392              	.LFB6:
  98:/home/user/Desktop/STM32-Projekte/FH-Vertibot/src/project_src/filter_Lib.c **** }
  99:/home/user/Desktop/STM32-Projekte/FH-Vertibot/src/project_src/filter_Lib.c **** 
 100:/home/user/Desktop/STM32-Projekte/FH-Vertibot/src/project_src/filter_Lib.c **** void floatFilterAcc2(floatFilter *value, int newValue)
 101:/home/user/Desktop/STM32-Projekte/FH-Vertibot/src/project_src/filter_Lib.c **** {
 393              		.loc 1 101 0
 394              		.cfi_startproc
 395              		@ args = 0, pretend = 0, frame = 0
 396              		@ frame_needed = 0, uses_anonymous_args = 0
 397              		@ link register save eliminated.
 398              	.LVL36:
 102:/home/user/Desktop/STM32-Projekte/FH-Vertibot/src/project_src/filter_Lib.c **** 	float *xv = &value->filter_xv[0];
 103:/home/user/Desktop/STM32-Projekte/FH-Vertibot/src/project_src/filter_Lib.c **** 	float *yv = &value->filter_yv[0];
 104:/home/user/Desktop/STM32-Projekte/FH-Vertibot/src/project_src/filter_Lib.c **** 	xv[0] = xv[1]; xv[1] = xv[2];
 105:/home/user/Desktop/STM32-Projekte/FH-Vertibot/src/project_src/filter_Lib.c **** 	xv[2] = (float)newValue / 2.555570536e+04 /*GAIN*/;
 399              		.loc 1 105 0
 400 0194 07EE901A 		fmsr	s15, r1	@ int
 401 0198 B8EEE77A 		fsitos	s14, s15
 402 019c DFED147A 		flds	s15, .L29
 104:/home/user/Desktop/STM32-Projekte/FH-Vertibot/src/project_src/filter_Lib.c **** 	xv[0] = xv[1]; xv[1] = xv[2];
 403              		.loc 1 104 0
 404 01a0 D0ED015A 		flds	s11, [r0, #4]
 405 01a4 90ED026A 		flds	s12, [r0, #8]
 406 01a8 C0ED005A 		fsts	s11, [r0]
 407              		.loc 1 105 0
 408 01ac C7EE277A 		fdivs	s15, s14, s15
 106:/home/user/Desktop/STM32-Projekte/FH-Vertibot/src/project_src/filter_Lib.c ****     yv[0] = yv[1]; yv[1] = yv[2];
 409              		.loc 1 106 0
 410 01b0 D0ED066A 		flds	s13, [r0, #24]
 105:/home/user/Desktop/STM32-Projekte/FH-Vertibot/src/project_src/filter_Lib.c **** 	xv[2] = (float)newValue / 2.555570536e+04 /*GAIN*/;
 411              		.loc 1 105 0
 412 01b4 C0ED027A 		fsts	s15, [r0, #8]
 107:/home/user/Desktop/STM32-Projekte/FH-Vertibot/src/project_src/filter_Lib.c ****     yv[2] =   (xv[0] + xv[2]) + 2 * xv[1]
 413              		.loc 1 107 0
 414 01b8 75EEA77A 		fadds	s15, s11, s15
 415 01bc F0EE005A 		fconsts	s11, #0
 416 01c0 E6EE257A 		vfma.f32	s15, s12, s11
 104:/home/user/Desktop/STM32-Projekte/FH-Vertibot/src/project_src/filter_Lib.c **** 	xv[0] = xv[1]; xv[1] = xv[2];
 417              		.loc 1 104 0
 418 01c4 80ED016A 		fsts	s12, [r0, #4]
 108:/home/user/Desktop/STM32-Projekte/FH-Vertibot/src/project_src/filter_Lib.c ****                  + ( -0.9823854506 * yv[0]) + (  1.9822289298 * yv[1]);
 419              		.loc 1 108 0
 420 01c8 9FED0A6A 		flds	s12, .L29+4
 106:/home/user/Desktop/STM32-Projekte/FH-Vertibot/src/project_src/filter_Lib.c ****     yv[0] = yv[1]; yv[1] = yv[2];
 421              		.loc 1 106 0
 422 01cc 90ED077A 		flds	s14, [r0, #28]
 423 01d0 C0ED056A 		fsts	s13, [r0, #20]
 424              		.loc 1 108 0
 425 01d4 E6EE867A 		vfma.f32	s15, s13, s12
 426 01d8 DFED076A 		flds	s13, .L29+8
 106:/home/user/Desktop/STM32-Projekte/FH-Vertibot/src/project_src/filter_Lib.c ****     yv[0] = yv[1]; yv[1] = yv[2];
 427              		.loc 1 106 0
 428 01dc 80ED067A 		fsts	s14, [r0, #24]
 429              		.loc 1 108 0
 430 01e0 E7EE267A 		vfma.f32	s15, s14, s13
 107:/home/user/Desktop/STM32-Projekte/FH-Vertibot/src/project_src/filter_Lib.c ****     yv[2] =   (xv[0] + xv[2]) + 2 * xv[1]
 431              		.loc 1 107 0
 432 01e4 C0ED077A 		fsts	s15, [r0, #28]
 109:/home/user/Desktop/STM32-Projekte/FH-Vertibot/src/project_src/filter_Lib.c ****     value->currentValue = yv[2];
 433              		.loc 1 109 0
 434 01e8 C0ED0A7A 		fsts	s15, [r0, #40]
 435 01ec 7047     		bx	lr
 436              	.L30:
 437 01ee 00BF     		.align	2
 438              	.L29:
 439 01f0 69A7C746 		.word	1187489641
 440 01f4 9D7D7BBF 		.word	-1082425955
 441 01f8 ADB9FD3F 		.word	1073592749
 442              		.cfi_endproc
 443              	.LFE6:
 445              		.align	1
 446              		.global	floatFilterAcc
 447              		.thumb
 448              		.thumb_func
 450              	floatFilterAcc:
 451              	.LFB7:
 110:/home/user/Desktop/STM32-Projekte/FH-Vertibot/src/project_src/filter_Lib.c **** }
 111:/home/user/Desktop/STM32-Projekte/FH-Vertibot/src/project_src/filter_Lib.c **** 
 112:/home/user/Desktop/STM32-Projekte/FH-Vertibot/src/project_src/filter_Lib.c **** 
 113:/home/user/Desktop/STM32-Projekte/FH-Vertibot/src/project_src/filter_Lib.c **** /* Digital filter designed by mkfilter/mkshape/gencode   A.J. Fisher
 114:/home/user/Desktop/STM32-Projekte/FH-Vertibot/src/project_src/filter_Lib.c ****  * Sample 100Hz
 115:/home/user/Desktop/STM32-Projekte/FH-Vertibot/src/project_src/filter_Lib.c ****  * Eckfrequenz 8Hz
 116:/home/user/Desktop/STM32-Projekte/FH-Vertibot/src/project_src/filter_Lib.c ****  *
 117:/home/user/Desktop/STM32-Projekte/FH-Vertibot/src/project_src/filter_Lib.c ****  *  Command line: /www/usr/fisher/helpers/mkfilter -Bu -Lp -o 3 -a 1.0000000000e-02 0.0000000000e+0
 118:/home/user/Desktop/STM32-Projekte/FH-Vertibot/src/project_src/filter_Lib.c **** void floatFilterAcc(floatFilter *value, int newValue)
 119:/home/user/Desktop/STM32-Projekte/FH-Vertibot/src/project_src/filter_Lib.c **** {
 452              		.loc 1 119 0
 453              		.cfi_startproc
 454              		@ args = 0, pretend = 0, frame = 0
 455              		@ frame_needed = 0, uses_anonymous_args = 0
 456              		@ link register save eliminated.
 457              	.LVL37:
 120:/home/user/Desktop/STM32-Projekte/FH-Vertibot/src/project_src/filter_Lib.c **** 	float *xv = &value->filter_xv[0];
 121:/home/user/Desktop/STM32-Projekte/FH-Vertibot/src/project_src/filter_Lib.c **** 	float *yv = &value->filter_yv[0];
 122:/home/user/Desktop/STM32-Projekte/FH-Vertibot/src/project_src/filter_Lib.c **** 
 123:/home/user/Desktop/STM32-Projekte/FH-Vertibot/src/project_src/filter_Lib.c **** //	xv[0] = xv[1]; xv[1] = xv[2]; xv[2] = xv[3];
 124:/home/user/Desktop/STM32-Projekte/FH-Vertibot/src/project_src/filter_Lib.c **** //	xv[3] = newValue / 9.820696921e+01;
 125:/home/user/Desktop/STM32-Projekte/FH-Vertibot/src/project_src/filter_Lib.c **** //	yv[0] = yv[1]; yv[1] = yv[2]; yv[2] = yv[3];
 126:/home/user/Desktop/STM32-Projekte/FH-Vertibot/src/project_src/filter_Lib.c **** //	yv[3] =   (xv[0] + xv[3]) + 3 * (xv[1] + xv[2])
 127:/home/user/Desktop/STM32-Projekte/FH-Vertibot/src/project_src/filter_Lib.c **** //	                 + (  0.3617959282 * yv[0]) + ( -1.4470540195 * yv[1])
 128:/home/user/Desktop/STM32-Projekte/FH-Vertibot/src/project_src/filter_Lib.c **** //	                 + (  2.0037974774 * yv[2]);
 129:/home/user/Desktop/STM32-Projekte/FH-Vertibot/src/project_src/filter_Lib.c **** //	value->currentValue = yv[3];
 130:/home/user/Desktop/STM32-Projekte/FH-Vertibot/src/project_src/filter_Lib.c **** 
 131:/home/user/Desktop/STM32-Projekte/FH-Vertibot/src/project_src/filter_Lib.c ****     xv[0] = xv[1]; xv[1] = xv[2]; xv[2] = xv[3];
 132:/home/user/Desktop/STM32-Projekte/FH-Vertibot/src/project_src/filter_Lib.c ****     xv[3] = newValue / 1.429899908e+03;
 458              		.loc 1 132 0
 459 01fc 07EE901A 		fmsr	s15, r1	@ int
 460 0200 B8EEE77A 		fsitos	s14, s15
 461 0204 DFED1B7A 		flds	s15, .L32
 131:/home/user/Desktop/STM32-Projekte/FH-Vertibot/src/project_src/filter_Lib.c ****     xv[0] = xv[1]; xv[1] = xv[2]; xv[2] = xv[3];
 462              		.loc 1 131 0
 463 0208 D0ED015A 		flds	s11, [r0, #4]
 464 020c D0ED024A 		flds	s9, [r0, #8]
 465 0210 90ED035A 		flds	s10, [r0, #12]
 466 0214 C0ED005A 		fsts	s11, [r0]
 467              		.loc 1 132 0
 468 0218 C7EE277A 		fdivs	s15, s14, s15
 131:/home/user/Desktop/STM32-Projekte/FH-Vertibot/src/project_src/filter_Lib.c ****     xv[0] = xv[1]; xv[1] = xv[2]; xv[2] = xv[3];
 469              		.loc 1 131 0
 470 021c 80ED025A 		fsts	s10, [r0, #8]
 471              		.loc 1 132 0
 472 0220 C0ED037A 		fsts	s15, [r0, #12]
 133:/home/user/Desktop/STM32-Projekte/FH-Vertibot/src/project_src/filter_Lib.c ****     yv[0] = yv[1]; yv[1] = yv[2]; yv[2] = yv[3];
 134:/home/user/Desktop/STM32-Projekte/FH-Vertibot/src/project_src/filter_Lib.c ****     yv[3] =   (xv[0] + xv[3]) + 3 * (xv[1] + xv[2])
 473              		.loc 1 134 0
 474 0224 34EE855A 		fadds	s10, s9, s10
 475 0228 75EEA77A 		fadds	s15, s11, s15
 476 022c F0EE085A 		fconsts	s11, #8
 477 0230 E5EE257A 		vfma.f32	s15, s10, s11
 133:/home/user/Desktop/STM32-Projekte/FH-Vertibot/src/project_src/filter_Lib.c ****     yv[0] = yv[1]; yv[1] = yv[2]; yv[2] = yv[3];
 478              		.loc 1 133 0
 479 0234 90ED066A 		flds	s12, [r0, #24]
 135:/home/user/Desktop/STM32-Projekte/FH-Vertibot/src/project_src/filter_Lib.c ****                      + (  0.6855359773 * yv[0]) + ( -2.3146825811 * yv[1])
 480              		.loc 1 135 0
 481 0238 DFED0F5A 		flds	s11, .L32+4
 133:/home/user/Desktop/STM32-Projekte/FH-Vertibot/src/project_src/filter_Lib.c ****     yv[0] = yv[1]; yv[1] = yv[2]; yv[2] = yv[3];
 482              		.loc 1 133 0
 483 023c D0ED076A 		flds	s13, [r0, #28]
 484 0240 80ED056A 		fsts	s12, [r0, #20]
 485              		.loc 1 135 0
 486 0244 E6EE257A 		vfma.f32	s15, s12, s11
 487 0248 9FED0C6A 		flds	s12, .L32+8
 133:/home/user/Desktop/STM32-Projekte/FH-Vertibot/src/project_src/filter_Lib.c ****     yv[0] = yv[1]; yv[1] = yv[2]; yv[2] = yv[3];
 488              		.loc 1 133 0
 489 024c 90ED087A 		flds	s14, [r0, #32]
 490 0250 C0ED066A 		fsts	s13, [r0, #24]
 491              		.loc 1 135 0
 492 0254 E6EE867A 		vfma.f32	s15, s13, s12
 136:/home/user/Desktop/STM32-Projekte/FH-Vertibot/src/project_src/filter_Lib.c ****                      + (  2.6235518066 * yv[2]);
 493              		.loc 1 136 0
 494 0258 DFED096A 		flds	s13, .L32+12
 131:/home/user/Desktop/STM32-Projekte/FH-Vertibot/src/project_src/filter_Lib.c ****     xv[0] = xv[1]; xv[1] = xv[2]; xv[2] = xv[3];
 495              		.loc 1 131 0
 496 025c C0ED014A 		fsts	s9, [r0, #4]
 497              		.loc 1 136 0
 498 0260 E7EE267A 		vfma.f32	s15, s14, s13
 133:/home/user/Desktop/STM32-Projekte/FH-Vertibot/src/project_src/filter_Lib.c ****     yv[0] = yv[1]; yv[1] = yv[2]; yv[2] = yv[3];
 499              		.loc 1 133 0
 500 0264 80ED077A 		fsts	s14, [r0, #28]
 134:/home/user/Desktop/STM32-Projekte/FH-Vertibot/src/project_src/filter_Lib.c ****     yv[3] =   (xv[0] + xv[3]) + 3 * (xv[1] + xv[2])
 501              		.loc 1 134 0
 502 0268 C0ED087A 		fsts	s15, [r0, #32]
 137:/home/user/Desktop/STM32-Projekte/FH-Vertibot/src/project_src/filter_Lib.c ****     value->currentValue = yv[3];
 503              		.loc 1 137 0
 504 026c C0ED0A7A 		fsts	s15, [r0, #40]
 505 0270 7047     		bx	lr
 506              	.L33:
 507 0272 00BF     		.align	2
 508              	.L32:
 509 0274 CCBCB244 		.word	1152564428
 510 0278 497F2F3F 		.word	1060077385
 511 027c C22314C0 		.word	-1072421950
 512 0280 46E82740 		.word	1076357190
 513              		.cfi_endproc
 514              	.LFE7:
 516              		.align	1
 517              		.global	floatFilterGyro
 518              		.thumb
 519              		.thumb_func
 521              	floatFilterGyro:
 522              	.LFB8:
 138:/home/user/Desktop/STM32-Projekte/FH-Vertibot/src/project_src/filter_Lib.c **** }
 139:/home/user/Desktop/STM32-Projekte/FH-Vertibot/src/project_src/filter_Lib.c **** 
 140:/home/user/Desktop/STM32-Projekte/FH-Vertibot/src/project_src/filter_Lib.c **** 
 141:/home/user/Desktop/STM32-Projekte/FH-Vertibot/src/project_src/filter_Lib.c **** 
 142:/home/user/Desktop/STM32-Projekte/FH-Vertibot/src/project_src/filter_Lib.c **** /*
 143:/home/user/Desktop/STM32-Projekte/FH-Vertibot/src/project_src/filter_Lib.c ****  * SampleRate 500Hz, cutoff 200Hz, 4th order Butterworth
 144:/home/user/Desktop/STM32-Projekte/FH-Vertibot/src/project_src/filter_Lib.c ****  * http://www-users.cs.york.ac.uk/~fisher/mkfilter/trad.html
 145:/home/user/Desktop/STM32-Projekte/FH-Vertibot/src/project_src/filter_Lib.c ****  */
 146:/home/user/Desktop/STM32-Projekte/FH-Vertibot/src/project_src/filter_Lib.c **** void floatFilterGyro(floatFilter *value, int newValue)
 147:/home/user/Desktop/STM32-Projekte/FH-Vertibot/src/project_src/filter_Lib.c **** {
 523              		.loc 1 147 0
 524              		.cfi_startproc
 525              		@ args = 0, pretend = 0, frame = 0
 526              		@ frame_needed = 0, uses_anonymous_args = 0
 527              		@ link register save eliminated.
 528              	.LVL38:
 148:/home/user/Desktop/STM32-Projekte/FH-Vertibot/src/project_src/filter_Lib.c **** 	float *xv = &value->filter_xv[0];
 149:/home/user/Desktop/STM32-Projekte/FH-Vertibot/src/project_src/filter_Lib.c **** 	float *yv = &value->filter_yv[0];
 150:/home/user/Desktop/STM32-Projekte/FH-Vertibot/src/project_src/filter_Lib.c **** 
 151:/home/user/Desktop/STM32-Projekte/FH-Vertibot/src/project_src/filter_Lib.c **** 	xv[0] = xv[1]; xv[1] = xv[2]; xv[2] = xv[3]; xv[3] = xv[4];
 152:/home/user/Desktop/STM32-Projekte/FH-Vertibot/src/project_src/filter_Lib.c **** 	xv[4] = (float)newValue / 2.310287053e+00;
 529              		.loc 1 152 0
 530 0284 07EE901A 		fmsr	s15, r1	@ int
 531 0288 B8EEE77A 		fsitos	s14, s15
 532 028c DFED237A 		flds	s15, .L35
 151:/home/user/Desktop/STM32-Projekte/FH-Vertibot/src/project_src/filter_Lib.c **** 	xv[0] = xv[1]; xv[1] = xv[2]; xv[2] = xv[3]; xv[3] = xv[4];
 533              		.loc 1 151 0
 534 0290 D0ED014A 		flds	s9, [r0, #4]
 535 0294 D0ED023A 		flds	s7, [r0, #8]
 536 0298 90ED044A 		flds	s8, [r0, #16]
 537 029c 90ED035A 		flds	s10, [r0, #12]
 538 02a0 80ED034A 		fsts	s8, [r0, #12]
 539              		.loc 1 152 0
 540 02a4 C7EE277A 		fdivs	s15, s14, s15
 153:/home/user/Desktop/STM32-Projekte/FH-Vertibot/src/project_src/filter_Lib.c **** 	yv[0] = yv[1]; yv[1] = yv[2]; yv[2] = yv[3]; yv[3] = yv[4];
 154:/home/user/Desktop/STM32-Projekte/FH-Vertibot/src/project_src/filter_Lib.c **** 	yv[4] =   (xv[0] + xv[4]) + 4 * (xv[1] + xv[3]) + 6 * xv[2]
 541              		.loc 1 154 0
 542 02a8 33EE844A 		fadds	s8, s7, s8
 152:/home/user/Desktop/STM32-Projekte/FH-Vertibot/src/project_src/filter_Lib.c **** 	xv[4] = (float)newValue / 2.310287053e+00;
 543              		.loc 1 152 0
 544 02ac C0ED047A 		fsts	s15, [r0, #16]
 545              		.loc 1 154 0
 546 02b0 74EEA77A 		fadds	s15, s9, s15
 151:/home/user/Desktop/STM32-Projekte/FH-Vertibot/src/project_src/filter_Lib.c **** 	xv[0] = xv[1]; xv[1] = xv[2]; xv[2] = xv[3]; xv[3] = xv[4];
 547              		.loc 1 151 0
 548 02b4 C0ED004A 		fsts	s9, [r0]
 549              		.loc 1 154 0
 550 02b8 F1EE004A 		fconsts	s9, #16
 551 02bc E4EE247A 		vfma.f32	s15, s8, s9
 552 02c0 F1EE084A 		fconsts	s9, #24
 553 02c4 E5EE247A 		vfma.f32	s15, s10, s9
 153:/home/user/Desktop/STM32-Projekte/FH-Vertibot/src/project_src/filter_Lib.c **** 	yv[0] = yv[1]; yv[1] = yv[2]; yv[2] = yv[3]; yv[3] = yv[4];
 554              		.loc 1 153 0
 555 02c8 D0ED065A 		flds	s11, [r0, #24]
 151:/home/user/Desktop/STM32-Projekte/FH-Vertibot/src/project_src/filter_Lib.c **** 	xv[0] = xv[1]; xv[1] = xv[2]; xv[2] = xv[3]; xv[3] = xv[4];
 556              		.loc 1 151 0
 557 02cc 80ED025A 		fsts	s10, [r0, #8]
 155:/home/user/Desktop/STM32-Projekte/FH-Vertibot/src/project_src/filter_Lib.c **** 				 + ( -0.1873794924 * yv[0]) + ( -1.0546654059 * yv[1])
 558              		.loc 1 155 0
 559 02d0 9FED135A 		flds	s10, .L35+4
 153:/home/user/Desktop/STM32-Projekte/FH-Vertibot/src/project_src/filter_Lib.c **** 	yv[0] = yv[1]; yv[1] = yv[2]; yv[2] = yv[3]; yv[3] = yv[4];
 560              		.loc 1 153 0
 561 02d4 90ED076A 		flds	s12, [r0, #28]
 562 02d8 C0ED055A 		fsts	s11, [r0, #20]
 563              		.loc 1 155 0
 564 02dc E5EE857A 		vfma.f32	s15, s11, s10
 565 02e0 DFED105A 		flds	s11, .L35+8
 153:/home/user/Desktop/STM32-Projekte/FH-Vertibot/src/project_src/filter_Lib.c **** 	yv[0] = yv[1]; yv[1] = yv[2]; yv[2] = yv[3]; yv[3] = yv[4];
 566              		.loc 1 153 0
 567 02e4 D0ED086A 		flds	s13, [r0, #32]
 568 02e8 80ED066A 		fsts	s12, [r0, #24]
 569              		.loc 1 155 0
 570 02ec E6EE257A 		vfma.f32	s15, s12, s11
 156:/home/user/Desktop/STM32-Projekte/FH-Vertibot/src/project_src/filter_Lib.c **** 				 + ( -2.3139884144 * yv[2]) + ( -2.3695130072 * yv[3]);
 571              		.loc 1 156 0
 572 02f0 9FED0D6A 		flds	s12, .L35+12
 153:/home/user/Desktop/STM32-Projekte/FH-Vertibot/src/project_src/filter_Lib.c **** 	yv[0] = yv[1]; yv[1] = yv[2]; yv[2] = yv[3]; yv[3] = yv[4];
 573              		.loc 1 153 0
 574 02f4 90ED097A 		flds	s14, [r0, #36]
 575 02f8 C0ED076A 		fsts	s13, [r0, #28]
 576              		.loc 1 156 0
 577 02fc E6EE867A 		vfma.f32	s15, s13, s12
 578 0300 DFED0A6A 		flds	s13, .L35+16
 151:/home/user/Desktop/STM32-Projekte/FH-Vertibot/src/project_src/filter_Lib.c **** 	xv[0] = xv[1]; xv[1] = xv[2]; xv[2] = xv[3]; xv[3] = xv[4];
 579              		.loc 1 151 0
 580 0304 C0ED013A 		fsts	s7, [r0, #4]
 581              		.loc 1 156 0
 582 0308 E7EE267A 		vfma.f32	s15, s14, s13
 153:/home/user/Desktop/STM32-Projekte/FH-Vertibot/src/project_src/filter_Lib.c **** 	yv[0] = yv[1]; yv[1] = yv[2]; yv[2] = yv[3]; yv[3] = yv[4];
 583              		.loc 1 153 0
 584 030c 80ED087A 		fsts	s14, [r0, #32]
 154:/home/user/Desktop/STM32-Projekte/FH-Vertibot/src/project_src/filter_Lib.c **** 	yv[4] =   (xv[0] + xv[4]) + 4 * (xv[1] + xv[3]) + 6 * xv[2]
 585              		.loc 1 154 0
 586 0310 C0ED097A 		fsts	s15, [r0, #36]
 157:/home/user/Desktop/STM32-Projekte/FH-Vertibot/src/project_src/filter_Lib.c **** 	value->currentValue = yv[4];
 587              		.loc 1 157 0
 588 0314 C0ED0A7A 		fsts	s15, [r0, #40]
 589 0318 7047     		bx	lr
 590              	.L36:
 591 031a 00BF     		.align	2
 592              	.L35:
 593 031c BEDB1340 		.word	1075043262
 594 0320 69E03FBE 		.word	-1103110039
 595 0324 47FF86BF 		.word	-1081671865
 596 0328 631814C0 		.word	-1072424861
 597 032c 1AA617C0 		.word	-1072191974
 598              		.cfi_endproc
 599              	.LFE8:
 601              	.Letext0:
 602              		.file 2 "/home/user/Desktop/STM32-Projekte/FH-Vertibot/src/project_inc/filter_Lib.h"
 603              		.file 3 "/home/user/gcc-arm-none-eabi-4_8-2013q4/arm-none-eabi/include/math.h"