   1              		.syntax unified
   2              		.cpu cortex-m4
   3              		.eabi_attribute 27, 3
   4              		.eabi_attribute 28, 1
   5              		.fpu fpv4-sp-d16
   6              		.eabi_attribute 20, 1
   7              		.eabi_attribute 21, 1
   8              		.eabi_attribute 23, 3
   9              		.eabi_attribute 24, 1
  10              		.eabi_attribute 25, 1
  11              		.eabi_attribute 26, 1
  12              		.eabi_attribute 30, 4
  13              		.eabi_attribute 34, 1
  14              		.eabi_attribute 18, 4
  15              		.thumb
  16              		.file	"IMU_algorithm.c"
  17              		.text
  18              	.Ltext0:
  19              		.cfi_sections	.debug_frame
  20              		.align	1
  21              		.global	IMU_init
  22              		.thumb
  23              		.thumb_func
  25              	IMU_init:
  26              	.LFB0:
  27              		.file 1 "/home/user/Desktop/STM32-Projekte/FH-Vertibot/src/project_src/IMU_algorithm.c"
   1:/home/user/Desktop/STM32-Projekte/FH-Vertibot/src/project_src/IMU_algorithm.c **** #include <IMU_algorithm.h>
   2:/home/user/Desktop/STM32-Projekte/FH-Vertibot/src/project_src/IMU_algorithm.c **** #include <Vector_math.h>
   3:/home/user/Desktop/STM32-Projekte/FH-Vertibot/src/project_src/IMU_algorithm.c **** #include <math.h>
   4:/home/user/Desktop/STM32-Projekte/FH-Vertibot/src/project_src/IMU_algorithm.c **** #include <stdio.h>
   5:/home/user/Desktop/STM32-Projekte/FH-Vertibot/src/project_src/IMU_algorithm.c **** 
   6:/home/user/Desktop/STM32-Projekte/FH-Vertibot/src/project_src/IMU_algorithm.c **** 
   7:/home/user/Desktop/STM32-Projekte/FH-Vertibot/src/project_src/IMU_algorithm.c **** //! Initialization of the main dcm-variables used for the Gyro input
   8:/home/user/Desktop/STM32-Projekte/FH-Vertibot/src/project_src/IMU_algorithm.c **** void IMU_init(struct IMU_values *IMU, float dt)
   9:/home/user/Desktop/STM32-Projekte/FH-Vertibot/src/project_src/IMU_algorithm.c **** {
  28              		.loc 1 9 0
  29              		.cfi_startproc
  30              		@ args = 0, pretend = 0, frame = 0
  31              		@ frame_needed = 0, uses_anonymous_args = 0
  32              		@ link register save eliminated.
  33              	.LVL0:
  10:/home/user/Desktop/STM32-Projekte/FH-Vertibot/src/project_src/IMU_algorithm.c **** 	IMU->dt = dt;	
  11:/home/user/Desktop/STM32-Projekte/FH-Vertibot/src/project_src/IMU_algorithm.c **** 
  12:/home/user/Desktop/STM32-Projekte/FH-Vertibot/src/project_src/IMU_algorithm.c **** 	IMU->dcm_xe_line[0] = 1;
  13:/home/user/Desktop/STM32-Projekte/FH-Vertibot/src/project_src/IMU_algorithm.c **** 	IMU->dcm_xe_line[1] = 0;
  34              		.loc 1 13 0
  35 0000 0023     		movs	r3, #0
  12:/home/user/Desktop/STM32-Projekte/FH-Vertibot/src/project_src/IMU_algorithm.c **** 	IMU->dcm_xe_line[0] = 1;
  36              		.loc 1 12 0
  37 0002 4FF07E52 		mov	r2, #1065353216
  10:/home/user/Desktop/STM32-Projekte/FH-Vertibot/src/project_src/IMU_algorithm.c **** 	IMU->dt = dt;	
  38              		.loc 1 10 0
  39 0006 80ED000A 		fsts	s0, [r0, #0]
  12:/home/user/Desktop/STM32-Projekte/FH-Vertibot/src/project_src/IMU_algorithm.c **** 	IMU->dcm_xe_line[0] = 1;
  40              		.loc 1 12 0
  41 000a 4260     		str	r2, [r0, #4]	@ float
  42              		.loc 1 13 0
  43 000c 8360     		str	r3, [r0, #8]	@ float
  14:/home/user/Desktop/STM32-Projekte/FH-Vertibot/src/project_src/IMU_algorithm.c **** 	IMU->dcm_xe_line[2] = 0;
  44              		.loc 1 14 0
  45 000e C360     		str	r3, [r0, #12]	@ float
  15:/home/user/Desktop/STM32-Projekte/FH-Vertibot/src/project_src/IMU_algorithm.c **** 
  16:/home/user/Desktop/STM32-Projekte/FH-Vertibot/src/project_src/IMU_algorithm.c **** 	IMU->dcm_ye_line[0] = 0;
  46              		.loc 1 16 0
  47 0010 0361     		str	r3, [r0, #16]	@ float
  17:/home/user/Desktop/STM32-Projekte/FH-Vertibot/src/project_src/IMU_algorithm.c **** 	IMU->dcm_ye_line[1] = 1;
  48              		.loc 1 17 0
  49 0012 4261     		str	r2, [r0, #20]	@ float
  18:/home/user/Desktop/STM32-Projekte/FH-Vertibot/src/project_src/IMU_algorithm.c **** 	IMU->dcm_ye_line[2] = 0;
  50              		.loc 1 18 0
  51 0014 8361     		str	r3, [r0, #24]	@ float
  19:/home/user/Desktop/STM32-Projekte/FH-Vertibot/src/project_src/IMU_algorithm.c **** 
  20:/home/user/Desktop/STM32-Projekte/FH-Vertibot/src/project_src/IMU_algorithm.c **** 	IMU->dcm_ze_line[0] = 0;
  52              		.loc 1 20 0
  53 0016 C361     		str	r3, [r0, #28]	@ float
  21:/home/user/Desktop/STM32-Projekte/FH-Vertibot/src/project_src/IMU_algorithm.c **** 	IMU->dcm_ze_line[1] = 0;
  54              		.loc 1 21 0
  55 0018 0362     		str	r3, [r0, #32]	@ float
  22:/home/user/Desktop/STM32-Projekte/FH-Vertibot/src/project_src/IMU_algorithm.c **** 	IMU->dcm_ze_line[2] = 1;			
  56              		.loc 1 22 0
  57 001a 4262     		str	r2, [r0, #36]	@ float
  23:/home/user/Desktop/STM32-Projekte/FH-Vertibot/src/project_src/IMU_algorithm.c **** 
  24:/home/user/Desktop/STM32-Projekte/FH-Vertibot/src/project_src/IMU_algorithm.c **** 	IMU->velocity_vector[0] = 0;
  58              		.loc 1 24 0
  59 001c 8362     		str	r3, [r0, #40]	@ float
  25:/home/user/Desktop/STM32-Projekte/FH-Vertibot/src/project_src/IMU_algorithm.c **** 	IMU->velocity_vector[1] = 0;
  60              		.loc 1 25 0
  61 001e C362     		str	r3, [r0, #44]	@ float
  26:/home/user/Desktop/STM32-Projekte/FH-Vertibot/src/project_src/IMU_algorithm.c **** 	IMU->velocity_vector[2] = 0;
  62              		.loc 1 26 0
  63 0020 0363     		str	r3, [r0, #48]	@ float
  64 0022 7047     		bx	lr
  65              		.cfi_endproc
  66              	.LFE0:
  68              		.align	1
  69              		.global	IMU_init_drift_correction
  70              		.thumb
  71              		.thumb_func
  73              	IMU_init_drift_correction:
  74              	.LFB1:
  27:/home/user/Desktop/STM32-Projekte/FH-Vertibot/src/project_src/IMU_algorithm.c **** }
  28:/home/user/Desktop/STM32-Projekte/FH-Vertibot/src/project_src/IMU_algorithm.c **** 
  29:/home/user/Desktop/STM32-Projekte/FH-Vertibot/src/project_src/IMU_algorithm.c **** 
  30:/home/user/Desktop/STM32-Projekte/FH-Vertibot/src/project_src/IMU_algorithm.c **** //! Initialization of the drift-correction variables - this is mainly solved with a PI-Controller
  31:/home/user/Desktop/STM32-Projekte/FH-Vertibot/src/project_src/IMU_algorithm.c **** void IMU_init_drift_correction(struct IMU_values *IMU, float kp)
  32:/home/user/Desktop/STM32-Projekte/FH-Vertibot/src/project_src/IMU_algorithm.c **** {
  75              		.loc 1 32 0
  76              		.cfi_startproc
  77              		@ args = 0, pretend = 0, frame = 0
  78              		@ frame_needed = 0, uses_anonymous_args = 0
  79              		@ link register save eliminated.
  80              	.LVL1:
  33:/home/user/Desktop/STM32-Projekte/FH-Vertibot/src/project_src/IMU_algorithm.c **** 	IMU->kp = kp;
  34:/home/user/Desktop/STM32-Projekte/FH-Vertibot/src/project_src/IMU_algorithm.c **** 
  35:/home/user/Desktop/STM32-Projekte/FH-Vertibot/src/project_src/IMU_algorithm.c **** 	IMU->accel_vector[0] = 0;
  81              		.loc 1 35 0
  82 0024 0023     		movs	r3, #0
  33:/home/user/Desktop/STM32-Projekte/FH-Vertibot/src/project_src/IMU_algorithm.c **** 	IMU->kp = kp;
  83              		.loc 1 33 0
  84 0026 80ED130A 		fsts	s0, [r0, #76]
  85              		.loc 1 35 0
  86 002a 4363     		str	r3, [r0, #52]	@ float
  36:/home/user/Desktop/STM32-Projekte/FH-Vertibot/src/project_src/IMU_algorithm.c **** 	IMU->accel_vector[1] = 0;
  87              		.loc 1 36 0
  88 002c 8363     		str	r3, [r0, #56]	@ float
  37:/home/user/Desktop/STM32-Projekte/FH-Vertibot/src/project_src/IMU_algorithm.c **** 	IMU->accel_vector[2] = 0;
  89              		.loc 1 37 0
  90 002e C363     		str	r3, [r0, #60]	@ float
  38:/home/user/Desktop/STM32-Projekte/FH-Vertibot/src/project_src/IMU_algorithm.c **** 
  39:/home/user/Desktop/STM32-Projekte/FH-Vertibot/src/project_src/IMU_algorithm.c **** 	IMU->mag_vector[0] = 0;
  91              		.loc 1 39 0
  92 0030 0364     		str	r3, [r0, #64]	@ float
  40:/home/user/Desktop/STM32-Projekte/FH-Vertibot/src/project_src/IMU_algorithm.c **** 	IMU->mag_vector[1] = 0;
  93              		.loc 1 40 0
  94 0032 4364     		str	r3, [r0, #68]	@ float
  41:/home/user/Desktop/STM32-Projekte/FH-Vertibot/src/project_src/IMU_algorithm.c **** 	IMU->mag_vector[2] = 0;
  95              		.loc 1 41 0
  96 0034 8364     		str	r3, [r0, #72]	@ float
  42:/home/user/Desktop/STM32-Projekte/FH-Vertibot/src/project_src/IMU_algorithm.c **** 
  43:/home/user/Desktop/STM32-Projekte/FH-Vertibot/src/project_src/IMU_algorithm.c **** 	IMU->kp_vector_ACC[0] = 0;
  97              		.loc 1 43 0
  98 0036 0366     		str	r3, [r0, #96]	@ float
  44:/home/user/Desktop/STM32-Projekte/FH-Vertibot/src/project_src/IMU_algorithm.c **** 	IMU->kp_vector_ACC[1] = 0;
  99              		.loc 1 44 0
 100 0038 4366     		str	r3, [r0, #100]	@ float
  45:/home/user/Desktop/STM32-Projekte/FH-Vertibot/src/project_src/IMU_algorithm.c **** 	IMU->kp_vector_ACC[2] = 0;
 101              		.loc 1 45 0
 102 003a 8366     		str	r3, [r0, #104]	@ float
  46:/home/user/Desktop/STM32-Projekte/FH-Vertibot/src/project_src/IMU_algorithm.c **** 
  47:/home/user/Desktop/STM32-Projekte/FH-Vertibot/src/project_src/IMU_algorithm.c **** 	IMU->kp_vector_MAG[0] = 0;
 103              		.loc 1 47 0
 104 003c C366     		str	r3, [r0, #108]	@ float
  48:/home/user/Desktop/STM32-Projekte/FH-Vertibot/src/project_src/IMU_algorithm.c **** 	IMU->kp_vector_MAG[1] = 0;
 105              		.loc 1 48 0
 106 003e 0367     		str	r3, [r0, #112]	@ float
  49:/home/user/Desktop/STM32-Projekte/FH-Vertibot/src/project_src/IMU_algorithm.c **** 	IMU->kp_vector_MAG[2] = 0;
 107              		.loc 1 49 0
 108 0040 4367     		str	r3, [r0, #116]	@ float
  50:/home/user/Desktop/STM32-Projekte/FH-Vertibot/src/project_src/IMU_algorithm.c **** 
  51:/home/user/Desktop/STM32-Projekte/FH-Vertibot/src/project_src/IMU_algorithm.c **** 	IMU->error_rollpitch[0] = 0;
 109              		.loc 1 51 0
 110 0042 0365     		str	r3, [r0, #80]	@ float
  52:/home/user/Desktop/STM32-Projekte/FH-Vertibot/src/project_src/IMU_algorithm.c **** 	IMU->error_rollpitch[1] = 0;
 111              		.loc 1 52 0
 112 0044 4365     		str	r3, [r0, #84]	@ float
  53:/home/user/Desktop/STM32-Projekte/FH-Vertibot/src/project_src/IMU_algorithm.c **** 	IMU->error_rollpitch[2] = 0;
 113              		.loc 1 53 0
 114 0046 8365     		str	r3, [r0, #88]	@ float
  54:/home/user/Desktop/STM32-Projekte/FH-Vertibot/src/project_src/IMU_algorithm.c **** 
  55:/home/user/Desktop/STM32-Projekte/FH-Vertibot/src/project_src/IMU_algorithm.c **** 	IMU->error_yaw = 0;
 115              		.loc 1 55 0
 116 0048 C365     		str	r3, [r0, #92]	@ float
 117 004a 7047     		bx	lr
 118              		.cfi_endproc
 119              	.LFE1:
 121              		.align	1
 122              		.global	IMU_update
 123              		.thumb
 124              		.thumb_func
 126              	IMU_update:
 127              	.LFB2:
  56:/home/user/Desktop/STM32-Projekte/FH-Vertibot/src/project_src/IMU_algorithm.c **** }
  57:/home/user/Desktop/STM32-Projekte/FH-Vertibot/src/project_src/IMU_algorithm.c **** 
  58:/home/user/Desktop/STM32-Projekte/FH-Vertibot/src/project_src/IMU_algorithm.c **** 
  59:/home/user/Desktop/STM32-Projekte/FH-Vertibot/src/project_src/IMU_algorithm.c **** //! Update of the dcm-matrix
  60:/home/user/Desktop/STM32-Projekte/FH-Vertibot/src/project_src/IMU_algorithm.c **** void IMU_update(struct IMU_values *IMU)
  61:/home/user/Desktop/STM32-Projekte/FH-Vertibot/src/project_src/IMU_algorithm.c **** {
 128              		.loc 1 61 0
 129              		.cfi_startproc
 130              		@ args = 0, pretend = 0, frame = 16
 131              		@ frame_needed = 0, uses_anonymous_args = 0
 132              	.LVL2:
  62:/home/user/Desktop/STM32-Projekte/FH-Vertibot/src/project_src/IMU_algorithm.c **** 	float result[3];
  63:/home/user/Desktop/STM32-Projekte/FH-Vertibot/src/project_src/IMU_algorithm.c **** 
  64:/home/user/Desktop/STM32-Projekte/FH-Vertibot/src/project_src/IMU_algorithm.c **** 	/*dt-factor + addition of omega_vector, which holds the PI-Values*/
  65:/home/user/Desktop/STM32-Projekte/FH-Vertibot/src/project_src/IMU_algorithm.c **** 	IMU->velocity_vector[0] = (IMU->velocity_vector[0]*IMU->dt) - (IMU->kp_vector_ACC[0]) - (IMU->kp_v
 133              		.loc 1 65 0
 134 004c 90ED007A 		flds	s14, [r0, #0]
 135 0050 D0ED0A6A 		flds	s13, [r0, #40]
 136 0054 D0ED187A 		flds	s15, [r0, #96]
 137 0058 57EE267A 		fmscs	s15, s14, s13
 138 005c D0ED1B6A 		flds	s13, [r0, #108]
 139 0060 77EEE67A 		fsubs	s15, s15, s13
  61:/home/user/Desktop/STM32-Projekte/FH-Vertibot/src/project_src/IMU_algorithm.c **** {
 140              		.loc 1 61 0
 141 0064 7FB5     		push	{r0, r1, r2, r3, r4, r5, r6, lr}
 142              	.LCFI0:
 143              		.cfi_def_cfa_offset 32
 144              		.cfi_offset 0, -32
 145              		.cfi_offset 1, -28
 146              		.cfi_offset 2, -24
 147              		.cfi_offset 3, -20
 148              		.cfi_offset 4, -16
 149              		.cfi_offset 5, -12
 150              		.cfi_offset 6, -8
 151              		.cfi_offset 14, -4
  66:/home/user/Desktop/STM32-Projekte/FH-Vertibot/src/project_src/IMU_algorithm.c **** 	IMU->velocity_vector[1] = (IMU->velocity_vector[1]*IMU->dt) - (IMU->kp_vector_ACC[1]) - (IMU->kp_v
 152              		.loc 1 66 0
 153 0066 D0ED0B6A 		flds	s13, [r0, #44]
  65:/home/user/Desktop/STM32-Projekte/FH-Vertibot/src/project_src/IMU_algorithm.c **** 	IMU->velocity_vector[0] = (IMU->velocity_vector[0]*IMU->dt) - (IMU->kp_vector_ACC[0]) - (IMU->kp_v
 154              		.loc 1 65 0
 155 006a C0ED0A7A 		fsts	s15, [r0, #40]
 156              		.loc 1 66 0
 157 006e D0ED197A 		flds	s15, [r0, #100]
 158 0072 57EE267A 		fmscs	s15, s14, s13
 159 0076 D0ED1C6A 		flds	s13, [r0, #112]
 160 007a 77EEE67A 		fsubs	s15, s15, s13
  67:/home/user/Desktop/STM32-Projekte/FH-Vertibot/src/project_src/IMU_algorithm.c **** 	IMU->velocity_vector[2] = (IMU->velocity_vector[2]*IMU->dt) - (IMU->kp_vector_ACC[2]) - (IMU->kp_v
 161              		.loc 1 67 0
 162 007e D0ED0C6A 		flds	s13, [r0, #48]
  66:/home/user/Desktop/STM32-Projekte/FH-Vertibot/src/project_src/IMU_algorithm.c **** 	IMU->velocity_vector[1] = (IMU->velocity_vector[1]*IMU->dt) - (IMU->kp_vector_ACC[1]) - (IMU->kp_v
 163              		.loc 1 66 0
 164 0082 C0ED0B7A 		fsts	s15, [r0, #44]
 165              		.loc 1 67 0
 166 0086 D0ED1A7A 		flds	s15, [r0, #104]
 167 008a 57EE267A 		fmscs	s15, s14, s13
 168 008e 90ED1D7A 		flds	s14, [r0, #116]
 169 0092 77EEC77A 		fsubs	s15, s15, s14
  68:/home/user/Desktop/STM32-Projekte/FH-Vertibot/src/project_src/IMU_algorithm.c **** 
  69:/home/user/Desktop/STM32-Projekte/FH-Vertibot/src/project_src/IMU_algorithm.c **** 	/*Update of the first dcm-line (xe)*/
  70:/home/user/Desktop/STM32-Projekte/FH-Vertibot/src/project_src/IMU_algorithm.c **** 	VectorCrossProduct(result, IMU->dcm_xe_line, IMU->velocity_vector);
 170              		.loc 1 70 0
 171 0096 061D     		adds	r6, r0, #4
 172 0098 00F12805 		add	r5, r0, #40
  67:/home/user/Desktop/STM32-Projekte/FH-Vertibot/src/project_src/IMU_algorithm.c **** 	IMU->velocity_vector[2] = (IMU->velocity_vector[2]*IMU->dt) - (IMU->kp_vector_ACC[2]) - (IMU->kp_v
 173              		.loc 1 67 0
 174 009c C0ED0C7A 		fsts	s15, [r0, #48]
  61:/home/user/Desktop/STM32-Projekte/FH-Vertibot/src/project_src/IMU_algorithm.c **** {
 175              		.loc 1 61 0
 176 00a0 0446     		mov	r4, r0
 177              		.loc 1 70 0
 178 00a2 3146     		mov	r1, r6
 179 00a4 01A8     		add	r0, sp, #4
 180              	.LVL3:
 181 00a6 2A46     		mov	r2, r5
 182 00a8 FFF7FEFF 		bl	VectorCrossProduct
 183              	.LVL4:
  71:/home/user/Desktop/STM32-Projekte/FH-Vertibot/src/project_src/IMU_algorithm.c **** 	VectorAdd(IMU->dcm_xe_line, IMU->dcm_xe_line, result);
 184              		.loc 1 71 0
 185 00ac 3046     		mov	r0, r6
 186 00ae 3146     		mov	r1, r6
 187 00b0 01AA     		add	r2, sp, #4
  72:/home/user/Desktop/STM32-Projekte/FH-Vertibot/src/project_src/IMU_algorithm.c **** 
  73:/home/user/Desktop/STM32-Projekte/FH-Vertibot/src/project_src/IMU_algorithm.c **** 	/*Update of the second dcm-line(ye)*/
  74:/home/user/Desktop/STM32-Projekte/FH-Vertibot/src/project_src/IMU_algorithm.c **** 	VectorCrossProduct(result, IMU->dcm_ye_line, IMU->velocity_vector);
 188              		.loc 1 74 0
 189 00b2 04F11006 		add	r6, r4, #16
  71:/home/user/Desktop/STM32-Projekte/FH-Vertibot/src/project_src/IMU_algorithm.c **** 	VectorAdd(IMU->dcm_xe_line, IMU->dcm_xe_line, result);
 190              		.loc 1 71 0
 191 00b6 FFF7FEFF 		bl	VectorAdd
 192              	.LVL5:
 193              		.loc 1 74 0
 194 00ba 01A8     		add	r0, sp, #4
 195 00bc 3146     		mov	r1, r6
 196 00be 2A46     		mov	r2, r5
 197 00c0 FFF7FEFF 		bl	VectorCrossProduct
 198              	.LVL6:
  75:/home/user/Desktop/STM32-Projekte/FH-Vertibot/src/project_src/IMU_algorithm.c **** 	VectorAdd(IMU->dcm_ye_line, IMU->dcm_ye_line, result);
  76:/home/user/Desktop/STM32-Projekte/FH-Vertibot/src/project_src/IMU_algorithm.c **** 
  77:/home/user/Desktop/STM32-Projekte/FH-Vertibot/src/project_src/IMU_algorithm.c **** 	/*Update of the second dcm-line(ze)*/
  78:/home/user/Desktop/STM32-Projekte/FH-Vertibot/src/project_src/IMU_algorithm.c **** 	VectorCrossProduct(result, IMU->dcm_ze_line, IMU->velocity_vector);
 199              		.loc 1 78 0
 200 00c4 1C34     		adds	r4, r4, #28
 201              	.LVL7:
  75:/home/user/Desktop/STM32-Projekte/FH-Vertibot/src/project_src/IMU_algorithm.c **** 	VectorAdd(IMU->dcm_ye_line, IMU->dcm_ye_line, result);
 202              		.loc 1 75 0
 203 00c6 3046     		mov	r0, r6
 204 00c8 3146     		mov	r1, r6
 205 00ca 01AA     		add	r2, sp, #4
 206 00cc FFF7FEFF 		bl	VectorAdd
 207              	.LVL8:
 208              		.loc 1 78 0
 209 00d0 01A8     		add	r0, sp, #4
 210 00d2 2146     		mov	r1, r4
 211 00d4 2A46     		mov	r2, r5
 212 00d6 FFF7FEFF 		bl	VectorCrossProduct
 213              	.LVL9:
  79:/home/user/Desktop/STM32-Projekte/FH-Vertibot/src/project_src/IMU_algorithm.c **** 	VectorAdd(IMU->dcm_ze_line, IMU->dcm_ze_line, result);
 214              		.loc 1 79 0
 215 00da 2046     		mov	r0, r4
 216 00dc 2146     		mov	r1, r4
 217 00de 01AA     		add	r2, sp, #4
 218 00e0 FFF7FEFF 		bl	VectorAdd
 219              	.LVL10:
  80:/home/user/Desktop/STM32-Projekte/FH-Vertibot/src/project_src/IMU_algorithm.c **** }
 220              		.loc 1 80 0
 221 00e4 7FBD     		pop	{r0, r1, r2, r3, r4, r5, r6, pc}
 222              		.cfi_endproc
 223              	.LFE2:
 225              		.align	1
 226              		.global	IMU_normalize
 227              		.thumb
 228              		.thumb_func
 230              	IMU_normalize:
 231              	.LFB3:
  81:/home/user/Desktop/STM32-Projekte/FH-Vertibot/src/project_src/IMU_algorithm.c **** 
  82:/home/user/Desktop/STM32-Projekte/FH-Vertibot/src/project_src/IMU_algorithm.c **** 
  83:/home/user/Desktop/STM32-Projekte/FH-Vertibot/src/project_src/IMU_algorithm.c **** //! Normalization of the vectors
  84:/home/user/Desktop/STM32-Projekte/FH-Vertibot/src/project_src/IMU_algorithm.c **** void IMU_normalize(struct IMU_values *IMU)
  85:/home/user/Desktop/STM32-Projekte/FH-Vertibot/src/project_src/IMU_algorithm.c **** {
 232              		.loc 1 85 0
 233              		.cfi_startproc
 234              		@ args = 0, pretend = 0, frame = 0
 235              		@ frame_needed = 0, uses_anonymous_args = 0
 236              	.LVL11:
  86:/home/user/Desktop/STM32-Projekte/FH-Vertibot/src/project_src/IMU_algorithm.c **** 	float normfactor;
  87:/home/user/Desktop/STM32-Projekte/FH-Vertibot/src/project_src/IMU_algorithm.c **** 	normfactor = sqrtf(IMU->dcm_xe_line[0]*IMU->dcm_xe_line[0] + IMU->dcm_xe_line[1]*IMU->dcm_xe_line[
 237              		.loc 1 87 0
 238 00e6 90ED020A 		flds	s0, [r0, #8]
 239 00ea 90ED017A 		flds	s14, [r0, #4]
 240 00ee 20EE000A 		fmuls	s0, s0, s0
 241 00f2 07EE070A 		fmacs	s0, s14, s14
 242 00f6 D0ED037A 		flds	s15, [r0, #12]
  85:/home/user/Desktop/STM32-Projekte/FH-Vertibot/src/project_src/IMU_algorithm.c **** {
 243              		.loc 1 85 0
 244 00fa 10B5     		push	{r4, lr}
 245              	.LCFI1:
 246              		.cfi_def_cfa_offset 8
 247              		.cfi_offset 4, -8
 248              		.cfi_offset 14, -4
 249              		.loc 1 87 0
 250 00fc 07EEA70A 		fmacs	s0, s15, s15
  85:/home/user/Desktop/STM32-Projekte/FH-Vertibot/src/project_src/IMU_algorithm.c **** {
 251              		.loc 1 85 0
 252 0100 0446     		mov	r4, r0
 253              		.loc 1 87 0
 254 0102 FFF7FEFF 		bl	sqrtf
 255              	.LVL12:
  88:/home/user/Desktop/STM32-Projekte/FH-Vertibot/src/project_src/IMU_algorithm.c **** 	IMU->dcm_xe_line[0] = IMU->dcm_xe_line[0]/normfactor;	
 256              		.loc 1 88 0
 257 0106 D4ED017A 		flds	s15, [r4, #4]
 258 010a C7EE807A 		fdivs	s15, s15, s0
  89:/home/user/Desktop/STM32-Projekte/FH-Vertibot/src/project_src/IMU_algorithm.c **** 	IMU->dcm_xe_line[1] = IMU->dcm_xe_line[1]/normfactor;	
  90:/home/user/Desktop/STM32-Projekte/FH-Vertibot/src/project_src/IMU_algorithm.c **** 	IMU->dcm_xe_line[2] = IMU->dcm_xe_line[2]/normfactor;	
  91:/home/user/Desktop/STM32-Projekte/FH-Vertibot/src/project_src/IMU_algorithm.c **** 
  92:/home/user/Desktop/STM32-Projekte/FH-Vertibot/src/project_src/IMU_algorithm.c **** 	normfactor = sqrtf(IMU->dcm_ye_line[0]*IMU->dcm_ye_line[0] + IMU->dcm_ye_line[1]*IMU->dcm_ye_line[
 259              		.loc 1 92 0
 260 010e 94ED047A 		flds	s14, [r4, #16]
  88:/home/user/Desktop/STM32-Projekte/FH-Vertibot/src/project_src/IMU_algorithm.c **** 	IMU->dcm_xe_line[0] = IMU->dcm_xe_line[0]/normfactor;	
 261              		.loc 1 88 0
 262 0112 C4ED017A 		fsts	s15, [r4, #4]
  89:/home/user/Desktop/STM32-Projekte/FH-Vertibot/src/project_src/IMU_algorithm.c **** 	IMU->dcm_xe_line[1] = IMU->dcm_xe_line[1]/normfactor;	
 263              		.loc 1 89 0
 264 0116 D4ED027A 		flds	s15, [r4, #8]
 265 011a C7EE807A 		fdivs	s15, s15, s0
 266 011e C4ED027A 		fsts	s15, [r4, #8]
  90:/home/user/Desktop/STM32-Projekte/FH-Vertibot/src/project_src/IMU_algorithm.c **** 	IMU->dcm_xe_line[2] = IMU->dcm_xe_line[2]/normfactor;	
 267              		.loc 1 90 0
 268 0122 D4ED037A 		flds	s15, [r4, #12]
 269 0126 C7EE807A 		fdivs	s15, s15, s0
 270              		.loc 1 92 0
 271 012a 94ED050A 		flds	s0, [r4, #20]
 272              	.LVL13:
 273 012e 20EE000A 		fmuls	s0, s0, s0
 274 0132 07EE070A 		fmacs	s0, s14, s14
  90:/home/user/Desktop/STM32-Projekte/FH-Vertibot/src/project_src/IMU_algorithm.c **** 	IMU->dcm_xe_line[2] = IMU->dcm_xe_line[2]/normfactor;	
 275              		.loc 1 90 0
 276 0136 C4ED037A 		fsts	s15, [r4, #12]
 277              		.loc 1 92 0
 278 013a D4ED067A 		flds	s15, [r4, #24]
 279 013e 07EEA70A 		fmacs	s0, s15, s15
 280 0142 FFF7FEFF 		bl	sqrtf
 281              	.LVL14:
  93:/home/user/Desktop/STM32-Projekte/FH-Vertibot/src/project_src/IMU_algorithm.c **** 	IMU->dcm_ye_line[0] = IMU->dcm_ye_line[0]/normfactor;	
 282              		.loc 1 93 0
 283 0146 D4ED047A 		flds	s15, [r4, #16]
 284 014a C7EE807A 		fdivs	s15, s15, s0
  94:/home/user/Desktop/STM32-Projekte/FH-Vertibot/src/project_src/IMU_algorithm.c **** 	IMU->dcm_ye_line[1] = IMU->dcm_ye_line[1]/normfactor;	
  95:/home/user/Desktop/STM32-Projekte/FH-Vertibot/src/project_src/IMU_algorithm.c **** 	IMU->dcm_ye_line[2] = IMU->dcm_ye_line[2]/normfactor;	
  96:/home/user/Desktop/STM32-Projekte/FH-Vertibot/src/project_src/IMU_algorithm.c **** 
  97:/home/user/Desktop/STM32-Projekte/FH-Vertibot/src/project_src/IMU_algorithm.c **** 	normfactor = sqrtf(IMU->dcm_ze_line[0]*IMU->dcm_ze_line[0] + IMU->dcm_ze_line[1]*IMU->dcm_ze_line[
 285              		.loc 1 97 0
 286 014e 94ED077A 		flds	s14, [r4, #28]
  93:/home/user/Desktop/STM32-Projekte/FH-Vertibot/src/project_src/IMU_algorithm.c **** 	IMU->dcm_ye_line[0] = IMU->dcm_ye_line[0]/normfactor;	
 287              		.loc 1 93 0
 288 0152 C4ED047A 		fsts	s15, [r4, #16]
  94:/home/user/Desktop/STM32-Projekte/FH-Vertibot/src/project_src/IMU_algorithm.c **** 	IMU->dcm_ye_line[1] = IMU->dcm_ye_line[1]/normfactor;	
 289              		.loc 1 94 0
 290 0156 D4ED057A 		flds	s15, [r4, #20]
 291 015a C7EE807A 		fdivs	s15, s15, s0
 292 015e C4ED057A 		fsts	s15, [r4, #20]
  95:/home/user/Desktop/STM32-Projekte/FH-Vertibot/src/project_src/IMU_algorithm.c **** 	IMU->dcm_ye_line[2] = IMU->dcm_ye_line[2]/normfactor;	
 293              		.loc 1 95 0
 294 0162 D4ED067A 		flds	s15, [r4, #24]
 295 0166 C7EE807A 		fdivs	s15, s15, s0
 296              		.loc 1 97 0
 297 016a 94ED080A 		flds	s0, [r4, #32]
 298              	.LVL15:
 299 016e 20EE000A 		fmuls	s0, s0, s0
 300 0172 07EE070A 		fmacs	s0, s14, s14
  95:/home/user/Desktop/STM32-Projekte/FH-Vertibot/src/project_src/IMU_algorithm.c **** 	IMU->dcm_ye_line[2] = IMU->dcm_ye_line[2]/normfactor;	
 301              		.loc 1 95 0
 302 0176 C4ED067A 		fsts	s15, [r4, #24]
 303              		.loc 1 97 0
 304 017a D4ED097A 		flds	s15, [r4, #36]
 305 017e 07EEA70A 		fmacs	s0, s15, s15
 306 0182 FFF7FEFF 		bl	sqrtf
 307              	.LVL16:
  98:/home/user/Desktop/STM32-Projekte/FH-Vertibot/src/project_src/IMU_algorithm.c **** 	IMU->dcm_ze_line[0] = IMU->dcm_ze_line[0]/normfactor;	
 308              		.loc 1 98 0
 309 0186 D4ED077A 		flds	s15, [r4, #28]
 310 018a C7EE807A 		fdivs	s15, s15, s0
 311 018e C4ED077A 		fsts	s15, [r4, #28]
  99:/home/user/Desktop/STM32-Projekte/FH-Vertibot/src/project_src/IMU_algorithm.c **** 	IMU->dcm_ze_line[1] = IMU->dcm_ze_line[1]/normfactor;	
 312              		.loc 1 99 0
 313 0192 D4ED087A 		flds	s15, [r4, #32]
 314 0196 C7EE807A 		fdivs	s15, s15, s0
 315 019a C4ED087A 		fsts	s15, [r4, #32]
 100:/home/user/Desktop/STM32-Projekte/FH-Vertibot/src/project_src/IMU_algorithm.c **** 	IMU->dcm_ze_line[2] = IMU->dcm_ze_line[2]/normfactor;		
 316              		.loc 1 100 0
 317 019e D4ED097A 		flds	s15, [r4, #36]
 318 01a2 C7EE807A 		fdivs	s15, s15, s0
 319 01a6 C4ED097A 		fsts	s15, [r4, #36]
 320 01aa 10BD     		pop	{r4, pc}
 321              		.cfi_endproc
 322              	.LFE3:
 324              		.align	1
 325              		.global	IMU_ortho_adjust
 326              		.thumb
 327              		.thumb_func
 329              	IMU_ortho_adjust:
 330              	.LFB4:
 101:/home/user/Desktop/STM32-Projekte/FH-Vertibot/src/project_src/IMU_algorithm.c **** }
 102:/home/user/Desktop/STM32-Projekte/FH-Vertibot/src/project_src/IMU_algorithm.c **** 
 103:/home/user/Desktop/STM32-Projekte/FH-Vertibot/src/project_src/IMU_algorithm.c **** //! Keep the orthogonality
 104:/home/user/Desktop/STM32-Projekte/FH-Vertibot/src/project_src/IMU_algorithm.c **** void IMU_ortho_adjust(struct IMU_values *IMU)
 105:/home/user/Desktop/STM32-Projekte/FH-Vertibot/src/project_src/IMU_algorithm.c **** {
 331              		.loc 1 105 0
 332              		.cfi_startproc
 333              		@ args = 0, pretend = 0, frame = 24
 334              		@ frame_needed = 0, uses_anonymous_args = 0
 335              	.LVL17:
 336 01ac 70B5     		push	{r4, r5, r6, lr}
 337              	.LCFI2:
 338              		.cfi_def_cfa_offset 16
 339              		.cfi_offset 4, -16
 340              		.cfi_offset 5, -12
 341              		.cfi_offset 6, -8
 342              		.cfi_offset 14, -4
 343 01ae 2DED028B 		fstmfdd	sp!, {d8}
 344              	.LCFI3:
 345              		.cfi_def_cfa_offset 24
 346              		.cfi_offset 80, -24
 106:/home/user/Desktop/STM32-Projekte/FH-Vertibot/src/project_src/IMU_algorithm.c **** 	float ortho_error;
 107:/home/user/Desktop/STM32-Projekte/FH-Vertibot/src/project_src/IMU_algorithm.c **** 
 108:/home/user/Desktop/STM32-Projekte/FH-Vertibot/src/project_src/IMU_algorithm.c **** 	float result_x[3];
 109:/home/user/Desktop/STM32-Projekte/FH-Vertibot/src/project_src/IMU_algorithm.c **** 	float result_y[3];
 110:/home/user/Desktop/STM32-Projekte/FH-Vertibot/src/project_src/IMU_algorithm.c **** 
 111:/home/user/Desktop/STM32-Projekte/FH-Vertibot/src/project_src/IMU_algorithm.c **** 	/*calc the orthogonality error*/	
 112:/home/user/Desktop/STM32-Projekte/FH-Vertibot/src/project_src/IMU_algorithm.c **** 	ortho_error = -VectorDotProduct(&IMU->dcm_xe_line[0], &IMU->dcm_ye_line[0])*0.5f;
 347              		.loc 1 112 0
 348 01b2 00F11004 		add	r4, r0, #16
 349 01b6 051D     		adds	r5, r0, #4
 105:/home/user/Desktop/STM32-Projekte/FH-Vertibot/src/project_src/IMU_algorithm.c **** {
 350              		.loc 1 105 0
 351 01b8 86B0     		sub	sp, sp, #24
 352              	.LCFI4:
 353              		.cfi_def_cfa_offset 48
 105:/home/user/Desktop/STM32-Projekte/FH-Vertibot/src/project_src/IMU_algorithm.c **** {
 354              		.loc 1 105 0
 355 01ba 0646     		mov	r6, r0
 356              		.loc 1 112 0
 357 01bc 2146     		mov	r1, r4
 358 01be 2846     		mov	r0, r5
 359              	.LVL18:
 360 01c0 FFF7FEFF 		bl	VectorDotProduct
 361              	.LVL19:
 362 01c4 B6EE008A 		fconsts	s16, #96
 363 01c8 20EE488A 		fnmuls	s16, s0, s16
 364              	.LVL20:
 113:/home/user/Desktop/STM32-Projekte/FH-Vertibot/src/project_src/IMU_algorithm.c **** 	
 114:/home/user/Desktop/STM32-Projekte/FH-Vertibot/src/project_src/IMU_algorithm.c **** 	/*add the half of the error to xe and ye*/
 115:/home/user/Desktop/STM32-Projekte/FH-Vertibot/src/project_src/IMU_algorithm.c **** 	VectorScale(&result_y[0],&IMU->dcm_ye_line[0],ortho_error);
 365              		.loc 1 115 0
 366 01cc 03A8     		add	r0, sp, #12
 367 01ce 2146     		mov	r1, r4
 368 01d0 B0EE480A 		fcpys	s0, s16
 369 01d4 FFF7FEFF 		bl	VectorScale
 370              	.LVL21:
 116:/home/user/Desktop/STM32-Projekte/FH-Vertibot/src/project_src/IMU_algorithm.c **** 	VectorScale(&result_x[0],&IMU->dcm_xe_line[0],ortho_error);
 371              		.loc 1 116 0
 372 01d8 B0EE480A 		fcpys	s0, s16
 373 01dc 6846     		mov	r0, sp
 374 01de 2946     		mov	r1, r5
 375 01e0 FFF7FEFF 		bl	VectorScale
 376              	.LVL22:
 117:/home/user/Desktop/STM32-Projekte/FH-Vertibot/src/project_src/IMU_algorithm.c **** 
 118:/home/user/Desktop/STM32-Projekte/FH-Vertibot/src/project_src/IMU_algorithm.c **** 	VectorAdd(&IMU->dcm_xe_line[0], &IMU->dcm_xe_line[0], &result_y[0]);
 377              		.loc 1 118 0
 378 01e4 2846     		mov	r0, r5
 379 01e6 2946     		mov	r1, r5
 380 01e8 03AA     		add	r2, sp, #12
 381 01ea FFF7FEFF 		bl	VectorAdd
 382              	.LVL23:
 119:/home/user/Desktop/STM32-Projekte/FH-Vertibot/src/project_src/IMU_algorithm.c **** 	VectorAdd(&IMU->dcm_ye_line[0], &IMU->dcm_ye_line[0], &result_x[0]);
 383              		.loc 1 119 0
 384 01ee 2046     		mov	r0, r4
 385 01f0 2146     		mov	r1, r4
 386 01f2 6A46     		mov	r2, sp
 387 01f4 FFF7FEFF 		bl	VectorAdd
 388              	.LVL24:
 120:/home/user/Desktop/STM32-Projekte/FH-Vertibot/src/project_src/IMU_algorithm.c **** 	
 121:/home/user/Desktop/STM32-Projekte/FH-Vertibot/src/project_src/IMU_algorithm.c **** 	/*the ze-line will be recalculated with the crossproduct*/	
 122:/home/user/Desktop/STM32-Projekte/FH-Vertibot/src/project_src/IMU_algorithm.c **** 	VectorCrossProduct(&IMU->dcm_ze_line[0],&IMU->dcm_xe_line[0],&IMU->dcm_ye_line[0]);   
 389              		.loc 1 122 0
 390 01f8 06F11C00 		add	r0, r6, #28
 391 01fc 2946     		mov	r1, r5
 392 01fe 2246     		mov	r2, r4
 393 0200 FFF7FEFF 		bl	VectorCrossProduct
 394              	.LVL25:
 123:/home/user/Desktop/STM32-Projekte/FH-Vertibot/src/project_src/IMU_algorithm.c **** }
 395              		.loc 1 123 0
 396 0204 06B0     		add	sp, sp, #24
 397 0206 BDEC028B 		fldmfdd	sp!, {d8}
 398 020a 70BD     		pop	{r4, r5, r6, pc}
 399              		.cfi_endproc
 400              	.LFE4:
 402              		.align	1
 403              		.global	IMU_drift_correction_ACC
 404              		.thumb
 405              		.thumb_func
 407              	IMU_drift_correction_ACC:
 408              	.LFB5:
 124:/home/user/Desktop/STM32-Projekte/FH-Vertibot/src/project_src/IMU_algorithm.c **** 
 125:/home/user/Desktop/STM32-Projekte/FH-Vertibot/src/project_src/IMU_algorithm.c **** 
 126:/home/user/Desktop/STM32-Projekte/FH-Vertibot/src/project_src/IMU_algorithm.c **** //! Roll-pitch Drift-Correction with Accelerometer
 127:/home/user/Desktop/STM32-Projekte/FH-Vertibot/src/project_src/IMU_algorithm.c **** void IMU_drift_correction_ACC(struct IMU_values *IMU)
 128:/home/user/Desktop/STM32-Projekte/FH-Vertibot/src/project_src/IMU_algorithm.c **** {
 409              		.loc 1 128 0
 410              		.cfi_startproc
 411              		@ args = 0, pretend = 0, frame = 0
 412              		@ frame_needed = 0, uses_anonymous_args = 0
 413              	.LVL26:
 129:/home/user/Desktop/STM32-Projekte/FH-Vertibot/src/project_src/IMU_algorithm.c **** 	float normfactor;
 130:/home/user/Desktop/STM32-Projekte/FH-Vertibot/src/project_src/IMU_algorithm.c **** 	float error_absolute;
 131:/home/user/Desktop/STM32-Projekte/FH-Vertibot/src/project_src/IMU_algorithm.c **** 
 132:/home/user/Desktop/STM32-Projekte/FH-Vertibot/src/project_src/IMU_algorithm.c **** 	normfactor = sqrtf((IMU->accel_vector[0]*IMU->accel_vector[0]) + (IMU->accel_vector[1]*IMU->accel_
 414              		.loc 1 132 0
 415 020c 90ED0E0A 		flds	s0, [r0, #56]
 416 0210 90ED0D7A 		flds	s14, [r0, #52]
 417 0214 20EE000A 		fmuls	s0, s0, s0
 418 0218 07EE070A 		fmacs	s0, s14, s14
 419 021c D0ED0F7A 		flds	s15, [r0, #60]
 128:/home/user/Desktop/STM32-Projekte/FH-Vertibot/src/project_src/IMU_algorithm.c **** {
 420              		.loc 1 128 0
 421 0220 38B5     		push	{r3, r4, r5, lr}
 422              	.LCFI5:
 423              		.cfi_def_cfa_offset 16
 424              		.cfi_offset 3, -16
 425              		.cfi_offset 4, -12
 426              		.cfi_offset 5, -8
 427              		.cfi_offset 14, -4
 428              		.loc 1 132 0
 429 0222 07EEA70A 		fmacs	s0, s15, s15
 128:/home/user/Desktop/STM32-Projekte/FH-Vertibot/src/project_src/IMU_algorithm.c **** {
 430              		.loc 1 128 0
 431 0226 0446     		mov	r4, r0
 432              		.loc 1 132 0
 433 0228 FFF7FEFF 		bl	sqrtf
 434              	.LVL27:
 133:/home/user/Desktop/STM32-Projekte/FH-Vertibot/src/project_src/IMU_algorithm.c **** 
 134:/home/user/Desktop/STM32-Projekte/FH-Vertibot/src/project_src/IMU_algorithm.c **** 	if(normfactor != 0)
 435              		.loc 1 134 0
 436 022c B5EE400A 		fcmpzs	s0
 437 0230 F1EE10FA 		fmstat
 438 0234 11D0     		beq	.L7
 135:/home/user/Desktop/STM32-Projekte/FH-Vertibot/src/project_src/IMU_algorithm.c **** 	{
 136:/home/user/Desktop/STM32-Projekte/FH-Vertibot/src/project_src/IMU_algorithm.c **** 		IMU->accel_vector[0] = IMU->accel_vector[0]/normfactor;
 439              		.loc 1 136 0
 440 0236 D4ED0D7A 		flds	s15, [r4, #52]
 441 023a C7EE807A 		fdivs	s15, s15, s0
 442 023e C4ED0D7A 		fsts	s15, [r4, #52]
 137:/home/user/Desktop/STM32-Projekte/FH-Vertibot/src/project_src/IMU_algorithm.c **** 		IMU->accel_vector[1] = IMU->accel_vector[1]/normfactor;
 443              		.loc 1 137 0
 444 0242 D4ED0E7A 		flds	s15, [r4, #56]
 445 0246 C7EE807A 		fdivs	s15, s15, s0
 446 024a C4ED0E7A 		fsts	s15, [r4, #56]
 138:/home/user/Desktop/STM32-Projekte/FH-Vertibot/src/project_src/IMU_algorithm.c **** 		IMU->accel_vector[2] = IMU->accel_vector[2]/normfactor;
 447              		.loc 1 138 0
 448 024e D4ED0F7A 		flds	s15, [r4, #60]
 449 0252 C7EE807A 		fdivs	s15, s15, s0
 450 0256 C4ED0F7A 		fsts	s15, [r4, #60]
 451              	.L7:
 139:/home/user/Desktop/STM32-Projekte/FH-Vertibot/src/project_src/IMU_algorithm.c **** 	}
 140:/home/user/Desktop/STM32-Projekte/FH-Vertibot/src/project_src/IMU_algorithm.c **** 	
 141:/home/user/Desktop/STM32-Projekte/FH-Vertibot/src/project_src/IMU_algorithm.c **** 	/*Calc the error between the gyrobased calculations and the vector of the accelerometer, 
 142:/home/user/Desktop/STM32-Projekte/FH-Vertibot/src/project_src/IMU_algorithm.c **** 	this will be done with the crossproduct of the two vectors*/
 143:/home/user/Desktop/STM32-Projekte/FH-Vertibot/src/project_src/IMU_algorithm.c **** 	VectorCrossProduct(&IMU->error_rollpitch[0], &IMU->dcm_ze_line[0], &IMU->accel_vector[0]);
 452              		.loc 1 143 0
 453 025a 04F15005 		add	r5, r4, #80
 454 025e 2846     		mov	r0, r5
 455 0260 04F11C01 		add	r1, r4, #28
 456 0264 04F13402 		add	r2, r4, #52
 457 0268 FFF7FEFF 		bl	VectorCrossProduct
 458              	.LVL28:
 144:/home/user/Desktop/STM32-Projekte/FH-Vertibot/src/project_src/IMU_algorithm.c **** 	//VectorCrossProduct(&IMU->error_rollpitch[0], &IMU->dcm_ze_line[0], &test[0]);
 145:/home/user/Desktop/STM32-Projekte/FH-Vertibot/src/project_src/IMU_algorithm.c **** 	
 146:/home/user/Desktop/STM32-Projekte/FH-Vertibot/src/project_src/IMU_algorithm.c **** 	error_absolute = sqrtf((IMU->error_rollpitch[0]*IMU->error_rollpitch[0]) + (IMU->error_rollpitch[1
 459              		.loc 1 146 0
 460 026c 94ED150A 		flds	s0, [r4, #84]
 461 0270 94ED147A 		flds	s14, [r4, #80]
 462 0274 20EE000A 		fmuls	s0, s0, s0
 463 0278 07EE070A 		fmacs	s0, s14, s14
 464 027c D4ED167A 		flds	s15, [r4, #88]
 465 0280 07EEA70A 		fmacs	s0, s15, s15
 466 0284 FFF7FEFF 		bl	sqrtf
 467              	.LVL29:
 147:/home/user/Desktop/STM32-Projekte/FH-Vertibot/src/project_src/IMU_algorithm.c **** 
 148:/home/user/Desktop/STM32-Projekte/FH-Vertibot/src/project_src/IMU_algorithm.c **** 	//printf("%3.1f %3.1f %3.1f %3.1f\n", IMU->accel_vector[0], IMU->accel_vector[1], IMU->accel_vecto
 149:/home/user/Desktop/STM32-Projekte/FH-Vertibot/src/project_src/IMU_algorithm.c **** 	//printf(" %3.1f ", error_absolute);
 150:/home/user/Desktop/STM32-Projekte/FH-Vertibot/src/project_src/IMU_algorithm.c **** 	/*
 151:/home/user/Desktop/STM32-Projekte/FH-Vertibot/src/project_src/IMU_algorithm.c **** 	if(error_absolute > 0.6)
 152:/home/user/Desktop/STM32-Projekte/FH-Vertibot/src/project_src/IMU_algorithm.c **** 	{
 153:/home/user/Desktop/STM32-Projekte/FH-Vertibot/src/project_src/IMU_algorithm.c **** 		VectorScale(&IMU->kp_vector[0], &IMU->error_rollpitch[0], IMU->kp*2);
 154:/home/user/Desktop/STM32-Projekte/FH-Vertibot/src/project_src/IMU_algorithm.c **** 	}
 155:/home/user/Desktop/STM32-Projekte/FH-Vertibot/src/project_src/IMU_algorithm.c **** 	else
 156:/home/user/Desktop/STM32-Projekte/FH-Vertibot/src/project_src/IMU_algorithm.c **** 	{
 157:/home/user/Desktop/STM32-Projekte/FH-Vertibot/src/project_src/IMU_algorithm.c **** 		VectorScale(&IMU->kp_vector[0], &IMU->error_rollpitch[0], IMU->kp);
 158:/home/user/Desktop/STM32-Projekte/FH-Vertibot/src/project_src/IMU_algorithm.c **** 	}
 159:/home/user/Desktop/STM32-Projekte/FH-Vertibot/src/project_src/IMU_algorithm.c **** 	*/
 160:/home/user/Desktop/STM32-Projekte/FH-Vertibot/src/project_src/IMU_algorithm.c **** 	VectorScale(&IMU->kp_vector_ACC[0], &IMU->error_rollpitch[0], (IMU->kp+(IMU->kp*error_absolute)));
 468              		.loc 1 160 0
 469 0288 D4ED137A 		flds	s15, [r4, #76]
 470 028c 47EE807A 		fmacs	s15, s15, s0
 471 0290 04F16000 		add	r0, r4, #96
 472 0294 2946     		mov	r1, r5
 473 0296 B0EE670A 		fcpys	s0, s15
 474              	.LVL30:
 161:/home/user/Desktop/STM32-Projekte/FH-Vertibot/src/project_src/IMU_algorithm.c **** 	//printf("%f\n", (IMU->kp+(IMU->kp*error_absolute)));
 162:/home/user/Desktop/STM32-Projekte/FH-Vertibot/src/project_src/IMU_algorithm.c **** }
 475              		.loc 1 162 0
 476 029a BDE83840 		pop	{r3, r4, r5, lr}
 160:/home/user/Desktop/STM32-Projekte/FH-Vertibot/src/project_src/IMU_algorithm.c **** 	VectorScale(&IMU->kp_vector_ACC[0], &IMU->error_rollpitch[0], (IMU->kp+(IMU->kp*error_absolute)));
 477              		.loc 1 160 0
 478 029e FFF7FEBF 		b	VectorScale
 479              	.LVL31:
 480              		.cfi_endproc
 481              	.LFE5:
 483              		.align	1
 484              		.global	IMU_drift_correction_MAG
 485              		.thumb
 486              		.thumb_func
 488              	IMU_drift_correction_MAG:
 489              	.LFB6:
 163:/home/user/Desktop/STM32-Projekte/FH-Vertibot/src/project_src/IMU_algorithm.c **** 
 164:/home/user/Desktop/STM32-Projekte/FH-Vertibot/src/project_src/IMU_algorithm.c **** 
 165:/home/user/Desktop/STM32-Projekte/FH-Vertibot/src/project_src/IMU_algorithm.c **** //! yaw Drift-Correction with Magnetometer
 166:/home/user/Desktop/STM32-Projekte/FH-Vertibot/src/project_src/IMU_algorithm.c **** void IMU_drift_correction_MAG(struct IMU_values *IMU)
 167:/home/user/Desktop/STM32-Projekte/FH-Vertibot/src/project_src/IMU_algorithm.c **** {
 490              		.loc 1 167 0
 491              		.cfi_startproc
 492              		@ args = 0, pretend = 0, frame = 0
 493              		@ frame_needed = 0, uses_anonymous_args = 0
 494              	.LVL32:
 168:/home/user/Desktop/STM32-Projekte/FH-Vertibot/src/project_src/IMU_algorithm.c **** 	float normfactor;
 169:/home/user/Desktop/STM32-Projekte/FH-Vertibot/src/project_src/IMU_algorithm.c **** 	//float error_absolute;
 170:/home/user/Desktop/STM32-Projekte/FH-Vertibot/src/project_src/IMU_algorithm.c **** 
 171:/home/user/Desktop/STM32-Projekte/FH-Vertibot/src/project_src/IMU_algorithm.c **** 	normfactor = sqrtf((IMU->mag_vector[0]*IMU->mag_vector[0]) + (IMU->mag_vector[1]*IMU->mag_vector[1
 495              		.loc 1 171 0
 496 02a2 90ED110A 		flds	s0, [r0, #68]
 497 02a6 90ED107A 		flds	s14, [r0, #64]
 498 02aa 20EE000A 		fmuls	s0, s0, s0
 499 02ae 07EE070A 		fmacs	s0, s14, s14
 500 02b2 D0ED127A 		flds	s15, [r0, #72]
 167:/home/user/Desktop/STM32-Projekte/FH-Vertibot/src/project_src/IMU_algorithm.c **** {
 501              		.loc 1 167 0
 502 02b6 10B5     		push	{r4, lr}
 503              	.LCFI6:
 504              		.cfi_def_cfa_offset 8
 505              		.cfi_offset 4, -8
 506              		.cfi_offset 14, -4
 507              		.loc 1 171 0
 508 02b8 07EEA70A 		fmacs	s0, s15, s15
 167:/home/user/Desktop/STM32-Projekte/FH-Vertibot/src/project_src/IMU_algorithm.c **** {
 509              		.loc 1 167 0
 510 02bc 0446     		mov	r4, r0
 511              		.loc 1 171 0
 512 02be FFF7FEFF 		bl	sqrtf
 513              	.LVL33:
 172:/home/user/Desktop/STM32-Projekte/FH-Vertibot/src/project_src/IMU_algorithm.c **** 
 173:/home/user/Desktop/STM32-Projekte/FH-Vertibot/src/project_src/IMU_algorithm.c **** 	if(normfactor != 0)
 514              		.loc 1 173 0
 515 02c2 B5EE400A 		fcmpzs	s0
 516 02c6 F1EE10FA 		fmstat
 517 02ca 11D0     		beq	.L9
 174:/home/user/Desktop/STM32-Projekte/FH-Vertibot/src/project_src/IMU_algorithm.c **** 	{
 175:/home/user/Desktop/STM32-Projekte/FH-Vertibot/src/project_src/IMU_algorithm.c **** 		IMU->mag_vector[0] = IMU->mag_vector[0]/normfactor;
 518              		.loc 1 175 0
 519 02cc D4ED107A 		flds	s15, [r4, #64]
 520 02d0 C7EE807A 		fdivs	s15, s15, s0
 521 02d4 C4ED107A 		fsts	s15, [r4, #64]
 176:/home/user/Desktop/STM32-Projekte/FH-Vertibot/src/project_src/IMU_algorithm.c **** 		IMU->mag_vector[1] = IMU->mag_vector[1]/normfactor;
 522              		.loc 1 176 0
 523 02d8 D4ED117A 		flds	s15, [r4, #68]
 524 02dc C7EE807A 		fdivs	s15, s15, s0
 525 02e0 C4ED117A 		fsts	s15, [r4, #68]
 177:/home/user/Desktop/STM32-Projekte/FH-Vertibot/src/project_src/IMU_algorithm.c **** 		IMU->mag_vector[2] = IMU->mag_vector[2]/normfactor;
 526              		.loc 1 177 0
 527 02e4 D4ED127A 		flds	s15, [r4, #72]
 528 02e8 C7EE807A 		fdivs	s15, s15, s0
 529 02ec C4ED127A 		fsts	s15, [r4, #72]
 530              	.L9:
 178:/home/user/Desktop/STM32-Projekte/FH-Vertibot/src/project_src/IMU_algorithm.c **** 	}
 179:/home/user/Desktop/STM32-Projekte/FH-Vertibot/src/project_src/IMU_algorithm.c **** 
 180:/home/user/Desktop/STM32-Projekte/FH-Vertibot/src/project_src/IMU_algorithm.c **** 	/*Calc the error between the gyrobased calculations and the vector of the accelerometer,
 181:/home/user/Desktop/STM32-Projekte/FH-Vertibot/src/project_src/IMU_algorithm.c **** 	this will be done with the crossproduct of the two vectors*/
 182:/home/user/Desktop/STM32-Projekte/FH-Vertibot/src/project_src/IMU_algorithm.c **** 	//VectorCrossProduct(&IMU->error_yaw[0], &IMU->dcm_xe_line[0], &IMU->mag_vector[0]);
 183:/home/user/Desktop/STM32-Projekte/FH-Vertibot/src/project_src/IMU_algorithm.c **** 
 184:/home/user/Desktop/STM32-Projekte/FH-Vertibot/src/project_src/IMU_algorithm.c **** 	IMU->error_yaw = (IMU->dcm_xe_line[0]*IMU->mag_vector[1]) - (IMU->dcm_ye_line[0]*IMU->mag_vector[0
 531              		.loc 1 184 0
 532 02f0 94ED046A 		flds	s12, [r4, #16]
 533 02f4 D4ED107A 		flds	s15, [r4, #64]
 534 02f8 D4ED016A 		flds	s13, [r4, #4]
 535 02fc 94ED117A 		flds	s14, [r4, #68]
 536 0300 66EE277A 		fmuls	s15, s12, s15
 537 0304 56EE877A 		fmscs	s15, s13, s14
 185:/home/user/Desktop/STM32-Projekte/FH-Vertibot/src/project_src/IMU_algorithm.c **** 	VectorScale(&IMU->kp_vector_MAG[0], &IMU->dcm_ze_line[0], (IMU->kp*IMU->error_yaw));
 538              		.loc 1 185 0
 539 0308 94ED130A 		flds	s0, [r4, #76]
 540              	.LVL34:
 541 030c 27EE800A 		fmuls	s0, s15, s0
 542 0310 04F16C00 		add	r0, r4, #108
 543 0314 04F11C01 		add	r1, r4, #28
 184:/home/user/Desktop/STM32-Projekte/FH-Vertibot/src/project_src/IMU_algorithm.c **** 	IMU->error_yaw = (IMU->dcm_xe_line[0]*IMU->mag_vector[1]) - (IMU->dcm_ye_line[0]*IMU->mag_vector[0
 544              		.loc 1 184 0
 545 0318 C4ED177A 		fsts	s15, [r4, #92]
 186:/home/user/Desktop/STM32-Projekte/FH-Vertibot/src/project_src/IMU_algorithm.c **** 	//VectorScale(&IMU->kp_vector_MAG[0], &IMU->error_yaw[0], IMU->kp);
 187:/home/user/Desktop/STM32-Projekte/FH-Vertibot/src/project_src/IMU_algorithm.c **** 	//printf("%f\n", (IMU->kp+(IMU->kp*error_absolute)));
 188:/home/user/Desktop/STM32-Projekte/FH-Vertibot/src/project_src/IMU_algorithm.c **** }
 546              		.loc 1 188 0
 547 031c BDE81040 		pop	{r4, lr}
 185:/home/user/Desktop/STM32-Projekte/FH-Vertibot/src/project_src/IMU_algorithm.c **** 	VectorScale(&IMU->kp_vector_MAG[0], &IMU->dcm_ze_line[0], (IMU->kp*IMU->error_yaw));
 548              		.loc 1 185 0
 549 0320 FFF7FEBF 		b	VectorScale
 550              	.LVL35:
 551              		.cfi_endproc
 552              	.LFE6:
 554              		.align	1
 555              		.global	IMU_DCM_to_Euler_deg
 556              		.thumb
 557              		.thumb_func
 559              	IMU_DCM_to_Euler_deg:
 560              	.LFB7:
 189:/home/user/Desktop/STM32-Projekte/FH-Vertibot/src/project_src/IMU_algorithm.c **** 
 190:/home/user/Desktop/STM32-Projekte/FH-Vertibot/src/project_src/IMU_algorithm.c **** 
 191:/home/user/Desktop/STM32-Projekte/FH-Vertibot/src/project_src/IMU_algorithm.c **** //! DCM to EULER Angles
 192:/home/user/Desktop/STM32-Projekte/FH-Vertibot/src/project_src/IMU_algorithm.c **** void IMU_DCM_to_Euler_deg(struct IMU_values* IMU, struct EULER_angles *euler)
 193:/home/user/Desktop/STM32-Projekte/FH-Vertibot/src/project_src/IMU_algorithm.c **** {
 561              		.loc 1 193 0
 562              		.cfi_startproc
 563              		@ args = 0, pretend = 0, frame = 0
 564              		@ frame_needed = 0, uses_anonymous_args = 0
 565              	.LVL36:
 566 0324 38B5     		push	{r3, r4, r5, lr}
 567              	.LCFI7:
 568              		.cfi_def_cfa_offset 16
 569              		.cfi_offset 3, -16
 570              		.cfi_offset 4, -12
 571              		.cfi_offset 5, -8
 572              		.cfi_offset 14, -4
 194:/home/user/Desktop/STM32-Projekte/FH-Vertibot/src/project_src/IMU_algorithm.c **** 	euler->pitch = (asinf(-IMU->dcm_ze_line[0]))*(180/M_PI);
 573              		.loc 1 194 0
 574 0326 90ED070A 		flds	s0, [r0, #28]
 193:/home/user/Desktop/STM32-Projekte/FH-Vertibot/src/project_src/IMU_algorithm.c **** {
 575              		.loc 1 193 0
 576 032a 2DED028B 		fstmfdd	sp!, {d8}
 577              	.LCFI8:
 578              		.cfi_def_cfa_offset 24
 579              		.cfi_offset 80, -24
 580              		.loc 1 194 0
 581 032e B1EE400A 		fnegs	s0, s0
 193:/home/user/Desktop/STM32-Projekte/FH-Vertibot/src/project_src/IMU_algorithm.c **** {
 582              		.loc 1 193 0
 583 0332 0446     		mov	r4, r0
 584 0334 0D46     		mov	r5, r1
 585              		.loc 1 194 0
 586 0336 FFF7FEFF 		bl	asinf
 587              	.LVL37:
 588 033a 9FED0E8A 		flds	s16, .L11
 589 033e 20EE080A 		fmuls	s0, s0, s16
 195:/home/user/Desktop/STM32-Projekte/FH-Vertibot/src/project_src/IMU_algorithm.c **** 	euler->roll = (atan2f(IMU->dcm_ze_line[1],IMU->dcm_ze_line[2]))*(180/M_PI);
 590              		.loc 1 195 0
 591 0342 D4ED090A 		flds	s1, [r4, #36]
 194:/home/user/Desktop/STM32-Projekte/FH-Vertibot/src/project_src/IMU_algorithm.c **** 	euler->pitch = (asinf(-IMU->dcm_ze_line[0]))*(180/M_PI);
 592              		.loc 1 194 0
 593 0346 85ED010A 		fsts	s0, [r5, #4]
 594              		.loc 1 195 0
 595 034a 94ED080A 		flds	s0, [r4, #32]
 596 034e FFF7FEFF 		bl	atan2f
 597              	.LVL38:
 598 0352 20EE080A 		fmuls	s0, s0, s16
 196:/home/user/Desktop/STM32-Projekte/FH-Vertibot/src/project_src/IMU_algorithm.c **** 	euler->yaw = (atan2f(IMU->dcm_ye_line[0],IMU->dcm_xe_line[0]))*(180/M_PI);
 599              		.loc 1 196 0
 600 0356 D4ED010A 		flds	s1, [r4, #4]
 195:/home/user/Desktop/STM32-Projekte/FH-Vertibot/src/project_src/IMU_algorithm.c **** 	euler->roll = (atan2f(IMU->dcm_ze_line[1],IMU->dcm_ze_line[2]))*(180/M_PI);
 601              		.loc 1 195 0
 602 035a 85ED000A 		fsts	s0, [r5, #0]
 603              		.loc 1 196 0
 604 035e 94ED040A 		flds	s0, [r4, #16]
 605 0362 FFF7FEFF 		bl	atan2f
 606              	.LVL39:
 607 0366 20EE080A 		fmuls	s0, s0, s16
 608 036a 85ED020A 		fsts	s0, [r5, #8]
 197:/home/user/Desktop/STM32-Projekte/FH-Vertibot/src/project_src/IMU_algorithm.c **** 	//printf("%3.1f  %3.1f  %3.1f\n", roll*(180/M_PI), pitch*(180/M_PI), yaw*(180/M_PI));
 198:/home/user/Desktop/STM32-Projekte/FH-Vertibot/src/project_src/IMU_algorithm.c **** }
 609              		.loc 1 198 0
 610 036e BDEC028B 		fldmfdd	sp!, {d8}
 611 0372 38BD     		pop	{r3, r4, r5, pc}
 612              	.L12:
 613              		.align	2
 614              	.L11:
 615 0374 E02E6542 		.word	1113927392
 616              		.cfi_endproc
 617              	.LFE7:
 619              		.align	1
 620              		.global	IMU_Euler_to_DCM
 621              		.thumb
 622              		.thumb_func
 624              	IMU_Euler_to_DCM:
 625              	.LFB8:
 199:/home/user/Desktop/STM32-Projekte/FH-Vertibot/src/project_src/IMU_algorithm.c **** 
 200:/home/user/Desktop/STM32-Projekte/FH-Vertibot/src/project_src/IMU_algorithm.c **** //! EULER Angles to DCM
 201:/home/user/Desktop/STM32-Projekte/FH-Vertibot/src/project_src/IMU_algorithm.c **** void IMU_Euler_to_DCM(struct IMU_values* IMU, struct EULER_angles *euler)
 202:/home/user/Desktop/STM32-Projekte/FH-Vertibot/src/project_src/IMU_algorithm.c **** {
 626              		.loc 1 202 0
 627              		.cfi_startproc
 628              		@ args = 0, pretend = 0, frame = 0
 629              		@ frame_needed = 0, uses_anonymous_args = 0
 630              	.LVL40:
 631 0378 38B5     		push	{r3, r4, r5, lr}
 632              	.LCFI9:
 633              		.cfi_def_cfa_offset 16
 634              		.cfi_offset 3, -16
 635              		.cfi_offset 4, -12
 636              		.cfi_offset 5, -8
 637              		.cfi_offset 14, -4
 638 037a 2DED088B 		fstmfdd	sp!, {d8, d9, d10, d11}
 639              	.LCFI10:
 640              		.cfi_def_cfa_offset 48
 641              		.cfi_offset 80, -48
 642              		.cfi_offset 82, -40
 643              		.cfi_offset 84, -32
 644              		.cfi_offset 86, -24
 203:/home/user/Desktop/STM32-Projekte/FH-Vertibot/src/project_src/IMU_algorithm.c **** 	/*First line DCM Matrix*/
 204:/home/user/Desktop/STM32-Projekte/FH-Vertibot/src/project_src/IMU_algorithm.c **** 	IMU->dcm_xe_line[0] = cosf(euler->pitch)*cosf(euler->yaw);
 645              		.loc 1 204 0
 646 037e 91ED01AA 		flds	s20, [r1, #4]
 647 0382 B0EE4A0A 		fcpys	s0, s20
 202:/home/user/Desktop/STM32-Projekte/FH-Vertibot/src/project_src/IMU_algorithm.c **** {
 648              		.loc 1 202 0
 649 0386 0446     		mov	r4, r0
 650 0388 0D46     		mov	r5, r1
 651              		.loc 1 204 0
 652 038a FFF7FEFF 		bl	cosf
 653              	.LVL41:
 654 038e 95ED029A 		flds	s18, [r5, #8]
 655 0392 F0EE408A 		fcpys	s17, s0
 656 0396 B0EE490A 		fcpys	s0, s18
 657 039a FFF7FEFF 		bl	cosf
 658              	.LVL42:
 659 039e 68EE807A 		fmuls	s15, s17, s0
 660 03a2 B0EE408A 		fcpys	s16, s0
 661 03a6 C4ED017A 		fsts	s15, [r4, #4]
 205:/home/user/Desktop/STM32-Projekte/FH-Vertibot/src/project_src/IMU_algorithm.c **** 	IMU->dcm_xe_line[1] = (cosf(euler->pitch)*sinf(euler->yaw))+(sinf(euler->roll)*sinf(euler->pitch)*
 662              		.loc 1 205 0
 663 03aa B0EE490A 		fcpys	s0, s18
 664 03ae FFF7FEFF 		bl	sinf
 665              	.LVL43:
 666 03b2 D5ED00BA 		flds	s23, [r5, #0]
 667 03b6 F0EE409A 		fcpys	s19, s0
 668 03ba 28EE80BA 		fmuls	s22, s17, s0
 669 03be B0EE6B0A 		fcpys	s0, s23
 670 03c2 FFF7FEFF 		bl	sinf
 671              	.LVL44:
 672 03c6 B0EE409A 		fcpys	s18, s0
 673 03ca B0EE4A0A 		fcpys	s0, s20
 674 03ce FFF7FEFF 		bl	sinf
 675              	.LVL45:
 676 03d2 69EE00AA 		fmuls	s21, s18, s0
 677 03d6 F0EE4B7A 		fcpys	s15, s22
 678 03da 4AEE887A 		fmacs	s15, s21, s16
 679 03de B0EE40AA 		fcpys	s20, s0
 680 03e2 C4ED027A 		fsts	s15, [r4, #8]
 206:/home/user/Desktop/STM32-Projekte/FH-Vertibot/src/project_src/IMU_algorithm.c **** 	IMU->dcm_xe_line[2] = (sinf(euler->roll)*sinf(euler->yaw))-(cosf(euler->roll)*sinf(euler->pitch)*c
 681              		.loc 1 206 0
 682 03e6 B0EE6B0A 		fcpys	s0, s23
 683 03ea FFF7FEFF 		bl	cosf
 684              	.LVL46:
 685 03ee 60EE0A6A 		fmuls	s13, s0, s20
 207:/home/user/Desktop/STM32-Projekte/FH-Vertibot/src/project_src/IMU_algorithm.c **** 
 208:/home/user/Desktop/STM32-Projekte/FH-Vertibot/src/project_src/IMU_algorithm.c **** 	/*Second line DCM Matrix*/
 209:/home/user/Desktop/STM32-Projekte/FH-Vertibot/src/project_src/IMU_algorithm.c **** 	IMU->dcm_ye_line[0] = -(cosf(euler->pitch)*sinf(euler->yaw));
 210:/home/user/Desktop/STM32-Projekte/FH-Vertibot/src/project_src/IMU_algorithm.c **** 	IMU->dcm_ye_line[1] = (cosf(euler->roll)*cosf(euler->yaw))-(sinf(euler->roll)*sinf(euler->pitch)*s
 686              		.loc 1 210 0
 687 03f2 6AEEA97A 		fmuls	s15, s21, s19
 206:/home/user/Desktop/STM32-Projekte/FH-Vertibot/src/project_src/IMU_algorithm.c **** 	IMU->dcm_xe_line[2] = (sinf(euler->roll)*sinf(euler->yaw))-(cosf(euler->roll)*sinf(euler->pitch)*c
 688              		.loc 1 206 0
 689 03f6 26EE887A 		fmuls	s14, s13, s16
 690 03fa 19EE297A 		fmscs	s14, s18, s19
 211:/home/user/Desktop/STM32-Projekte/FH-Vertibot/src/project_src/IMU_algorithm.c **** 	IMU->dcm_ye_line[2] = (sinf(euler->roll)*cosf(euler->yaw)) + (cosf(euler->roll)*sinf(euler->pitch)
 691              		.loc 1 211 0
 692 03fe 66EEA99A 		fmuls	s19, s13, s19
 693 0402 49EE089A 		fmacs	s19, s18, s16
 210:/home/user/Desktop/STM32-Projekte/FH-Vertibot/src/project_src/IMU_algorithm.c **** 	IMU->dcm_ye_line[1] = (cosf(euler->roll)*cosf(euler->yaw))-(sinf(euler->roll)*sinf(euler->pitch)*s
 694              		.loc 1 210 0
 695 0406 50EE087A 		fmscs	s15, s0, s16
 212:/home/user/Desktop/STM32-Projekte/FH-Vertibot/src/project_src/IMU_algorithm.c **** 
 213:/home/user/Desktop/STM32-Projekte/FH-Vertibot/src/project_src/IMU_algorithm.c **** 	/*Third line DCM Matrix*/
 214:/home/user/Desktop/STM32-Projekte/FH-Vertibot/src/project_src/IMU_algorithm.c **** 	IMU->dcm_ze_line[0] = sinf(euler->pitch);
 215:/home/user/Desktop/STM32-Projekte/FH-Vertibot/src/project_src/IMU_algorithm.c **** 	IMU->dcm_ze_line[1] = -sinf(euler->roll)*cosf(euler->pitch);
 696              		.loc 1 215 0
 697 040a 29EE689A 		fnmuls	s18, s18, s17
 216:/home/user/Desktop/STM32-Projekte/FH-Vertibot/src/project_src/IMU_algorithm.c **** 	IMU->dcm_ze_line[2] = cosf(euler->roll)*cosf(euler->pitch);
 698              		.loc 1 216 0
 699 040e 60EE288A 		fmuls	s17, s0, s17
 209:/home/user/Desktop/STM32-Projekte/FH-Vertibot/src/project_src/IMU_algorithm.c **** 	IMU->dcm_ye_line[0] = -(cosf(euler->pitch)*sinf(euler->yaw));
 700              		.loc 1 209 0
 701 0412 B1EE4BBA 		fnegs	s22, s22
 206:/home/user/Desktop/STM32-Projekte/FH-Vertibot/src/project_src/IMU_algorithm.c **** 	IMU->dcm_xe_line[2] = (sinf(euler->roll)*sinf(euler->yaw))-(cosf(euler->roll)*sinf(euler->pitch)*c
 702              		.loc 1 206 0
 703 0416 84ED037A 		fsts	s14, [r4, #12]
 209:/home/user/Desktop/STM32-Projekte/FH-Vertibot/src/project_src/IMU_algorithm.c **** 	IMU->dcm_ye_line[0] = -(cosf(euler->pitch)*sinf(euler->yaw));
 704              		.loc 1 209 0
 705 041a 84ED04BA 		fsts	s22, [r4, #16]
 210:/home/user/Desktop/STM32-Projekte/FH-Vertibot/src/project_src/IMU_algorithm.c **** 	IMU->dcm_ye_line[1] = (cosf(euler->roll)*cosf(euler->yaw))-(sinf(euler->roll)*sinf(euler->pitch)*s
 706              		.loc 1 210 0
 707 041e C4ED057A 		fsts	s15, [r4, #20]
 211:/home/user/Desktop/STM32-Projekte/FH-Vertibot/src/project_src/IMU_algorithm.c **** 	IMU->dcm_ye_line[2] = (sinf(euler->roll)*cosf(euler->yaw)) + (cosf(euler->roll)*sinf(euler->pitch)
 708              		.loc 1 211 0
 709 0422 C4ED069A 		fsts	s19, [r4, #24]
 214:/home/user/Desktop/STM32-Projekte/FH-Vertibot/src/project_src/IMU_algorithm.c **** 	IMU->dcm_ze_line[0] = sinf(euler->pitch);
 710              		.loc 1 214 0
 711 0426 84ED07AA 		fsts	s20, [r4, #28]
 215:/home/user/Desktop/STM32-Projekte/FH-Vertibot/src/project_src/IMU_algorithm.c **** 	IMU->dcm_ze_line[1] = -sinf(euler->roll)*cosf(euler->pitch);
 712              		.loc 1 215 0
 713 042a 84ED089A 		fsts	s18, [r4, #32]
 714              		.loc 1 216 0
 715 042e C4ED098A 		fsts	s17, [r4, #36]
 217:/home/user/Desktop/STM32-Projekte/FH-Vertibot/src/project_src/IMU_algorithm.c **** }
 716              		.loc 1 217 0
 717 0432 BDEC088B 		fldmfdd	sp!, {d8, d9, d10, d11}
 718 0436 38BD     		pop	{r3, r4, r5, pc}
 719              		.cfi_endproc
 720              	.LFE8:
 722              		.align	1
 723              		.global	IMU_DCM_to_XYZ
 724              		.thumb
 725              		.thumb_func
 727              	IMU_DCM_to_XYZ:
 728              	.LFB9:
 218:/home/user/Desktop/STM32-Projekte/FH-Vertibot/src/project_src/IMU_algorithm.c **** 
 219:/home/user/Desktop/STM32-Projekte/FH-Vertibot/src/project_src/IMU_algorithm.c **** //! DCM to kartesic coordinates
 220:/home/user/Desktop/STM32-Projekte/FH-Vertibot/src/project_src/IMU_algorithm.c **** void IMU_DCM_to_XYZ(struct IMU_values* IMU, struct XYZ_angles *XYZ)
 221:/home/user/Desktop/STM32-Projekte/FH-Vertibot/src/project_src/IMU_algorithm.c **** {
 729              		.loc 1 221 0
 730              		.cfi_startproc
 731              		@ args = 0, pretend = 0, frame = 0
 732              		@ frame_needed = 0, uses_anonymous_args = 0
 733              	.LVL47:
 734 0438 38B5     		push	{r3, r4, r5, lr}
 735              	.LCFI11:
 736              		.cfi_def_cfa_offset 16
 737              		.cfi_offset 3, -16
 738              		.cfi_offset 4, -12
 739              		.cfi_offset 5, -8
 740              		.cfi_offset 14, -4
 222:/home/user/Desktop/STM32-Projekte/FH-Vertibot/src/project_src/IMU_algorithm.c **** 	XYZ->x = asinf(-IMU->dcm_ze_line[0])*(180/M_PI);
 741              		.loc 1 222 0
 742 043a 90ED070A 		flds	s0, [r0, #28]
 221:/home/user/Desktop/STM32-Projekte/FH-Vertibot/src/project_src/IMU_algorithm.c **** {
 743              		.loc 1 221 0
 744 043e 2DED028B 		fstmfdd	sp!, {d8}
 745              	.LCFI12:
 746              		.cfi_def_cfa_offset 24
 747              		.cfi_offset 80, -24
 748              		.loc 1 222 0
 749 0442 B1EE400A 		fnegs	s0, s0
 221:/home/user/Desktop/STM32-Projekte/FH-Vertibot/src/project_src/IMU_algorithm.c **** {
 750              		.loc 1 221 0
 751 0446 0446     		mov	r4, r0
 752 0448 0D46     		mov	r5, r1
 753              		.loc 1 222 0
 754 044a FFF7FEFF 		bl	asinf
 755              	.LVL48:
 756 044e 9FED0D8A 		flds	s16, .L15
 757 0452 20EE080A 		fmuls	s0, s0, s16
 758 0456 85ED000A 		fsts	s0, [r5, #0]
 223:/home/user/Desktop/STM32-Projekte/FH-Vertibot/src/project_src/IMU_algorithm.c **** 	XYZ->y = asinf(IMU->dcm_ze_line[1])*(180/M_PI);
 759              		.loc 1 223 0
 760 045a 94ED080A 		flds	s0, [r4, #32]
 761 045e FFF7FEFF 		bl	asinf
 762              	.LVL49:
 763 0462 20EE080A 		fmuls	s0, s0, s16
 224:/home/user/Desktop/STM32-Projekte/FH-Vertibot/src/project_src/IMU_algorithm.c **** 	XYZ->z = (atan2f(IMU->dcm_ye_line[0],IMU->dcm_xe_line[0]))*(180/M_PI);
 764              		.loc 1 224 0
 765 0466 D4ED010A 		flds	s1, [r4, #4]
 223:/home/user/Desktop/STM32-Projekte/FH-Vertibot/src/project_src/IMU_algorithm.c **** 	XYZ->y = asinf(IMU->dcm_ze_line[1])*(180/M_PI);
 766              		.loc 1 223 0
 767 046a 85ED010A 		fsts	s0, [r5, #4]
 768              		.loc 1 224 0
 769 046e 94ED040A 		flds	s0, [r4, #16]
 770 0472 FFF7FEFF 		bl	atan2f
 771              	.LVL50:
 772 0476 20EE080A 		fmuls	s0, s0, s16
 773 047a 85ED020A 		fsts	s0, [r5, #8]
 225:/home/user/Desktop/STM32-Projekte/FH-Vertibot/src/project_src/IMU_algorithm.c **** }
 774              		.loc 1 225 0
 775 047e BDEC028B 		fldmfdd	sp!, {d8}
 776 0482 38BD     		pop	{r3, r4, r5, pc}
 777              	.L16:
 778              		.align	2
 779              	.L15:
 780 0484 E02E6542 		.word	1113927392
 781              		.cfi_endproc
 782              	.LFE9:
 784              	.Letext0:
 785              		.file 2 "/home/user/Desktop/STM32-Projekte/FH-Vertibot/src/project_inc/IMU_algorithm.h"
 786              		.file 3 "/home/user/Desktop/STM32-Projekte/FH-Vertibot/src/project_inc/Vector_math.h"
 787              		.file 4 "/opt/CodeSourcery/Sourcery_CodeBench_Lite_for_ARM_EABI/bin/../lib/gcc/arm-none-eabi/4.7.2