   1              		.syntax unified
   2              		.cpu cortex-m4
   3              		.eabi_attribute 27, 3
   4              		.eabi_attribute 28, 1
   5              		.fpu fpv4-sp-d16
   6              		.eabi_attribute 20, 1
   7              		.eabi_attribute 21, 1
   8              		.eabi_attribute 23, 3
   9              		.eabi_attribute 24, 1
  10              		.eabi_attribute 25, 1
  11              		.eabi_attribute 26, 1
  12              		.eabi_attribute 30, 4
  13              		.eabi_attribute 34, 1
  14              		.eabi_attribute 18, 4
  15              		.thumb
  16              		.file	"L3GD20_Lib_SPI.c"
  17              		.text
  18              	.Ltext0:
  19              		.cfi_sections	.debug_frame
  20              		.align	1
  21              		.thumb
  22              		.thumb_func
  24              	L3GD20_SendByte:
  25              	.LFB111:
  26              		.file 1 "/home/user/Desktop/STM32-Projekte/FH-Vertibot/src/project_src/L3GD20_Lib_SPI.c"
   1:/home/user/Desktop/STM32-Projekte/FH-Vertibot/src/project_src/L3GD20_Lib_SPI.c **** /*
   2:/home/user/Desktop/STM32-Projekte/FH-Vertibot/src/project_src/L3GD20_Lib_SPI.c ****  * L3GD20_Lib_SPI.c
   3:/home/user/Desktop/STM32-Projekte/FH-Vertibot/src/project_src/L3GD20_Lib_SPI.c ****  *
   4:/home/user/Desktop/STM32-Projekte/FH-Vertibot/src/project_src/L3GD20_Lib_SPI.c ****  *  Created on: Nov 17, 2012
   5:/home/user/Desktop/STM32-Projekte/FH-Vertibot/src/project_src/L3GD20_Lib_SPI.c ****  *      Author: franz
   6:/home/user/Desktop/STM32-Projekte/FH-Vertibot/src/project_src/L3GD20_Lib_SPI.c ****  */
   7:/home/user/Desktop/STM32-Projekte/FH-Vertibot/src/project_src/L3GD20_Lib_SPI.c **** 
   8:/home/user/Desktop/STM32-Projekte/FH-Vertibot/src/project_src/L3GD20_Lib_SPI.c **** #include <L3GD20_Lib_SPI.h>
   9:/home/user/Desktop/STM32-Projekte/FH-Vertibot/src/project_src/L3GD20_Lib_SPI.c **** 
  10:/home/user/Desktop/STM32-Projekte/FH-Vertibot/src/project_src/L3GD20_Lib_SPI.c **** static uint8_t L3GD20_SendByte(uint8_t byte)
  11:/home/user/Desktop/STM32-Projekte/FH-Vertibot/src/project_src/L3GD20_Lib_SPI.c **** {
  27              		.loc 1 11 0
  28              		.cfi_startproc
  29              		@ args = 0, pretend = 0, frame = 0
  30              		@ frame_needed = 0, uses_anonymous_args = 0
  31              	.LVL0:
  32 0000 10B5     		push	{r4, lr}
  33              	.LCFI0:
  34              		.cfi_def_cfa_offset 8
  35              		.cfi_offset 4, -8
  36              		.cfi_offset 14, -4
  37 0002 0446     		mov	r4, r0
  38              	.LVL1:
  39              	.L3:
  12:/home/user/Desktop/STM32-Projekte/FH-Vertibot/src/project_src/L3GD20_Lib_SPI.c ****   /* Loop while DR register in not empty */
  13:/home/user/Desktop/STM32-Projekte/FH-Vertibot/src/project_src/L3GD20_Lib_SPI.c ****   while (SPI_I2S_GetFlagStatus(L3GD20_SPI, SPI_I2S_FLAG_TXE) == RESET)
  40              		.loc 1 13 0 discriminator 1
  41 0004 0A48     		ldr	r0, .L7
  42 0006 0221     		movs	r1, #2
  43 0008 FFF7FEFF 		bl	SPI_I2S_GetFlagStatus
  44              	.LVL2:
  45 000c 0028     		cmp	r0, #0
  46 000e F9D0     		beq	.L3
  14:/home/user/Desktop/STM32-Projekte/FH-Vertibot/src/project_src/L3GD20_Lib_SPI.c ****   {
  15:/home/user/Desktop/STM32-Projekte/FH-Vertibot/src/project_src/L3GD20_Lib_SPI.c ****   }
  16:/home/user/Desktop/STM32-Projekte/FH-Vertibot/src/project_src/L3GD20_Lib_SPI.c **** 
  17:/home/user/Desktop/STM32-Projekte/FH-Vertibot/src/project_src/L3GD20_Lib_SPI.c ****   /* Send a Byte through the SPI peripheral */
  18:/home/user/Desktop/STM32-Projekte/FH-Vertibot/src/project_src/L3GD20_Lib_SPI.c ****   SPI_SendData8(L3GD20_SPI, byte);
  47              		.loc 1 18 0
  48 0010 0748     		ldr	r0, .L7
  49 0012 2146     		mov	r1, r4
  50 0014 FFF7FEFF 		bl	SPI_SendData8
  51              	.LVL3:
  52              	.L5:
  19:/home/user/Desktop/STM32-Projekte/FH-Vertibot/src/project_src/L3GD20_Lib_SPI.c **** 
  20:/home/user/Desktop/STM32-Projekte/FH-Vertibot/src/project_src/L3GD20_Lib_SPI.c ****   /* Wait to receive a Byte */
  21:/home/user/Desktop/STM32-Projekte/FH-Vertibot/src/project_src/L3GD20_Lib_SPI.c ****   while (SPI_I2S_GetFlagStatus(L3GD20_SPI, SPI_I2S_FLAG_RXNE) == RESET)
  53              		.loc 1 21 0 discriminator 1
  54 0018 0548     		ldr	r0, .L7
  55 001a 0121     		movs	r1, #1
  56 001c FFF7FEFF 		bl	SPI_I2S_GetFlagStatus
  57              	.LVL4:
  58 0020 0028     		cmp	r0, #0
  59 0022 F9D0     		beq	.L5
  22:/home/user/Desktop/STM32-Projekte/FH-Vertibot/src/project_src/L3GD20_Lib_SPI.c ****   {
  23:/home/user/Desktop/STM32-Projekte/FH-Vertibot/src/project_src/L3GD20_Lib_SPI.c ****   }
  24:/home/user/Desktop/STM32-Projekte/FH-Vertibot/src/project_src/L3GD20_Lib_SPI.c **** 
  25:/home/user/Desktop/STM32-Projekte/FH-Vertibot/src/project_src/L3GD20_Lib_SPI.c ****   /* Return the Byte read from the SPI bus */
  26:/home/user/Desktop/STM32-Projekte/FH-Vertibot/src/project_src/L3GD20_Lib_SPI.c ****   return (uint8_t)SPI_ReceiveData8(L3GD20_SPI);
  60              		.loc 1 26 0
  61 0024 0248     		ldr	r0, .L7
  27:/home/user/Desktop/STM32-Projekte/FH-Vertibot/src/project_src/L3GD20_Lib_SPI.c **** }
  62              		.loc 1 27 0
  63 0026 BDE81040 		pop	{r4, lr}
  26:/home/user/Desktop/STM32-Projekte/FH-Vertibot/src/project_src/L3GD20_Lib_SPI.c ****   return (uint8_t)SPI_ReceiveData8(L3GD20_SPI);
  64              		.loc 1 26 0
  65 002a FFF7FEBF 		b	SPI_ReceiveData8
  66              	.LVL5:
  67              	.L8:
  68 002e 00BF     		.align	2
  69              	.L7:
  70 0030 00300140 		.word	1073819648
  71              		.cfi_endproc
  72              	.LFE111:
  74              		.align	1
  75              		.global	L3GD20_Init
  76              		.thumb
  77              		.thumb_func
  79              	L3GD20_Init:
  80              	.LFB112:
  28:/home/user/Desktop/STM32-Projekte/FH-Vertibot/src/project_src/L3GD20_Lib_SPI.c **** 
  29:/home/user/Desktop/STM32-Projekte/FH-Vertibot/src/project_src/L3GD20_Lib_SPI.c **** 
  30:/home/user/Desktop/STM32-Projekte/FH-Vertibot/src/project_src/L3GD20_Lib_SPI.c **** 
  31:/home/user/Desktop/STM32-Projekte/FH-Vertibot/src/project_src/L3GD20_Lib_SPI.c **** void L3GD20_Init(void)
  32:/home/user/Desktop/STM32-Projekte/FH-Vertibot/src/project_src/L3GD20_Lib_SPI.c **** {
  81              		.loc 1 32 0
  82              		.cfi_startproc
  83              		@ args = 0, pretend = 0, frame = 0
  84              		@ frame_needed = 0, uses_anonymous_args = 0
  85              	.LVL6:
  86 0034 10B5     		push	{r4, lr}
  87              	.LCFI1:
  88              		.cfi_def_cfa_offset 8
  89              		.cfi_offset 4, -8
  90              		.cfi_offset 14, -4
  33:/home/user/Desktop/STM32-Projekte/FH-Vertibot/src/project_src/L3GD20_Lib_SPI.c ****   uint8_t ctrl1 = 0x00, ctrl2 = 0x00, ctrl5 = 0x00, ctrl4 = 0x00;
  34:/home/user/Desktop/STM32-Projekte/FH-Vertibot/src/project_src/L3GD20_Lib_SPI.c **** 
  35:/home/user/Desktop/STM32-Projekte/FH-Vertibot/src/project_src/L3GD20_Lib_SPI.c ****   /* Configure the low level interface ---------------------------------------*/
  36:/home/user/Desktop/STM32-Projekte/FH-Vertibot/src/project_src/L3GD20_Lib_SPI.c ****   //L3GD20_LowLevel_Init();
  37:/home/user/Desktop/STM32-Projekte/FH-Vertibot/src/project_src/L3GD20_Lib_SPI.c **** 
  38:/home/user/Desktop/STM32-Projekte/FH-Vertibot/src/project_src/L3GD20_Lib_SPI.c ****   /* Configure MEMS: data rate, power mode, full scale and axes */
  39:/home/user/Desktop/STM32-Projekte/FH-Vertibot/src/project_src/L3GD20_Lib_SPI.c **** //  ctrl1 = (uint8_t) (L3GD20_MODE_ACTIVE | L3GD20_OUTPUT_DATARATE_4  |
  40:/home/user/Desktop/STM32-Projekte/FH-Vertibot/src/project_src/L3GD20_Lib_SPI.c **** //		  	  	  	  L3GD20_AXES_ENABLE | L3GD20_BANDWIDTH_2);
  41:/home/user/Desktop/STM32-Projekte/FH-Vertibot/src/project_src/L3GD20_Lib_SPI.c **** 
  42:/home/user/Desktop/STM32-Projekte/FH-Vertibot/src/project_src/L3GD20_Lib_SPI.c ****   ctrl1 = (uint8_t) (L3GD20_MODE_ACTIVE | L3GD20_OUTPUT_DATARATE_4  |
  43:/home/user/Desktop/STM32-Projekte/FH-Vertibot/src/project_src/L3GD20_Lib_SPI.c **** 		  	  	  	  L3GD20_AXES_ENABLE | L3GD20_BANDWIDTH_4);
  44:/home/user/Desktop/STM32-Projekte/FH-Vertibot/src/project_src/L3GD20_Lib_SPI.c **** 
  45:/home/user/Desktop/STM32-Projekte/FH-Vertibot/src/project_src/L3GD20_Lib_SPI.c ****   ctrl2 = (uint8_t) (0x34); /* CTRL_REG2   HPF Setup HPF(0,5Hz-4Hz) Autoreset */
  46:/home/user/Desktop/STM32-Projekte/FH-Vertibot/src/project_src/L3GD20_Lib_SPI.c **** 
  47:/home/user/Desktop/STM32-Projekte/FH-Vertibot/src/project_src/L3GD20_Lib_SPI.c ****   ctrl4 = (uint8_t) (L3GD20_BlockDataUpdate_Single  | L3GD20_BLE_LSB |
  48:/home/user/Desktop/STM32-Projekte/FH-Vertibot/src/project_src/L3GD20_Lib_SPI.c **** 		  	  	  	  L3GD20_FULLSCALE_2000);
  49:/home/user/Desktop/STM32-Projekte/FH-Vertibot/src/project_src/L3GD20_Lib_SPI.c **** 
  50:/home/user/Desktop/STM32-Projekte/FH-Vertibot/src/project_src/L3GD20_Lib_SPI.c ****   ctrl5 = (uint8_t) (0x13); /* CTRL_REG5   low pass filter enable, high pass filter enabled */
  51:/home/user/Desktop/STM32-Projekte/FH-Vertibot/src/project_src/L3GD20_Lib_SPI.c **** 
  52:/home/user/Desktop/STM32-Projekte/FH-Vertibot/src/project_src/L3GD20_Lib_SPI.c **** 
  53:/home/user/Desktop/STM32-Projekte/FH-Vertibot/src/project_src/L3GD20_Lib_SPI.c ****   /* Write value to MEMS CTRL_REG1 regsister */
  54:/home/user/Desktop/STM32-Projekte/FH-Vertibot/src/project_src/L3GD20_Lib_SPI.c ****   L3GD20_CS_LOW();
  91              		.loc 1 54 0
  92 0036 1D4C     		ldr	r4, .L10
  93 0038 0821     		movs	r1, #8
  94 003a 2046     		mov	r0, r4
  95 003c FFF7FEFF 		bl	GPIO_ResetBits
  96              	.LVL7:
  55:/home/user/Desktop/STM32-Projekte/FH-Vertibot/src/project_src/L3GD20_Lib_SPI.c ****   L3GD20_SendByte(L3GD20_CTRL_REG1_ADDR);
  97              		.loc 1 55 0
  98 0040 2020     		movs	r0, #32
  99 0042 FFF7DDFF 		bl	L3GD20_SendByte
 100              	.LVL8:
  56:/home/user/Desktop/STM32-Projekte/FH-Vertibot/src/project_src/L3GD20_Lib_SPI.c ****   L3GD20_SendByte(ctrl1);
 101              		.loc 1 56 0
 102 0046 FF20     		movs	r0, #255
 103 0048 FFF7DAFF 		bl	L3GD20_SendByte
 104              	.LVL9:
  57:/home/user/Desktop/STM32-Projekte/FH-Vertibot/src/project_src/L3GD20_Lib_SPI.c ****   L3GD20_CS_HIGH();
 105              		.loc 1 57 0
 106 004c 2046     		mov	r0, r4
 107 004e 0821     		movs	r1, #8
 108 0050 FFF7FEFF 		bl	GPIO_SetBits
 109              	.LVL10:
  58:/home/user/Desktop/STM32-Projekte/FH-Vertibot/src/project_src/L3GD20_Lib_SPI.c **** 
  59:/home/user/Desktop/STM32-Projekte/FH-Vertibot/src/project_src/L3GD20_Lib_SPI.c ****   /* Write value to MEMS CTRL_REG2 regsister */
  60:/home/user/Desktop/STM32-Projekte/FH-Vertibot/src/project_src/L3GD20_Lib_SPI.c ****   L3GD20_CS_LOW();
 110              		.loc 1 60 0
 111 0054 0821     		movs	r1, #8
 112 0056 2046     		mov	r0, r4
 113 0058 FFF7FEFF 		bl	GPIO_ResetBits
 114              	.LVL11:
  61:/home/user/Desktop/STM32-Projekte/FH-Vertibot/src/project_src/L3GD20_Lib_SPI.c ****   L3GD20_SendByte(L3GD20_CTRL_REG2_ADDR);
 115              		.loc 1 61 0
 116 005c 2120     		movs	r0, #33
 117 005e FFF7CFFF 		bl	L3GD20_SendByte
 118              	.LVL12:
  62:/home/user/Desktop/STM32-Projekte/FH-Vertibot/src/project_src/L3GD20_Lib_SPI.c ****   L3GD20_SendByte(ctrl2);
 119              		.loc 1 62 0
 120 0062 3420     		movs	r0, #52
 121 0064 FFF7CCFF 		bl	L3GD20_SendByte
 122              	.LVL13:
  63:/home/user/Desktop/STM32-Projekte/FH-Vertibot/src/project_src/L3GD20_Lib_SPI.c ****   L3GD20_CS_HIGH();
 123              		.loc 1 63 0
 124 0068 2046     		mov	r0, r4
 125 006a 0821     		movs	r1, #8
 126 006c FFF7FEFF 		bl	GPIO_SetBits
 127              	.LVL14:
  64:/home/user/Desktop/STM32-Projekte/FH-Vertibot/src/project_src/L3GD20_Lib_SPI.c **** 
  65:/home/user/Desktop/STM32-Projekte/FH-Vertibot/src/project_src/L3GD20_Lib_SPI.c ****   /* Write value to MEMS CTRL_REG4 regsister */
  66:/home/user/Desktop/STM32-Projekte/FH-Vertibot/src/project_src/L3GD20_Lib_SPI.c ****   L3GD20_CS_LOW();
 128              		.loc 1 66 0
 129 0070 0821     		movs	r1, #8
 130 0072 2046     		mov	r0, r4
 131 0074 FFF7FEFF 		bl	GPIO_ResetBits
 132              	.LVL15:
  67:/home/user/Desktop/STM32-Projekte/FH-Vertibot/src/project_src/L3GD20_Lib_SPI.c ****   L3GD20_SendByte(L3GD20_CTRL_REG4_ADDR);
 133              		.loc 1 67 0
 134 0078 2320     		movs	r0, #35
 135 007a FFF7C1FF 		bl	L3GD20_SendByte
 136              	.LVL16:
  68:/home/user/Desktop/STM32-Projekte/FH-Vertibot/src/project_src/L3GD20_Lib_SPI.c ****   L3GD20_SendByte(ctrl4);
 137              		.loc 1 68 0
 138 007e A020     		movs	r0, #160
 139 0080 FFF7BEFF 		bl	L3GD20_SendByte
 140              	.LVL17:
  69:/home/user/Desktop/STM32-Projekte/FH-Vertibot/src/project_src/L3GD20_Lib_SPI.c ****   L3GD20_CS_HIGH();
 141              		.loc 1 69 0
 142 0084 2046     		mov	r0, r4
 143 0086 0821     		movs	r1, #8
 144 0088 FFF7FEFF 		bl	GPIO_SetBits
 145              	.LVL18:
  70:/home/user/Desktop/STM32-Projekte/FH-Vertibot/src/project_src/L3GD20_Lib_SPI.c **** 
  71:/home/user/Desktop/STM32-Projekte/FH-Vertibot/src/project_src/L3GD20_Lib_SPI.c ****   /* Write value to MEMS CTRL_REG2 regsister */
  72:/home/user/Desktop/STM32-Projekte/FH-Vertibot/src/project_src/L3GD20_Lib_SPI.c ****   L3GD20_CS_LOW();
 146              		.loc 1 72 0
 147 008c 0821     		movs	r1, #8
 148 008e 2046     		mov	r0, r4
 149 0090 FFF7FEFF 		bl	GPIO_ResetBits
 150              	.LVL19:
  73:/home/user/Desktop/STM32-Projekte/FH-Vertibot/src/project_src/L3GD20_Lib_SPI.c ****   L3GD20_SendByte(L3GD20_CTRL_REG5_ADDR);
 151              		.loc 1 73 0
 152 0094 2420     		movs	r0, #36
 153 0096 FFF7B3FF 		bl	L3GD20_SendByte
 154              	.LVL20:
  74:/home/user/Desktop/STM32-Projekte/FH-Vertibot/src/project_src/L3GD20_Lib_SPI.c ****   L3GD20_SendByte(ctrl5);
 155              		.loc 1 74 0
 156 009a 1320     		movs	r0, #19
 157 009c FFF7B0FF 		bl	L3GD20_SendByte
 158              	.LVL21:
  75:/home/user/Desktop/STM32-Projekte/FH-Vertibot/src/project_src/L3GD20_Lib_SPI.c ****   L3GD20_CS_HIGH();
 159              		.loc 1 75 0
 160 00a0 2046     		mov	r0, r4
 161 00a2 0821     		movs	r1, #8
  76:/home/user/Desktop/STM32-Projekte/FH-Vertibot/src/project_src/L3GD20_Lib_SPI.c **** }
 162              		.loc 1 76 0
 163 00a4 BDE81040 		pop	{r4, lr}
  75:/home/user/Desktop/STM32-Projekte/FH-Vertibot/src/project_src/L3GD20_Lib_SPI.c ****   L3GD20_CS_HIGH();
 164              		.loc 1 75 0
 165 00a8 FFF7FEBF 		b	GPIO_SetBits
 166              	.LVL22:
 167              	.L11:
 168              		.align	2
 169              	.L10:
 170 00ac 00100048 		.word	1207963648
 171              		.cfi_endproc
 172              	.LFE112:
 174              		.align	1
 175              		.global	L3GD20_Read
 176              		.thumb
 177              		.thumb_func
 179              	L3GD20_Read:
 180              	.LFB113:
  77:/home/user/Desktop/STM32-Projekte/FH-Vertibot/src/project_src/L3GD20_Lib_SPI.c **** 
  78:/home/user/Desktop/STM32-Projekte/FH-Vertibot/src/project_src/L3GD20_Lib_SPI.c **** 
  79:/home/user/Desktop/STM32-Projekte/FH-Vertibot/src/project_src/L3GD20_Lib_SPI.c **** void L3GD20_Read(uint8_t* pBuffer, uint8_t ReadAddr, uint16_t NumByteToRead)
  80:/home/user/Desktop/STM32-Projekte/FH-Vertibot/src/project_src/L3GD20_Lib_SPI.c **** {
 181              		.loc 1 80 0
 182              		.cfi_startproc
 183              		@ args = 0, pretend = 0, frame = 0
 184              		@ frame_needed = 0, uses_anonymous_args = 0
 185              	.LVL23:
  81:/home/user/Desktop/STM32-Projekte/FH-Vertibot/src/project_src/L3GD20_Lib_SPI.c ****   if(NumByteToRead > 0x01)
 186              		.loc 1 81 0
 187 00b0 012A     		cmp	r2, #1
  80:/home/user/Desktop/STM32-Projekte/FH-Vertibot/src/project_src/L3GD20_Lib_SPI.c **** {
 188              		.loc 1 80 0
 189 00b2 70B5     		push	{r4, r5, r6, lr}
 190              	.LCFI2:
 191              		.cfi_def_cfa_offset 16
 192              		.cfi_offset 4, -16
 193              		.cfi_offset 5, -12
 194              		.cfi_offset 6, -8
 195              		.cfi_offset 14, -4
  82:/home/user/Desktop/STM32-Projekte/FH-Vertibot/src/project_src/L3GD20_Lib_SPI.c ****   {
  83:/home/user/Desktop/STM32-Projekte/FH-Vertibot/src/project_src/L3GD20_Lib_SPI.c ****     ReadAddr |= (uint8_t)(READWRITE_CMD | MULTIPLEBYTE_CMD);
 196              		.loc 1 83 0
 197 00b4 8CBF     		ite	hi
 198 00b6 41F0C004 		orrhi	r4, r1, #192
 199              	.LVL24:
  84:/home/user/Desktop/STM32-Projekte/FH-Vertibot/src/project_src/L3GD20_Lib_SPI.c ****   }
  85:/home/user/Desktop/STM32-Projekte/FH-Vertibot/src/project_src/L3GD20_Lib_SPI.c ****   else
  86:/home/user/Desktop/STM32-Projekte/FH-Vertibot/src/project_src/L3GD20_Lib_SPI.c ****   {
  87:/home/user/Desktop/STM32-Projekte/FH-Vertibot/src/project_src/L3GD20_Lib_SPI.c ****     ReadAddr |= (uint8_t)READWRITE_CMD;
 200              		.loc 1 87 0
 201 00ba 41F08004 		orrls	r4, r1, #128
 202              	.LVL25:
  80:/home/user/Desktop/STM32-Projekte/FH-Vertibot/src/project_src/L3GD20_Lib_SPI.c **** {
 203              		.loc 1 80 0
 204 00be 0646     		mov	r6, r0
  88:/home/user/Desktop/STM32-Projekte/FH-Vertibot/src/project_src/L3GD20_Lib_SPI.c ****   }
  89:/home/user/Desktop/STM32-Projekte/FH-Vertibot/src/project_src/L3GD20_Lib_SPI.c ****   /* Set chip select Low at the start of the transmission */
  90:/home/user/Desktop/STM32-Projekte/FH-Vertibot/src/project_src/L3GD20_Lib_SPI.c ****   L3GD20_CS_LOW();
 205              		.loc 1 90 0
 206 00c0 0821     		movs	r1, #8
 207 00c2 0B48     		ldr	r0, .L18
 208              	.LVL26:
  80:/home/user/Desktop/STM32-Projekte/FH-Vertibot/src/project_src/L3GD20_Lib_SPI.c **** {
 209              		.loc 1 80 0
 210 00c4 1546     		mov	r5, r2
 211              		.loc 1 90 0
 212 00c6 FFF7FEFF 		bl	GPIO_ResetBits
 213              	.LVL27:
  91:/home/user/Desktop/STM32-Projekte/FH-Vertibot/src/project_src/L3GD20_Lib_SPI.c **** 
  92:/home/user/Desktop/STM32-Projekte/FH-Vertibot/src/project_src/L3GD20_Lib_SPI.c ****   /* Send the Address of the indexed register */
  93:/home/user/Desktop/STM32-Projekte/FH-Vertibot/src/project_src/L3GD20_Lib_SPI.c ****   L3GD20_SendByte(ReadAddr);
 214              		.loc 1 93 0
 215 00ca 2046     		mov	r0, r4
 216 00cc FFF798FF 		bl	L3GD20_SendByte
 217              	.LVL28:
  94:/home/user/Desktop/STM32-Projekte/FH-Vertibot/src/project_src/L3GD20_Lib_SPI.c **** 
  95:/home/user/Desktop/STM32-Projekte/FH-Vertibot/src/project_src/L3GD20_Lib_SPI.c ****   /* Receive the data that will be read from the device (MSB First) */
  96:/home/user/Desktop/STM32-Projekte/FH-Vertibot/src/project_src/L3GD20_Lib_SPI.c ****   while(NumByteToRead > 0x00)
 218              		.loc 1 96 0
 219 00d0 0024     		movs	r4, #0
 220              	.LVL29:
 221              	.L15:
 222              		.loc 1 96 0 is_stmt 0 discriminator 1
 223 00d2 A3B2     		uxth	r3, r4
 224 00d4 9D42     		cmp	r5, r3
 225 00d6 05D0     		beq	.L17
  97:/home/user/Desktop/STM32-Projekte/FH-Vertibot/src/project_src/L3GD20_Lib_SPI.c ****   {
  98:/home/user/Desktop/STM32-Projekte/FH-Vertibot/src/project_src/L3GD20_Lib_SPI.c ****     /* Send dummy byte (0x00) to generate the SPI clock to L3GD20 (Slave device) */
  99:/home/user/Desktop/STM32-Projekte/FH-Vertibot/src/project_src/L3GD20_Lib_SPI.c ****     *pBuffer = L3GD20_SendByte(DUMMY_BYTE);
 226              		.loc 1 99 0 is_stmt 1
 227 00d8 0020     		movs	r0, #0
 228 00da FFF791FF 		bl	L3GD20_SendByte
 229              	.LVL30:
 230 00de 3055     		strb	r0, [r6, r4]
 231              	.LVL31:
 232 00e0 0134     		adds	r4, r4, #1
 233              	.LVL32:
 234 00e2 F6E7     		b	.L15
 235              	.LVL33:
 236              	.L17:
 100:/home/user/Desktop/STM32-Projekte/FH-Vertibot/src/project_src/L3GD20_Lib_SPI.c ****     NumByteToRead--;
 101:/home/user/Desktop/STM32-Projekte/FH-Vertibot/src/project_src/L3GD20_Lib_SPI.c ****     pBuffer++;
 102:/home/user/Desktop/STM32-Projekte/FH-Vertibot/src/project_src/L3GD20_Lib_SPI.c ****   }
 103:/home/user/Desktop/STM32-Projekte/FH-Vertibot/src/project_src/L3GD20_Lib_SPI.c **** 
 104:/home/user/Desktop/STM32-Projekte/FH-Vertibot/src/project_src/L3GD20_Lib_SPI.c ****   /* Set chip select High at the end of the transmission */
 105:/home/user/Desktop/STM32-Projekte/FH-Vertibot/src/project_src/L3GD20_Lib_SPI.c ****   L3GD20_CS_HIGH();
 237              		.loc 1 105 0
 238 00e4 0248     		ldr	r0, .L18
 239 00e6 0821     		movs	r1, #8
 106:/home/user/Desktop/STM32-Projekte/FH-Vertibot/src/project_src/L3GD20_Lib_SPI.c **** }
 240              		.loc 1 106 0
 241 00e8 BDE87040 		pop	{r4, r5, r6, lr}
 242              	.LVL34:
 105:/home/user/Desktop/STM32-Projekte/FH-Vertibot/src/project_src/L3GD20_Lib_SPI.c ****   L3GD20_CS_HIGH();
 243              		.loc 1 105 0
 244 00ec FFF7FEBF 		b	GPIO_SetBits
 245              	.LVL35:
 246              	.L19:
 247              		.align	2
 248              	.L18:
 249 00f0 00100048 		.word	1207963648
 250              		.cfi_endproc
 251              	.LFE113:
 253              		.align	1
 254              		.global	Gyro_convert
 255              		.thumb
 256              		.thumb_func
 258              	Gyro_convert:
 259              	.LFB114:
 107:/home/user/Desktop/STM32-Projekte/FH-Vertibot/src/project_src/L3GD20_Lib_SPI.c **** 
 108:/home/user/Desktop/STM32-Projekte/FH-Vertibot/src/project_src/L3GD20_Lib_SPI.c **** 
 109:/home/user/Desktop/STM32-Projekte/FH-Vertibot/src/project_src/L3GD20_Lib_SPI.c **** void Gyro_convert(uint8_t Buffer[6], struct gyroValues *gyro, uint8_t bigEndian)
 110:/home/user/Desktop/STM32-Projekte/FH-Vertibot/src/project_src/L3GD20_Lib_SPI.c **** {
 260              		.loc 1 110 0
 261              		.cfi_startproc
 262              		@ args = 0, pretend = 0, frame = 0
 263              		@ frame_needed = 0, uses_anonymous_args = 0
 264              	.LVL36:
 265 00f4 10B5     		push	{r4, lr}
 266              	.LCFI3:
 267              		.cfi_def_cfa_offset 8
 268              		.cfi_offset 4, -8
 269              		.cfi_offset 14, -4
 270 00f6 4378     		ldrb	r3, [r0, #1]	@ zero_extendqisi2
 271 00f8 0478     		ldrb	r4, [r0]	@ zero_extendqisi2
 111:/home/user/Desktop/STM32-Projekte/FH-Vertibot/src/project_src/L3GD20_Lib_SPI.c **** 	if(bigEndian)
 272              		.loc 1 111 0
 273 00fa 52B1     		cbz	r2, .L21
 274              	.LVL37:
 275              	.LBB4:
 276              	.LBB5:
 112:/home/user/Desktop/STM32-Projekte/FH-Vertibot/src/project_src/L3GD20_Lib_SPI.c **** 	{
 113:/home/user/Desktop/STM32-Projekte/FH-Vertibot/src/project_src/L3GD20_Lib_SPI.c **** 		gyro->gyroValueX = (Buffer[1] << 8) | (Buffer[0]);
 277              		.loc 1 113 0
 278 00fc 44EA0323 		orr	r3, r4, r3, lsl #8
 279 0100 0B80     		strh	r3, [r1]	@ movhi
 114:/home/user/Desktop/STM32-Projekte/FH-Vertibot/src/project_src/L3GD20_Lib_SPI.c **** 		gyro->gyroValueY = (Buffer[3] << 8) | (Buffer[2]);
 280              		.loc 1 114 0
 281 0102 C278     		ldrb	r2, [r0, #3]	@ zero_extendqisi2
 282              	.LVL38:
 283 0104 8378     		ldrb	r3, [r0, #2]	@ zero_extendqisi2
 284 0106 43EA0223 		orr	r3, r3, r2, lsl #8
 285 010a 4B80     		strh	r3, [r1, #2]	@ movhi
 115:/home/user/Desktop/STM32-Projekte/FH-Vertibot/src/project_src/L3GD20_Lib_SPI.c **** 		gyro->gyroValueZ = (Buffer[5] << 8) | (Buffer[4]);
 286              		.loc 1 115 0
 287 010c 4279     		ldrb	r2, [r0, #5]	@ zero_extendqisi2
 288 010e 0379     		ldrb	r3, [r0, #4]	@ zero_extendqisi2
 289 0110 09E0     		b	.L23
 290              	.LVL39:
 291              	.L21:
 292              	.LBE5:
 293              	.LBE4:
 116:/home/user/Desktop/STM32-Projekte/FH-Vertibot/src/project_src/L3GD20_Lib_SPI.c **** 	}
 117:/home/user/Desktop/STM32-Projekte/FH-Vertibot/src/project_src/L3GD20_Lib_SPI.c **** 	else
 118:/home/user/Desktop/STM32-Projekte/FH-Vertibot/src/project_src/L3GD20_Lib_SPI.c **** 	{
 119:/home/user/Desktop/STM32-Projekte/FH-Vertibot/src/project_src/L3GD20_Lib_SPI.c **** 		gyro->gyroValueX = (Buffer[0] << 8) | (Buffer[1]);
 294              		.loc 1 119 0
 295 0112 43EA0423 		orr	r3, r3, r4, lsl #8
 296 0116 0B80     		strh	r3, [r1]	@ movhi
 120:/home/user/Desktop/STM32-Projekte/FH-Vertibot/src/project_src/L3GD20_Lib_SPI.c **** 		gyro->gyroValueY = (Buffer[2] << 8) | (Buffer[3]);
 297              		.loc 1 120 0
 298 0118 8278     		ldrb	r2, [r0, #2]	@ zero_extendqisi2
 299              	.LVL40:
 300 011a C378     		ldrb	r3, [r0, #3]	@ zero_extendqisi2
 301 011c 43EA0223 		orr	r3, r3, r2, lsl #8
 302 0120 4B80     		strh	r3, [r1, #2]	@ movhi
 121:/home/user/Desktop/STM32-Projekte/FH-Vertibot/src/project_src/L3GD20_Lib_SPI.c **** 		gyro->gyroValueZ = (Buffer[4] << 8) | (Buffer[5]);
 303              		.loc 1 121 0
 304 0122 0279     		ldrb	r2, [r0, #4]	@ zero_extendqisi2
 305 0124 4379     		ldrb	r3, [r0, #5]	@ zero_extendqisi2
 306              	.L23:
 307 0126 43EA0223 		orr	r3, r3, r2, lsl #8
 308 012a 8B80     		strh	r3, [r1, #4]	@ movhi
 309 012c 10BD     		pop	{r4, pc}
 310              		.cfi_endproc
 311              	.LFE114:
 313              		.align	1
 314              		.global	Gyro_readValues
 315              		.thumb
 316              		.thumb_func
 318              	Gyro_readValues:
 319              	.LFB115:
 122:/home/user/Desktop/STM32-Projekte/FH-Vertibot/src/project_src/L3GD20_Lib_SPI.c **** 	}
 123:/home/user/Desktop/STM32-Projekte/FH-Vertibot/src/project_src/L3GD20_Lib_SPI.c **** }
 124:/home/user/Desktop/STM32-Projekte/FH-Vertibot/src/project_src/L3GD20_Lib_SPI.c **** 
 125:/home/user/Desktop/STM32-Projekte/FH-Vertibot/src/project_src/L3GD20_Lib_SPI.c **** 
 126:/home/user/Desktop/STM32-Projekte/FH-Vertibot/src/project_src/L3GD20_Lib_SPI.c **** void Gyro_readValues (struct gyroValues *gyro)
 127:/home/user/Desktop/STM32-Projekte/FH-Vertibot/src/project_src/L3GD20_Lib_SPI.c **** {
 320              		.loc 1 127 0
 321              		.cfi_startproc
 322              		@ args = 0, pretend = 0, frame = 16
 323              		@ frame_needed = 0, uses_anonymous_args = 0
 324              	.LVL41:
 325 012e 30B5     		push	{r4, r5, lr}
 326              	.LCFI4:
 327              		.cfi_def_cfa_offset 12
 328              		.cfi_offset 4, -12
 329              		.cfi_offset 5, -8
 330              		.cfi_offset 14, -4
 331 0130 85B0     		sub	sp, sp, #20
 332              	.LCFI5:
 333              		.cfi_def_cfa_offset 32
 334              		.loc 1 127 0
 335 0132 0546     		mov	r5, r0
 128:/home/user/Desktop/STM32-Projekte/FH-Vertibot/src/project_src/L3GD20_Lib_SPI.c ****   uint8_t tmpbuffer[6] ={0};
 129:/home/user/Desktop/STM32-Projekte/FH-Vertibot/src/project_src/L3GD20_Lib_SPI.c ****   uint8_t tmpreg = 0;
 336              		.loc 1 129 0
 337 0134 04A8     		add	r0, sp, #16
 338              	.LVL42:
 128:/home/user/Desktop/STM32-Projekte/FH-Vertibot/src/project_src/L3GD20_Lib_SPI.c ****   uint8_t tmpbuffer[6] ={0};
 339              		.loc 1 128 0
 340 0136 0024     		movs	r4, #0
 341              		.loc 1 129 0
 342 0138 00F8094D 		strb	r4, [r0, #-9]!
 130:/home/user/Desktop/STM32-Projekte/FH-Vertibot/src/project_src/L3GD20_Lib_SPI.c **** 
 131:/home/user/Desktop/STM32-Projekte/FH-Vertibot/src/project_src/L3GD20_Lib_SPI.c ****   L3GD20_Read(&tmpreg,L3GD20_CTRL_REG4_ADDR,1);
 343              		.loc 1 131 0
 344 013c 2321     		movs	r1, #35
 345 013e 0122     		movs	r2, #1
 128:/home/user/Desktop/STM32-Projekte/FH-Vertibot/src/project_src/L3GD20_Lib_SPI.c ****   uint8_t tmpbuffer[6] ={0};
 346              		.loc 1 128 0
 347 0140 0294     		str	r4, [sp, #8]
 348 0142 ADF80C40 		strh	r4, [sp, #12]	@ movhi
 349              		.loc 1 131 0
 350 0146 FFF7FEFF 		bl	L3GD20_Read
 351              	.LVL43:
 132:/home/user/Desktop/STM32-Projekte/FH-Vertibot/src/project_src/L3GD20_Lib_SPI.c ****   L3GD20_Read(tmpbuffer,L3GD20_OUT_X_L_ADDR,6);
 352              		.loc 1 132 0
 353 014a 02A8     		add	r0, sp, #8
 354 014c 2821     		movs	r1, #40
 355 014e 0622     		movs	r2, #6
 356 0150 FFF7FEFF 		bl	L3GD20_Read
 357              	.LVL44:
 133:/home/user/Desktop/STM32-Projekte/FH-Vertibot/src/project_src/L3GD20_Lib_SPI.c **** 
 134:/home/user/Desktop/STM32-Projekte/FH-Vertibot/src/project_src/L3GD20_Lib_SPI.c ****   /* check in the control register 4 the data alignment (Big Endian or Little Endian)*/
 135:/home/user/Desktop/STM32-Projekte/FH-Vertibot/src/project_src/L3GD20_Lib_SPI.c ****   if(!(tmpreg & 0x40))
 358              		.loc 1 135 0
 359 0154 9DF80730 		ldrb	r3, [sp, #7]	@ zero_extendqisi2
 360 0158 5B06     		lsls	r3, r3, #25
 361 015a 15D4     		bmi	.L25
 362              	.LVL45:
 363              	.LBB10:
 364              	.LBB11:
 365              	.LBB12:
 113:/home/user/Desktop/STM32-Projekte/FH-Vertibot/src/project_src/L3GD20_Lib_SPI.c **** 		gyro->gyroValueX = (Buffer[1] << 8) | (Buffer[0]);
 366              		.loc 1 113 0
 367 015c 9DF80920 		ldrb	r2, [sp, #9]	@ zero_extendqisi2
 368 0160 9DF80830 		ldrb	r3, [sp, #8]	@ zero_extendqisi2
 369 0164 43EA0223 		orr	r3, r3, r2, lsl #8
 370 0168 2B80     		strh	r3, [r5]	@ movhi
 114:/home/user/Desktop/STM32-Projekte/FH-Vertibot/src/project_src/L3GD20_Lib_SPI.c **** 		gyro->gyroValueY = (Buffer[3] << 8) | (Buffer[2]);
 371              		.loc 1 114 0
 372 016a 9DF80B20 		ldrb	r2, [sp, #11]	@ zero_extendqisi2
 373 016e 9DF80A30 		ldrb	r3, [sp, #10]	@ zero_extendqisi2
 374 0172 43EA0223 		orr	r3, r3, r2, lsl #8
 375 0176 6B80     		strh	r3, [r5, #2]	@ movhi
 115:/home/user/Desktop/STM32-Projekte/FH-Vertibot/src/project_src/L3GD20_Lib_SPI.c **** 		gyro->gyroValueZ = (Buffer[5] << 8) | (Buffer[4]);
 376              		.loc 1 115 0
 377 0178 9DF80D20 		ldrb	r2, [sp, #13]	@ zero_extendqisi2
 378 017c 9DF80C30 		ldrb	r3, [sp, #12]	@ zero_extendqisi2
 379 0180 43EA0223 		orr	r3, r3, r2, lsl #8
 380 0184 AB80     		strh	r3, [r5, #4]	@ movhi
 381 0186 04E0     		b	.L24
 382              	.LVL46:
 383              	.L25:
 384              	.LBE12:
 385              	.LBE11:
 386              	.LBE10:
 136:/home/user/Desktop/STM32-Projekte/FH-Vertibot/src/project_src/L3GD20_Lib_SPI.c ****   {
 137:/home/user/Desktop/STM32-Projekte/FH-Vertibot/src/project_src/L3GD20_Lib_SPI.c **** 	Gyro_convert(&tmpbuffer[0], gyro, 1);
 138:/home/user/Desktop/STM32-Projekte/FH-Vertibot/src/project_src/L3GD20_Lib_SPI.c ****   }
 139:/home/user/Desktop/STM32-Projekte/FH-Vertibot/src/project_src/L3GD20_Lib_SPI.c ****   else
 140:/home/user/Desktop/STM32-Projekte/FH-Vertibot/src/project_src/L3GD20_Lib_SPI.c ****   {
 141:/home/user/Desktop/STM32-Projekte/FH-Vertibot/src/project_src/L3GD20_Lib_SPI.c ****    	Gyro_convert(&tmpbuffer[0], gyro, 0);
 387              		.loc 1 141 0
 388 0188 02A8     		add	r0, sp, #8
 389 018a 2946     		mov	r1, r5
 390 018c 2246     		mov	r2, r4
 391 018e FFF7FEFF 		bl	Gyro_convert
 392              	.LVL47:
 393              	.L24:
 142:/home/user/Desktop/STM32-Projekte/FH-Vertibot/src/project_src/L3GD20_Lib_SPI.c ****   }
 143:/home/user/Desktop/STM32-Projekte/FH-Vertibot/src/project_src/L3GD20_Lib_SPI.c **** }
 394              		.loc 1 143 0
 395 0192 05B0     		add	sp, sp, #20
 396              		@ sp needed
 397 0194 30BD     		pop	{r4, r5, pc}
 398              		.cfi_endproc
 399              	.LFE115:
 401              		.align	1
 402              		.global	Gyro_calibrate
 403              		.thumb
 404              		.thumb_func
 406              	Gyro_calibrate:
 407              	.LFB116:
 144:/home/user/Desktop/STM32-Projekte/FH-Vertibot/src/project_src/L3GD20_Lib_SPI.c **** 
 145:/home/user/Desktop/STM32-Projekte/FH-Vertibot/src/project_src/L3GD20_Lib_SPI.c **** 
 146:/home/user/Desktop/STM32-Projekte/FH-Vertibot/src/project_src/L3GD20_Lib_SPI.c **** 
 147:/home/user/Desktop/STM32-Projekte/FH-Vertibot/src/project_src/L3GD20_Lib_SPI.c **** //ACC und GYRO kalibrieren:
 148:/home/user/Desktop/STM32-Projekte/FH-Vertibot/src/project_src/L3GD20_Lib_SPI.c **** void Gyro_calibrate(struct gyroValues *gyroOffset)
 149:/home/user/Desktop/STM32-Projekte/FH-Vertibot/src/project_src/L3GD20_Lib_SPI.c **** {
 408              		.loc 1 149 0
 409              		.cfi_startproc
 410              		@ args = 0, pretend = 0, frame = 0
 411              		@ frame_needed = 0, uses_anonymous_args = 0
 412              	.LVL48:
 413 0196 2DE9F041 		push	{r4, r5, r6, r7, r8, lr}
 414              	.LCFI6:
 415              		.cfi_def_cfa_offset 24
 416              		.cfi_offset 4, -24
 417              		.cfi_offset 5, -20
 418              		.cfi_offset 6, -16
 419              		.cfi_offset 7, -12
 420              		.cfi_offset 8, -8
 421              		.cfi_offset 14, -4
 422              		.loc 1 149 0
 423 019a 0446     		mov	r4, r0
 150:/home/user/Desktop/STM32-Projekte/FH-Vertibot/src/project_src/L3GD20_Lib_SPI.c **** int i = 0;
 151:/home/user/Desktop/STM32-Projekte/FH-Vertibot/src/project_src/L3GD20_Lib_SPI.c **** int32_t tmpX = 0;
 152:/home/user/Desktop/STM32-Projekte/FH-Vertibot/src/project_src/L3GD20_Lib_SPI.c **** int32_t tmpY = 0;
 153:/home/user/Desktop/STM32-Projekte/FH-Vertibot/src/project_src/L3GD20_Lib_SPI.c **** int32_t tmpZ = 0;
 154:/home/user/Desktop/STM32-Projekte/FH-Vertibot/src/project_src/L3GD20_Lib_SPI.c **** 
 155:/home/user/Desktop/STM32-Projekte/FH-Vertibot/src/project_src/L3GD20_Lib_SPI.c **** L3GD20_Init();
 424              		.loc 1 155 0
 425 019c FFF7FEFF 		bl	L3GD20_Init
 426              	.LVL49:
 427 01a0 6425     		movs	r5, #100
 428              	.LVL50:
 429              	.L29:
 156:/home/user/Desktop/STM32-Projekte/FH-Vertibot/src/project_src/L3GD20_Lib_SPI.c **** 
 157:/home/user/Desktop/STM32-Projekte/FH-Vertibot/src/project_src/L3GD20_Lib_SPI.c **** //discard the first 100 values
 158:/home/user/Desktop/STM32-Projekte/FH-Vertibot/src/project_src/L3GD20_Lib_SPI.c **** for(i=0;i<100;i++)
 159:/home/user/Desktop/STM32-Projekte/FH-Vertibot/src/project_src/L3GD20_Lib_SPI.c **** {
 160:/home/user/Desktop/STM32-Projekte/FH-Vertibot/src/project_src/L3GD20_Lib_SPI.c **** 	Gyro_readValues(gyroOffset);
 430              		.loc 1 160 0 discriminator 2
 431 01a2 2046     		mov	r0, r4
 432 01a4 FFF7FEFF 		bl	Gyro_readValues
 433              	.LVL51:
 158:/home/user/Desktop/STM32-Projekte/FH-Vertibot/src/project_src/L3GD20_Lib_SPI.c **** for(i=0;i<100;i++)
 434              		.loc 1 158 0 discriminator 2
 435 01a8 013D     		subs	r5, r5, #1
 436              	.LVL52:
 437 01aa FAD1     		bne	.L29
 161:/home/user/Desktop/STM32-Projekte/FH-Vertibot/src/project_src/L3GD20_Lib_SPI.c **** }
 162:/home/user/Desktop/STM32-Projekte/FH-Vertibot/src/project_src/L3GD20_Lib_SPI.c **** 
 163:/home/user/Desktop/STM32-Projekte/FH-Vertibot/src/project_src/L3GD20_Lib_SPI.c **** gyroOffset->gyroValueX = 0;
 438              		.loc 1 163 0
 439 01ac 2580     		strh	r5, [r4]	@ movhi
 164:/home/user/Desktop/STM32-Projekte/FH-Vertibot/src/project_src/L3GD20_Lib_SPI.c **** gyroOffset->gyroValueY = 0;
 440              		.loc 1 164 0
 441 01ae 6580     		strh	r5, [r4, #2]	@ movhi
 165:/home/user/Desktop/STM32-Projekte/FH-Vertibot/src/project_src/L3GD20_Lib_SPI.c **** gyroOffset->gyroValueZ = 0;
 442              		.loc 1 165 0
 443 01b0 A580     		strh	r5, [r4, #4]	@ movhi
 444              	.LVL53:
 445 01b2 4FF49678 		mov	r8, #300
 152:/home/user/Desktop/STM32-Projekte/FH-Vertibot/src/project_src/L3GD20_Lib_SPI.c **** int32_t tmpY = 0;
 446              		.loc 1 152 0
 447 01b6 2E46     		mov	r6, r5
 151:/home/user/Desktop/STM32-Projekte/FH-Vertibot/src/project_src/L3GD20_Lib_SPI.c **** int32_t tmpX = 0;
 448              		.loc 1 151 0
 449 01b8 2F46     		mov	r7, r5
 450              	.LVL54:
 451              	.L31:
 166:/home/user/Desktop/STM32-Projekte/FH-Vertibot/src/project_src/L3GD20_Lib_SPI.c **** 
 167:/home/user/Desktop/STM32-Projekte/FH-Vertibot/src/project_src/L3GD20_Lib_SPI.c **** /***************Calibrate the Gyro***************/
 168:/home/user/Desktop/STM32-Projekte/FH-Vertibot/src/project_src/L3GD20_Lib_SPI.c **** for(i=0;i<average_loop_value;i++)
 169:/home/user/Desktop/STM32-Projekte/FH-Vertibot/src/project_src/L3GD20_Lib_SPI.c **** {
 170:/home/user/Desktop/STM32-Projekte/FH-Vertibot/src/project_src/L3GD20_Lib_SPI.c **** 
 171:/home/user/Desktop/STM32-Projekte/FH-Vertibot/src/project_src/L3GD20_Lib_SPI.c **** 	Gyro_readValues(gyroOffset);
 452              		.loc 1 171 0 discriminator 2
 453 01ba 2046     		mov	r0, r4
 454 01bc FFF7FEFF 		bl	Gyro_readValues
 455              	.LVL55:
 172:/home/user/Desktop/STM32-Projekte/FH-Vertibot/src/project_src/L3GD20_Lib_SPI.c **** 	tmpX += gyroOffset->gyroValueX;
 456              		.loc 1 172 0 discriminator 2
 457 01c0 B4F90030 		ldrsh	r3, [r4]
 458 01c4 1F44     		add	r7, r7, r3
 459              	.LVL56:
 173:/home/user/Desktop/STM32-Projekte/FH-Vertibot/src/project_src/L3GD20_Lib_SPI.c **** 	tmpY += gyroOffset->gyroValueY;
 460              		.loc 1 173 0 discriminator 2
 461 01c6 B4F90230 		ldrsh	r3, [r4, #2]
 462 01ca 1E44     		add	r6, r6, r3
 463              	.LVL57:
 174:/home/user/Desktop/STM32-Projekte/FH-Vertibot/src/project_src/L3GD20_Lib_SPI.c **** 	tmpZ += gyroOffset->gyroValueZ;
 464              		.loc 1 174 0 discriminator 2
 465 01cc B4F90430 		ldrsh	r3, [r4, #4]
 168:/home/user/Desktop/STM32-Projekte/FH-Vertibot/src/project_src/L3GD20_Lib_SPI.c **** for(i=0;i<average_loop_value;i++)
 466              		.loc 1 168 0 discriminator 2
 467 01d0 B8F10108 		subs	r8, r8, #1
 468              	.LVL58:
 469              		.loc 1 174 0 discriminator 2
 470 01d4 1D44     		add	r5, r5, r3
 471              	.LVL59:
 168:/home/user/Desktop/STM32-Projekte/FH-Vertibot/src/project_src/L3GD20_Lib_SPI.c **** for(i=0;i<average_loop_value;i++)
 472              		.loc 1 168 0 discriminator 2
 473 01d6 F0D1     		bne	.L31
 175:/home/user/Desktop/STM32-Projekte/FH-Vertibot/src/project_src/L3GD20_Lib_SPI.c **** }
 176:/home/user/Desktop/STM32-Projekte/FH-Vertibot/src/project_src/L3GD20_Lib_SPI.c **** 
 177:/home/user/Desktop/STM32-Projekte/FH-Vertibot/src/project_src/L3GD20_Lib_SPI.c **** gyroOffset->gyroValueX = tmpX/average_loop_value;
 474              		.loc 1 177 0
 475 01d8 4FF49673 		mov	r3, #300
 476 01dc 97FBF3F7 		sdiv	r7, r7, r3
 477              	.LVL60:
 178:/home/user/Desktop/STM32-Projekte/FH-Vertibot/src/project_src/L3GD20_Lib_SPI.c **** gyroOffset->gyroValueY = tmpY/average_loop_value;
 478              		.loc 1 178 0
 479 01e0 96FBF3F6 		sdiv	r6, r6, r3
 480              	.LVL61:
 179:/home/user/Desktop/STM32-Projekte/FH-Vertibot/src/project_src/L3GD20_Lib_SPI.c **** gyroOffset->gyroValueZ = tmpZ/average_loop_value;
 481              		.loc 1 179 0
 482 01e4 95FBF3F5 		sdiv	r5, r5, r3
 483              	.LVL62:
 177:/home/user/Desktop/STM32-Projekte/FH-Vertibot/src/project_src/L3GD20_Lib_SPI.c **** gyroOffset->gyroValueX = tmpX/average_loop_value;
 484              		.loc 1 177 0
 485 01e8 2780     		strh	r7, [r4]	@ movhi
 178:/home/user/Desktop/STM32-Projekte/FH-Vertibot/src/project_src/L3GD20_Lib_SPI.c **** gyroOffset->gyroValueY = tmpY/average_loop_value;
 486              		.loc 1 178 0
 487 01ea 6680     		strh	r6, [r4, #2]	@ movhi
 488              		.loc 1 179 0
 489 01ec A580     		strh	r5, [r4, #4]	@ movhi
 490 01ee BDE8F081 		pop	{r4, r5, r6, r7, r8, pc}
 491              		.cfi_endproc
 492              	.LFE116:
 494              	.Letext0:
 495              		.file 2 "/home/user/gcc-arm-none-eabi-4_8-2013q4/arm-none-eabi/include/stdint.h"
 496              		.file 3 "/home/user/Desktop/STM32-Projekte/FH-Vertibot/src/CMSIS/Device/ST/STM32F30x/Include/stm32
 497              		.file 4 "/home/user/Desktop/STM32-Projekte/FH-Vertibot/src/project_inc/L3GD20_Lib_SPI.h"
 498              		.file 5 "/home/user/Desktop/STM32-Projekte/FH-Vertibot/src/STM32F30x_StdPeriph_Driver/inc/stm32f30
 499              		.file 6 "/home/user/Desktop/STM32-Projekte/FH-Vertibot/src/STM32F30x_StdPeriph_Driver/inc/stm32f30
 500              		.file 7 "/home/user/Desktop/STM32-Projekte/FH-Vertibot/src/CMSIS/Include/core_cm4.h"
DEFINED SYMBOLS
                            *ABS*:00000000 L3GD20_Lib_SPI.c
     /tmp/ccrubo4X.s:20     .text:00000000 $t
     /tmp/ccrubo4X.s:24     .text:00000000 L3GD20_SendByte
     /tmp/ccrubo4X.s:70     .text:00000030 $d
     /tmp/ccrubo4X.s:74     .text:00000034 $t
     /tmp/ccrubo4X.s:79     .text:00000034 L3GD20_Init
     /tmp/ccrubo4X.s:170    .text:000000ac $d
     /tmp/ccrubo4X.s:174    .text:000000b0 $t
     /tmp/ccrubo4X.s:179    .text:000000b0 L3GD20_Read
     /tmp/ccrubo4X.s:249    .text:000000f0 $d
     /tmp/ccrubo4X.s:253    .text:000000f4 $t
     /tmp/ccrubo4X.s:258    .text:000000f4 Gyro_convert
     /tmp/ccrubo4X.s:318    .text:0000012e Gyro_readValues
     /tmp/ccrubo4X.s:406    .text:00000196 Gyro_calibrate
                     .debug_frame:00000010 $d
                           .group:00000000 wm4.1.e41257821655b1beb88e1ee583b76eae
                           .group:00000000 wm4.stm32f30x.h.54.c7b24f715ee55ef38656f44540ae3be6
                           .group:00000000 wm4.core_cm4.h.32.1434cd257ff5806b1b03cd32ab0641e9
                           .group:00000000 wm4.newlib.h.8.384a112feabb3bef7b573ae48cde2e3b
                           .group:00000000 wm4.features.h.22.6a4ca7cd053637cc1d0db6c16f39b2d7
                           .group:00000000 wm4.config.h.212.4163ef2871a828c674038d036b081cfd
                           .group:00000000 wm4._ansi.h.23.5644b60c990a4800b02a6e654e88f93a
                           .group:00000000 wm4.stdint.h.20.54ad762faa59e3c05491630641c8d8bf
                           .group:00000000 wm4.core_cmInstr.h.25.d8165482ef3061013a2fc83e2d85f3d9
                           .group:00000000 wm4.core_cm4_simd.h.29.013e5bcf58dba2d27c60184174208e07
                           .group:00000000 wm4.core_cm4.h.155.cf7c793e178943e1bbf613f1b21cd51a
                           .group:00000000 wm4.stm32f30x.h.292.5f9271075d54fc48f1e25ff79df85cb2
                           .group:00000000 wm4.stm32f30x_adc.h.130.cbebad91f78fb87381fe0860eea6104e
                           .group:00000000 wm4.stm32f30x_comp.h.31.9bbc5f5f1a849069ea9062fbe7b81435
                           .group:00000000 wm4.stm32f30x_dma.h.31.73d173fa6d60026d432f3cf1d2fc4407
                           .group:00000000 wm4.stm32f30x_exti.h.31.22e280aa6e095108654ac8d3c74a2409
                           .group:00000000 wm4.stm32f30x_flash.h.31.bee86dc3079b7049419bdbeec073e2cd
                           .group:00000000 wm4.stm32f30x_gpio.h.31.3745297fee3728b346ad4d2a2467e40f
                           .group:00000000 wm4.stm32f30x_syscfg.h.31.96b023b7dbc3641f358604478433eb5c
                           .group:00000000 wm4.stm32f30x_i2c.h.31.52025acd7f154308042bf46a2835e9d3
                           .group:00000000 wm4.stm32f30x_pwr.h.31.cdef322c6e7f25cfc29954045d24e9b8
                           .group:00000000 wm4.stm32f30x_rcc.h.31.3b94c1144b21d1e4fe780e4d1a02d257
                           .group:00000000 wm4.stm32f30x_spi.h.31.c1ebebab897d23cecc617ec8ad9fd534
                           .group:00000000 wm4.stm32f30x_tim.h.31.336f9cd855fb4e2cd819ac260ded6518
                           .group:00000000 wm4.stm32f30x_usart.h.31.cd85313e29c0a128555b4a7b8ec0f487
                           .group:00000000 wm4.stm32f30x_misc.h.31.f08b0e9f53f0471613b5131bb95f8725
                           .group:00000000 wm4.stm32f30x.h.6173.8b641ba1d9b0040eda9120fe8a414b2d
                           .group:00000000 wm4.stdio.h.31.7c0e28c411445f3f9c5b11accf882760
                           .group:00000000 wm4.stddef.h.184.159df79b4ca79c76561572a55985524c
                           .group:00000000 wm4.stdarg.h.34.3a23a216c0c293b3d2ea2e89281481e6
                           .group:00000000 wm4.stddef.h.39.7e3d906ac58942e0b374c527445f5de5
                           .group:00000000 wm4._default_types.h.6.5e12cd604db8ce00b62bb2f02708eaf3
                           .group:00000000 wm4.lock.h.2.9bc98482741e5e2a9450b12934a684ea
                           .group:00000000 wm4._types.h.54.d3d34a3b7f3cc230cd159baf022b4b08
                           .group:00000000 wm4.stddef.h.158.61317cdbfb4026324507d123a50b0fd6
                           .group:00000000 wm4.reent.h.17.8bd9e4098e0428508c282cad794fae43
                           .group:00000000 wm4.types.h.23.0d949686bbcadd1621462d4fa1f884f9
                           .group:00000000 wm4.types.h.2.e9cec8c90ab35f77d9f499e06ae02400
                           .group:00000000 wm4.types.h.80.5759fe41f87f5211a5952dfb1fc64f19
                           .group:00000000 wm4.stdio.h.2.4aa87247282eca6c8f36f9de33d8df1a
                           .group:00000000 wm4.stdio.h.64.0f05fa42cfe2db7fc44729a52d3ba948
                           .group:00000000 wm4.stdlib.h.13.4ed386f5c1a80d71e72172885d946ef2
                           .group:00000000 wm4.stddef.h.158.a7efb00f6cbc6f43213b50e183c9830c
                           .group:00000000 wm4.alloca.h.8.dfc0c703c47ec3e69746825b17d9e66d
                           .group:00000000 wm4.stdlib.h.51.fdf1045aaa750fe709619c2027b96513
                           .group:00000000 wm4.ctype.h.2.807cf8b53e92f83ce947ab40213cf812
                           .group:00000000 wm4.math.h.35.13c5bec129ef04ad1bb0a1152b29c624
                           .group:00000000 wm4.L3GD20_Lib_SPI.h.14.2d8e0310bdc090fe291fed780bf82642

UNDEFINED SYMBOLS
SPI_I2S_GetFlagStatus
SPI_SendData8
SPI_ReceiveData8
GPIO_ResetBits
GPIO_SetBits
