   1              		.syntax unified
   2              		.cpu cortex-m4
   3              		.eabi_attribute 27, 3
   4              		.eabi_attribute 28, 1
   5              		.fpu fpv4-sp-d16
   6              		.eabi_attribute 20, 1
   7              		.eabi_attribute 21, 1
   8              		.eabi_attribute 23, 3
   9              		.eabi_attribute 24, 1
  10              		.eabi_attribute 25, 1
  11              		.eabi_attribute 26, 1
  12              		.eabi_attribute 30, 4
  13              		.eabi_attribute 34, 1
  14              		.eabi_attribute 18, 4
  15              		.thumb
  16              		.file	"PID_control.c"
  17              		.text
  18              	.Ltext0:
  19              		.cfi_sections	.debug_frame
  20              		.align	1
  21              		.global	init_PID
  22              		.thumb
  23              		.thumb_func
  25              	init_PID:
  26              	.LFB0:
  27              		.file 1 "/home/user/Desktop/STM32-Projekte/FH-Vertibot/src/project_src/PID_control.c"
   1:/home/user/Desktop/STM32-Projekte/FH-Vertibot/src/project_src/PID_control.c **** #include <PID_control.h>
   2:/home/user/Desktop/STM32-Projekte/FH-Vertibot/src/project_src/PID_control.c **** 
   3:/home/user/Desktop/STM32-Projekte/FH-Vertibot/src/project_src/PID_control.c **** //float CalcVirtualPlant(SmitPredictor_Control *value, float Input);
   4:/home/user/Desktop/STM32-Projekte/FH-Vertibot/src/project_src/PID_control.c **** //float CalcDelay(SmitPredictor_Control *value, float Input);
   5:/home/user/Desktop/STM32-Projekte/FH-Vertibot/src/project_src/PID_control.c **** 
   6:/home/user/Desktop/STM32-Projekte/FH-Vertibot/src/project_src/PID_control.c **** 
   7:/home/user/Desktop/STM32-Projekte/FH-Vertibot/src/project_src/PID_control.c **** void init_PID(float sample_rate, float kp, float ki, float kd, float kn, PID_Control *values)
   8:/home/user/Desktop/STM32-Projekte/FH-Vertibot/src/project_src/PID_control.c **** {
  28              		.loc 1 8 0
  29              		.cfi_startproc
  30              		@ args = 0, pretend = 0, frame = 0
  31              		@ frame_needed = 0, uses_anonymous_args = 0
  32              		@ link register save eliminated.
  33              	.LVL0:
   9:/home/user/Desktop/STM32-Projekte/FH-Vertibot/src/project_src/PID_control.c **** 	values->sampling_rate = sample_rate;
  34              		.loc 1 9 0
  35 0000 80ED000A 		fsts	s0, [r0]
  10:/home/user/Desktop/STM32-Projekte/FH-Vertibot/src/project_src/PID_control.c **** 	values->kp = kp;
  36              		.loc 1 10 0
  37 0004 C0ED020A 		fsts	s1, [r0, #8]
  11:/home/user/Desktop/STM32-Projekte/FH-Vertibot/src/project_src/PID_control.c **** 	values->ki = ki;
  38              		.loc 1 11 0
  39 0008 80ED031A 		fsts	s2, [r0, #12]
  12:/home/user/Desktop/STM32-Projekte/FH-Vertibot/src/project_src/PID_control.c **** 	values->kd = kd;
  40              		.loc 1 12 0
  41 000c C0ED041A 		fsts	s3, [r0, #16]
  13:/home/user/Desktop/STM32-Projekte/FH-Vertibot/src/project_src/PID_control.c **** 	values->kn = kn;
  42              		.loc 1 13 0
  43 0010 80ED052A 		fsts	s4, [r0, #20]
  44 0014 7047     		bx	lr
  45              		.cfi_endproc
  46              	.LFE0:
  48              		.align	1
  49              		.global	init_SmithPredictor
  50              		.thumb
  51              		.thumb_func
  53              	init_SmithPredictor:
  54              	.LFB1:
  14:/home/user/Desktop/STM32-Projekte/FH-Vertibot/src/project_src/PID_control.c **** }
  15:/home/user/Desktop/STM32-Projekte/FH-Vertibot/src/project_src/PID_control.c **** 
  16:/home/user/Desktop/STM32-Projekte/FH-Vertibot/src/project_src/PID_control.c **** void init_SmithPredictor(float a1, float a2, float b1, float b2, float b3, float gain, SmitPredicto
  17:/home/user/Desktop/STM32-Projekte/FH-Vertibot/src/project_src/PID_control.c **** {
  55              		.loc 1 17 0
  56              		.cfi_startproc
  57              		@ args = 0, pretend = 0, frame = 0
  58              		@ frame_needed = 0, uses_anonymous_args = 0
  59              		@ link register save eliminated.
  60              	.LVL1:
  18:/home/user/Desktop/STM32-Projekte/FH-Vertibot/src/project_src/PID_control.c **** 	values->a1 = a1;
  61              		.loc 1 18 0
  62 0016 80ED0B0A 		fsts	s0, [r0, #44]
  19:/home/user/Desktop/STM32-Projekte/FH-Vertibot/src/project_src/PID_control.c **** 	values->a2 = a2;
  63              		.loc 1 19 0
  64 001a C0ED0C0A 		fsts	s1, [r0, #48]
  20:/home/user/Desktop/STM32-Projekte/FH-Vertibot/src/project_src/PID_control.c **** 	values->b1 = b1;
  65              		.loc 1 20 0
  66 001e 80ED0D1A 		fsts	s2, [r0, #52]
  21:/home/user/Desktop/STM32-Projekte/FH-Vertibot/src/project_src/PID_control.c **** 	values->b2 = b2;
  67              		.loc 1 21 0
  68 0022 C0ED0E1A 		fsts	s3, [r0, #56]
  22:/home/user/Desktop/STM32-Projekte/FH-Vertibot/src/project_src/PID_control.c **** 	values->b3 = b3;
  69              		.loc 1 22 0
  70 0026 80ED0F2A 		fsts	s4, [r0, #60]
  23:/home/user/Desktop/STM32-Projekte/FH-Vertibot/src/project_src/PID_control.c **** 	values->gain = gain;
  71              		.loc 1 23 0
  72 002a C0ED102A 		fsts	s5, [r0, #64]
  73 002e 7047     		bx	lr
  74              		.cfi_endproc
  75              	.LFE1:
  77              		.align	1
  78              		.global	resetIntegralValues_PID
  79              		.thumb
  80              		.thumb_func
  82              	resetIntegralValues_PID:
  83              	.LFB2:
  24:/home/user/Desktop/STM32-Projekte/FH-Vertibot/src/project_src/PID_control.c **** }
  25:/home/user/Desktop/STM32-Projekte/FH-Vertibot/src/project_src/PID_control.c **** 
  26:/home/user/Desktop/STM32-Projekte/FH-Vertibot/src/project_src/PID_control.c **** void resetIntegralValues_PID(PID_Control *values)
  27:/home/user/Desktop/STM32-Projekte/FH-Vertibot/src/project_src/PID_control.c **** {
  84              		.loc 1 27 0
  85              		.cfi_startproc
  86              		@ args = 0, pretend = 0, frame = 0
  87              		@ frame_needed = 0, uses_anonymous_args = 0
  88              		@ link register save eliminated.
  89              	.LVL2:
  28:/home/user/Desktop/STM32-Projekte/FH-Vertibot/src/project_src/PID_control.c **** 	values->ealt = 0;
  90              		.loc 1 28 0
  91 0030 0023     		movs	r3, #0
  92 0032 4362     		str	r3, [r0, #36]	@ float
  29:/home/user/Desktop/STM32-Projekte/FH-Vertibot/src/project_src/PID_control.c **** 	values->Isum = 0;
  93              		.loc 1 29 0
  94 0034 C361     		str	r3, [r0, #28]	@ float
  30:/home/user/Desktop/STM32-Projekte/FH-Vertibot/src/project_src/PID_control.c **** 	values->Dsum = 0;
  95              		.loc 1 30 0
  96 0036 0362     		str	r3, [r0, #32]	@ float
  31:/home/user/Desktop/STM32-Projekte/FH-Vertibot/src/project_src/PID_control.c **** 	values->y = 0;
  97              		.loc 1 31 0
  98 0038 4360     		str	r3, [r0, #4]	@ float
  99 003a 7047     		bx	lr
 100              		.cfi_endproc
 101              	.LFE2:
 103              		.align	1
 104              		.global	calc_PID
 105              		.thumb
 106              		.thumb_func
 108              	calc_PID:
 109              	.LFB3:
  32:/home/user/Desktop/STM32-Projekte/FH-Vertibot/src/project_src/PID_control.c **** }
  33:/home/user/Desktop/STM32-Projekte/FH-Vertibot/src/project_src/PID_control.c **** 
  34:/home/user/Desktop/STM32-Projekte/FH-Vertibot/src/project_src/PID_control.c **** /* Originaler Regler */
  35:/home/user/Desktop/STM32-Projekte/FH-Vertibot/src/project_src/PID_control.c **** // float P = (values->kp*values->e);
  36:/home/user/Desktop/STM32-Projekte/FH-Vertibot/src/project_src/PID_control.c **** // float I = (values->esum*(values->ki*values->sampling_rate));
  37:/home/user/Desktop/STM32-Projekte/FH-Vertibot/src/project_src/PID_control.c **** // float D = (values->kd*values->e -values->Dsum) * values->kn;
  38:/home/user/Desktop/STM32-Projekte/FH-Vertibot/src/project_src/PID_control.c **** // values->Dsum += D * values->sampling_rate;
  39:/home/user/Desktop/STM32-Projekte/FH-Vertibot/src/project_src/PID_control.c **** 
  40:/home/user/Desktop/STM32-Projekte/FH-Vertibot/src/project_src/PID_control.c **** // D-Anteil:
  41:/home/user/Desktop/STM32-Projekte/FH-Vertibot/src/project_src/PID_control.c **** // values->ealt = values->e;
  42:/home/user/Desktop/STM32-Projekte/FH-Vertibot/src/project_src/PID_control.c **** 
  43:/home/user/Desktop/STM32-Projekte/FH-Vertibot/src/project_src/PID_control.c **** 
  44:/home/user/Desktop/STM32-Projekte/FH-Vertibot/src/project_src/PID_control.c **** // Error
  45:/home/user/Desktop/STM32-Projekte/FH-Vertibot/src/project_src/PID_control.c **** //values->e = istwert - sollwert;
  46:/home/user/Desktop/STM32-Projekte/FH-Vertibot/src/project_src/PID_control.c **** //values->e = sollwert - istwert;
  47:/home/user/Desktop/STM32-Projekte/FH-Vertibot/src/project_src/PID_control.c **** 
  48:/home/user/Desktop/STM32-Projekte/FH-Vertibot/src/project_src/PID_control.c **** // I-Anteil aufsummieren:
  49:/home/user/Desktop/STM32-Projekte/FH-Vertibot/src/project_src/PID_control.c **** //values->Isum += (values->e) * values->sampling_rate;
  50:/home/user/Desktop/STM32-Projekte/FH-Vertibot/src/project_src/PID_control.c **** 
  51:/home/user/Desktop/STM32-Projekte/FH-Vertibot/src/project_src/PID_control.c **** // Anti-Windup
  52:/home/user/Desktop/STM32-Projekte/FH-Vertibot/src/project_src/PID_control.c **** //if (values->esum > xx) values->esum = xx;
  53:/home/user/Desktop/STM32-Projekte/FH-Vertibot/src/project_src/PID_control.c **** //if (values->esum < xx) values->esum = xx;
  54:/home/user/Desktop/STM32-Projekte/FH-Vertibot/src/project_src/PID_control.c **** //float P = (values->kp*values->e);
  55:/home/user/Desktop/STM32-Projekte/FH-Vertibot/src/project_src/PID_control.c **** //float I = (values->Isum*(values->ki));
  56:/home/user/Desktop/STM32-Projekte/FH-Vertibot/src/project_src/PID_control.c **** //float D = (values->kd*values->e - values->Dsum ) * values->kn;
  57:/home/user/Desktop/STM32-Projekte/FH-Vertibot/src/project_src/PID_control.c **** //values->Dsum += D * values->sampling_rate;
  58:/home/user/Desktop/STM32-Projekte/FH-Vertibot/src/project_src/PID_control.c **** 
  59:/home/user/Desktop/STM32-Projekte/FH-Vertibot/src/project_src/PID_control.c **** 
  60:/home/user/Desktop/STM32-Projekte/FH-Vertibot/src/project_src/PID_control.c **** void calc_PID(float istwert, float sollwert, PID_Control *PID_Values)
  61:/home/user/Desktop/STM32-Projekte/FH-Vertibot/src/project_src/PID_control.c **** {
 110              		.loc 1 61 0
 111              		.cfi_startproc
 112              		@ args = 0, pretend = 0, frame = 0
 113              		@ frame_needed = 0, uses_anonymous_args = 0
 114              		@ link register save eliminated.
 115              	.LVL3:
  62:/home/user/Desktop/STM32-Projekte/FH-Vertibot/src/project_src/PID_control.c **** 	float P ,I ,D;
  63:/home/user/Desktop/STM32-Projekte/FH-Vertibot/src/project_src/PID_control.c **** 
  64:/home/user/Desktop/STM32-Projekte/FH-Vertibot/src/project_src/PID_control.c **** #define Isum_max 50.0f
  65:/home/user/Desktop/STM32-Projekte/FH-Vertibot/src/project_src/PID_control.c **** 
  66:/home/user/Desktop/STM32-Projekte/FH-Vertibot/src/project_src/PID_control.c **** 	/* */
  67:/home/user/Desktop/STM32-Projekte/FH-Vertibot/src/project_src/PID_control.c **** 	PID_Values->e = sollwert - istwert;
 116              		.loc 1 67 0
 117 003c 70EEC00A 		fsubs	s1, s1, s0
 118              	.LVL4:
  68:/home/user/Desktop/STM32-Projekte/FH-Vertibot/src/project_src/PID_control.c **** 
  69:/home/user/Desktop/STM32-Projekte/FH-Vertibot/src/project_src/PID_control.c **** 	//if(PID_Values->e < 1.0f && PID_Values->e > -1.0f){
  70:/home/user/Desktop/STM32-Projekte/FH-Vertibot/src/project_src/PID_control.c **** 	//	PID_Values->e = 0.0f;
  71:/home/user/Desktop/STM32-Projekte/FH-Vertibot/src/project_src/PID_control.c **** 	//}
  72:/home/user/Desktop/STM32-Projekte/FH-Vertibot/src/project_src/PID_control.c **** 
  73:/home/user/Desktop/STM32-Projekte/FH-Vertibot/src/project_src/PID_control.c **** 	/* Nichtlinearität hinzufügen (x^3) */
  74:/home/user/Desktop/STM32-Projekte/FH-Vertibot/src/project_src/PID_control.c **** 	//PID_Values->e = PID_Values->e * PID_Values->e * PID_Values->e;
  75:/home/user/Desktop/STM32-Projekte/FH-Vertibot/src/project_src/PID_control.c **** 
  76:/home/user/Desktop/STM32-Projekte/FH-Vertibot/src/project_src/PID_control.c **** 
  77:/home/user/Desktop/STM32-Projekte/FH-Vertibot/src/project_src/PID_control.c **** 	// I-Anteil aufsummieren:
  78:/home/user/Desktop/STM32-Projekte/FH-Vertibot/src/project_src/PID_control.c **** 	PID_Values->Isum += (PID_Values->e*PID_Values->ki) * PID_Values->sampling_rate;
 119              		.loc 1 78 0
 120 0040 90ED037A 		flds	s14, [r0, #12]
 121 0044 D0ED077A 		flds	s15, [r0, #28]
 122 0048 90ED006A 		flds	s12, [r0]
  79:/home/user/Desktop/STM32-Projekte/FH-Vertibot/src/project_src/PID_control.c **** 
  80:/home/user/Desktop/STM32-Projekte/FH-Vertibot/src/project_src/PID_control.c **** 	// Anti-Windup
  81:/home/user/Desktop/STM32-Projekte/FH-Vertibot/src/project_src/PID_control.c **** 	if (PID_Values->Isum > Isum_max) PID_Values->Isum = Isum_max;
  82:/home/user/Desktop/STM32-Projekte/FH-Vertibot/src/project_src/PID_control.c **** 	if (PID_Values->Isum < -Isum_max) PID_Values->Isum = -Isum_max;
  83:/home/user/Desktop/STM32-Projekte/FH-Vertibot/src/project_src/PID_control.c **** 
  84:/home/user/Desktop/STM32-Projekte/FH-Vertibot/src/project_src/PID_control.c **** 	P = (PID_Values->kp * PID_Values->e);
  85:/home/user/Desktop/STM32-Projekte/FH-Vertibot/src/project_src/PID_control.c **** 	//I = (PID_Values->Isum * PID_Values->ki);
  86:/home/user/Desktop/STM32-Projekte/FH-Vertibot/src/project_src/PID_control.c **** 	I = PID_Values->Isum;
  87:/home/user/Desktop/STM32-Projekte/FH-Vertibot/src/project_src/PID_control.c **** 	D = (PID_Values->kd * PID_Values->e - PID_Values->Dsum ) * PID_Values->kn;
 123              		.loc 1 87 0
 124 004c D0ED086A 		flds	s13, [r0, #32]
  84:/home/user/Desktop/STM32-Projekte/FH-Vertibot/src/project_src/PID_control.c **** 	P = (PID_Values->kp * PID_Values->e);
 125              		.loc 1 84 0
 126 0050 D0ED025A 		flds	s11, [r0, #8]
 127              	.LVL5:
  67:/home/user/Desktop/STM32-Projekte/FH-Vertibot/src/project_src/PID_control.c **** 	PID_Values->e = sollwert - istwert;
 128              		.loc 1 67 0
 129 0054 C0ED060A 		fsts	s1, [r0, #24]
  78:/home/user/Desktop/STM32-Projekte/FH-Vertibot/src/project_src/PID_control.c **** 	PID_Values->Isum += (PID_Values->e*PID_Values->ki) * PID_Values->sampling_rate;
 130              		.loc 1 78 0
 131 0058 20EE877A 		fmuls	s14, s1, s14
 132              		.loc 1 87 0
 133 005c B0EE665A 		fcpys	s10, s13
  78:/home/user/Desktop/STM32-Projekte/FH-Vertibot/src/project_src/PID_control.c **** 	PID_Values->Isum += (PID_Values->e*PID_Values->ki) * PID_Values->sampling_rate;
 134              		.loc 1 78 0
 135 0060 E7EE067A 		vfma.f32	s15, s14, s12
  81:/home/user/Desktop/STM32-Projekte/FH-Vertibot/src/project_src/PID_control.c **** 	if (PID_Values->Isum > Isum_max) PID_Values->Isum = Isum_max;
 136              		.loc 1 81 0
 137 0064 9FED147A 		flds	s14, .L10
 138 0068 F4EEC77A 		fcmpes	s15, s14
 139 006c F1EE10FA 		fmstat
  78:/home/user/Desktop/STM32-Projekte/FH-Vertibot/src/project_src/PID_control.c **** 	PID_Values->Isum += (PID_Values->e*PID_Values->ki) * PID_Values->sampling_rate;
 140              		.loc 1 78 0
 141 0070 C8BF     		it	gt
 142 0072 F0EE477A 		fcpysgt	s15, s14
  82:/home/user/Desktop/STM32-Projekte/FH-Vertibot/src/project_src/PID_control.c **** 	if (PID_Values->Isum < -Isum_max) PID_Values->Isum = -Isum_max;
 143              		.loc 1 82 0
 144 0076 9FED117A 		flds	s14, .L10+4
  78:/home/user/Desktop/STM32-Projekte/FH-Vertibot/src/project_src/PID_control.c **** 	PID_Values->Isum += (PID_Values->e*PID_Values->ki) * PID_Values->sampling_rate;
 145              		.loc 1 78 0
 146 007a C0ED077A 		fsts	s15, [r0, #28]
  82:/home/user/Desktop/STM32-Projekte/FH-Vertibot/src/project_src/PID_control.c **** 	if (PID_Values->Isum < -Isum_max) PID_Values->Isum = -Isum_max;
 147              		.loc 1 82 0
 148 007e F4EEC77A 		fcmpes	s15, s14
 149 0082 F1EE10FA 		fmstat
 150 0086 48BF     		it	mi
 151 0088 80ED077A 		fstsmi	s14, [r0, #28]
 152              		.loc 1 87 0
 153 008c 90ED047A 		flds	s14, [r0, #16]
  86:/home/user/Desktop/STM32-Projekte/FH-Vertibot/src/project_src/PID_control.c **** 	I = PID_Values->Isum;
 154              		.loc 1 86 0
 155 0090 D0ED077A 		flds	s15, [r0, #28]
 156              	.LVL6:
 157              		.loc 1 87 0
 158 0094 97EE205A 		vfnms.f32	s10, s14, s1
 159 0098 90ED057A 		flds	s14, [r0, #20]
  88:/home/user/Desktop/STM32-Projekte/FH-Vertibot/src/project_src/PID_control.c **** 	PID_Values->Dsum += D * PID_Values->sampling_rate;
  89:/home/user/Desktop/STM32-Projekte/FH-Vertibot/src/project_src/PID_control.c **** 
  90:/home/user/Desktop/STM32-Projekte/FH-Vertibot/src/project_src/PID_control.c **** 	// PID-Regler
  91:/home/user/Desktop/STM32-Projekte/FH-Vertibot/src/project_src/PID_control.c **** 	PID_Values->y = P + I + D;
 160              		.loc 1 91 0
 161 009c E5EEA07A 		vfma.f32	s15, s11, s1
 162              	.LVL7:
  87:/home/user/Desktop/STM32-Projekte/FH-Vertibot/src/project_src/PID_control.c **** 	D = (PID_Values->kd * PID_Values->e - PID_Values->Dsum ) * PID_Values->kn;
 163              		.loc 1 87 0
 164 00a0 25EE077A 		fmuls	s14, s10, s14
 165              	.LVL8:
  88:/home/user/Desktop/STM32-Projekte/FH-Vertibot/src/project_src/PID_control.c **** 	PID_Values->Dsum += D * PID_Values->sampling_rate;
 166              		.loc 1 88 0
 167 00a4 E7EE066A 		vfma.f32	s13, s14, s12
 168              		.loc 1 91 0
 169 00a8 77EE877A 		fadds	s15, s15, s14
  88:/home/user/Desktop/STM32-Projekte/FH-Vertibot/src/project_src/PID_control.c **** 	PID_Values->Dsum += D * PID_Values->sampling_rate;
 170              		.loc 1 88 0
 171 00ac C0ED086A 		fsts	s13, [r0, #32]
 172              		.loc 1 91 0
 173 00b0 C0ED017A 		fsts	s15, [r0, #4]
 174 00b4 7047     		bx	lr
 175              	.L11:
 176 00b6 00BF     		.align	2
 177              	.L10:
 178 00b8 00004842 		.word	1112014848
 179 00bc 000048C2 		.word	-1035468800
 180              		.cfi_endproc
 181              	.LFE3:
 183              		.align	1
 184              		.global	CalcVirtualPlant
 185              		.thumb
 186              		.thumb_func
 188              	CalcVirtualPlant:
 189              	.LFB5:
  92:/home/user/Desktop/STM32-Projekte/FH-Vertibot/src/project_src/PID_control.c **** 	
  93:/home/user/Desktop/STM32-Projekte/FH-Vertibot/src/project_src/PID_control.c **** }
  94:/home/user/Desktop/STM32-Projekte/FH-Vertibot/src/project_src/PID_control.c **** 
  95:/home/user/Desktop/STM32-Projekte/FH-Vertibot/src/project_src/PID_control.c **** void calc_PID_SmithPredictor(float istwert, float sollwert, PID_Control *PID_Values, SmitPredictor_
  96:/home/user/Desktop/STM32-Projekte/FH-Vertibot/src/project_src/PID_control.c **** {
  97:/home/user/Desktop/STM32-Projekte/FH-Vertibot/src/project_src/PID_control.c **** 	static float S, E;
  98:/home/user/Desktop/STM32-Projekte/FH-Vertibot/src/project_src/PID_control.c **** 	float P ,I ,D;
  99:/home/user/Desktop/STM32-Projekte/FH-Vertibot/src/project_src/PID_control.c **** 
 100:/home/user/Desktop/STM32-Projekte/FH-Vertibot/src/project_src/PID_control.c **** #define Isum_max 50.0f
 101:/home/user/Desktop/STM32-Projekte/FH-Vertibot/src/project_src/PID_control.c **** 
 102:/home/user/Desktop/STM32-Projekte/FH-Vertibot/src/project_src/PID_control.c **** 	/* SmithPrädiktor */
 103:/home/user/Desktop/STM32-Projekte/FH-Vertibot/src/project_src/PID_control.c **** 	PID_Values->e = sollwert - ( S - E + istwert);
 104:/home/user/Desktop/STM32-Projekte/FH-Vertibot/src/project_src/PID_control.c **** 
 105:/home/user/Desktop/STM32-Projekte/FH-Vertibot/src/project_src/PID_control.c **** 	// I-Anteil aufsummieren:
 106:/home/user/Desktop/STM32-Projekte/FH-Vertibot/src/project_src/PID_control.c **** 	PID_Values->Isum += (PID_Values->e*PID_Values->ki) * PID_Values->sampling_rate;
 107:/home/user/Desktop/STM32-Projekte/FH-Vertibot/src/project_src/PID_control.c **** 
 108:/home/user/Desktop/STM32-Projekte/FH-Vertibot/src/project_src/PID_control.c **** 	// Anti-Windup
 109:/home/user/Desktop/STM32-Projekte/FH-Vertibot/src/project_src/PID_control.c **** 	if (PID_Values->Isum > Isum_max) PID_Values->Isum = Isum_max;
 110:/home/user/Desktop/STM32-Projekte/FH-Vertibot/src/project_src/PID_control.c **** 	if (PID_Values->Isum < -Isum_max) PID_Values->Isum = -Isum_max;
 111:/home/user/Desktop/STM32-Projekte/FH-Vertibot/src/project_src/PID_control.c **** 
 112:/home/user/Desktop/STM32-Projekte/FH-Vertibot/src/project_src/PID_control.c **** 	P = (PID_Values->kp * PID_Values->e);
 113:/home/user/Desktop/STM32-Projekte/FH-Vertibot/src/project_src/PID_control.c **** 	//I = (PID_Values->Isum * PID_Values->ki);
 114:/home/user/Desktop/STM32-Projekte/FH-Vertibot/src/project_src/PID_control.c **** 	I = PID_Values->Isum;
 115:/home/user/Desktop/STM32-Projekte/FH-Vertibot/src/project_src/PID_control.c **** 	D = (PID_Values->kd * PID_Values->e - PID_Values->Dsum ) * PID_Values->kn;
 116:/home/user/Desktop/STM32-Projekte/FH-Vertibot/src/project_src/PID_control.c **** 	PID_Values->Dsum += D * PID_Values->sampling_rate;
 117:/home/user/Desktop/STM32-Projekte/FH-Vertibot/src/project_src/PID_control.c **** 
 118:/home/user/Desktop/STM32-Projekte/FH-Vertibot/src/project_src/PID_control.c **** 	// PID-Regler
 119:/home/user/Desktop/STM32-Projekte/FH-Vertibot/src/project_src/PID_control.c **** 	PID_Values->y = P + I + D;
 120:/home/user/Desktop/STM32-Projekte/FH-Vertibot/src/project_src/PID_control.c **** 
 121:/home/user/Desktop/STM32-Projekte/FH-Vertibot/src/project_src/PID_control.c **** 	/* Get Virtual Plant */
 122:/home/user/Desktop/STM32-Projekte/FH-Vertibot/src/project_src/PID_control.c **** 	S = CalcVirtualPlant(Plant_Values, PID_Values->y);
 123:/home/user/Desktop/STM32-Projekte/FH-Vertibot/src/project_src/PID_control.c **** 
 124:/home/user/Desktop/STM32-Projekte/FH-Vertibot/src/project_src/PID_control.c **** 	/* Delay */
 125:/home/user/Desktop/STM32-Projekte/FH-Vertibot/src/project_src/PID_control.c **** 	E = CalcDelay(Plant_Values, S);
 126:/home/user/Desktop/STM32-Projekte/FH-Vertibot/src/project_src/PID_control.c **** }
 127:/home/user/Desktop/STM32-Projekte/FH-Vertibot/src/project_src/PID_control.c **** 
 128:/home/user/Desktop/STM32-Projekte/FH-Vertibot/src/project_src/PID_control.c **** /* OLD */
 129:/home/user/Desktop/STM32-Projekte/FH-Vertibot/src/project_src/PID_control.c **** /* Calc PID */
 130:/home/user/Desktop/STM32-Projekte/FH-Vertibot/src/project_src/PID_control.c **** //	PID_Values->Isum = PID_Values->Isum + (PID_Values->e);
 131:/home/user/Desktop/STM32-Projekte/FH-Vertibot/src/project_src/PID_control.c **** //if (values->esum > xx) values->esum = xx;
 132:/home/user/Desktop/STM32-Projekte/FH-Vertibot/src/project_src/PID_control.c **** //if (values->esum < xx) values->esum = xx;
 133:/home/user/Desktop/STM32-Projekte/FH-Vertibot/src/project_src/PID_control.c **** 
 134:/home/user/Desktop/STM32-Projekte/FH-Vertibot/src/project_src/PID_control.c **** //	PID_Values->y = (PID_Values->kp*PID_Values->e) + (PID_Values->Isum*PID_Values->ki*PID_Values->sa
 135:/home/user/Desktop/STM32-Projekte/FH-Vertibot/src/project_src/PID_control.c **** //			(PID_Values->kd*(PID_Values->e - PID_Values->ealt)/PID_Values->sampling_rate);
 136:/home/user/Desktop/STM32-Projekte/FH-Vertibot/src/project_src/PID_control.c **** //	PID_Values->ealt = PID_Values->e;
 137:/home/user/Desktop/STM32-Projekte/FH-Vertibot/src/project_src/PID_control.c **** 
 138:/home/user/Desktop/STM32-Projekte/FH-Vertibot/src/project_src/PID_control.c **** 
 139:/home/user/Desktop/STM32-Projekte/FH-Vertibot/src/project_src/PID_control.c **** /* Simulate Virtual Plant */
 140:/home/user/Desktop/STM32-Projekte/FH-Vertibot/src/project_src/PID_control.c **** /* checked */
 141:/home/user/Desktop/STM32-Projekte/FH-Vertibot/src/project_src/PID_control.c **** float CalcVirtualPlant(SmitPredictor_Control *value, float Input){
 190              		.loc 1 141 0
 191              		.cfi_startproc
 192              		@ args = 0, pretend = 0, frame = 0
 193              		@ frame_needed = 0, uses_anonymous_args = 0
 194              		@ link register save eliminated.
 195              	.LVL9:
 142:/home/user/Desktop/STM32-Projekte/FH-Vertibot/src/project_src/PID_control.c **** 
 143:/home/user/Desktop/STM32-Projekte/FH-Vertibot/src/project_src/PID_control.c **** 	/* Calculate first Section */
 144:/home/user/Desktop/STM32-Projekte/FH-Vertibot/src/project_src/PID_control.c **** 	value->vPlantyT1y[0] = value->b1 * value->vPlantyT1y[1] + value->a1 * value->vPlantyT1x[1];
 196              		.loc 1 144 0
 197 00c0 90ED0B7A 		flds	s14, [r0, #44]
 198 00c4 D0ED047A 		flds	s15, [r0, #16]
 199 00c8 D0ED0D6A 		flds	s13, [r0, #52]
 145:/home/user/Desktop/STM32-Projekte/FH-Vertibot/src/project_src/PID_control.c **** 	value->vPlantyT1x[1] = Input;
 200              		.loc 1 145 0
 201 00cc 80ED040A 		fsts	s0, [r0, #16]
 144:/home/user/Desktop/STM32-Projekte/FH-Vertibot/src/project_src/PID_control.c **** 	value->vPlantyT1y[0] = value->b1 * value->vPlantyT1y[1] + value->a1 * value->vPlantyT1x[1];
 202              		.loc 1 144 0
 203 00d0 67EE277A 		fmuls	s15, s14, s15
 204 00d4 90ED067A 		flds	s14, [r0, #24]
 146:/home/user/Desktop/STM32-Projekte/FH-Vertibot/src/project_src/PID_control.c **** 	value->vPlantyT1y[1] = value->vPlantyT1y[0];
 147:/home/user/Desktop/STM32-Projekte/FH-Vertibot/src/project_src/PID_control.c **** 
 148:/home/user/Desktop/STM32-Projekte/FH-Vertibot/src/project_src/PID_control.c **** 	/* Calculate second Section */
 149:/home/user/Desktop/STM32-Projekte/FH-Vertibot/src/project_src/PID_control.c **** 	value->vPlantyT2y[0] = value->vPlantyT2y[1] + value->a2 * value->vPlantyT2x[1];
 205              		.loc 1 149 0
 206 00d8 90ED0A0A 		flds	s0, [r0, #40]
 207              	.LVL10:
 144:/home/user/Desktop/STM32-Projekte/FH-Vertibot/src/project_src/PID_control.c **** 	value->vPlantyT1y[0] = value->b1 * value->vPlantyT1y[1] + value->a1 * value->vPlantyT1x[1];
 208              		.loc 1 144 0
 209 00dc E6EE877A 		vfma.f32	s15, s13, s14
 210              		.loc 1 149 0
 211 00e0 90ED087A 		flds	s14, [r0, #32]
 212 00e4 D0ED0C6A 		flds	s13, [r0, #48]
 144:/home/user/Desktop/STM32-Projekte/FH-Vertibot/src/project_src/PID_control.c **** 	value->vPlantyT1y[0] = value->b1 * value->vPlantyT1y[1] + value->a1 * value->vPlantyT1x[1];
 213              		.loc 1 144 0
 214 00e8 C0ED057A 		fsts	s15, [r0, #20]
 215              		.loc 1 149 0
 216 00ec A6EE870A 		vfma.f32	s0, s13, s14
 146:/home/user/Desktop/STM32-Projekte/FH-Vertibot/src/project_src/PID_control.c **** 	value->vPlantyT1y[1] = value->vPlantyT1y[0];
 217              		.loc 1 146 0
 218 00f0 C0ED067A 		fsts	s15, [r0, #24]
 219              		.loc 1 149 0
 220 00f4 80ED090A 		fsts	s0, [r0, #36]
 150:/home/user/Desktop/STM32-Projekte/FH-Vertibot/src/project_src/PID_control.c **** 	value->vPlantyT2x[1] = value->vPlantyT1y[0];
 221              		.loc 1 150 0
 222 00f8 C0ED087A 		fsts	s15, [r0, #32]
 151:/home/user/Desktop/STM32-Projekte/FH-Vertibot/src/project_src/PID_control.c **** 	value->vPlantyT2y[1] = value->vPlantyT2y[0];
 223              		.loc 1 151 0
 224 00fc 80ED0A0A 		fsts	s0, [r0, #40]
 152:/home/user/Desktop/STM32-Projekte/FH-Vertibot/src/project_src/PID_control.c **** 
 153:/home/user/Desktop/STM32-Projekte/FH-Vertibot/src/project_src/PID_control.c **** 	return value->vPlantyT2y[0];
 154:/home/user/Desktop/STM32-Projekte/FH-Vertibot/src/project_src/PID_control.c **** }
 225              		.loc 1 154 0
 226 0100 7047     		bx	lr
 227              		.cfi_endproc
 228              	.LFE5:
 230              		.align	1
 231              		.global	CalcVirtualPlant_xxx
 232              		.thumb
 233              		.thumb_func
 235              	CalcVirtualPlant_xxx:
 236              	.LFB6:
 155:/home/user/Desktop/STM32-Projekte/FH-Vertibot/src/project_src/PID_control.c **** 
 156:/home/user/Desktop/STM32-Projekte/FH-Vertibot/src/project_src/PID_control.c **** /* Simulate Virtual Plant */
 157:/home/user/Desktop/STM32-Projekte/FH-Vertibot/src/project_src/PID_control.c **** /* Fehler */
 158:/home/user/Desktop/STM32-Projekte/FH-Vertibot/src/project_src/PID_control.c **** float CalcVirtualPlant_xxx(SmitPredictor_Control *value, float Input){
 237              		.loc 1 158 0
 238              		.cfi_startproc
 239              		@ args = 0, pretend = 0, frame = 0
 240              		@ frame_needed = 0, uses_anonymous_args = 0
 241              		@ link register save eliminated.
 242              	.LVL11:
 159:/home/user/Desktop/STM32-Projekte/FH-Vertibot/src/project_src/PID_control.c **** 	/* shift */
 160:/home/user/Desktop/STM32-Projekte/FH-Vertibot/src/project_src/PID_control.c **** 	value->w[2] = 	value->w[1];
 161:/home/user/Desktop/STM32-Projekte/FH-Vertibot/src/project_src/PID_control.c **** 	value->w[1] =	value->w[0];
 243              		.loc 1 161 0
 244 0102 D0ED006A 		flds	s13, [r0]
 162:/home/user/Desktop/STM32-Projekte/FH-Vertibot/src/project_src/PID_control.c **** 	value->w[0] = 	(value->gain*Input) + (value->a1*value->w[1]) + (value->a2*value->w[2]);
 245              		.loc 1 162 0
 246 0106 D0ED0B7A 		flds	s15, [r0, #44]
 247 010a 90ED106A 		flds	s12, [r0, #64]
 160:/home/user/Desktop/STM32-Projekte/FH-Vertibot/src/project_src/PID_control.c **** 	value->w[2] = 	value->w[1];
 248              		.loc 1 160 0
 249 010e 90ED017A 		flds	s14, [r0, #4]
 161:/home/user/Desktop/STM32-Projekte/FH-Vertibot/src/project_src/PID_control.c **** 	value->w[1] =	value->w[0];
 250              		.loc 1 161 0
 251 0112 C0ED016A 		fsts	s13, [r0, #4]
 252              		.loc 1 162 0
 253 0116 66EEA77A 		fmuls	s15, s13, s15
 160:/home/user/Desktop/STM32-Projekte/FH-Vertibot/src/project_src/PID_control.c **** 	value->w[2] = 	value->w[1];
 254              		.loc 1 160 0
 255 011a 80ED027A 		fsts	s14, [r0, #8]
 256              		.loc 1 162 0
 257 011e E6EE007A 		vfma.f32	s15, s12, s0
 258 0122 90ED0C6A 		flds	s12, [r0, #48]
 163:/home/user/Desktop/STM32-Projekte/FH-Vertibot/src/project_src/PID_control.c **** 	return 		(value->b1*value->w[0]) + (value->b2*value->w[1]) + (value->b3*value->w[2]);
 259              		.loc 1 163 0
 260 0126 90ED0E0A 		flds	s0, [r0, #56]
 261              	.LVL12:
 162:/home/user/Desktop/STM32-Projekte/FH-Vertibot/src/project_src/PID_control.c **** 	value->w[0] = 	(value->gain*Input) + (value->a1*value->w[1]) + (value->a2*value->w[2]);
 262              		.loc 1 162 0
 263 012a E6EE077A 		vfma.f32	s15, s12, s14
 264              		.loc 1 163 0
 265 012e 26EE800A 		fmuls	s0, s13, s0
 266 0132 D0ED0D6A 		flds	s13, [r0, #52]
 162:/home/user/Desktop/STM32-Projekte/FH-Vertibot/src/project_src/PID_control.c **** 	value->w[0] = 	(value->gain*Input) + (value->a1*value->w[1]) + (value->a2*value->w[2]);
 267              		.loc 1 162 0
 268 0136 C0ED007A 		fsts	s15, [r0]
 269              		.loc 1 163 0
 270 013a A6EEA70A 		vfma.f32	s0, s13, s15
 271 013e D0ED0F7A 		flds	s15, [r0, #60]
 164:/home/user/Desktop/STM32-Projekte/FH-Vertibot/src/project_src/PID_control.c **** }
 272              		.loc 1 164 0
 273 0142 A7EE870A 		vfma.f32	s0, s15, s14
 274 0146 7047     		bx	lr
 275              		.cfi_endproc
 276              	.LFE6:
 278              		.align	1
 279              		.global	CalcDirektForm2
 280              		.thumb
 281              		.thumb_func
 283              	CalcDirektForm2:
 284              	.LFB7:
 165:/home/user/Desktop/STM32-Projekte/FH-Vertibot/src/project_src/PID_control.c **** 
 166:/home/user/Desktop/STM32-Projekte/FH-Vertibot/src/project_src/PID_control.c **** /* Fehler */
 167:/home/user/Desktop/STM32-Projekte/FH-Vertibot/src/project_src/PID_control.c **** float CalcDirektForm2(float istwert, float sollwert, SmitPredictor_Control *value){
 285              		.loc 1 167 0
 286              		.cfi_startproc
 287              		@ args = 0, pretend = 0, frame = 0
 288              		@ frame_needed = 0, uses_anonymous_args = 0
 289              		@ link register save eliminated.
 290              	.LVL13:
 168:/home/user/Desktop/STM32-Projekte/FH-Vertibot/src/project_src/PID_control.c **** 	/* shift */
 169:/home/user/Desktop/STM32-Projekte/FH-Vertibot/src/project_src/PID_control.c **** 	float E = sollwert - istwert;
 170:/home/user/Desktop/STM32-Projekte/FH-Vertibot/src/project_src/PID_control.c **** 
 171:/home/user/Desktop/STM32-Projekte/FH-Vertibot/src/project_src/PID_control.c **** 	value->w[2] = 	value->w[1];
 172:/home/user/Desktop/STM32-Projekte/FH-Vertibot/src/project_src/PID_control.c **** 	value->w[1] =	value->w[0];
 291              		.loc 1 172 0
 292 0148 D0ED006A 		flds	s13, [r0]
 173:/home/user/Desktop/STM32-Projekte/FH-Vertibot/src/project_src/PID_control.c **** 	value->w[0] = 	(value->gain*E) + (-value->a1*value->w[1]) + (-value->a2*value->w[2]);
 293              		.loc 1 173 0
 294 014c D0ED0B7A 		flds	s15, [r0, #44]
 295 0150 D0ED105A 		flds	s11, [r0, #64]
 171:/home/user/Desktop/STM32-Projekte/FH-Vertibot/src/project_src/PID_control.c **** 	value->w[2] = 	value->w[1];
 296              		.loc 1 171 0
 297 0154 90ED017A 		flds	s14, [r0, #4]
 298              		.loc 1 173 0
 299 0158 90ED0C6A 		flds	s12, [r0, #48]
 172:/home/user/Desktop/STM32-Projekte/FH-Vertibot/src/project_src/PID_control.c **** 	value->w[1] =	value->w[0];
 300              		.loc 1 172 0
 301 015c C0ED016A 		fsts	s13, [r0, #4]
 169:/home/user/Desktop/STM32-Projekte/FH-Vertibot/src/project_src/PID_control.c **** 	float E = sollwert - istwert;
 302              		.loc 1 169 0
 303 0160 70EEC00A 		fsubs	s1, s1, s0
 304              	.LVL14:
 305              		.loc 1 173 0
 306 0164 67EEE67A 		fnmuls	s15, s15, s13
 174:/home/user/Desktop/STM32-Projekte/FH-Vertibot/src/project_src/PID_control.c **** 	return 		(value->b1*value->w[0]) + (value->b2*value->w[1]) + (value->b3*value->w[2]);
 307              		.loc 1 174 0
 308 0168 90ED0E0A 		flds	s0, [r0, #56]
 309              	.LVL15:
 171:/home/user/Desktop/STM32-Projekte/FH-Vertibot/src/project_src/PID_control.c **** 	value->w[2] = 	value->w[1];
 310              		.loc 1 171 0
 311 016c 80ED027A 		fsts	s14, [r0, #8]
 173:/home/user/Desktop/STM32-Projekte/FH-Vertibot/src/project_src/PID_control.c **** 	value->w[0] = 	(value->gain*E) + (-value->a1*value->w[1]) + (-value->a2*value->w[2]);
 312              		.loc 1 173 0
 313 0170 E5EEA07A 		vfma.f32	s15, s11, s1
 314              		.loc 1 174 0
 315 0174 26EE800A 		fmuls	s0, s13, s0
 173:/home/user/Desktop/STM32-Projekte/FH-Vertibot/src/project_src/PID_control.c **** 	value->w[0] = 	(value->gain*E) + (-value->a1*value->w[1]) + (-value->a2*value->w[2]);
 316              		.loc 1 173 0
 317 0178 E6EE477A 		vfms.f32	s15, s12, s14
 318              		.loc 1 174 0
 319 017c D0ED0D6A 		flds	s13, [r0, #52]
 173:/home/user/Desktop/STM32-Projekte/FH-Vertibot/src/project_src/PID_control.c **** 	value->w[0] = 	(value->gain*E) + (-value->a1*value->w[1]) + (-value->a2*value->w[2]);
 320              		.loc 1 173 0
 321 0180 C0ED007A 		fsts	s15, [r0]
 322              		.loc 1 174 0
 323 0184 A6EEA70A 		vfma.f32	s0, s13, s15
 324 0188 D0ED0F7A 		flds	s15, [r0, #60]
 175:/home/user/Desktop/STM32-Projekte/FH-Vertibot/src/project_src/PID_control.c **** }
 325              		.loc 1 175 0
 326 018c A7EE870A 		vfma.f32	s0, s15, s14
 327 0190 7047     		bx	lr
 328              		.cfi_endproc
 329              	.LFE7:
 331              		.align	1
 332              		.global	CalcDelay
 333              		.thumb
 334              		.thumb_func
 336              	CalcDelay:
 337              	.LFB8:
 176:/home/user/Desktop/STM32-Projekte/FH-Vertibot/src/project_src/PID_control.c **** 
 177:/home/user/Desktop/STM32-Projekte/FH-Vertibot/src/project_src/PID_control.c **** /* FIFO Buffer */
 178:/home/user/Desktop/STM32-Projekte/FH-Vertibot/src/project_src/PID_control.c **** /* Checked */
 179:/home/user/Desktop/STM32-Projekte/FH-Vertibot/src/project_src/PID_control.c **** float CalcDelay(SmitPredictor_Control *value, float Input){
 338              		.loc 1 179 0
 339              		.cfi_startproc
 340              		@ args = 0, pretend = 0, frame = 0
 341              		@ frame_needed = 0, uses_anonymous_args = 0
 342              		@ link register save eliminated.
 343              	.LVL16:
 180:/home/user/Desktop/STM32-Projekte/FH-Vertibot/src/project_src/PID_control.c **** 
 181:/home/user/Desktop/STM32-Projekte/FH-Vertibot/src/project_src/PID_control.c **** 	static unsigned char dlyindex = 0;
 182:/home/user/Desktop/STM32-Projekte/FH-Vertibot/src/project_src/PID_control.c **** 
 183:/home/user/Desktop/STM32-Projekte/FH-Vertibot/src/project_src/PID_control.c **** 	dlyindex++;
 344              		.loc 1 183 0
 345 0192 0A4B     		ldr	r3, .L22
 346 0194 1A78     		ldrb	r2, [r3]	@ zero_extendqisi2
 347 0196 0132     		adds	r2, r2, #1
 348 0198 D2B2     		uxtb	r2, r2
 184:/home/user/Desktop/STM32-Projekte/FH-Vertibot/src/project_src/PID_control.c **** 	if ( dlyindex >= (sizeof(value->fifo)/sizeof(float))) dlyindex = 0;
 349              		.loc 1 184 0
 350 019a 072A     		cmp	r2, #7
 351 019c 88BF     		it	hi
 352 019e 0022     		movhi	r2, #0
 353 01a0 1A70     		strb	r2, [r3]
 185:/home/user/Desktop/STM32-Projekte/FH-Vertibot/src/project_src/PID_control.c **** 	value->fifo[dlyindex] = Input;
 354              		.loc 1 185 0
 355 01a2 1B78     		ldrb	r3, [r3]	@ zero_extendqisi2
 356 01a4 00EB8302 		add	r2, r0, r3, lsl #2
 186:/home/user/Desktop/STM32-Projekte/FH-Vertibot/src/project_src/PID_control.c **** 	if ( dlyindex < ( sizeof(value->fifo)/sizeof(float)-1 ) )
 357              		.loc 1 186 0
 358 01a8 062B     		cmp	r3, #6
 185:/home/user/Desktop/STM32-Projekte/FH-Vertibot/src/project_src/PID_control.c **** 	value->fifo[dlyindex] = Input;
 359              		.loc 1 185 0
 360 01aa 82ED110A 		fsts	s0, [r2, #68]
 361              		.loc 1 186 0
 362 01ae 02D8     		bhi	.L18
 187:/home/user/Desktop/STM32-Projekte/FH-Vertibot/src/project_src/PID_control.c **** 		return value->fifo[(dlyindex + 1)];
 363              		.loc 1 187 0
 364 01b0 92ED120A 		flds	s0, [r2, #72]
 365              	.LVL17:
 366 01b4 7047     		bx	lr
 367              	.LVL18:
 368              	.L18:
 188:/home/user/Desktop/STM32-Projekte/FH-Vertibot/src/project_src/PID_control.c **** 	else
 189:/home/user/Desktop/STM32-Projekte/FH-Vertibot/src/project_src/PID_control.c **** 		return value->fifo[0];
 369              		.loc 1 189 0
 370 01b6 90ED110A 		flds	s0, [r0, #68]
 371              	.LVL19:
 190:/home/user/Desktop/STM32-Projekte/FH-Vertibot/src/project_src/PID_control.c **** }
 372              		.loc 1 190 0
 373 01ba 7047     		bx	lr
 374              	.L23:
 375              		.align	2
 376              	.L22:
 377 01bc 00000000 		.word	.LANCHOR0
 378              		.cfi_endproc
 379              	.LFE8:
 381              		.align	1
 382              		.global	calc_PID_SmithPredictor
 383              		.thumb
 384              		.thumb_func
 386              	calc_PID_SmithPredictor:
 387              	.LFB4:
  96:/home/user/Desktop/STM32-Projekte/FH-Vertibot/src/project_src/PID_control.c **** {
 388              		.loc 1 96 0
 389              		.cfi_startproc
 390              		@ args = 0, pretend = 0, frame = 0
 391              		@ frame_needed = 0, uses_anonymous_args = 0
 392              	.LVL20:
 103:/home/user/Desktop/STM32-Projekte/FH-Vertibot/src/project_src/PID_control.c **** 	PID_Values->e = sollwert - ( S - E + istwert);
 393              		.loc 1 103 0
 394 01c0 294A     		ldr	r2, .L30
 106:/home/user/Desktop/STM32-Projekte/FH-Vertibot/src/project_src/PID_control.c **** 	PID_Values->Isum += (PID_Values->e*PID_Values->ki) * PID_Values->sampling_rate;
 395              		.loc 1 106 0
 396 01c2 D0ED006A 		flds	s13, [r0]
 103:/home/user/Desktop/STM32-Projekte/FH-Vertibot/src/project_src/PID_control.c **** 	PID_Values->e = sollwert - ( S - E + istwert);
 397              		.loc 1 103 0
 398 01c6 92ED017A 		flds	s14, [r2, #4]
 399 01ca D2ED027A 		flds	s15, [r2, #8]
 115:/home/user/Desktop/STM32-Projekte/FH-Vertibot/src/project_src/PID_control.c **** 	D = (PID_Values->kd * PID_Values->e - PID_Values->Dsum ) * PID_Values->kn;
 400              		.loc 1 115 0
 401 01ce D0ED045A 		flds	s11, [r0, #16]
 112:/home/user/Desktop/STM32-Projekte/FH-Vertibot/src/project_src/PID_control.c **** 	P = (PID_Values->kp * PID_Values->e);
 402              		.loc 1 112 0
 403 01d2 90ED026A 		flds	s12, [r0, #8]
 103:/home/user/Desktop/STM32-Projekte/FH-Vertibot/src/project_src/PID_control.c **** 	PID_Values->e = sollwert - ( S - E + istwert);
 404              		.loc 1 103 0
 405 01d6 77EE677A 		fsubs	s15, s14, s15
 106:/home/user/Desktop/STM32-Projekte/FH-Vertibot/src/project_src/PID_control.c **** 	PID_Values->Isum += (PID_Values->e*PID_Values->ki) * PID_Values->sampling_rate;
 406              		.loc 1 106 0
 407 01da 90ED037A 		flds	s14, [r0, #12]
 103:/home/user/Desktop/STM32-Projekte/FH-Vertibot/src/project_src/PID_control.c **** 	PID_Values->e = sollwert - ( S - E + istwert);
 408              		.loc 1 103 0
 409 01de 37EE800A 		fadds	s0, s15, s0
 410              	.LVL21:
 106:/home/user/Desktop/STM32-Projekte/FH-Vertibot/src/project_src/PID_control.c **** 	PID_Values->Isum += (PID_Values->e*PID_Values->ki) * PID_Values->sampling_rate;
 411              		.loc 1 106 0
 412 01e2 D0ED077A 		flds	s15, [r0, #28]
 103:/home/user/Desktop/STM32-Projekte/FH-Vertibot/src/project_src/PID_control.c **** 	PID_Values->e = sollwert - ( S - E + istwert);
 413              		.loc 1 103 0
 414 01e6 70EEC00A 		fsubs	s1, s1, s0
 415              	.LVL22:
  96:/home/user/Desktop/STM32-Projekte/FH-Vertibot/src/project_src/PID_control.c **** {
 416              		.loc 1 96 0
 417 01ea 38B5     		push	{r3, r4, r5, lr}
 418              	.LCFI0:
 419              		.cfi_def_cfa_offset 16
 420              		.cfi_offset 3, -16
 421              		.cfi_offset 4, -12
 422              		.cfi_offset 5, -8
 423              		.cfi_offset 14, -4
 106:/home/user/Desktop/STM32-Projekte/FH-Vertibot/src/project_src/PID_control.c **** 	PID_Values->Isum += (PID_Values->e*PID_Values->ki) * PID_Values->sampling_rate;
 424              		.loc 1 106 0
 425 01ec 20EE877A 		fmuls	s14, s1, s14
 103:/home/user/Desktop/STM32-Projekte/FH-Vertibot/src/project_src/PID_control.c **** 	PID_Values->e = sollwert - ( S - E + istwert);
 426              		.loc 1 103 0
 427 01f0 C0ED060A 		fsts	s1, [r0, #24]
 106:/home/user/Desktop/STM32-Projekte/FH-Vertibot/src/project_src/PID_control.c **** 	PID_Values->Isum += (PID_Values->e*PID_Values->ki) * PID_Values->sampling_rate;
 428              		.loc 1 106 0
 429 01f4 E7EE267A 		vfma.f32	s15, s14, s13
 430 01f8 1446     		mov	r4, r2
  96:/home/user/Desktop/STM32-Projekte/FH-Vertibot/src/project_src/PID_control.c **** {
 431              		.loc 1 96 0
 432 01fa 0D46     		mov	r5, r1
 109:/home/user/Desktop/STM32-Projekte/FH-Vertibot/src/project_src/PID_control.c **** 	if (PID_Values->Isum > Isum_max) PID_Values->Isum = Isum_max;
 433              		.loc 1 109 0
 434 01fc 9FED1B7A 		flds	s14, .L30+4
 106:/home/user/Desktop/STM32-Projekte/FH-Vertibot/src/project_src/PID_control.c **** 	PID_Values->Isum += (PID_Values->e*PID_Values->ki) * PID_Values->sampling_rate;
 435              		.loc 1 106 0
 436 0200 F4EEC77A 		fcmpes	s15, s14
 437 0204 F1EE10FA 		fmstat
 438 0208 C8BF     		it	gt
 439 020a F0EE477A 		fcpysgt	s15, s14
 110:/home/user/Desktop/STM32-Projekte/FH-Vertibot/src/project_src/PID_control.c **** 	if (PID_Values->Isum < -Isum_max) PID_Values->Isum = -Isum_max;
 440              		.loc 1 110 0
 441 020e 9FED187A 		flds	s14, .L30+8
 106:/home/user/Desktop/STM32-Projekte/FH-Vertibot/src/project_src/PID_control.c **** 	PID_Values->Isum += (PID_Values->e*PID_Values->ki) * PID_Values->sampling_rate;
 442              		.loc 1 106 0
 443 0212 C0ED077A 		fsts	s15, [r0, #28]
 110:/home/user/Desktop/STM32-Projekte/FH-Vertibot/src/project_src/PID_control.c **** 	if (PID_Values->Isum < -Isum_max) PID_Values->Isum = -Isum_max;
 444              		.loc 1 110 0
 445 0216 F4EEC77A 		fcmpes	s15, s14
 446 021a F1EE10FA 		fmstat
 447 021e 48BF     		it	mi
 448 0220 80ED077A 		fstsmi	s14, [r0, #28]
 115:/home/user/Desktop/STM32-Projekte/FH-Vertibot/src/project_src/PID_control.c **** 	D = (PID_Values->kd * PID_Values->e - PID_Values->Dsum ) * PID_Values->kn;
 449              		.loc 1 115 0
 450 0224 90ED087A 		flds	s14, [r0, #32]
 114:/home/user/Desktop/STM32-Projekte/FH-Vertibot/src/project_src/PID_control.c **** 	I = PID_Values->Isum;
 451              		.loc 1 114 0
 452 0228 D0ED077A 		flds	s15, [r0, #28]
 453              	.LVL23:
 115:/home/user/Desktop/STM32-Projekte/FH-Vertibot/src/project_src/PID_control.c **** 	D = (PID_Values->kd * PID_Values->e - PID_Values->Dsum ) * PID_Values->kn;
 454              		.loc 1 115 0
 455 022c B0EE470A 		fcpys	s0, s14
 456 0230 95EEA00A 		vfnms.f32	s0, s11, s1
 457 0234 D0ED055A 		flds	s11, [r0, #20]
 119:/home/user/Desktop/STM32-Projekte/FH-Vertibot/src/project_src/PID_control.c **** 	PID_Values->y = P + I + D;
 458              		.loc 1 119 0
 459 0238 E6EE207A 		vfma.f32	s15, s12, s1
 460              	.LVL24:
 115:/home/user/Desktop/STM32-Projekte/FH-Vertibot/src/project_src/PID_control.c **** 	D = (PID_Values->kd * PID_Values->e - PID_Values->Dsum ) * PID_Values->kn;
 461              		.loc 1 115 0
 462 023c 20EE250A 		fmuls	s0, s0, s11
 463              	.LVL25:
 116:/home/user/Desktop/STM32-Projekte/FH-Vertibot/src/project_src/PID_control.c **** 	PID_Values->Dsum += D * PID_Values->sampling_rate;
 464              		.loc 1 116 0
 465 0240 A0EE267A 		vfma.f32	s14, s0, s13
 119:/home/user/Desktop/STM32-Projekte/FH-Vertibot/src/project_src/PID_control.c **** 	PID_Values->y = P + I + D;
 466              		.loc 1 119 0
 467 0244 37EE800A 		fadds	s0, s15, s0
 468              	.LVL26:
 116:/home/user/Desktop/STM32-Projekte/FH-Vertibot/src/project_src/PID_control.c **** 	PID_Values->Dsum += D * PID_Values->sampling_rate;
 469              		.loc 1 116 0
 470 0248 80ED087A 		fsts	s14, [r0, #32]
 471              	.LVL27:
 119:/home/user/Desktop/STM32-Projekte/FH-Vertibot/src/project_src/PID_control.c **** 	PID_Values->y = P + I + D;
 472              		.loc 1 119 0
 473 024c 80ED010A 		fsts	s0, [r0, #4]
 122:/home/user/Desktop/STM32-Projekte/FH-Vertibot/src/project_src/PID_control.c **** 	S = CalcVirtualPlant(Plant_Values, PID_Values->y);
 474              		.loc 1 122 0
 475 0250 0846     		mov	r0, r1
 476              	.LVL28:
 477 0252 FFF7FEFF 		bl	CalcVirtualPlant
 478              	.LVL29:
 125:/home/user/Desktop/STM32-Projekte/FH-Vertibot/src/project_src/PID_control.c **** 	E = CalcDelay(Plant_Values, S);
 479              		.loc 1 125 0
 480 0256 2846     		mov	r0, r5
 122:/home/user/Desktop/STM32-Projekte/FH-Vertibot/src/project_src/PID_control.c **** 	S = CalcVirtualPlant(Plant_Values, PID_Values->y);
 481              		.loc 1 122 0
 482 0258 84ED010A 		fsts	s0, [r4, #4]
 125:/home/user/Desktop/STM32-Projekte/FH-Vertibot/src/project_src/PID_control.c **** 	E = CalcDelay(Plant_Values, S);
 483              		.loc 1 125 0
 484 025c FFF7FEFF 		bl	CalcDelay
 485              	.LVL30:
 486 0260 84ED020A 		fsts	s0, [r4, #8]
 487 0264 38BD     		pop	{r3, r4, r5, pc}
 488              	.LVL31:
 489              	.L31:
 490 0266 00BF     		.align	2
 491              	.L30:
 492 0268 00000000 		.word	.LANCHOR0
 493 026c 00004842 		.word	1112014848
 494 0270 000048C2 		.word	-1035468800
 495              		.cfi_endproc
 496              	.LFE4:
 498              		.align	1
 499              		.global	calc_PID_YAW
 500              		.thumb
 501              		.thumb_func
 503              	calc_PID_YAW:
 504              	.LFB9:
 191:/home/user/Desktop/STM32-Projekte/FH-Vertibot/src/project_src/PID_control.c **** 
 192:/home/user/Desktop/STM32-Projekte/FH-Vertibot/src/project_src/PID_control.c **** 
 193:/home/user/Desktop/STM32-Projekte/FH-Vertibot/src/project_src/PID_control.c **** /*
 194:/home/user/Desktop/STM32-Projekte/FH-Vertibot/src/project_src/PID_control.c ****  * The yaw PID calculation needs a special handling as the input value has
 195:/home/user/Desktop/STM32-Projekte/FH-Vertibot/src/project_src/PID_control.c ****  * an integrating character
 196:/home/user/Desktop/STM32-Projekte/FH-Vertibot/src/project_src/PID_control.c ****  * */
 197:/home/user/Desktop/STM32-Projekte/FH-Vertibot/src/project_src/PID_control.c **** void calc_PID_YAW(float istwert, float sollwert, PID_Control *values)
 198:/home/user/Desktop/STM32-Projekte/FH-Vertibot/src/project_src/PID_control.c **** {
 505              		.loc 1 198 0
 506              		.cfi_startproc
 507              		@ args = 0, pretend = 0, frame = 0
 508              		@ frame_needed = 0, uses_anonymous_args = 0
 509              		@ link register save eliminated.
 510              	.LVL32:
 199:/home/user/Desktop/STM32-Projekte/FH-Vertibot/src/project_src/PID_control.c **** 	values->e = sollwert - istwert;
 511              		.loc 1 199 0
 512 0274 70EEC00A 		fsubs	s1, s1, s0
 513              	.LVL33:
 200:/home/user/Desktop/STM32-Projekte/FH-Vertibot/src/project_src/PID_control.c **** 
 201:/home/user/Desktop/STM32-Projekte/FH-Vertibot/src/project_src/PID_control.c **** 	if(values->e >= 180) values->e -= 360;
 514              		.loc 1 201 0
 515 0278 DFED327A 		flds	s15, .L51
 516 027c F4EEE70A 		fcmpes	s1, s15
 517 0280 F1EE10FA 		fmstat
 518 0284 04DB     		blt	.L49
 519              		.loc 1 201 0 is_stmt 0 discriminator 1
 520 0286 DFED307A 		flds	s15, .L51+4
 521 028a 70EEE70A 		fsubs	s1, s1, s15
 522 028e 0AE0     		b	.L50
 523              	.L49:
 202:/home/user/Desktop/STM32-Projekte/FH-Vertibot/src/project_src/PID_control.c **** 	else if (values->e <= -180) values->e += 360;
 524              		.loc 1 202 0 is_stmt 1
 525 0290 DFED2E7A 		flds	s15, .L51+8
 526 0294 F4EEE70A 		fcmpes	s1, s15
 527 0298 F1EE10FA 		fmstat
 528 029c 9CBF     		itt	ls
 529 029e DFED2A7A 		fldsls	s15, .L51+4
 530 02a2 70EEA70A 		faddsls	s1, s1, s15
 531              	.L50:
 532              		.loc 1 202 0 is_stmt 0 discriminator 1
 533 02a6 C0ED060A 		fsts	s1, [r0, #24]
 203:/home/user/Desktop/STM32-Projekte/FH-Vertibot/src/project_src/PID_control.c **** 
 204:/home/user/Desktop/STM32-Projekte/FH-Vertibot/src/project_src/PID_control.c **** 	if(values->e > 50) values->e = 50;
 534              		.loc 1 204 0 is_stmt 1 discriminator 1
 535 02aa DFED296A 		flds	s13, .L51+12
 536 02ae D0ED067A 		flds	s15, [r0, #24]
 205:/home/user/Desktop/STM32-Projekte/FH-Vertibot/src/project_src/PID_control.c **** 	if(values->e < -50) values->e = -50;
 206:/home/user/Desktop/STM32-Projekte/FH-Vertibot/src/project_src/PID_control.c **** 
 207:/home/user/Desktop/STM32-Projekte/FH-Vertibot/src/project_src/PID_control.c **** 	values->Isum = values->Isum + (values->e);
 208:/home/user/Desktop/STM32-Projekte/FH-Vertibot/src/project_src/PID_control.c **** 
 209:/home/user/Desktop/STM32-Projekte/FH-Vertibot/src/project_src/PID_control.c **** 	if(values->Isum < Isum_max) values->Isum = Isum_max;
 537              		.loc 1 209 0 discriminator 1
 538 02b2 9FED276A 		flds	s12, .L51+12
 210:/home/user/Desktop/STM32-Projekte/FH-Vertibot/src/project_src/PID_control.c **** 	if(values->Isum > Isum_max) values->Isum = Isum_max;
 211:/home/user/Desktop/STM32-Projekte/FH-Vertibot/src/project_src/PID_control.c **** 
 212:/home/user/Desktop/STM32-Projekte/FH-Vertibot/src/project_src/PID_control.c **** 	//PID-Regler
 213:/home/user/Desktop/STM32-Projekte/FH-Vertibot/src/project_src/PID_control.c **** 	values->y = (values->kp*values->e) + (values->Isum*values->ki*values->sampling_rate) + (values->kd
 539              		.loc 1 213 0 discriminator 1
 540 02b6 D0ED045A 		flds	s11, [r0, #16]
 204:/home/user/Desktop/STM32-Projekte/FH-Vertibot/src/project_src/PID_control.c **** 	if(values->e > 50) values->e = 50;
 541              		.loc 1 204 0 discriminator 1
 542 02ba F4EEE67A 		fcmpes	s15, s13
 543 02be F1EE10FA 		fmstat
 544 02c2 C8BF     		it	gt
 545 02c4 C0ED066A 		fstsgt	s13, [r0, #24]
 205:/home/user/Desktop/STM32-Projekte/FH-Vertibot/src/project_src/PID_control.c **** 	if(values->e < -50) values->e = -50;
 546              		.loc 1 205 0 discriminator 1
 547 02c8 DFED227A 		flds	s15, .L51+16
 548 02cc 90ED067A 		flds	s14, [r0, #24]
 549 02d0 B4EEE77A 		fcmpes	s14, s15
 550 02d4 F1EE10FA 		fmstat
 551 02d8 48BF     		it	mi
 552 02da C0ED067A 		fstsmi	s15, [r0, #24]
 207:/home/user/Desktop/STM32-Projekte/FH-Vertibot/src/project_src/PID_control.c **** 	values->Isum = values->Isum + (values->e);
 553              		.loc 1 207 0 discriminator 1
 554 02de D0ED067A 		flds	s15, [r0, #24]
 555 02e2 90ED077A 		flds	s14, [r0, #28]
 556 02e6 37EE877A 		fadds	s14, s15, s14
 557 02ea B4EEE67A 		fcmpes	s14, s13
 558 02ee F1EE10FA 		fmstat
 559 02f2 48BF     		it	mi
 560 02f4 B0EE467A 		fcpysmi	s14, s12
 210:/home/user/Desktop/STM32-Projekte/FH-Vertibot/src/project_src/PID_control.c **** 	if(values->Isum > Isum_max) values->Isum = Isum_max;
 561              		.loc 1 210 0 discriminator 1
 562 02f8 B4EE667A 		fcmps	s14, s13
 563 02fc F1EE10FA 		fmstat
 564 0300 C8BF     		it	gt
 565 0302 B0EE467A 		fcpysgt	s14, s12
 566              		.loc 1 213 0 discriminator 1
 567 0306 B0EE476A 		fcpys	s12, s14
 210:/home/user/Desktop/STM32-Projekte/FH-Vertibot/src/project_src/PID_control.c **** 	if(values->Isum > Isum_max) values->Isum = Isum_max;
 568              		.loc 1 210 0 discriminator 1
 569 030a 80ED077A 		fsts	s14, [r0, #28]
 570              		.loc 1 213 0 discriminator 1
 571 030e 90ED037A 		flds	s14, [r0, #12]
 572 0312 D0ED006A 		flds	s13, [r0]
 573 0316 26EE077A 		fmuls	s14, s12, s14
 574 031a 90ED026A 		flds	s12, [r0, #8]
 575 031e 27EE267A 		fmuls	s14, s14, s13
 576 0322 A6EE277A 		vfma.f32	s14, s12, s15
 577 0326 90ED096A 		flds	s12, [r0, #36]
 214:/home/user/Desktop/STM32-Projekte/FH-Vertibot/src/project_src/PID_control.c **** 
 215:/home/user/Desktop/STM32-Projekte/FH-Vertibot/src/project_src/PID_control.c **** 	values->ealt = values->e;
 578              		.loc 1 215 0 discriminator 1
 579 032a C0ED097A 		fsts	s15, [r0, #36]
 213:/home/user/Desktop/STM32-Projekte/FH-Vertibot/src/project_src/PID_control.c **** 	values->y = (values->kp*values->e) + (values->Isum*values->ki*values->sampling_rate) + (values->kd
 580              		.loc 1 213 0 discriminator 1
 581 032e 37EEC66A 		fsubs	s12, s15, s12
 582 0332 26EE256A 		fmuls	s12, s12, s11
 583 0336 C6EE266A 		fdivs	s13, s12, s13
 584 033a 37EE267A 		fadds	s14, s14, s13
 585 033e 80ED017A 		fsts	s14, [r0, #4]
 586              		.loc 1 215 0 discriminator 1
 587 0342 7047     		bx	lr
 588              	.L52:
 589              		.align	2
 590              	.L51:
 591 0344 00003443 		.word	1127481344
 592 0348 0000B443 		.word	1135869952
 593 034c 000034C3 		.word	-1020002304
 594 0350 00004842 		.word	1112014848
 595 0354 000048C2 		.word	-1035468800
 596              		.cfi_endproc
 597              	.LFE9:
 599              		.bss
 600              		.align	2
 601              		.set	.LANCHOR0,. + 0
 604              	dlyindex.4180:
 605 0000 00       		.space	1
 606 0001 000000   		.space	3
 609              	S.4157:
 610 0004 00000000 		.space	4
 613              	E.4158:
 614 0008 00000000 		.space	4
 615              		.text
 616              	.Letext0:
 617              		.file 2 "/home/user/Desktop/STM32-Projekte/FH-Vertibot/src/project_inc/PID_control.h"