   1              		.syntax unified
   2              		.cpu cortex-m4
   3              		.eabi_attribute 27, 3
   4              		.eabi_attribute 28, 1
   5              		.fpu fpv4-sp-d16
   6              		.eabi_attribute 20, 1
   7              		.eabi_attribute 21, 1
   8              		.eabi_attribute 23, 3
   9              		.eabi_attribute 24, 1
  10              		.eabi_attribute 25, 1
  11              		.eabi_attribute 26, 1
  12              		.eabi_attribute 30, 4
  13              		.eabi_attribute 34, 1
  14              		.eabi_attribute 18, 4
  15              		.thumb
  16              		.file	"remote_control.c"
  17              		.text
  18              	.Ltext0:
  19              		.cfi_sections	.debug_frame
  20              		.align	1
  21              		.global	CalcRXValues
  22              		.thumb
  23              		.thumb_func
  25              	CalcRXValues:
  26              	.LFB111:
  27              		.file 1 "/home/user/Desktop/STM32-Projekte/FH-Vertibot/src/project_src/remote_control.c"
   1:/home/user/Desktop/STM32-Projekte/FH-Vertibot/src/project_src/remote_control.c **** /*
   2:/home/user/Desktop/STM32-Projekte/FH-Vertibot/src/project_src/remote_control.c ****  * remote_control.c
   3:/home/user/Desktop/STM32-Projekte/FH-Vertibot/src/project_src/remote_control.c ****  *
   4:/home/user/Desktop/STM32-Projekte/FH-Vertibot/src/project_src/remote_control.c ****  *  Created on: Apr 28, 2013
   5:/home/user/Desktop/STM32-Projekte/FH-Vertibot/src/project_src/remote_control.c ****  *      Author: franz
   6:/home/user/Desktop/STM32-Projekte/FH-Vertibot/src/project_src/remote_control.c ****  */
   7:/home/user/Desktop/STM32-Projekte/FH-Vertibot/src/project_src/remote_control.c **** 
   8:/home/user/Desktop/STM32-Projekte/FH-Vertibot/src/project_src/remote_control.c **** #include <filter_Lib.h>
   9:/home/user/Desktop/STM32-Projekte/FH-Vertibot/src/project_src/remote_control.c **** #include <remote_control.h>
  10:/home/user/Desktop/STM32-Projekte/FH-Vertibot/src/project_src/remote_control.c **** #include <vertibot_settings.h>
  11:/home/user/Desktop/STM32-Projekte/FH-Vertibot/src/project_src/remote_control.c **** 
  12:/home/user/Desktop/STM32-Projekte/FH-Vertibot/src/project_src/remote_control.c **** void CalcRXValues(unsigned char *msgPointer, int16_t adjValue)
  13:/home/user/Desktop/STM32-Projekte/FH-Vertibot/src/project_src/remote_control.c **** {
  28              		.loc 1 13 0
  29              		.cfi_startproc
  30              		@ args = 0, pretend = 0, frame = 0
  31              		@ frame_needed = 0, uses_anonymous_args = 0
  32              	.LVL0:
  33 0000 F8B5     		push	{r3, r4, r5, r6, r7, lr}
  34              	.LCFI0:
  35              		.cfi_def_cfa_offset 24
  36              		.cfi_offset 3, -24
  37              		.cfi_offset 4, -20
  38              		.cfi_offset 5, -16
  39              		.cfi_offset 6, -12
  40              		.cfi_offset 7, -8
  41              		.cfi_offset 14, -4
  14:/home/user/Desktop/STM32-Projekte/FH-Vertibot/src/project_src/remote_control.c **** 	static intFilter gasFiltered = {0,0};
  15:/home/user/Desktop/STM32-Projekte/FH-Vertibot/src/project_src/remote_control.c **** 	static intFilter rollFiltered = {0,0};
  16:/home/user/Desktop/STM32-Projekte/FH-Vertibot/src/project_src/remote_control.c **** 	static intFilter pitchFiltered = {0,0};
  17:/home/user/Desktop/STM32-Projekte/FH-Vertibot/src/project_src/remote_control.c **** 	static intFilter yawFiltered = {0,0};
  18:/home/user/Desktop/STM32-Projekte/FH-Vertibot/src/project_src/remote_control.c **** 	static int16_t currentYaw = 0;
  19:/home/user/Desktop/STM32-Projekte/FH-Vertibot/src/project_src/remote_control.c **** 
  20:/home/user/Desktop/STM32-Projekte/FH-Vertibot/src/project_src/remote_control.c **** 	/*Reset the Watchdog Timer value*/
  21:/home/user/Desktop/STM32-Projekte/FH-Vertibot/src/project_src/remote_control.c **** 	CtrlStates.watchDogTimVal = 0;
  42              		.loc 1 21 0
  43 0002 594D     		ldr	r5, .L21
  22:/home/user/Desktop/STM32-Projekte/FH-Vertibot/src/project_src/remote_control.c **** 
  23:/home/user/Desktop/STM32-Projekte/FH-Vertibot/src/project_src/remote_control.c **** 	currentYaw = ((uint8_t)msgPointer[4]-adjValue);
  44              		.loc 1 23 0
  45 0004 594C     		ldr	r4, .L21+4
  21:/home/user/Desktop/STM32-Projekte/FH-Vertibot/src/project_src/remote_control.c **** 	CtrlStates.watchDogTimVal = 0;
  46              		.loc 1 21 0
  47 0006 0023     		movs	r3, #0
  48 0008 6B72     		strb	r3, [r5, #9]
  49              		.loc 1 23 0
  50 000a 0379     		ldrb	r3, [r0, #4]	@ zero_extendqisi2
  13:/home/user/Desktop/STM32-Projekte/FH-Vertibot/src/project_src/remote_control.c **** {
  51              		.loc 1 13 0
  52 000c 0746     		mov	r7, r0
  53              		.loc 1 23 0
  54 000e 2046     		mov	r0, r4
  55              	.LVL1:
  56 0010 5B1A     		subs	r3, r3, r1
  57 0012 20F8043B 		strh	r3, [r0], #4	@ movhi
  24:/home/user/Desktop/STM32-Projekte/FH-Vertibot/src/project_src/remote_control.c **** 
  25:/home/user/Desktop/STM32-Projekte/FH-Vertibot/src/project_src/remote_control.c **** 	update_intFilter(&gasFiltered, 1, (((uint8_t)msgPointer[5]-adjValue)*7.5f)+60);
  58              		.loc 1 25 0
  59 0016 7B79     		ldrb	r3, [r7, #5]	@ zero_extendqisi2
  60 0018 5B1A     		subs	r3, r3, r1
  61 001a 07EE103A 		fmsr	s14, r3	@ int
  62 001e DFED547A 		flds	s15, .L21+8
  63 0022 F8EEC76A 		fsitos	s13, s14
  64 0026 B1EE0E7A 		fconsts	s14, #30
  65 002a 46EE877A 		fmacs	s15, s13, s14
  13:/home/user/Desktop/STM32-Projekte/FH-Vertibot/src/project_src/remote_control.c **** {
  66              		.loc 1 13 0
  67 002e 0E46     		mov	r6, r1
  68              		.loc 1 25 0
  69 0030 FDEEE77A 		ftosizs	s15, s15
  70 0034 0121     		movs	r1, #1
  71              	.LVL2:
  72 0036 17EE902A 		fmrs	r2, s15	@ int
  73 003a FFF7FEFF 		bl	update_intFilter
  74              	.LVL3:
  26:/home/user/Desktop/STM32-Projekte/FH-Vertibot/src/project_src/remote_control.c **** 	update_intFilter(&pitchFiltered, 1, ((uint8_t)msgPointer[3]-adjValue)*2.0f);
  75              		.loc 1 26 0
  76 003e FB78     		ldrb	r3, [r7, #3]	@ zero_extendqisi2
  77 0040 9B1B     		subs	r3, r3, r6
  78 0042 07EE103A 		fmsr	s14, r3	@ int
  79 0046 F8EEC77A 		fsitos	s15, s14
  80 004a 0121     		movs	r1, #1
  81 004c 77EEA77A 		fadds	s15, s15, s15
  82 0050 04F10C00 		add	r0, r4, #12
  83 0054 FDEEE77A 		ftosizs	s15, s15
  84 0058 17EE902A 		fmrs	r2, s15	@ int
  85 005c FFF7FEFF 		bl	update_intFilter
  86              	.LVL4:
  27:/home/user/Desktop/STM32-Projekte/FH-Vertibot/src/project_src/remote_control.c **** 	update_intFilter(&rollFiltered, 1, ((uint8_t)msgPointer[2]-adjValue)*2.0f);
  87              		.loc 1 27 0
  88 0060 BB78     		ldrb	r3, [r7, #2]	@ zero_extendqisi2
  89 0062 9E1B     		subs	r6, r3, r6
  90 0064 07EE106A 		fmsr	s14, r6	@ int
  91 0068 F8EEC77A 		fsitos	s15, s14
  92 006c 0121     		movs	r1, #1
  93 006e 77EEA77A 		fadds	s15, s15, s15
  94 0072 04F11400 		add	r0, r4, #20
  95 0076 FDEEE77A 		ftosizs	s15, s15
  96 007a 17EE902A 		fmrs	r2, s15	@ int
  97 007e FFF7FEFF 		bl	update_intFilter
  98              	.LVL5:
  28:/home/user/Desktop/STM32-Projekte/FH-Vertibot/src/project_src/remote_control.c **** 	update_intFilter(&yawFiltered, 1, currentYaw*0.3f);
  99              		.loc 1 28 0
 100 0082 2046     		mov	r0, r4
 101 0084 9FED3B7A 		flds	s14, .L21+12
 102 0088 30F91C3B 		ldrsh	r3, [r0], #28
 103 008c 07EE903A 		fmsr	s15, r3	@ int
 104 0090 F8EEE77A 		fsitos	s15, s15
 105 0094 0121     		movs	r1, #1
 106 0096 67EE877A 		fmuls	s15, s15, s14
 107 009a FDEEE77A 		ftosizs	s15, s15
 108 009e 17EE902A 		fmrs	r2, s15	@ int
 109 00a2 FFF7FEFF 		bl	update_intFilter
 110              	.LVL6:
  29:/home/user/Desktop/STM32-Projekte/FH-Vertibot/src/project_src/remote_control.c **** 
  30:/home/user/Desktop/STM32-Projekte/FH-Vertibot/src/project_src/remote_control.c **** 	//CtrlStates.gas = gasFiltered.filtered;
  31:/home/user/Desktop/STM32-Projekte/FH-Vertibot/src/project_src/remote_control.c **** 	//CtrlStates.roll = rollFiltered.filtered;
  32:/home/user/Desktop/STM32-Projekte/FH-Vertibot/src/project_src/remote_control.c **** 	CtrlStates.pitch = pitchFiltered.filtered;
 111              		.loc 1 32 0
 112 00a6 94ED047A 		flds	s14, [r4, #16]	@ int
  33:/home/user/Desktop/STM32-Projekte/FH-Vertibot/src/project_src/remote_control.c **** 
  34:/home/user/Desktop/STM32-Projekte/FH-Vertibot/src/project_src/remote_control.c **** 	/* integrating the yaw value */
  35:/home/user/Desktop/STM32-Projekte/FH-Vertibot/src/project_src/remote_control.c **** 	if(CtrlStates.copterStatus & ARMED_FLAG)
 113              		.loc 1 35 0
 114 00aa 2B7A     		ldrb	r3, [r5, #8]	@ zero_extendqisi2
  32:/home/user/Desktop/STM32-Projekte/FH-Vertibot/src/project_src/remote_control.c **** 	CtrlStates.pitch = pitchFiltered.filtered;
 115              		.loc 1 32 0
 116 00ac F8EEC77A 		fsitos	s15, s14
 117              		.loc 1 35 0
 118 00b0 DB07     		lsls	r3, r3, #31
  32:/home/user/Desktop/STM32-Projekte/FH-Vertibot/src/project_src/remote_control.c **** 	CtrlStates.pitch = pitchFiltered.filtered;
 119              		.loc 1 32 0
 120 00b2 C5ED007A 		fsts	s15, [r5, #0]
 121              		.loc 1 35 0
 122 00b6 0AD5     		bpl	.L2
  36:/home/user/Desktop/STM32-Projekte/FH-Vertibot/src/project_src/remote_control.c **** 	{
  37:/home/user/Desktop/STM32-Projekte/FH-Vertibot/src/project_src/remote_control.c **** 		CtrlStates.yaw -= yawFiltered.filtered;
 123              		.loc 1 37 0
 124 00b8 94ED087A 		flds	s14, [r4, #32]	@ int
 125 00bc D5ED016A 		flds	s13, [r5, #4]
 126 00c0 B8EEC77A 		fsitos	s14, s14
 127 00c4 36EEC77A 		fsubs	s14, s13, s14
 128 00c8 85ED017A 		fsts	s14, [r5, #4]
 129 00cc 02E0     		b	.L3
 130              	.L2:
  38:/home/user/Desktop/STM32-Projekte/FH-Vertibot/src/project_src/remote_control.c **** 	}
  39:/home/user/Desktop/STM32-Projekte/FH-Vertibot/src/project_src/remote_control.c **** 	else
  40:/home/user/Desktop/STM32-Projekte/FH-Vertibot/src/project_src/remote_control.c **** 	{
  41:/home/user/Desktop/STM32-Projekte/FH-Vertibot/src/project_src/remote_control.c **** 		CtrlStates.yaw = XYZ.z;
 131              		.loc 1 41 0
 132 00ce 2A4B     		ldr	r3, .L21+16
 133 00d0 9B68     		ldr	r3, [r3, #8]	@ float
 134 00d2 6B60     		str	r3, [r5, #4]	@ float
 135              	.L3:
  42:/home/user/Desktop/STM32-Projekte/FH-Vertibot/src/project_src/remote_control.c **** 	}
  43:/home/user/Desktop/STM32-Projekte/FH-Vertibot/src/project_src/remote_control.c **** 
  44:/home/user/Desktop/STM32-Projekte/FH-Vertibot/src/project_src/remote_control.c **** 
  45:/home/user/Desktop/STM32-Projekte/FH-Vertibot/src/project_src/remote_control.c **** 	/* Narrow down all ctrl values */
  46:/home/user/Desktop/STM32-Projekte/FH-Vertibot/src/project_src/remote_control.c **** 	/*
  47:/home/user/Desktop/STM32-Projekte/FH-Vertibot/src/project_src/remote_control.c **** 	//if(CtrlStates.gas > MAX_GAS) CtrlStates.gas = MAX_GAS;
  48:/home/user/Desktop/STM32-Projekte/FH-Vertibot/src/project_src/remote_control.c **** 	//if(CtrlStates.gas < 0) CtrlStates.gas = 0;
  49:/home/user/Desktop/STM32-Projekte/FH-Vertibot/src/project_src/remote_control.c **** 
  50:/home/user/Desktop/STM32-Projekte/FH-Vertibot/src/project_src/remote_control.c **** 	//if(CtrlStates.roll > -ROLL_PITCH_TRSHLD && CtrlStates.roll < ROLL_PITCH_TRSHLD) CtrlStates.roll 
  51:/home/user/Desktop/STM32-Projekte/FH-Vertibot/src/project_src/remote_control.c **** 	//if(CtrlStates.roll > MAX_ROLL) CtrlStates.roll = MAX_ROLL;
  52:/home/user/Desktop/STM32-Projekte/FH-Vertibot/src/project_src/remote_control.c **** 	//if(CtrlStates.roll < -MAX_ROLL) CtrlStates.roll = -MAX_ROLL;
  53:/home/user/Desktop/STM32-Projekte/FH-Vertibot/src/project_src/remote_control.c **** 
  54:/home/user/Desktop/STM32-Projekte/FH-Vertibot/src/project_src/remote_control.c ****     */
  55:/home/user/Desktop/STM32-Projekte/FH-Vertibot/src/project_src/remote_control.c **** 	if(CtrlStates.pitch > -ROLL_PITCH_TRSHLD && CtrlStates.pitch < ROLL_PITCH_TRSHLD) CtrlStates.pitch
 136              		.loc 1 55 0
 137 00d4 B8EE087A 		fconsts	s14, #136
 138 00d8 F4EEC77A 		fcmpes	s15, s14
 139 00dc F1EE10FA 		fmstat
 140 00e0 214B     		ldr	r3, .L21
 141 00e2 08DD     		ble	.L4
 142              		.loc 1 55 0 is_stmt 0 discriminator 1
 143 00e4 B0EE087A 		fconsts	s14, #8
 144 00e8 F4EEC77A 		fcmpes	s15, s14
 145 00ec F1EE10FA 		fmstat
 146 00f0 01D5     		bpl	.L4
 147 00f2 0022     		movs	r2, #0
 148 00f4 1A60     		str	r2, [r3, #0]	@ float
 149              	.L4:
  56:/home/user/Desktop/STM32-Projekte/FH-Vertibot/src/project_src/remote_control.c **** 	if(CtrlStates.pitch > MAX_PITCH) CtrlStates.pitch = MAX_PITCH;
 150              		.loc 1 56 0 is_stmt 1
 151 00f6 93ED007A 		flds	s14, [r3, #0]
 152 00fa DFED207A 		flds	s15, .L21+20
 153 00fe B4EEE77A 		fcmpes	s14, s15
 154 0102 F1EE10FA 		fmstat
 155 0106 C4BF     		itt	gt
 156 0108 174B     		ldrgt	r3, .L21
 157 010a C3ED007A 		fstsgt	s15, [r3, #0]
  57:/home/user/Desktop/STM32-Projekte/FH-Vertibot/src/project_src/remote_control.c **** 	if(CtrlStates.pitch < -MAX_PITCH) CtrlStates.pitch = -MAX_PITCH;
 158              		.loc 1 57 0
 159 010e 164B     		ldr	r3, .L21
 160 0110 DFED1B7A 		flds	s15, .L21+24
 161 0114 93ED007A 		flds	s14, [r3, #0]
 162 0118 B4EEE77A 		fcmpes	s14, s15
 163 011c F1EE10FA 		fmstat
 164 0120 48BF     		it	mi
 165 0122 C3ED007A 		fstsmi	s15, [r3, #0]
  58:/home/user/Desktop/STM32-Projekte/FH-Vertibot/src/project_src/remote_control.c **** 
  59:/home/user/Desktop/STM32-Projekte/FH-Vertibot/src/project_src/remote_control.c **** 	/* The yaw value needs a special handling */
  60:/home/user/Desktop/STM32-Projekte/FH-Vertibot/src/project_src/remote_control.c **** 	if(CtrlStates.yaw > 180) CtrlStates.yaw -= 360;
 166              		.loc 1 60 0
 167 0126 9FED177A 		flds	s14, .L21+28
 168 012a D3ED017A 		flds	s15, [r3, #4]
 169 012e F4EEC77A 		fcmpes	s15, s14
 170 0132 F1EE10FA 		fmstat
 171 0136 06DD     		ble	.L11
 172              		.loc 1 60 0 is_stmt 0 discriminator 1
 173 0138 9FED137A 		flds	s14, .L21+32
 174 013c 0A4B     		ldr	r3, .L21
 175 013e 77EEC77A 		fsubs	s15, s15, s14
 176 0142 C3ED017A 		fsts	s15, [r3, #4]
 177              	.L11:
  61:/home/user/Desktop/STM32-Projekte/FH-Vertibot/src/project_src/remote_control.c **** 	if(CtrlStates.yaw < -180) CtrlStates.yaw += 360;
 178              		.loc 1 61 0 is_stmt 1
 179 0146 084B     		ldr	r3, .L21
 180 0148 9FED107A 		flds	s14, .L21+36
 181 014c D3ED017A 		flds	s15, [r3, #4]
 182 0150 F4EEC77A 		fcmpes	s15, s14
 183 0154 F1EE10FA 		fmstat
 184 0158 05D5     		bpl	.L1
 185              		.loc 1 61 0 is_stmt 0 discriminator 1
 186 015a 9FED0B7A 		flds	s14, .L21+32
 187 015e 77EE877A 		fadds	s15, s15, s14
 188 0162 C3ED017A 		fsts	s15, [r3, #4]
 189              	.L1:
 190 0166 F8BD     		pop	{r3, r4, r5, r6, r7, pc}
 191              	.L22:
 192              		.align	2
 193              	.L21:
 194 0168 00000000 		.word	CtrlStates
 195 016c 00000000 		.word	.LANCHOR0
 196 0170 00007042 		.word	1114636288
 197 0174 9A99993E 		.word	1050253722
 198 0178 00000000 		.word	XYZ
 199 017c 00000C42 		.word	1108082688
 200 0180 00000CC2 		.word	-1039400960
 201 0184 00003443 		.word	1127481344
 202 0188 0000B443 		.word	1135869952
 203 018c 000034C3 		.word	-1020002304
 204              		.cfi_endproc
 205              	.LFE111:
 207              		.comm	XYZ,12,4
 208              		.comm	CtrlStates,12,4
 209              		.comm	GlobalSettings,96,4
 210              		.bss
 211              		.align	2
 212              		.set	.LANCHOR0,. + 0
 215              	currentYaw.6779:
 216 0000 0000     		.space	2
 217 0002 0000     		.space	2
 220              	gasFiltered.6775:
 221 0004 00000000 		.space	8
 221      00000000 
 224              	pitchFiltered.6777:
 225 000c 00000000 		.space	8
 225      00000000 
 228              	rollFiltered.6776:
 229 0014 00000000 		.space	8
 229      00000000 
 232              	yawFiltered.6778:
 233 001c 00000000 		.space	8
 233      00000000 
 234              		.text
 235              	.Letext0:
 236              		.file 2 "/home/user/Desktop/STM32-Projekte/FH-Vertibot/src/project_inc/filter_Lib.h"
 237              		.file 3 "/opt/CodeSourcery/Sourcery_CodeBench_Lite_for_ARM_EABI/bin/../lib/gcc/arm-none-eabi/4.7.2
 238              		.file 4 "/home/user/Desktop/STM32-Projekte/FH-Vertibot/src/project_inc/IMU_algorithm.h"
 239              		.file 5 "/home/user/Desktop/STM32-Projekte/FH-Vertibot/src/project_inc/vertibot_settings.h"
 240              		.file 6 "/home/user/Desktop/STM32-Projekte/FH-Vertibot/src/CMSIS/Include/core_cm4.h"
DEFINED SYMBOLS
                            *ABS*:00000000 remote_control.c
     /tmp/cc0LIFju.s:20     .text:00000000 $t
     /tmp/cc0LIFju.s:25     .text:00000000 CalcRXValues
     /tmp/cc0LIFju.s:194    .text:00000168 $d
                            *COM*:0000000c CtrlStates
                            *COM*:0000000c XYZ
                            *COM*:00000060 GlobalSettings
     /tmp/cc0LIFju.s:211    .bss:00000000 $d
     /tmp/cc0LIFju.s:215    .bss:00000000 currentYaw.6779
     /tmp/cc0LIFju.s:220    .bss:00000004 gasFiltered.6775
     /tmp/cc0LIFju.s:224    .bss:0000000c pitchFiltered.6777
     /tmp/cc0LIFju.s:228    .bss:00000014 rollFiltered.6776
     /tmp/cc0LIFju.s:232    .bss:0000001c yawFiltered.6778
                     .debug_frame:00000010 $d
                           .group:00000000 wm4.1.d481a9f4eba3ec0ceb0050fd0b2feec2
                           .group:00000000 wm4.filter_Lib.h.9.c3b4da84b619ff7a2d8e947a9cf27fbf
                           .group:00000000 wm4.stm32f30x.h.54.c7b24f715ee55ef38656f44540ae3be6
                           .group:00000000 wm4.core_cm4.h.32.1434cd257ff5806b1b03cd32ab0641e9
                           .group:00000000 wm4.stdint.h.10.90b695f550ca6cc3fb08fa83baf01e05
                           .group:00000000 wm4.core_cmInstr.h.25.d8165482ef3061013a2fc83e2d85f3d9
                           .group:00000000 wm4.core_cm4_simd.h.29.013e5bcf58dba2d27c60184174208e07
                           .group:00000000 wm4.core_cm4.h.155.cf7c793e178943e1bbf613f1b21cd51a
                           .group:00000000 wm4.stm32f30x.h.292.5f9271075d54fc48f1e25ff79df85cb2
                           .group:00000000 wm4.stm32f30x_adc.h.130.cbebad91f78fb87381fe0860eea6104e
                           .group:00000000 wm4.stm32f30x_comp.h.31.9bbc5f5f1a849069ea9062fbe7b81435
                           .group:00000000 wm4.stm32f30x_dma.h.31.73d173fa6d60026d432f3cf1d2fc4407
                           .group:00000000 wm4.stm32f30x_exti.h.31.22e280aa6e095108654ac8d3c74a2409
                           .group:00000000 wm4.stm32f30x_flash.h.31.bee86dc3079b7049419bdbeec073e2cd
                           .group:00000000 wm4.stm32f30x_gpio.h.31.3745297fee3728b346ad4d2a2467e40f
                           .group:00000000 wm4.stm32f30x_syscfg.h.31.96b023b7dbc3641f358604478433eb5c
                           .group:00000000 wm4.stm32f30x_i2c.h.31.52025acd7f154308042bf46a2835e9d3
                           .group:00000000 wm4.stm32f30x_pwr.h.31.cdef322c6e7f25cfc29954045d24e9b8
                           .group:00000000 wm4.stm32f30x_rcc.h.31.3b94c1144b21d1e4fe780e4d1a02d257
                           .group:00000000 wm4.stm32f30x_spi.h.31.c1ebebab897d23cecc617ec8ad9fd534
                           .group:00000000 wm4.stm32f30x_tim.h.31.336f9cd855fb4e2cd819ac260ded6518
                           .group:00000000 wm4.stm32f30x_usart.h.31.cd85313e29c0a128555b4a7b8ec0f487
                           .group:00000000 wm4.stm32f30x_misc.h.31.f08b0e9f53f0471613b5131bb95f8725
                           .group:00000000 wm4.stm32f30x.h.6173.8b641ba1d9b0040eda9120fe8a414b2d
                           .group:00000000 wm4.vertibot_settings.h.30.48fd32711c00a27183609ce2dc24e6c6

UNDEFINED SYMBOLS
update_intFilter
