   1              		.syntax unified
   2              		.cpu cortex-m4
   3              		.eabi_attribute 27, 3
   4              		.eabi_attribute 28, 1
   5              		.fpu fpv4-sp-d16
   6              		.eabi_attribute 20, 1
   7              		.eabi_attribute 21, 1
   8              		.eabi_attribute 23, 3
   9              		.eabi_attribute 24, 1
  10              		.eabi_attribute 25, 1
  11              		.eabi_attribute 26, 1
  12              		.eabi_attribute 30, 4
  13              		.eabi_attribute 34, 1
  14              		.eabi_attribute 18, 4
  15              		.thumb
  16              		.file	"stm32f30x_it.c"
  17              		.text
  18              	.Ltext0:
  19              		.cfi_sections	.debug_frame
  20              		.align	1
  21              		.global	NMI_Handler
  22              		.thumb
  23              		.thumb_func
  25              	NMI_Handler:
  26              	.LFB111:
  27              		.file 1 "/home/user/Desktop/STM32-Projekte/FH-Vertibot/src/project_src/stm32f30x_it.c"
   1:/home/user/Desktop/STM32-Projekte/FH-Vertibot/src/project_src/stm32f30x_it.c **** /**
   2:/home/user/Desktop/STM32-Projekte/FH-Vertibot/src/project_src/stm32f30x_it.c ****   ******************************************************************************
   3:/home/user/Desktop/STM32-Projekte/FH-Vertibot/src/project_src/stm32f30x_it.c ****   * @file    Project/STM32F30x_StdPeriph_Templates/stm32f30x_it.c 
   4:/home/user/Desktop/STM32-Projekte/FH-Vertibot/src/project_src/stm32f30x_it.c ****   * @author  MCD Application Team
   5:/home/user/Desktop/STM32-Projekte/FH-Vertibot/src/project_src/stm32f30x_it.c ****   * @version V1.0.0
   6:/home/user/Desktop/STM32-Projekte/FH-Vertibot/src/project_src/stm32f30x_it.c ****   * @date    23-October-2012
   7:/home/user/Desktop/STM32-Projekte/FH-Vertibot/src/project_src/stm32f30x_it.c ****   * @brief   Main Interrupt Service Routines.
   8:/home/user/Desktop/STM32-Projekte/FH-Vertibot/src/project_src/stm32f30x_it.c ****   *          This file provides template for all exceptions handler and 
   9:/home/user/Desktop/STM32-Projekte/FH-Vertibot/src/project_src/stm32f30x_it.c ****   *          peripherals interrupt service routine.
  10:/home/user/Desktop/STM32-Projekte/FH-Vertibot/src/project_src/stm32f30x_it.c ****   ******************************************************************************
  11:/home/user/Desktop/STM32-Projekte/FH-Vertibot/src/project_src/stm32f30x_it.c ****   * @attention
  12:/home/user/Desktop/STM32-Projekte/FH-Vertibot/src/project_src/stm32f30x_it.c ****   *
  13:/home/user/Desktop/STM32-Projekte/FH-Vertibot/src/project_src/stm32f30x_it.c ****   * <h2><center>&copy; COPYRIGHT 2012 STMicroelectronics</center></h2>
  14:/home/user/Desktop/STM32-Projekte/FH-Vertibot/src/project_src/stm32f30x_it.c ****   *
  15:/home/user/Desktop/STM32-Projekte/FH-Vertibot/src/project_src/stm32f30x_it.c ****   * Licensed under MCD-ST Liberty SW License Agreement V2, (the "License");
  16:/home/user/Desktop/STM32-Projekte/FH-Vertibot/src/project_src/stm32f30x_it.c ****   * You may not use this file except in compliance with the License.
  17:/home/user/Desktop/STM32-Projekte/FH-Vertibot/src/project_src/stm32f30x_it.c ****   * You may obtain a copy of the License at:
  18:/home/user/Desktop/STM32-Projekte/FH-Vertibot/src/project_src/stm32f30x_it.c ****   *
  19:/home/user/Desktop/STM32-Projekte/FH-Vertibot/src/project_src/stm32f30x_it.c ****   *        http://www.st.com/software_license_agreement_liberty_v2
  20:/home/user/Desktop/STM32-Projekte/FH-Vertibot/src/project_src/stm32f30x_it.c ****   *
  21:/home/user/Desktop/STM32-Projekte/FH-Vertibot/src/project_src/stm32f30x_it.c ****   * Unless required by applicable law or agreed to in writing, software 
  22:/home/user/Desktop/STM32-Projekte/FH-Vertibot/src/project_src/stm32f30x_it.c ****   * distributed under the License is distributed on an "AS IS" BASIS, 
  23:/home/user/Desktop/STM32-Projekte/FH-Vertibot/src/project_src/stm32f30x_it.c ****   * WITHOUT WARRANTIES OR CONDITIONS OF ANY KIND, either express or implied.
  24:/home/user/Desktop/STM32-Projekte/FH-Vertibot/src/project_src/stm32f30x_it.c ****   * See the License for the specific language governing permissions and
  25:/home/user/Desktop/STM32-Projekte/FH-Vertibot/src/project_src/stm32f30x_it.c ****   * limitations under the License.
  26:/home/user/Desktop/STM32-Projekte/FH-Vertibot/src/project_src/stm32f30x_it.c ****   *
  27:/home/user/Desktop/STM32-Projekte/FH-Vertibot/src/project_src/stm32f30x_it.c ****   ******************************************************************************
  28:/home/user/Desktop/STM32-Projekte/FH-Vertibot/src/project_src/stm32f30x_it.c ****   */
  29:/home/user/Desktop/STM32-Projekte/FH-Vertibot/src/project_src/stm32f30x_it.c **** 
  30:/home/user/Desktop/STM32-Projekte/FH-Vertibot/src/project_src/stm32f30x_it.c **** /* Includes ------------------------------------------------------------------*/
  31:/home/user/Desktop/STM32-Projekte/FH-Vertibot/src/project_src/stm32f30x_it.c **** #include "stm32f30x_it.h"
  32:/home/user/Desktop/STM32-Projekte/FH-Vertibot/src/project_src/stm32f30x_it.c **** #include <remote_control.h>
  33:/home/user/Desktop/STM32-Projekte/FH-Vertibot/src/project_src/stm32f30x_it.c **** #include "usart.h"
  34:/home/user/Desktop/STM32-Projekte/FH-Vertibot/src/project_src/stm32f30x_it.c **** 
  35:/home/user/Desktop/STM32-Projekte/FH-Vertibot/src/project_src/stm32f30x_it.c **** /** @addtogroup Template_Project
  36:/home/user/Desktop/STM32-Projekte/FH-Vertibot/src/project_src/stm32f30x_it.c ****   * @{
  37:/home/user/Desktop/STM32-Projekte/FH-Vertibot/src/project_src/stm32f30x_it.c ****   */
  38:/home/user/Desktop/STM32-Projekte/FH-Vertibot/src/project_src/stm32f30x_it.c **** 
  39:/home/user/Desktop/STM32-Projekte/FH-Vertibot/src/project_src/stm32f30x_it.c **** /* Private typedef -----------------------------------------------------------*/
  40:/home/user/Desktop/STM32-Projekte/FH-Vertibot/src/project_src/stm32f30x_it.c **** /* Private define ------------------------------------------------------------*/
  41:/home/user/Desktop/STM32-Projekte/FH-Vertibot/src/project_src/stm32f30x_it.c **** /* Private macro -------------------------------------------------------------*/
  42:/home/user/Desktop/STM32-Projekte/FH-Vertibot/src/project_src/stm32f30x_it.c **** /* Private variables ---------------------------------------------------------*/
  43:/home/user/Desktop/STM32-Projekte/FH-Vertibot/src/project_src/stm32f30x_it.c **** /* Private function prototypes -----------------------------------------------*/
  44:/home/user/Desktop/STM32-Projekte/FH-Vertibot/src/project_src/stm32f30x_it.c **** /* Private functions ---------------------------------------------------------*/
  45:/home/user/Desktop/STM32-Projekte/FH-Vertibot/src/project_src/stm32f30x_it.c **** 
  46:/home/user/Desktop/STM32-Projekte/FH-Vertibot/src/project_src/stm32f30x_it.c **** /******************************************************************************/
  47:/home/user/Desktop/STM32-Projekte/FH-Vertibot/src/project_src/stm32f30x_it.c **** /*            Cortex-M4 Processor Exceptions Handlers                         */
  48:/home/user/Desktop/STM32-Projekte/FH-Vertibot/src/project_src/stm32f30x_it.c **** /******************************************************************************/
  49:/home/user/Desktop/STM32-Projekte/FH-Vertibot/src/project_src/stm32f30x_it.c **** 
  50:/home/user/Desktop/STM32-Projekte/FH-Vertibot/src/project_src/stm32f30x_it.c **** /**
  51:/home/user/Desktop/STM32-Projekte/FH-Vertibot/src/project_src/stm32f30x_it.c ****   * @brief  This function handles NMI exception.
  52:/home/user/Desktop/STM32-Projekte/FH-Vertibot/src/project_src/stm32f30x_it.c ****   * @param  None
  53:/home/user/Desktop/STM32-Projekte/FH-Vertibot/src/project_src/stm32f30x_it.c ****   * @retval None
  54:/home/user/Desktop/STM32-Projekte/FH-Vertibot/src/project_src/stm32f30x_it.c ****   */
  55:/home/user/Desktop/STM32-Projekte/FH-Vertibot/src/project_src/stm32f30x_it.c **** void NMI_Handler(void)
  56:/home/user/Desktop/STM32-Projekte/FH-Vertibot/src/project_src/stm32f30x_it.c **** {
  28              		.loc 1 56 0
  29              		.cfi_startproc
  30              		@ args = 0, pretend = 0, frame = 0
  31              		@ frame_needed = 0, uses_anonymous_args = 0
  32              		@ link register save eliminated.
  33 0000 7047     		bx	lr
  34              		.cfi_endproc
  35              	.LFE111:
  37              		.align	1
  38              		.global	HardFault_Handler
  39              		.thumb
  40              		.thumb_func
  42              	HardFault_Handler:
  43              	.LFB112:
  57:/home/user/Desktop/STM32-Projekte/FH-Vertibot/src/project_src/stm32f30x_it.c **** }
  58:/home/user/Desktop/STM32-Projekte/FH-Vertibot/src/project_src/stm32f30x_it.c **** 
  59:/home/user/Desktop/STM32-Projekte/FH-Vertibot/src/project_src/stm32f30x_it.c **** /**
  60:/home/user/Desktop/STM32-Projekte/FH-Vertibot/src/project_src/stm32f30x_it.c ****   * @brief  This function handles Hard Fault exception.
  61:/home/user/Desktop/STM32-Projekte/FH-Vertibot/src/project_src/stm32f30x_it.c ****   * @param  None
  62:/home/user/Desktop/STM32-Projekte/FH-Vertibot/src/project_src/stm32f30x_it.c ****   * @retval None
  63:/home/user/Desktop/STM32-Projekte/FH-Vertibot/src/project_src/stm32f30x_it.c ****   */
  64:/home/user/Desktop/STM32-Projekte/FH-Vertibot/src/project_src/stm32f30x_it.c **** void HardFault_Handler(void)
  65:/home/user/Desktop/STM32-Projekte/FH-Vertibot/src/project_src/stm32f30x_it.c **** {
  44              		.loc 1 65 0
  45              		.cfi_startproc
  46              		@ Volatile: function does not return.
  47              		@ args = 0, pretend = 0, frame = 0
  48              		@ frame_needed = 0, uses_anonymous_args = 0
  49              		@ link register save eliminated.
  50              	.L3:
  51 0002 FEE7     		b	.L3
  52              		.cfi_endproc
  53              	.LFE112:
  55              		.align	1
  56              		.global	MemManage_Handler
  57              		.thumb
  58              		.thumb_func
  60              	MemManage_Handler:
  61              	.LFB113:
  66:/home/user/Desktop/STM32-Projekte/FH-Vertibot/src/project_src/stm32f30x_it.c ****   /* Go to infinite loop when Hard Fault exception occurs */
  67:/home/user/Desktop/STM32-Projekte/FH-Vertibot/src/project_src/stm32f30x_it.c ****   while (1)
  68:/home/user/Desktop/STM32-Projekte/FH-Vertibot/src/project_src/stm32f30x_it.c ****   {
  69:/home/user/Desktop/STM32-Projekte/FH-Vertibot/src/project_src/stm32f30x_it.c ****   }
  70:/home/user/Desktop/STM32-Projekte/FH-Vertibot/src/project_src/stm32f30x_it.c **** }
  71:/home/user/Desktop/STM32-Projekte/FH-Vertibot/src/project_src/stm32f30x_it.c **** 
  72:/home/user/Desktop/STM32-Projekte/FH-Vertibot/src/project_src/stm32f30x_it.c **** /**
  73:/home/user/Desktop/STM32-Projekte/FH-Vertibot/src/project_src/stm32f30x_it.c ****   * @brief  This function handles Memory Manage exception.
  74:/home/user/Desktop/STM32-Projekte/FH-Vertibot/src/project_src/stm32f30x_it.c ****   * @param  None
  75:/home/user/Desktop/STM32-Projekte/FH-Vertibot/src/project_src/stm32f30x_it.c ****   * @retval None
  76:/home/user/Desktop/STM32-Projekte/FH-Vertibot/src/project_src/stm32f30x_it.c ****   */
  77:/home/user/Desktop/STM32-Projekte/FH-Vertibot/src/project_src/stm32f30x_it.c **** void MemManage_Handler(void)
  78:/home/user/Desktop/STM32-Projekte/FH-Vertibot/src/project_src/stm32f30x_it.c **** {
  62              		.loc 1 78 0
  63              		.cfi_startproc
  64              		@ Volatile: function does not return.
  65              		@ args = 0, pretend = 0, frame = 0
  66              		@ frame_needed = 0, uses_anonymous_args = 0
  67              		@ link register save eliminated.
  68              	.L5:
  69 0004 FEE7     		b	.L5
  70              		.cfi_endproc
  71              	.LFE113:
  73              		.align	1
  74              		.global	BusFault_Handler
  75              		.thumb
  76              		.thumb_func
  78              	BusFault_Handler:
  79              	.LFB114:
  79:/home/user/Desktop/STM32-Projekte/FH-Vertibot/src/project_src/stm32f30x_it.c ****   /* Go to infinite loop when Memory Manage exception occurs */
  80:/home/user/Desktop/STM32-Projekte/FH-Vertibot/src/project_src/stm32f30x_it.c ****   while (1)
  81:/home/user/Desktop/STM32-Projekte/FH-Vertibot/src/project_src/stm32f30x_it.c ****   {
  82:/home/user/Desktop/STM32-Projekte/FH-Vertibot/src/project_src/stm32f30x_it.c ****   }
  83:/home/user/Desktop/STM32-Projekte/FH-Vertibot/src/project_src/stm32f30x_it.c **** }
  84:/home/user/Desktop/STM32-Projekte/FH-Vertibot/src/project_src/stm32f30x_it.c **** 
  85:/home/user/Desktop/STM32-Projekte/FH-Vertibot/src/project_src/stm32f30x_it.c **** /**
  86:/home/user/Desktop/STM32-Projekte/FH-Vertibot/src/project_src/stm32f30x_it.c ****   * @brief  This function handles Bus Fault exception.
  87:/home/user/Desktop/STM32-Projekte/FH-Vertibot/src/project_src/stm32f30x_it.c ****   * @param  None
  88:/home/user/Desktop/STM32-Projekte/FH-Vertibot/src/project_src/stm32f30x_it.c ****   * @retval None
  89:/home/user/Desktop/STM32-Projekte/FH-Vertibot/src/project_src/stm32f30x_it.c ****   */
  90:/home/user/Desktop/STM32-Projekte/FH-Vertibot/src/project_src/stm32f30x_it.c **** void BusFault_Handler(void)
  91:/home/user/Desktop/STM32-Projekte/FH-Vertibot/src/project_src/stm32f30x_it.c **** {
  80              		.loc 1 91 0
  81              		.cfi_startproc
  82              		@ Volatile: function does not return.
  83              		@ args = 0, pretend = 0, frame = 0
  84              		@ frame_needed = 0, uses_anonymous_args = 0
  85              		@ link register save eliminated.
  86              	.L7:
  87 0006 FEE7     		b	.L7
  88              		.cfi_endproc
  89              	.LFE114:
  91              		.align	1
  92              		.global	UsageFault_Handler
  93              		.thumb
  94              		.thumb_func
  96              	UsageFault_Handler:
  97              	.LFB115:
  92:/home/user/Desktop/STM32-Projekte/FH-Vertibot/src/project_src/stm32f30x_it.c ****   /* Go to infinite loop when Bus Fault exception occurs */
  93:/home/user/Desktop/STM32-Projekte/FH-Vertibot/src/project_src/stm32f30x_it.c ****   while (1)
  94:/home/user/Desktop/STM32-Projekte/FH-Vertibot/src/project_src/stm32f30x_it.c ****   {
  95:/home/user/Desktop/STM32-Projekte/FH-Vertibot/src/project_src/stm32f30x_it.c ****   }
  96:/home/user/Desktop/STM32-Projekte/FH-Vertibot/src/project_src/stm32f30x_it.c **** }
  97:/home/user/Desktop/STM32-Projekte/FH-Vertibot/src/project_src/stm32f30x_it.c **** 
  98:/home/user/Desktop/STM32-Projekte/FH-Vertibot/src/project_src/stm32f30x_it.c **** /**
  99:/home/user/Desktop/STM32-Projekte/FH-Vertibot/src/project_src/stm32f30x_it.c ****   * @brief  This function handles Usage Fault exception.
 100:/home/user/Desktop/STM32-Projekte/FH-Vertibot/src/project_src/stm32f30x_it.c ****   * @param  None
 101:/home/user/Desktop/STM32-Projekte/FH-Vertibot/src/project_src/stm32f30x_it.c ****   * @retval None
 102:/home/user/Desktop/STM32-Projekte/FH-Vertibot/src/project_src/stm32f30x_it.c ****   */
 103:/home/user/Desktop/STM32-Projekte/FH-Vertibot/src/project_src/stm32f30x_it.c **** void UsageFault_Handler(void)
 104:/home/user/Desktop/STM32-Projekte/FH-Vertibot/src/project_src/stm32f30x_it.c **** {
  98              		.loc 1 104 0
  99              		.cfi_startproc
 100              		@ Volatile: function does not return.
 101              		@ args = 0, pretend = 0, frame = 0
 102              		@ frame_needed = 0, uses_anonymous_args = 0
 103              		@ link register save eliminated.
 104              	.L9:
 105 0008 FEE7     		b	.L9
 106              		.cfi_endproc
 107              	.LFE115:
 109              		.align	1
 110              		.global	DebugMon_Handler
 111              		.thumb
 112              		.thumb_func
 114              	DebugMon_Handler:
 115              	.LFB116:
 105:/home/user/Desktop/STM32-Projekte/FH-Vertibot/src/project_src/stm32f30x_it.c ****   /* Go to infinite loop when Usage Fault exception occurs */
 106:/home/user/Desktop/STM32-Projekte/FH-Vertibot/src/project_src/stm32f30x_it.c ****   while (1)
 107:/home/user/Desktop/STM32-Projekte/FH-Vertibot/src/project_src/stm32f30x_it.c ****   {
 108:/home/user/Desktop/STM32-Projekte/FH-Vertibot/src/project_src/stm32f30x_it.c ****   }
 109:/home/user/Desktop/STM32-Projekte/FH-Vertibot/src/project_src/stm32f30x_it.c **** }
 110:/home/user/Desktop/STM32-Projekte/FH-Vertibot/src/project_src/stm32f30x_it.c **** 
 111:/home/user/Desktop/STM32-Projekte/FH-Vertibot/src/project_src/stm32f30x_it.c **** ///**
 112:/home/user/Desktop/STM32-Projekte/FH-Vertibot/src/project_src/stm32f30x_it.c **** //  * @brief  This function handles SVCall exception.
 113:/home/user/Desktop/STM32-Projekte/FH-Vertibot/src/project_src/stm32f30x_it.c **** //  * @param  None
 114:/home/user/Desktop/STM32-Projekte/FH-Vertibot/src/project_src/stm32f30x_it.c **** //  * @retval None
 115:/home/user/Desktop/STM32-Projekte/FH-Vertibot/src/project_src/stm32f30x_it.c **** //  */
 116:/home/user/Desktop/STM32-Projekte/FH-Vertibot/src/project_src/stm32f30x_it.c **** //void SVC_Handler(void)
 117:/home/user/Desktop/STM32-Projekte/FH-Vertibot/src/project_src/stm32f30x_it.c **** //{
 118:/home/user/Desktop/STM32-Projekte/FH-Vertibot/src/project_src/stm32f30x_it.c **** //}
 119:/home/user/Desktop/STM32-Projekte/FH-Vertibot/src/project_src/stm32f30x_it.c **** 
 120:/home/user/Desktop/STM32-Projekte/FH-Vertibot/src/project_src/stm32f30x_it.c **** /**
 121:/home/user/Desktop/STM32-Projekte/FH-Vertibot/src/project_src/stm32f30x_it.c ****   * @brief  This function handles Debug Monitor exception.
 122:/home/user/Desktop/STM32-Projekte/FH-Vertibot/src/project_src/stm32f30x_it.c ****   * @param  None
 123:/home/user/Desktop/STM32-Projekte/FH-Vertibot/src/project_src/stm32f30x_it.c ****   * @retval None
 124:/home/user/Desktop/STM32-Projekte/FH-Vertibot/src/project_src/stm32f30x_it.c ****   */
 125:/home/user/Desktop/STM32-Projekte/FH-Vertibot/src/project_src/stm32f30x_it.c **** void DebugMon_Handler(void)
 126:/home/user/Desktop/STM32-Projekte/FH-Vertibot/src/project_src/stm32f30x_it.c **** {
 116              		.loc 1 126 0
 117              		.cfi_startproc
 118              		@ args = 0, pretend = 0, frame = 0
 119              		@ frame_needed = 0, uses_anonymous_args = 0
 120              		@ link register save eliminated.
 121 000a 7047     		bx	lr
 122              		.cfi_endproc
 123              	.LFE116:
 125              		.align	1
 126              		.global	USART3_IRQHandler
 127              		.thumb
 128              		.thumb_func
 130              	USART3_IRQHandler:
 131              	.LFB117:
 127:/home/user/Desktop/STM32-Projekte/FH-Vertibot/src/project_src/stm32f30x_it.c **** }
 128:/home/user/Desktop/STM32-Projekte/FH-Vertibot/src/project_src/stm32f30x_it.c **** 
 129:/home/user/Desktop/STM32-Projekte/FH-Vertibot/src/project_src/stm32f30x_it.c **** ///**
 130:/home/user/Desktop/STM32-Projekte/FH-Vertibot/src/project_src/stm32f30x_it.c **** //  * @brief  This function handles PendSVC exception.
 131:/home/user/Desktop/STM32-Projekte/FH-Vertibot/src/project_src/stm32f30x_it.c **** //  * @param  None
 132:/home/user/Desktop/STM32-Projekte/FH-Vertibot/src/project_src/stm32f30x_it.c **** //  * @retval None
 133:/home/user/Desktop/STM32-Projekte/FH-Vertibot/src/project_src/stm32f30x_it.c **** //  */
 134:/home/user/Desktop/STM32-Projekte/FH-Vertibot/src/project_src/stm32f30x_it.c **** //void PendSV_Handler(void)
 135:/home/user/Desktop/STM32-Projekte/FH-Vertibot/src/project_src/stm32f30x_it.c **** //{
 136:/home/user/Desktop/STM32-Projekte/FH-Vertibot/src/project_src/stm32f30x_it.c **** //}
 137:/home/user/Desktop/STM32-Projekte/FH-Vertibot/src/project_src/stm32f30x_it.c **** 
 138:/home/user/Desktop/STM32-Projekte/FH-Vertibot/src/project_src/stm32f30x_it.c **** ///**
 139:/home/user/Desktop/STM32-Projekte/FH-Vertibot/src/project_src/stm32f30x_it.c **** //  * @brief  This function handles SysTick Handler.
 140:/home/user/Desktop/STM32-Projekte/FH-Vertibot/src/project_src/stm32f30x_it.c **** //  * @param  None
 141:/home/user/Desktop/STM32-Projekte/FH-Vertibot/src/project_src/stm32f30x_it.c **** //  * @retval None
 142:/home/user/Desktop/STM32-Projekte/FH-Vertibot/src/project_src/stm32f30x_it.c **** //  */
 143:/home/user/Desktop/STM32-Projekte/FH-Vertibot/src/project_src/stm32f30x_it.c **** //void SysTick_Handler(void)
 144:/home/user/Desktop/STM32-Projekte/FH-Vertibot/src/project_src/stm32f30x_it.c **** //{
 145:/home/user/Desktop/STM32-Projekte/FH-Vertibot/src/project_src/stm32f30x_it.c **** //}
 146:/home/user/Desktop/STM32-Projekte/FH-Vertibot/src/project_src/stm32f30x_it.c **** 
 147:/home/user/Desktop/STM32-Projekte/FH-Vertibot/src/project_src/stm32f30x_it.c **** // this is the interrupt request handler (IRQ) for ALL USART1 interrupts
 148:/home/user/Desktop/STM32-Projekte/FH-Vertibot/src/project_src/stm32f30x_it.c **** 
 149:/home/user/Desktop/STM32-Projekte/FH-Vertibot/src/project_src/stm32f30x_it.c **** /*! ***************************************************************************
 150:/home/user/Desktop/STM32-Projekte/FH-Vertibot/src/project_src/stm32f30x_it.c ****  *    USART3 Interrupt
 151:/home/user/Desktop/STM32-Projekte/FH-Vertibot/src/project_src/stm32f30x_it.c ****  *   Dient zur schnellen Übertragung der aktuellen Telemetriedaten
 152:/home/user/Desktop/STM32-Projekte/FH-Vertibot/src/project_src/stm32f30x_it.c ****  *  ************************************************************************ */
 153:/home/user/Desktop/STM32-Projekte/FH-Vertibot/src/project_src/stm32f30x_it.c **** void USART3_IRQHandler(void)
 154:/home/user/Desktop/STM32-Projekte/FH-Vertibot/src/project_src/stm32f30x_it.c **** {
 132              		.loc 1 154 0
 133              		.cfi_startproc
 134              		@ args = 0, pretend = 0, frame = 0
 135              		@ frame_needed = 0, uses_anonymous_args = 0
 136              		.loc 1 154 0
 137 000c 10B5     		push	{r4, lr}
 138              	.LCFI0:
 139              		.cfi_def_cfa_offset 8
 140              		.cfi_offset 4, -8
 141              		.cfi_offset 14, -4
 155:/home/user/Desktop/STM32-Projekte/FH-Vertibot/src/project_src/stm32f30x_it.c **** 	// TODO: Timeout for Receive-Datas
 156:/home/user/Desktop/STM32-Projekte/FH-Vertibot/src/project_src/stm32f30x_it.c **** 	/* Receive Data register not empty interrupt */
 157:/home/user/Desktop/STM32-Projekte/FH-Vertibot/src/project_src/stm32f30x_it.c **** 	if(USART_GetITStatus(USART3, USART_IT_RXNE) != RESET)
 142              		.loc 1 157 0
 143 000e 2C48     		ldr	r0, .L31
 144 0010 2C49     		ldr	r1, .L31+4
 145 0012 FFF7FEFF 		bl	USART_GetITStatus
 146              	.LVL0:
 147 0016 48B3     		cbz	r0, .L12
 148              	.LBB2:
 158:/home/user/Desktop/STM32-Projekte/FH-Vertibot/src/project_src/stm32f30x_it.c **** 	{
 159:/home/user/Desktop/STM32-Projekte/FH-Vertibot/src/project_src/stm32f30x_it.c **** 		char Data = USART_ReceiveData(USART3);
 149              		.loc 1 159 0
 150 0018 2948     		ldr	r0, .L31
 151 001a FFF7FEFF 		bl	USART_ReceiveData
 152              	.LVL1:
 160:/home/user/Desktop/STM32-Projekte/FH-Vertibot/src/project_src/stm32f30x_it.c **** 
 161:/home/user/Desktop/STM32-Projekte/FH-Vertibot/src/project_src/stm32f30x_it.c **** 		if (It_Com.rxready == 0) {
 153              		.loc 1 161 0
 154 001e 2A4B     		ldr	r3, .L31+8
 155 0020 D3F80012 		ldr	r1, [r3, #512]
 156 0024 1C46     		mov	r4, r3
 157 0026 E9B9     		cbnz	r1, .L13
 162:/home/user/Desktop/STM32-Projekte/FH-Vertibot/src/project_src/stm32f30x_it.c **** 			It_Com.rxbuffer[It_Com.rxcnt] = Data;
 158              		.loc 1 162 0
 159 0028 D3F80822 		ldr	r2, [r3, #520]
 159:/home/user/Desktop/STM32-Projekte/FH-Vertibot/src/project_src/stm32f30x_it.c **** 		char Data = USART_ReceiveData(USART3);
 160              		.loc 1 159 0
 161 002c C0B2     		uxtb	r0, r0
 162              	.LVL2:
 163:/home/user/Desktop/STM32-Projekte/FH-Vertibot/src/project_src/stm32f30x_it.c **** 			switch (It_Com.rxcnt) {
 163              		.loc 1 163 0
 164 002e 012A     		cmp	r2, #1
 162:/home/user/Desktop/STM32-Projekte/FH-Vertibot/src/project_src/stm32f30x_it.c **** 			It_Com.rxbuffer[It_Com.rxcnt] = Data;
 165              		.loc 1 162 0
 166 0030 9854     		strb	r0, [r3, r2]
 167              		.loc 1 163 0
 168 0032 10D0     		beq	.L15
 169 0034 07D3     		bcc	.L16
 170 0036 0F2A     		cmp	r2, #15
 171 0038 11D1     		bne	.L30
 164:/home/user/Desktop/STM32-Projekte/FH-Vertibot/src/project_src/stm32f30x_it.c **** 				/* Header LOW */
 165:/home/user/Desktop/STM32-Projekte/FH-Vertibot/src/project_src/stm32f30x_it.c **** 				case 0:
 166:/home/user/Desktop/STM32-Projekte/FH-Vertibot/src/project_src/stm32f30x_it.c **** 					if (It_Com.rxbuffer[It_Com.rxcnt] == 0xff) It_Com.rxcnt++;
 167:/home/user/Desktop/STM32-Projekte/FH-Vertibot/src/project_src/stm32f30x_it.c **** 					else It_Com.rxcnt = 0;
 168:/home/user/Desktop/STM32-Projekte/FH-Vertibot/src/project_src/stm32f30x_it.c **** 					break;
 169:/home/user/Desktop/STM32-Projekte/FH-Vertibot/src/project_src/stm32f30x_it.c **** 				/* Header High */
 170:/home/user/Desktop/STM32-Projekte/FH-Vertibot/src/project_src/stm32f30x_it.c **** 				case 1:
 171:/home/user/Desktop/STM32-Projekte/FH-Vertibot/src/project_src/stm32f30x_it.c **** 					if (It_Com.rxbuffer[It_Com.rxcnt] == 0x7F) It_Com.rxcnt++;
 172:/home/user/Desktop/STM32-Projekte/FH-Vertibot/src/project_src/stm32f30x_it.c **** 					else It_Com.rxcnt = 0;
 173:/home/user/Desktop/STM32-Projekte/FH-Vertibot/src/project_src/stm32f30x_it.c **** 					break;
 174:/home/user/Desktop/STM32-Projekte/FH-Vertibot/src/project_src/stm32f30x_it.c **** 				case 15:
 175:/home/user/Desktop/STM32-Projekte/FH-Vertibot/src/project_src/stm32f30x_it.c **** 					It_Com.rxready = 1;
 172              		.loc 1 175 0
 173 003a 0122     		movs	r2, #1
 174 003c C3F80022 		str	r2, [r3, #512]
 176:/home/user/Desktop/STM32-Projekte/FH-Vertibot/src/project_src/stm32f30x_it.c **** 					It_Com.rxcnt = 0;
 175              		.loc 1 176 0
 176 0040 C3F80812 		str	r1, [r3, #520]
 177:/home/user/Desktop/STM32-Projekte/FH-Vertibot/src/project_src/stm32f30x_it.c **** 					break;
 177              		.loc 1 177 0
 178 0044 0EE0     		b	.L13
 179              	.L16:
 166:/home/user/Desktop/STM32-Projekte/FH-Vertibot/src/project_src/stm32f30x_it.c **** 					if (It_Com.rxbuffer[It_Com.rxcnt] == 0xff) It_Com.rxcnt++;
 180              		.loc 1 166 0
 181 0046 FF28     		cmp	r0, #255
 182 0048 01D1     		bne	.L18
 166:/home/user/Desktop/STM32-Projekte/FH-Vertibot/src/project_src/stm32f30x_it.c **** 					if (It_Com.rxbuffer[It_Com.rxcnt] == 0xff) It_Com.rxcnt++;
 183              		.loc 1 166 0 is_stmt 0 discriminator 1
 184 004a 0122     		movs	r2, #1
 185 004c 08E0     		b	.L28
 186              	.L18:
 167:/home/user/Desktop/STM32-Projekte/FH-Vertibot/src/project_src/stm32f30x_it.c **** 					else It_Com.rxcnt = 0;
 187              		.loc 1 167 0 is_stmt 1
 188 004e 0023     		movs	r3, #0
 189 0050 C4F80832 		str	r3, [r4, #520]
 190 0054 06E0     		b	.L13
 191              	.L15:
 171:/home/user/Desktop/STM32-Projekte/FH-Vertibot/src/project_src/stm32f30x_it.c **** 					if (It_Com.rxbuffer[It_Com.rxcnt] == 0x7F) It_Com.rxcnt++;
 192              		.loc 1 171 0
 193 0056 7F28     		cmp	r0, #127
 194 0058 F9D1     		bne	.L18
 171:/home/user/Desktop/STM32-Projekte/FH-Vertibot/src/project_src/stm32f30x_it.c **** 					if (It_Com.rxbuffer[It_Com.rxcnt] == 0x7F) It_Com.rxcnt++;
 195              		.loc 1 171 0 is_stmt 0 discriminator 1
 196 005a 0222     		movs	r2, #2
 197 005c 00E0     		b	.L28
 198              	.L30:
 178:/home/user/Desktop/STM32-Projekte/FH-Vertibot/src/project_src/stm32f30x_it.c **** 				default:
 179:/home/user/Desktop/STM32-Projekte/FH-Vertibot/src/project_src/stm32f30x_it.c **** 					It_Com.rxcnt ++;
 199              		.loc 1 179 0 is_stmt 1
 200 005e 0132     		adds	r2, r2, #1
 201              	.L28:
 202 0060 C3F80822 		str	r2, [r3, #520]
 203              	.L13:
 180:/home/user/Desktop/STM32-Projekte/FH-Vertibot/src/project_src/stm32f30x_it.c **** 					break;
 181:/home/user/Desktop/STM32-Projekte/FH-Vertibot/src/project_src/stm32f30x_it.c **** 			}
 182:/home/user/Desktop/STM32-Projekte/FH-Vertibot/src/project_src/stm32f30x_it.c **** 		}
 183:/home/user/Desktop/STM32-Projekte/FH-Vertibot/src/project_src/stm32f30x_it.c **** 	    USART_ClearFlag(USART3, USART_IT_RXNE);
 204              		.loc 1 183 0
 205 0064 1648     		ldr	r0, .L31
 206 0066 1749     		ldr	r1, .L31+4
 207 0068 FFF7FEFF 		bl	USART_ClearFlag
 208              	.LVL3:
 209              	.L12:
 210              	.LBE2:
 184:/home/user/Desktop/STM32-Projekte/FH-Vertibot/src/project_src/stm32f30x_it.c **** 	}
 185:/home/user/Desktop/STM32-Projekte/FH-Vertibot/src/project_src/stm32f30x_it.c **** 
 186:/home/user/Desktop/STM32-Projekte/FH-Vertibot/src/project_src/stm32f30x_it.c **** 	// Transmit Data Register empty interrupt
 187:/home/user/Desktop/STM32-Projekte/FH-Vertibot/src/project_src/stm32f30x_it.c ****     if(USART_GetITStatus(USART3, USART_IT_TXE) != RESET)
 211              		.loc 1 187 0
 212 006c 1448     		ldr	r0, .L31
 213 006e 1749     		ldr	r1, .L31+12
 214 0070 FFF7FEFF 		bl	USART_GetITStatus
 215              	.LVL4:
 216 0074 F0B1     		cbz	r0, .L19
 188:/home/user/Desktop/STM32-Projekte/FH-Vertibot/src/project_src/stm32f30x_it.c ****   	{
 189:/home/user/Desktop/STM32-Projekte/FH-Vertibot/src/project_src/stm32f30x_it.c ****   		USART_ClearITPendingBit(USART3, USART_IT_TXE);
 217              		.loc 1 189 0
 218 0076 1549     		ldr	r1, .L31+12
 219 0078 1148     		ldr	r0, .L31
 220 007a FFF7FEFF 		bl	USART_ClearITPendingBit
 221              	.LVL5:
 190:/home/user/Desktop/STM32-Projekte/FH-Vertibot/src/project_src/stm32f30x_it.c **** 
 191:/home/user/Desktop/STM32-Projekte/FH-Vertibot/src/project_src/stm32f30x_it.c ****   		//if(ModbusData.txcnt <= ModbusData.txlen)
 192:/home/user/Desktop/STM32-Projekte/FH-Vertibot/src/project_src/stm32f30x_it.c ****   		if(It_Com.txcnt <= (It_Com.txlen-1))
 222              		.loc 1 192 0
 223 007e 124B     		ldr	r3, .L31+8
 224 0080 D3F81012 		ldr	r1, [r3, #528]
 225 0084 D3F80C22 		ldr	r2, [r3, #524]
 226 0088 0139     		subs	r1, r1, #1
 227 008a 8A42     		cmp	r2, r1
 228 008c 09D8     		bhi	.L20
 193:/home/user/Desktop/STM32-Projekte/FH-Vertibot/src/project_src/stm32f30x_it.c ****   		{
 194:/home/user/Desktop/STM32-Projekte/FH-Vertibot/src/project_src/stm32f30x_it.c ****             USART_SendData(USART3,It_Com.txbuffer[It_Com.txcnt++]);
 229              		.loc 1 194 0
 230 008e 511C     		adds	r1, r2, #1
 231 0090 C3F80C12 		str	r1, [r3, #524]
 232 0094 1344     		add	r3, r3, r2
 233 0096 0A48     		ldr	r0, .L31
 234 0098 93F80011 		ldrb	r1, [r3, #256]	@ zero_extendqisi2
 235 009c FFF7FEFF 		bl	USART_SendData
 236              	.LVL6:
 237 00a0 08E0     		b	.L19
 238              	.L20:
 195:/home/user/Desktop/STM32-Projekte/FH-Vertibot/src/project_src/stm32f30x_it.c ****   		}
 196:/home/user/Desktop/STM32-Projekte/FH-Vertibot/src/project_src/stm32f30x_it.c ****   		else
 197:/home/user/Desktop/STM32-Projekte/FH-Vertibot/src/project_src/stm32f30x_it.c ****   		{
 198:/home/user/Desktop/STM32-Projekte/FH-Vertibot/src/project_src/stm32f30x_it.c ****   			It_Com.txcnt = 0;
 239              		.loc 1 198 0
 240 00a2 0022     		movs	r2, #0
 199:/home/user/Desktop/STM32-Projekte/FH-Vertibot/src/project_src/stm32f30x_it.c ****   			It_Com.txready = 0;
 200:/home/user/Desktop/STM32-Projekte/FH-Vertibot/src/project_src/stm32f30x_it.c ****   		    //USART_ITConfig(USART3, USART_IT_RXNE, ENABLE);
 201:/home/user/Desktop/STM32-Projekte/FH-Vertibot/src/project_src/stm32f30x_it.c ****   		    USART_ITConfig(USART3, USART_IT_TXE, DISABLE);
 241              		.loc 1 201 0
 242 00a4 0648     		ldr	r0, .L31
 243 00a6 0949     		ldr	r1, .L31+12
 198:/home/user/Desktop/STM32-Projekte/FH-Vertibot/src/project_src/stm32f30x_it.c ****   			It_Com.txcnt = 0;
 244              		.loc 1 198 0
 245 00a8 C3F80C22 		str	r2, [r3, #524]
 199:/home/user/Desktop/STM32-Projekte/FH-Vertibot/src/project_src/stm32f30x_it.c ****   			It_Com.txready = 0;
 246              		.loc 1 199 0
 247 00ac C3F80422 		str	r2, [r3, #516]
 248              		.loc 1 201 0
 249 00b0 FFF7FEFF 		bl	USART_ITConfig
 250              	.LVL7:
 251              	.L19:
 202:/home/user/Desktop/STM32-Projekte/FH-Vertibot/src/project_src/stm32f30x_it.c ****   		}
 203:/home/user/Desktop/STM32-Projekte/FH-Vertibot/src/project_src/stm32f30x_it.c ****   	}
 204:/home/user/Desktop/STM32-Projekte/FH-Vertibot/src/project_src/stm32f30x_it.c **** 	USART_ClearITPendingBit(USART3, USART_IT_RXNE);
 252              		.loc 1 204 0
 253 00b4 0248     		ldr	r0, .L31
 254 00b6 0349     		ldr	r1, .L31+4
 205:/home/user/Desktop/STM32-Projekte/FH-Vertibot/src/project_src/stm32f30x_it.c **** }
 255              		.loc 1 205 0
 256 00b8 BDE81040 		pop	{r4, lr}
 204:/home/user/Desktop/STM32-Projekte/FH-Vertibot/src/project_src/stm32f30x_it.c **** 	USART_ClearITPendingBit(USART3, USART_IT_RXNE);
 257              		.loc 1 204 0
 258 00bc FFF7FEBF 		b	USART_ClearITPendingBit
 259              	.LVL8:
 260              	.L32:
 261              		.align	2
 262              	.L31:
 263 00c0 00480040 		.word	1073760256
 264 00c4 05010500 		.word	327941
 265 00c8 00000000 		.word	It_Com
 266 00cc 07010700 		.word	459015
 267              		.cfi_endproc
 268              	.LFE117:
 270              		.align	1
 271              		.global	USART2_IRQHandler
 272              		.thumb
 273              		.thumb_func
 275              	USART2_IRQHandler:
 276              	.LFB118:
 206:/home/user/Desktop/STM32-Projekte/FH-Vertibot/src/project_src/stm32f30x_it.c **** 
 207:/home/user/Desktop/STM32-Projekte/FH-Vertibot/src/project_src/stm32f30x_it.c **** /*USART Reception*/
 208:/home/user/Desktop/STM32-Projekte/FH-Vertibot/src/project_src/stm32f30x_it.c **** void USART2_IRQHandler(void)
 209:/home/user/Desktop/STM32-Projekte/FH-Vertibot/src/project_src/stm32f30x_it.c **** {
 277              		.loc 1 209 0
 278              		.cfi_startproc
 279              		@ args = 0, pretend = 0, frame = 0
 280              		@ frame_needed = 0, uses_anonymous_args = 0
 281 00d0 38B5     		push	{r3, r4, r5, lr}
 282              	.LCFI1:
 283              		.cfi_def_cfa_offset 16
 284              		.cfi_offset 3, -16
 285              		.cfi_offset 4, -12
 286              		.cfi_offset 5, -8
 287              		.cfi_offset 14, -4
 210:/home/user/Desktop/STM32-Projekte/FH-Vertibot/src/project_src/stm32f30x_it.c **** 	static unsigned char rxBuffer[5];
 211:/home/user/Desktop/STM32-Projekte/FH-Vertibot/src/project_src/stm32f30x_it.c **** 	static uint8_t i = 0;
 212:/home/user/Desktop/STM32-Projekte/FH-Vertibot/src/project_src/stm32f30x_it.c **** 
 213:/home/user/Desktop/STM32-Projekte/FH-Vertibot/src/project_src/stm32f30x_it.c **** 	if(USART_GetITStatus(USART2, USART_IT_RXNE) != RESET)
 288              		.loc 1 213 0
 289 00d2 1648     		ldr	r0, .L41
 290 00d4 1649     		ldr	r1, .L41+4
 291 00d6 FFF7FEFF 		bl	USART_GetITStatus
 292              	.LVL9:
 293 00da E0B1     		cbz	r0, .L34
 214:/home/user/Desktop/STM32-Projekte/FH-Vertibot/src/project_src/stm32f30x_it.c **** 	{
 215:/home/user/Desktop/STM32-Projekte/FH-Vertibot/src/project_src/stm32f30x_it.c **** 		/* Read one byte from the receive data register */
 216:/home/user/Desktop/STM32-Projekte/FH-Vertibot/src/project_src/stm32f30x_it.c **** 		rxBuffer[i] = USART_ReceiveData(USART2);
 294              		.loc 1 216 0
 295 00dc 154C     		ldr	r4, .L41+8
 296 00de 1348     		ldr	r0, .L41
 297 00e0 2578     		ldrb	r5, [r4]	@ zero_extendqisi2
 298 00e2 FFF7FEFF 		bl	USART_ReceiveData
 299              	.LVL10:
 217:/home/user/Desktop/STM32-Projekte/FH-Vertibot/src/project_src/stm32f30x_it.c **** 		if(i >= 4)
 300              		.loc 1 217 0
 301 00e6 2378     		ldrb	r3, [r4]	@ zero_extendqisi2
 216:/home/user/Desktop/STM32-Projekte/FH-Vertibot/src/project_src/stm32f30x_it.c **** 		rxBuffer[i] = USART_ReceiveData(USART2);
 302              		.loc 1 216 0
 303 00e8 2544     		add	r5, r5, r4
 304              		.loc 1 217 0
 305 00ea 032B     		cmp	r3, #3
 216:/home/user/Desktop/STM32-Projekte/FH-Vertibot/src/project_src/stm32f30x_it.c **** 		rxBuffer[i] = USART_ReceiveData(USART2);
 306              		.loc 1 216 0
 307 00ec 6870     		strb	r0, [r5, #1]
 308              		.loc 1 217 0
 309 00ee 05D9     		bls	.L35
 218:/home/user/Desktop/STM32-Projekte/FH-Vertibot/src/project_src/stm32f30x_it.c **** 		{
 219:/home/user/Desktop/STM32-Projekte/FH-Vertibot/src/project_src/stm32f30x_it.c **** 			//xQueueSendFromISR( usartRxQueue, &msgPointer, &xYieldRequired );
 220:/home/user/Desktop/STM32-Projekte/FH-Vertibot/src/project_src/stm32f30x_it.c **** 			CalcRXValues(&rxBuffer[0], 55);
 310              		.loc 1 220 0
 311 00f0 601C     		adds	r0, r4, #1
 312 00f2 3721     		movs	r1, #55
 313 00f4 FFF7FEFF 		bl	CalcRXValues
 314              	.LVL11:
 221:/home/user/Desktop/STM32-Projekte/FH-Vertibot/src/project_src/stm32f30x_it.c **** 			i = 0;
 315              		.loc 1 221 0
 316 00f8 0023     		movs	r3, #0
 317 00fa 03E0     		b	.L40
 318              	.L35:
 222:/home/user/Desktop/STM32-Projekte/FH-Vertibot/src/project_src/stm32f30x_it.c **** 		}
 223:/home/user/Desktop/STM32-Projekte/FH-Vertibot/src/project_src/stm32f30x_it.c **** 		else
 224:/home/user/Desktop/STM32-Projekte/FH-Vertibot/src/project_src/stm32f30x_it.c **** 		{
 225:/home/user/Desktop/STM32-Projekte/FH-Vertibot/src/project_src/stm32f30x_it.c **** 			if(rxBuffer[0] == 'A')
 319              		.loc 1 225 0
 320 00fc 6278     		ldrb	r2, [r4, #1]	@ zero_extendqisi2
 321 00fe 412A     		cmp	r2, #65
 322 0100 02D1     		bne	.L36
 226:/home/user/Desktop/STM32-Projekte/FH-Vertibot/src/project_src/stm32f30x_it.c **** 			{
 227:/home/user/Desktop/STM32-Projekte/FH-Vertibot/src/project_src/stm32f30x_it.c **** 				i++;
 323              		.loc 1 227 0
 324 0102 0133     		adds	r3, r3, #1
 325              	.L40:
 326 0104 2370     		strb	r3, [r4]
 327 0106 06E0     		b	.L34
 328              	.L36:
 228:/home/user/Desktop/STM32-Projekte/FH-Vertibot/src/project_src/stm32f30x_it.c **** 			}
 229:/home/user/Desktop/STM32-Projekte/FH-Vertibot/src/project_src/stm32f30x_it.c **** 			else
 230:/home/user/Desktop/STM32-Projekte/FH-Vertibot/src/project_src/stm32f30x_it.c **** 			{
 231:/home/user/Desktop/STM32-Projekte/FH-Vertibot/src/project_src/stm32f30x_it.c **** 				i = 0;
 329              		.loc 1 231 0
 330 0108 0023     		movs	r3, #0
 331 010a 2370     		strb	r3, [r4]
 232:/home/user/Desktop/STM32-Projekte/FH-Vertibot/src/project_src/stm32f30x_it.c **** 				rxBuffer[0] = 0;
 332              		.loc 1 232 0
 333 010c 6370     		strb	r3, [r4, #1]
 233:/home/user/Desktop/STM32-Projekte/FH-Vertibot/src/project_src/stm32f30x_it.c **** 				rxBuffer[1] = 0;
 334              		.loc 1 233 0
 335 010e A370     		strb	r3, [r4, #2]
 234:/home/user/Desktop/STM32-Projekte/FH-Vertibot/src/project_src/stm32f30x_it.c **** 				rxBuffer[2] = 0;
 336              		.loc 1 234 0
 337 0110 E370     		strb	r3, [r4, #3]
 235:/home/user/Desktop/STM32-Projekte/FH-Vertibot/src/project_src/stm32f30x_it.c **** 				rxBuffer[3] = 0;
 338              		.loc 1 235 0
 339 0112 2371     		strb	r3, [r4, #4]
 236:/home/user/Desktop/STM32-Projekte/FH-Vertibot/src/project_src/stm32f30x_it.c **** 				rxBuffer[4] = 0;
 340              		.loc 1 236 0
 341 0114 6371     		strb	r3, [r4, #5]
 342              	.L34:
 237:/home/user/Desktop/STM32-Projekte/FH-Vertibot/src/project_src/stm32f30x_it.c **** 			}
 238:/home/user/Desktop/STM32-Projekte/FH-Vertibot/src/project_src/stm32f30x_it.c **** 		}
 239:/home/user/Desktop/STM32-Projekte/FH-Vertibot/src/project_src/stm32f30x_it.c **** 	}
 240:/home/user/Desktop/STM32-Projekte/FH-Vertibot/src/project_src/stm32f30x_it.c **** 	USART_ClearITPendingBit(USART2, USART_IT_RXNE);
 343              		.loc 1 240 0
 344 0116 0548     		ldr	r0, .L41
 345 0118 0549     		ldr	r1, .L41+4
 346 011a FFF7FEFF 		bl	USART_ClearITPendingBit
 347              	.LVL12:
 241:/home/user/Desktop/STM32-Projekte/FH-Vertibot/src/project_src/stm32f30x_it.c **** 	USART_ClearFlag(USART2, USART_IT_RXNE);
 348              		.loc 1 241 0
 349 011e 0348     		ldr	r0, .L41
 350 0120 0349     		ldr	r1, .L41+4
 242:/home/user/Desktop/STM32-Projekte/FH-Vertibot/src/project_src/stm32f30x_it.c **** }
 351              		.loc 1 242 0
 352 0122 BDE83840 		pop	{r3, r4, r5, lr}
 241:/home/user/Desktop/STM32-Projekte/FH-Vertibot/src/project_src/stm32f30x_it.c **** 	USART_ClearFlag(USART2, USART_IT_RXNE);
 353              		.loc 1 241 0
 354 0126 FFF7FEBF 		b	USART_ClearFlag
 355              	.LVL13:
 356              	.L42:
 357 012a 00BF     		.align	2
 358              	.L41:
 359 012c 00440040 		.word	1073759232
 360 0130 05010500 		.word	327941
 361 0134 00000000 		.word	.LANCHOR0
 362              		.cfi_endproc
 363              	.LFE118:
 365              		.align	1
 366              		.global	disableEXTI
 367              		.thumb
 368              		.thumb_func
 370              	disableEXTI:
 371              	.LFB119:
 243:/home/user/Desktop/STM32-Projekte/FH-Vertibot/src/project_src/stm32f30x_it.c **** 
 244:/home/user/Desktop/STM32-Projekte/FH-Vertibot/src/project_src/stm32f30x_it.c **** void disableEXTI(uint32_t EXTINr)
 245:/home/user/Desktop/STM32-Projekte/FH-Vertibot/src/project_src/stm32f30x_it.c **** {
 372              		.loc 1 245 0
 373              		.cfi_startproc
 374              		@ args = 0, pretend = 0, frame = 0
 375              		@ frame_needed = 0, uses_anonymous_args = 0
 376              	.LVL14:
 377 0138 10B5     		push	{r4, lr}
 378              	.LCFI2:
 379              		.cfi_def_cfa_offset 8
 380              		.cfi_offset 4, -8
 381              		.cfi_offset 14, -4
 382              		.loc 1 245 0
 383 013a 0446     		mov	r4, r0
 246:/home/user/Desktop/STM32-Projekte/FH-Vertibot/src/project_src/stm32f30x_it.c **** 	getEXTI_Config()->EXTI_Line = EXTINr;
 384              		.loc 1 246 0
 385 013c FFF7FEFF 		bl	getEXTI_Config
 386              	.LVL15:
 387 0140 0460     		str	r4, [r0]
 247:/home/user/Desktop/STM32-Projekte/FH-Vertibot/src/project_src/stm32f30x_it.c **** 	getEXTI_Config()->EXTI_LineCmd = DISABLE;
 388              		.loc 1 247 0
 389 0142 FFF7FEFF 		bl	getEXTI_Config
 390              	.LVL16:
 391 0146 0023     		movs	r3, #0
 392 0148 8371     		strb	r3, [r0, #6]
 248:/home/user/Desktop/STM32-Projekte/FH-Vertibot/src/project_src/stm32f30x_it.c **** 	EXTI_Init(getEXTI_Config());
 393              		.loc 1 248 0
 394 014a FFF7FEFF 		bl	getEXTI_Config
 395              	.LVL17:
 249:/home/user/Desktop/STM32-Projekte/FH-Vertibot/src/project_src/stm32f30x_it.c **** }
 396              		.loc 1 249 0
 397 014e BDE81040 		pop	{r4, lr}
 398              	.LVL18:
 248:/home/user/Desktop/STM32-Projekte/FH-Vertibot/src/project_src/stm32f30x_it.c **** 	EXTI_Init(getEXTI_Config());
 399              		.loc 1 248 0
 400 0152 FFF7FEBF 		b	EXTI_Init
 401              	.LVL19:
 402              		.cfi_endproc
 403              	.LFE119:
 405              		.align	1
 406              		.global	enableEXTI
 407              		.thumb
 408              		.thumb_func
 410              	enableEXTI:
 411              	.LFB120:
 250:/home/user/Desktop/STM32-Projekte/FH-Vertibot/src/project_src/stm32f30x_it.c **** 
 251:/home/user/Desktop/STM32-Projekte/FH-Vertibot/src/project_src/stm32f30x_it.c **** void enableEXTI(uint32_t EXTINr)
 252:/home/user/Desktop/STM32-Projekte/FH-Vertibot/src/project_src/stm32f30x_it.c **** {
 412              		.loc 1 252 0
 413              		.cfi_startproc
 414              		@ args = 0, pretend = 0, frame = 0
 415              		@ frame_needed = 0, uses_anonymous_args = 0
 416              	.LVL20:
 417 0156 10B5     		push	{r4, lr}
 418              	.LCFI3:
 419              		.cfi_def_cfa_offset 8
 420              		.cfi_offset 4, -8
 421              		.cfi_offset 14, -4
 422              		.loc 1 252 0
 423 0158 0446     		mov	r4, r0
 253:/home/user/Desktop/STM32-Projekte/FH-Vertibot/src/project_src/stm32f30x_it.c **** 	getEXTI_Config()->EXTI_Line = EXTINr;
 424              		.loc 1 253 0
 425 015a FFF7FEFF 		bl	getEXTI_Config
 426              	.LVL21:
 427 015e 0460     		str	r4, [r0]
 254:/home/user/Desktop/STM32-Projekte/FH-Vertibot/src/project_src/stm32f30x_it.c **** 	getEXTI_Config()->EXTI_LineCmd = ENABLE;
 428              		.loc 1 254 0
 429 0160 FFF7FEFF 		bl	getEXTI_Config
 430              	.LVL22:
 431 0164 0123     		movs	r3, #1
 432 0166 8371     		strb	r3, [r0, #6]
 255:/home/user/Desktop/STM32-Projekte/FH-Vertibot/src/project_src/stm32f30x_it.c **** 	EXTI_Init(getEXTI_Config());
 433              		.loc 1 255 0
 434 0168 FFF7FEFF 		bl	getEXTI_Config
 435              	.LVL23:
 256:/home/user/Desktop/STM32-Projekte/FH-Vertibot/src/project_src/stm32f30x_it.c **** }
 436              		.loc 1 256 0
 437 016c BDE81040 		pop	{r4, lr}
 438              	.LVL24:
 255:/home/user/Desktop/STM32-Projekte/FH-Vertibot/src/project_src/stm32f30x_it.c **** 	EXTI_Init(getEXTI_Config());
 439              		.loc 1 255 0
 440 0170 FFF7FEBF 		b	EXTI_Init
 441              	.LVL25:
 442              		.cfi_endproc
 443              	.LFE120:
 445              		.align	1
 446              		.global	EXTI15_10_IRQHandler
 447              		.thumb
 448              		.thumb_func
 450              	EXTI15_10_IRQHandler:
 451              	.LFB121:
 257:/home/user/Desktop/STM32-Projekte/FH-Vertibot/src/project_src/stm32f30x_it.c **** 
 258:/home/user/Desktop/STM32-Projekte/FH-Vertibot/src/project_src/stm32f30x_it.c **** /* Interupt Handlers */
 259:/home/user/Desktop/STM32-Projekte/FH-Vertibot/src/project_src/stm32f30x_it.c **** void EXTI15_10_IRQHandler(void)
 260:/home/user/Desktop/STM32-Projekte/FH-Vertibot/src/project_src/stm32f30x_it.c **** {
 452              		.loc 1 260 0
 453              		.cfi_startproc
 454              		@ args = 0, pretend = 0, frame = 0
 455              		@ frame_needed = 0, uses_anonymous_args = 0
 456              		@ link register save eliminated.
 457 0174 7047     		bx	lr
 458              		.cfi_endproc
 459              	.LFE121:
 461              		.comm	It_Com,532,4
 462              		.bss
 463              		.set	.LANCHOR0,. + 0
 466              	i.8597:
 467 0000 00       		.space	1
 470              	rxBuffer.8596:
 471 0001 00000000 		.space	5
 471      00
 472              		.text
 473              	.Letext0:
 474              		.file 2 "/home/user/gcc-arm-none-eabi-4_8-2013q4/arm-none-eabi/include/stdint.h"
 475              		.file 3 "/home/user/Desktop/STM32-Projekte/FH-Vertibot/src/CMSIS/Device/ST/STM32F30x/Include/stm32
 476              		.file 4 "/home/user/Desktop/STM32-Projekte/FH-Vertibot/src/STM32F30x_StdPeriph_Driver/inc/stm32f30
 477              		.file 5 "/home/user/Desktop/STM32-Projekte/FH-Vertibot/src/project_inc/usart.h"
 478              		.file 6 "/home/user/Desktop/STM32-Projekte/FH-Vertibot/src/CMSIS/Include/core_cm4.h"
 479              		.file 7 "/home/user/Desktop/STM32-Projekte/FH-Vertibot/src/STM32F30x_StdPeriph_Driver/inc/stm32f30
 480              		.file 8 "/home/user/Desktop/STM32-Projekte/FH-Vertibot/src/project_inc/remote_control.h"
 481              		.file 9 "/home/user/Desktop/STM32-Projekte/FH-Vertibot/src/project_inc/stm32_configuration.h"