   1              		.syntax unified
   2              		.cpu cortex-m4
   3              		.eabi_attribute 27, 3
   4              		.eabi_attribute 28, 1
   5              		.fpu fpv4-sp-d16
   6              		.eabi_attribute 20, 1
   7              		.eabi_attribute 21, 1
   8              		.eabi_attribute 23, 3
   9              		.eabi_attribute 24, 1
  10              		.eabi_attribute 25, 1
  11              		.eabi_attribute 26, 1
  12              		.eabi_attribute 30, 4
  13              		.eabi_attribute 34, 1
  14              		.eabi_attribute 18, 4
  15              		.thumb
  16              		.file	"IMU_algorithm.c"
  17              		.text
  18              	.Ltext0:
  19              		.cfi_sections	.debug_frame
  20              		.align	1
  21              		.global	IMU_init
  22              		.thumb
  23              		.thumb_func
  25              	IMU_init:
  26              	.LFB0:
  27              		.file 1 "/home/user/Desktop/STM32-Projekte/FH-Vertibot/src/project_src/IMU_algorithm.c"
   1:/home/user/Desktop/STM32-Projekte/FH-Vertibot/src/project_src/IMU_algorithm.c **** #include <IMU_algorithm.h>
   2:/home/user/Desktop/STM32-Projekte/FH-Vertibot/src/project_src/IMU_algorithm.c **** #include <Vector_math.h>
   3:/home/user/Desktop/STM32-Projekte/FH-Vertibot/src/project_src/IMU_algorithm.c **** #include <math.h>
   4:/home/user/Desktop/STM32-Projekte/FH-Vertibot/src/project_src/IMU_algorithm.c **** #include <stdio.h>
   5:/home/user/Desktop/STM32-Projekte/FH-Vertibot/src/project_src/IMU_algorithm.c **** 
   6:/home/user/Desktop/STM32-Projekte/FH-Vertibot/src/project_src/IMU_algorithm.c **** 
   7:/home/user/Desktop/STM32-Projekte/FH-Vertibot/src/project_src/IMU_algorithm.c **** //! Initialization of the main dcm-variables used for the Gyro input
   8:/home/user/Desktop/STM32-Projekte/FH-Vertibot/src/project_src/IMU_algorithm.c **** void IMU_init(struct IMU_values *IMU, float dt)
   9:/home/user/Desktop/STM32-Projekte/FH-Vertibot/src/project_src/IMU_algorithm.c **** {
  28              		.loc 1 9 0
  29              		.cfi_startproc
  30              		@ args = 0, pretend = 0, frame = 0
  31              		@ frame_needed = 0, uses_anonymous_args = 0
  32              		@ link register save eliminated.
  33              	.LVL0:
  10:/home/user/Desktop/STM32-Projekte/FH-Vertibot/src/project_src/IMU_algorithm.c **** 	IMU->dt = dt;	
  11:/home/user/Desktop/STM32-Projekte/FH-Vertibot/src/project_src/IMU_algorithm.c **** 
  12:/home/user/Desktop/STM32-Projekte/FH-Vertibot/src/project_src/IMU_algorithm.c **** 	IMU->dcm_xe_line[0] = 1;
  13:/home/user/Desktop/STM32-Projekte/FH-Vertibot/src/project_src/IMU_algorithm.c **** 	IMU->dcm_xe_line[1] = 0;
  34              		.loc 1 13 0
  35 0000 0023     		movs	r3, #0
  12:/home/user/Desktop/STM32-Projekte/FH-Vertibot/src/project_src/IMU_algorithm.c **** 	IMU->dcm_xe_line[0] = 1;
  36              		.loc 1 12 0
  37 0002 4FF07E52 		mov	r2, #1065353216
  10:/home/user/Desktop/STM32-Projekte/FH-Vertibot/src/project_src/IMU_algorithm.c **** 	IMU->dt = dt;	
  38              		.loc 1 10 0
  39 0006 80ED000A 		fsts	s0, [r0]
  12:/home/user/Desktop/STM32-Projekte/FH-Vertibot/src/project_src/IMU_algorithm.c **** 	IMU->dcm_xe_line[0] = 1;
  40              		.loc 1 12 0
  41 000a 4260     		str	r2, [r0, #4]	@ float
  42              		.loc 1 13 0
  43 000c 8360     		str	r3, [r0, #8]	@ float
  14:/home/user/Desktop/STM32-Projekte/FH-Vertibot/src/project_src/IMU_algorithm.c **** 	IMU->dcm_xe_line[2] = 0;
  44              		.loc 1 14 0
  45 000e C360     		str	r3, [r0, #12]	@ float
  15:/home/user/Desktop/STM32-Projekte/FH-Vertibot/src/project_src/IMU_algorithm.c **** 
  16:/home/user/Desktop/STM32-Projekte/FH-Vertibot/src/project_src/IMU_algorithm.c **** 	IMU->dcm_ye_line[0] = 0;
  46              		.loc 1 16 0
  47 0010 0361     		str	r3, [r0, #16]	@ float
  17:/home/user/Desktop/STM32-Projekte/FH-Vertibot/src/project_src/IMU_algorithm.c **** 	IMU->dcm_ye_line[1] = 1;
  48              		.loc 1 17 0
  49 0012 4261     		str	r2, [r0, #20]	@ float
  18:/home/user/Desktop/STM32-Projekte/FH-Vertibot/src/project_src/IMU_algorithm.c **** 	IMU->dcm_ye_line[2] = 0;
  50              		.loc 1 18 0
  51 0014 8361     		str	r3, [r0, #24]	@ float
  19:/home/user/Desktop/STM32-Projekte/FH-Vertibot/src/project_src/IMU_algorithm.c **** 
  20:/home/user/Desktop/STM32-Projekte/FH-Vertibot/src/project_src/IMU_algorithm.c **** 	IMU->dcm_ze_line[0] = 0;
  52              		.loc 1 20 0
  53 0016 C361     		str	r3, [r0, #28]	@ float
  21:/home/user/Desktop/STM32-Projekte/FH-Vertibot/src/project_src/IMU_algorithm.c **** 	IMU->dcm_ze_line[1] = 0;
  54              		.loc 1 21 0
  55 0018 0362     		str	r3, [r0, #32]	@ float
  22:/home/user/Desktop/STM32-Projekte/FH-Vertibot/src/project_src/IMU_algorithm.c **** 	IMU->dcm_ze_line[2] = 1;			
  56              		.loc 1 22 0
  57 001a 4262     		str	r2, [r0, #36]	@ float
  23:/home/user/Desktop/STM32-Projekte/FH-Vertibot/src/project_src/IMU_algorithm.c **** 
  24:/home/user/Desktop/STM32-Projekte/FH-Vertibot/src/project_src/IMU_algorithm.c **** 	IMU->velocity_vector[0] = 0;
  58              		.loc 1 24 0
  59 001c 8362     		str	r3, [r0, #40]	@ float
  25:/home/user/Desktop/STM32-Projekte/FH-Vertibot/src/project_src/IMU_algorithm.c **** 	IMU->velocity_vector[1] = 0;
  60              		.loc 1 25 0
  61 001e C362     		str	r3, [r0, #44]	@ float
  26:/home/user/Desktop/STM32-Projekte/FH-Vertibot/src/project_src/IMU_algorithm.c **** 	IMU->velocity_vector[2] = 0;
  62              		.loc 1 26 0
  63 0020 0363     		str	r3, [r0, #48]	@ float
  64 0022 7047     		bx	lr
  65              		.cfi_endproc
  66              	.LFE0:
  68              		.align	1
  69              		.global	IMU_init_drift_correction
  70              		.thumb
  71              		.thumb_func
  73              	IMU_init_drift_correction:
  74              	.LFB1:
  27:/home/user/Desktop/STM32-Projekte/FH-Vertibot/src/project_src/IMU_algorithm.c **** }
  28:/home/user/Desktop/STM32-Projekte/FH-Vertibot/src/project_src/IMU_algorithm.c **** 
  29:/home/user/Desktop/STM32-Projekte/FH-Vertibot/src/project_src/IMU_algorithm.c **** 
  30:/home/user/Desktop/STM32-Projekte/FH-Vertibot/src/project_src/IMU_algorithm.c **** //! Initialization of the drift-correction variables - this is mainly solved with a PI-Controller
  31:/home/user/Desktop/STM32-Projekte/FH-Vertibot/src/project_src/IMU_algorithm.c **** void IMU_init_drift_correction(struct IMU_values *IMU, float kp)
  32:/home/user/Desktop/STM32-Projekte/FH-Vertibot/src/project_src/IMU_algorithm.c **** {
  75              		.loc 1 32 0
  76              		.cfi_startproc
  77              		@ args = 0, pretend = 0, frame = 0
  78              		@ frame_needed = 0, uses_anonymous_args = 0
  79              		@ link register save eliminated.
  80              	.LVL1:
  33:/home/user/Desktop/STM32-Projekte/FH-Vertibot/src/project_src/IMU_algorithm.c **** 	IMU->kp = kp;
  34:/home/user/Desktop/STM32-Projekte/FH-Vertibot/src/project_src/IMU_algorithm.c **** 
  35:/home/user/Desktop/STM32-Projekte/FH-Vertibot/src/project_src/IMU_algorithm.c **** 	IMU->accel_vector[0] = 0;
  81              		.loc 1 35 0
  82 0024 0023     		movs	r3, #0
  33:/home/user/Desktop/STM32-Projekte/FH-Vertibot/src/project_src/IMU_algorithm.c **** 	IMU->kp = kp;
  83              		.loc 1 33 0
  84 0026 80ED130A 		fsts	s0, [r0, #76]
  85              		.loc 1 35 0
  86 002a 4363     		str	r3, [r0, #52]	@ float
  36:/home/user/Desktop/STM32-Projekte/FH-Vertibot/src/project_src/IMU_algorithm.c **** 	IMU->accel_vector[1] = 0;
  87              		.loc 1 36 0
  88 002c 8363     		str	r3, [r0, #56]	@ float
  37:/home/user/Desktop/STM32-Projekte/FH-Vertibot/src/project_src/IMU_algorithm.c **** 	IMU->accel_vector[2] = 0;
  89              		.loc 1 37 0
  90 002e C363     		str	r3, [r0, #60]	@ float
  38:/home/user/Desktop/STM32-Projekte/FH-Vertibot/src/project_src/IMU_algorithm.c **** 
  39:/home/user/Desktop/STM32-Projekte/FH-Vertibot/src/project_src/IMU_algorithm.c **** 	IMU->mag_vector[0] = 0;
  91              		.loc 1 39 0
  92 0030 0364     		str	r3, [r0, #64]	@ float
  40:/home/user/Desktop/STM32-Projekte/FH-Vertibot/src/project_src/IMU_algorithm.c **** 	IMU->mag_vector[1] = 0;
  93              		.loc 1 40 0
  94 0032 4364     		str	r3, [r0, #68]	@ float
  41:/home/user/Desktop/STM32-Projekte/FH-Vertibot/src/project_src/IMU_algorithm.c **** 	IMU->mag_vector[2] = 0;
  95              		.loc 1 41 0
  96 0034 8364     		str	r3, [r0, #72]	@ float
  42:/home/user/Desktop/STM32-Projekte/FH-Vertibot/src/project_src/IMU_algorithm.c **** 
  43:/home/user/Desktop/STM32-Projekte/FH-Vertibot/src/project_src/IMU_algorithm.c **** 	IMU->kp_vector_ACC[0] = 0;
  97              		.loc 1 43 0
  98 0036 0366     		str	r3, [r0, #96]	@ float
  44:/home/user/Desktop/STM32-Projekte/FH-Vertibot/src/project_src/IMU_algorithm.c **** 	IMU->kp_vector_ACC[1] = 0;
  99              		.loc 1 44 0
 100 0038 4366     		str	r3, [r0, #100]	@ float
  45:/home/user/Desktop/STM32-Projekte/FH-Vertibot/src/project_src/IMU_algorithm.c **** 	IMU->kp_vector_ACC[2] = 0;
 101              		.loc 1 45 0
 102 003a 8366     		str	r3, [r0, #104]	@ float
  46:/home/user/Desktop/STM32-Projekte/FH-Vertibot/src/project_src/IMU_algorithm.c **** 
  47:/home/user/Desktop/STM32-Projekte/FH-Vertibot/src/project_src/IMU_algorithm.c **** 	IMU->kp_vector_MAG[0] = 0;
 103              		.loc 1 47 0
 104 003c C366     		str	r3, [r0, #108]	@ float
  48:/home/user/Desktop/STM32-Projekte/FH-Vertibot/src/project_src/IMU_algorithm.c **** 	IMU->kp_vector_MAG[1] = 0;
 105              		.loc 1 48 0
 106 003e 0367     		str	r3, [r0, #112]	@ float
  49:/home/user/Desktop/STM32-Projekte/FH-Vertibot/src/project_src/IMU_algorithm.c **** 	IMU->kp_vector_MAG[2] = 0;
 107              		.loc 1 49 0
 108 0040 4367     		str	r3, [r0, #116]	@ float
  50:/home/user/Desktop/STM32-Projekte/FH-Vertibot/src/project_src/IMU_algorithm.c **** 
  51:/home/user/Desktop/STM32-Projekte/FH-Vertibot/src/project_src/IMU_algorithm.c **** 	IMU->error_rollpitch[0] = 0;
 109              		.loc 1 51 0
 110 0042 0365     		str	r3, [r0, #80]	@ float
  52:/home/user/Desktop/STM32-Projekte/FH-Vertibot/src/project_src/IMU_algorithm.c **** 	IMU->error_rollpitch[1] = 0;
 111              		.loc 1 52 0
 112 0044 4365     		str	r3, [r0, #84]	@ float
  53:/home/user/Desktop/STM32-Projekte/FH-Vertibot/src/project_src/IMU_algorithm.c **** 	IMU->error_rollpitch[2] = 0;
 113              		.loc 1 53 0
 114 0046 8365     		str	r3, [r0, #88]	@ float
  54:/home/user/Desktop/STM32-Projekte/FH-Vertibot/src/project_src/IMU_algorithm.c **** 
  55:/home/user/Desktop/STM32-Projekte/FH-Vertibot/src/project_src/IMU_algorithm.c **** 	IMU->error_yaw = 0;
 115              		.loc 1 55 0
 116 0048 C365     		str	r3, [r0, #92]	@ float
 117 004a 7047     		bx	lr
 118              		.cfi_endproc
 119              	.LFE1:
 121              		.align	1
 122              		.global	IMU_update
 123              		.thumb
 124              		.thumb_func
 126              	IMU_update:
 127              	.LFB2:
  56:/home/user/Desktop/STM32-Projekte/FH-Vertibot/src/project_src/IMU_algorithm.c **** }
  57:/home/user/Desktop/STM32-Projekte/FH-Vertibot/src/project_src/IMU_algorithm.c **** 
  58:/home/user/Desktop/STM32-Projekte/FH-Vertibot/src/project_src/IMU_algorithm.c **** 
  59:/home/user/Desktop/STM32-Projekte/FH-Vertibot/src/project_src/IMU_algorithm.c **** //! Update of the dcm-matrix
  60:/home/user/Desktop/STM32-Projekte/FH-Vertibot/src/project_src/IMU_algorithm.c **** void IMU_update(struct IMU_values *IMU)
  61:/home/user/Desktop/STM32-Projekte/FH-Vertibot/src/project_src/IMU_algorithm.c **** {
 128              		.loc 1 61 0
 129              		.cfi_startproc
 130              		@ args = 0, pretend = 0, frame = 16
 131              		@ frame_needed = 0, uses_anonymous_args = 0
 132              	.LVL2:
  62:/home/user/Desktop/STM32-Projekte/FH-Vertibot/src/project_src/IMU_algorithm.c **** 	float result[3];
  63:/home/user/Desktop/STM32-Projekte/FH-Vertibot/src/project_src/IMU_algorithm.c **** 
  64:/home/user/Desktop/STM32-Projekte/FH-Vertibot/src/project_src/IMU_algorithm.c **** 	/*dt-factor + addition of omega_vector, which holds the PI-Values*/
  65:/home/user/Desktop/STM32-Projekte/FH-Vertibot/src/project_src/IMU_algorithm.c **** 	IMU->velocity_vector[0] = (IMU->velocity_vector[0]*IMU->dt) - (IMU->kp_vector_ACC[0]) - (IMU->kp_v
 133              		.loc 1 65 0
 134 004c 90ED007A 		flds	s14, [r0]
 135 0050 D0ED0A6A 		flds	s13, [r0, #40]
 136 0054 D0ED187A 		flds	s15, [r0, #96]
 137 0058 D6EE877A 		vfnms.f32	s15, s13, s14
  61:/home/user/Desktop/STM32-Projekte/FH-Vertibot/src/project_src/IMU_algorithm.c **** {
 138              		.loc 1 61 0
 139 005c 7FB5     		push	{r0, r1, r2, r3, r4, r5, r6, lr}
 140              	.LCFI0:
 141              		.cfi_def_cfa_offset 32
 142              		.cfi_offset 0, -32
 143              		.cfi_offset 1, -28
 144              		.cfi_offset 2, -24
 145              		.cfi_offset 3, -20
 146              		.cfi_offset 4, -16
 147              		.cfi_offset 5, -12
 148              		.cfi_offset 6, -8
 149              		.cfi_offset 14, -4
 150              		.loc 1 65 0
 151 005e D0ED1B6A 		flds	s13, [r0, #108]
 152 0062 77EEE67A 		fsubs	s15, s15, s13
  66:/home/user/Desktop/STM32-Projekte/FH-Vertibot/src/project_src/IMU_algorithm.c **** 	IMU->velocity_vector[1] = (IMU->velocity_vector[1]*IMU->dt) - (IMU->kp_vector_ACC[1]) - (IMU->kp_v
 153              		.loc 1 66 0
 154 0066 D0ED0B6A 		flds	s13, [r0, #44]
  65:/home/user/Desktop/STM32-Projekte/FH-Vertibot/src/project_src/IMU_algorithm.c **** 	IMU->velocity_vector[0] = (IMU->velocity_vector[0]*IMU->dt) - (IMU->kp_vector_ACC[0]) - (IMU->kp_v
 155              		.loc 1 65 0
 156 006a C0ED0A7A 		fsts	s15, [r0, #40]
 157 006e D0ED197A 		flds	s15, [r0, #100]
 158              		.loc 1 66 0
 159 0072 D6EE877A 		vfnms.f32	s15, s13, s14
  67:/home/user/Desktop/STM32-Projekte/FH-Vertibot/src/project_src/IMU_algorithm.c **** 	IMU->velocity_vector[2] = (IMU->velocity_vector[2]*IMU->dt) - (IMU->kp_vector_ACC[2]) - (IMU->kp_v
  68:/home/user/Desktop/STM32-Projekte/FH-Vertibot/src/project_src/IMU_algorithm.c **** 
  69:/home/user/Desktop/STM32-Projekte/FH-Vertibot/src/project_src/IMU_algorithm.c **** 	/*Update of the first dcm-line (xe)*/
  70:/home/user/Desktop/STM32-Projekte/FH-Vertibot/src/project_src/IMU_algorithm.c **** 	VectorCrossProduct(result, IMU->dcm_xe_line, IMU->velocity_vector);
 160              		.loc 1 70 0
 161 0076 061D     		adds	r6, r0, #4
 162 0078 00F12805 		add	r5, r0, #40
  66:/home/user/Desktop/STM32-Projekte/FH-Vertibot/src/project_src/IMU_algorithm.c **** 	IMU->velocity_vector[1] = (IMU->velocity_vector[1]*IMU->dt) - (IMU->kp_vector_ACC[1]) - (IMU->kp_v
 163              		.loc 1 66 0
 164 007c D0ED1C6A 		flds	s13, [r0, #112]
 165 0080 77EEE67A 		fsubs	s15, s15, s13
  67:/home/user/Desktop/STM32-Projekte/FH-Vertibot/src/project_src/IMU_algorithm.c **** 	IMU->velocity_vector[2] = (IMU->velocity_vector[2]*IMU->dt) - (IMU->kp_vector_ACC[2]) - (IMU->kp_v
 166              		.loc 1 67 0
 167 0084 D0ED0C6A 		flds	s13, [r0, #48]
  66:/home/user/Desktop/STM32-Projekte/FH-Vertibot/src/project_src/IMU_algorithm.c **** 	IMU->velocity_vector[1] = (IMU->velocity_vector[1]*IMU->dt) - (IMU->kp_vector_ACC[1]) - (IMU->kp_v
 168              		.loc 1 66 0
 169 0088 C0ED0B7A 		fsts	s15, [r0, #44]
 170 008c D0ED1A7A 		flds	s15, [r0, #104]
  67:/home/user/Desktop/STM32-Projekte/FH-Vertibot/src/project_src/IMU_algorithm.c **** 	IMU->velocity_vector[2] = (IMU->velocity_vector[2]*IMU->dt) - (IMU->kp_vector_ACC[2]) - (IMU->kp_v
 171              		.loc 1 67 0
 172 0090 D6EE877A 		vfnms.f32	s15, s13, s14
  61:/home/user/Desktop/STM32-Projekte/FH-Vertibot/src/project_src/IMU_algorithm.c **** {
 173              		.loc 1 61 0
 174 0094 0446     		mov	r4, r0
 175              		.loc 1 70 0
 176 0096 3146     		mov	r1, r6
  67:/home/user/Desktop/STM32-Projekte/FH-Vertibot/src/project_src/IMU_algorithm.c **** 	IMU->velocity_vector[2] = (IMU->velocity_vector[2]*IMU->dt) - (IMU->kp_vector_ACC[2]) - (IMU->kp_v
 177              		.loc 1 67 0
 178 0098 90ED1D7A 		flds	s14, [r0, #116]
 179 009c 77EEC77A 		fsubs	s15, s15, s14
 180              		.loc 1 70 0
 181 00a0 2A46     		mov	r2, r5
  67:/home/user/Desktop/STM32-Projekte/FH-Vertibot/src/project_src/IMU_algorithm.c **** 	IMU->velocity_vector[2] = (IMU->velocity_vector[2]*IMU->dt) - (IMU->kp_vector_ACC[2]) - (IMU->kp_v
 182              		.loc 1 67 0
 183 00a2 C0ED0C7A 		fsts	s15, [r0, #48]
 184              		.loc 1 70 0
 185 00a6 01A8     		add	r0, sp, #4
 186              	.LVL3:
 187 00a8 FFF7FEFF 		bl	VectorCrossProduct
 188              	.LVL4:
  71:/home/user/Desktop/STM32-Projekte/FH-Vertibot/src/project_src/IMU_algorithm.c **** 	VectorAdd(IMU->dcm_xe_line, IMU->dcm_xe_line, result);
 189              		.loc 1 71 0
 190 00ac 3046     		mov	r0, r6
 191 00ae 3146     		mov	r1, r6
 192 00b0 01AA     		add	r2, sp, #4
  72:/home/user/Desktop/STM32-Projekte/FH-Vertibot/src/project_src/IMU_algorithm.c **** 
  73:/home/user/Desktop/STM32-Projekte/FH-Vertibot/src/project_src/IMU_algorithm.c **** 	/*Update of the second dcm-line(ye)*/
  74:/home/user/Desktop/STM32-Projekte/FH-Vertibot/src/project_src/IMU_algorithm.c **** 	VectorCrossProduct(result, IMU->dcm_ye_line, IMU->velocity_vector);
 193              		.loc 1 74 0
 194 00b2 04F11006 		add	r6, r4, #16
  71:/home/user/Desktop/STM32-Projekte/FH-Vertibot/src/project_src/IMU_algorithm.c **** 	VectorAdd(IMU->dcm_xe_line, IMU->dcm_xe_line, result);
 195              		.loc 1 71 0
 196 00b6 FFF7FEFF 		bl	VectorAdd
 197              	.LVL5:
 198              		.loc 1 74 0
 199 00ba 01A8     		add	r0, sp, #4
 200 00bc 3146     		mov	r1, r6
 201 00be 2A46     		mov	r2, r5
 202 00c0 FFF7FEFF 		bl	VectorCrossProduct
 203              	.LVL6:
  75:/home/user/Desktop/STM32-Projekte/FH-Vertibot/src/project_src/IMU_algorithm.c **** 	VectorAdd(IMU->dcm_ye_line, IMU->dcm_ye_line, result);
  76:/home/user/Desktop/STM32-Projekte/FH-Vertibot/src/project_src/IMU_algorithm.c **** 
  77:/home/user/Desktop/STM32-Projekte/FH-Vertibot/src/project_src/IMU_algorithm.c **** 	/*Update of the second dcm-line(ze)*/
  78:/home/user/Desktop/STM32-Projekte/FH-Vertibot/src/project_src/IMU_algorithm.c **** 	VectorCrossProduct(result, IMU->dcm_ze_line, IMU->velocity_vector);
 204              		.loc 1 78 0
 205 00c4 1C34     		adds	r4, r4, #28
 206              	.LVL7:
  75:/home/user/Desktop/STM32-Projekte/FH-Vertibot/src/project_src/IMU_algorithm.c **** 	VectorAdd(IMU->dcm_ye_line, IMU->dcm_ye_line, result);
 207              		.loc 1 75 0
 208 00c6 3046     		mov	r0, r6
 209 00c8 3146     		mov	r1, r6
 210 00ca 01AA     		add	r2, sp, #4
 211 00cc FFF7FEFF 		bl	VectorAdd
 212              	.LVL8:
 213              		.loc 1 78 0
 214 00d0 01A8     		add	r0, sp, #4
 215 00d2 2146     		mov	r1, r4
 216 00d4 2A46     		mov	r2, r5
 217 00d6 FFF7FEFF 		bl	VectorCrossProduct
 218              	.LVL9:
  79:/home/user/Desktop/STM32-Projekte/FH-Vertibot/src/project_src/IMU_algorithm.c **** 	VectorAdd(IMU->dcm_ze_line, IMU->dcm_ze_line, result);
 219              		.loc 1 79 0
 220 00da 2046     		mov	r0, r4
 221 00dc 2146     		mov	r1, r4
 222 00de 01AA     		add	r2, sp, #4
 223 00e0 FFF7FEFF 		bl	VectorAdd
 224              	.LVL10:
  80:/home/user/Desktop/STM32-Projekte/FH-Vertibot/src/project_src/IMU_algorithm.c **** }
 225              		.loc 1 80 0
 226 00e4 04B0     		add	sp, sp, #16
 227              		@ sp needed
 228 00e6 70BD     		pop	{r4, r5, r6, pc}
 229              		.cfi_endproc
 230              	.LFE2:
 232              		.align	1
 233              		.global	IMU_normalize
 234              		.thumb
 235              		.thumb_func
 237              	IMU_normalize:
 238              	.LFB3:
  81:/home/user/Desktop/STM32-Projekte/FH-Vertibot/src/project_src/IMU_algorithm.c **** 
  82:/home/user/Desktop/STM32-Projekte/FH-Vertibot/src/project_src/IMU_algorithm.c **** 
  83:/home/user/Desktop/STM32-Projekte/FH-Vertibot/src/project_src/IMU_algorithm.c **** //! Normalization of the vectors
  84:/home/user/Desktop/STM32-Projekte/FH-Vertibot/src/project_src/IMU_algorithm.c **** void IMU_normalize(struct IMU_values *IMU)
  85:/home/user/Desktop/STM32-Projekte/FH-Vertibot/src/project_src/IMU_algorithm.c **** {
 239              		.loc 1 85 0
 240              		.cfi_startproc
 241              		@ args = 0, pretend = 0, frame = 0
 242              		@ frame_needed = 0, uses_anonymous_args = 0
 243              	.LVL11:
  86:/home/user/Desktop/STM32-Projekte/FH-Vertibot/src/project_src/IMU_algorithm.c **** 	float normfactor;
  87:/home/user/Desktop/STM32-Projekte/FH-Vertibot/src/project_src/IMU_algorithm.c **** 	normfactor = sqrtf(IMU->dcm_xe_line[0]*IMU->dcm_xe_line[0] + IMU->dcm_xe_line[1]*IMU->dcm_xe_line[
 244              		.loc 1 87 0
 245 00e8 90ED020A 		flds	s0, [r0, #8]
 246 00ec 90ED017A 		flds	s14, [r0, #4]
 247 00f0 D0ED037A 		flds	s15, [r0, #12]
 248 00f4 20EE000A 		fmuls	s0, s0, s0
  85:/home/user/Desktop/STM32-Projekte/FH-Vertibot/src/project_src/IMU_algorithm.c **** {
 249              		.loc 1 85 0
 250 00f8 10B5     		push	{r4, lr}
 251              	.LCFI1:
 252              		.cfi_def_cfa_offset 8
 253              		.cfi_offset 4, -8
 254              		.cfi_offset 14, -4
 255              		.loc 1 87 0
 256 00fa A7EE070A 		vfma.f32	s0, s14, s14
  85:/home/user/Desktop/STM32-Projekte/FH-Vertibot/src/project_src/IMU_algorithm.c **** {
 257              		.loc 1 85 0
 258 00fe 0446     		mov	r4, r0
 259              		.loc 1 87 0
 260 0100 A7EEA70A 		vfma.f32	s0, s15, s15
 261 0104 FFF7FEFF 		bl	sqrtf
 262              	.LVL12:
  88:/home/user/Desktop/STM32-Projekte/FH-Vertibot/src/project_src/IMU_algorithm.c **** 	IMU->dcm_xe_line[0] = IMU->dcm_xe_line[0]/normfactor;	
 263              		.loc 1 88 0
 264 0108 D4ED017A 		flds	s15, [r4, #4]
  89:/home/user/Desktop/STM32-Projekte/FH-Vertibot/src/project_src/IMU_algorithm.c **** 	IMU->dcm_xe_line[1] = IMU->dcm_xe_line[1]/normfactor;	
  90:/home/user/Desktop/STM32-Projekte/FH-Vertibot/src/project_src/IMU_algorithm.c **** 	IMU->dcm_xe_line[2] = IMU->dcm_xe_line[2]/normfactor;	
  91:/home/user/Desktop/STM32-Projekte/FH-Vertibot/src/project_src/IMU_algorithm.c **** 
  92:/home/user/Desktop/STM32-Projekte/FH-Vertibot/src/project_src/IMU_algorithm.c **** 	normfactor = sqrtf(IMU->dcm_ye_line[0]*IMU->dcm_ye_line[0] + IMU->dcm_ye_line[1]*IMU->dcm_ye_line[
 265              		.loc 1 92 0
 266 010c 94ED047A 		flds	s14, [r4, #16]
  88:/home/user/Desktop/STM32-Projekte/FH-Vertibot/src/project_src/IMU_algorithm.c **** 	IMU->dcm_xe_line[0] = IMU->dcm_xe_line[0]/normfactor;	
 267              		.loc 1 88 0
 268 0110 C7EE807A 		fdivs	s15, s15, s0
 269 0114 C4ED017A 		fsts	s15, [r4, #4]
  89:/home/user/Desktop/STM32-Projekte/FH-Vertibot/src/project_src/IMU_algorithm.c **** 	IMU->dcm_xe_line[1] = IMU->dcm_xe_line[1]/normfactor;	
 270              		.loc 1 89 0
 271 0118 D4ED027A 		flds	s15, [r4, #8]
 272 011c C7EE807A 		fdivs	s15, s15, s0
 273 0120 C4ED027A 		fsts	s15, [r4, #8]
  90:/home/user/Desktop/STM32-Projekte/FH-Vertibot/src/project_src/IMU_algorithm.c **** 	IMU->dcm_xe_line[2] = IMU->dcm_xe_line[2]/normfactor;	
 274              		.loc 1 90 0
 275 0124 D4ED037A 		flds	s15, [r4, #12]
 276 0128 87EE800A 		fdivs	s0, s15, s0
 277              	.LVL13:
 278              		.loc 1 92 0
 279 012c D4ED067A 		flds	s15, [r4, #24]
  90:/home/user/Desktop/STM32-Projekte/FH-Vertibot/src/project_src/IMU_algorithm.c **** 	IMU->dcm_xe_line[2] = IMU->dcm_xe_line[2]/normfactor;	
 280              		.loc 1 90 0
 281 0130 84ED030A 		fsts	s0, [r4, #12]
 282              		.loc 1 92 0
 283 0134 94ED050A 		flds	s0, [r4, #20]
 284 0138 20EE000A 		fmuls	s0, s0, s0
 285 013c A7EE070A 		vfma.f32	s0, s14, s14
 286 0140 A7EEA70A 		vfma.f32	s0, s15, s15
 287 0144 FFF7FEFF 		bl	sqrtf
 288              	.LVL14:
  93:/home/user/Desktop/STM32-Projekte/FH-Vertibot/src/project_src/IMU_algorithm.c **** 	IMU->dcm_ye_line[0] = IMU->dcm_ye_line[0]/normfactor;	
 289              		.loc 1 93 0
 290 0148 D4ED047A 		flds	s15, [r4, #16]
  94:/home/user/Desktop/STM32-Projekte/FH-Vertibot/src/project_src/IMU_algorithm.c **** 	IMU->dcm_ye_line[1] = IMU->dcm_ye_line[1]/normfactor;	
  95:/home/user/Desktop/STM32-Projekte/FH-Vertibot/src/project_src/IMU_algorithm.c **** 	IMU->dcm_ye_line[2] = IMU->dcm_ye_line[2]/normfactor;	
  96:/home/user/Desktop/STM32-Projekte/FH-Vertibot/src/project_src/IMU_algorithm.c **** 
  97:/home/user/Desktop/STM32-Projekte/FH-Vertibot/src/project_src/IMU_algorithm.c **** 	normfactor = sqrtf(IMU->dcm_ze_line[0]*IMU->dcm_ze_line[0] + IMU->dcm_ze_line[1]*IMU->dcm_ze_line[
 291              		.loc 1 97 0
 292 014c 94ED077A 		flds	s14, [r4, #28]
  93:/home/user/Desktop/STM32-Projekte/FH-Vertibot/src/project_src/IMU_algorithm.c **** 	IMU->dcm_ye_line[0] = IMU->dcm_ye_line[0]/normfactor;	
 293              		.loc 1 93 0
 294 0150 C7EE807A 		fdivs	s15, s15, s0
 295 0154 C4ED047A 		fsts	s15, [r4, #16]
  94:/home/user/Desktop/STM32-Projekte/FH-Vertibot/src/project_src/IMU_algorithm.c **** 	IMU->dcm_ye_line[1] = IMU->dcm_ye_line[1]/normfactor;	
 296              		.loc 1 94 0
 297 0158 D4ED057A 		flds	s15, [r4, #20]
 298 015c C7EE807A 		fdivs	s15, s15, s0
 299 0160 C4ED057A 		fsts	s15, [r4, #20]
  95:/home/user/Desktop/STM32-Projekte/FH-Vertibot/src/project_src/IMU_algorithm.c **** 	IMU->dcm_ye_line[2] = IMU->dcm_ye_line[2]/normfactor;	
 300              		.loc 1 95 0
 301 0164 D4ED067A 		flds	s15, [r4, #24]
 302 0168 87EE800A 		fdivs	s0, s15, s0
 303              	.LVL15:
 304              		.loc 1 97 0
 305 016c D4ED097A 		flds	s15, [r4, #36]
  95:/home/user/Desktop/STM32-Projekte/FH-Vertibot/src/project_src/IMU_algorithm.c **** 	IMU->dcm_ye_line[2] = IMU->dcm_ye_line[2]/normfactor;	
 306              		.loc 1 95 0
 307 0170 84ED060A 		fsts	s0, [r4, #24]
 308              		.loc 1 97 0
 309 0174 94ED080A 		flds	s0, [r4, #32]
 310 0178 20EE000A 		fmuls	s0, s0, s0
 311 017c A7EE070A 		vfma.f32	s0, s14, s14
 312 0180 A7EEA70A 		vfma.f32	s0, s15, s15
 313 0184 FFF7FEFF 		bl	sqrtf
 314              	.LVL16:
  98:/home/user/Desktop/STM32-Projekte/FH-Vertibot/src/project_src/IMU_algorithm.c **** 	IMU->dcm_ze_line[0] = IMU->dcm_ze_line[0]/normfactor;	
 315              		.loc 1 98 0
 316 0188 D4ED077A 		flds	s15, [r4, #28]
 317 018c C7EE807A 		fdivs	s15, s15, s0
 318 0190 C4ED077A 		fsts	s15, [r4, #28]
  99:/home/user/Desktop/STM32-Projekte/FH-Vertibot/src/project_src/IMU_algorithm.c **** 	IMU->dcm_ze_line[1] = IMU->dcm_ze_line[1]/normfactor;	
 319              		.loc 1 99 0
 320 0194 D4ED087A 		flds	s15, [r4, #32]
 321 0198 C7EE807A 		fdivs	s15, s15, s0
 322 019c C4ED087A 		fsts	s15, [r4, #32]
 100:/home/user/Desktop/STM32-Projekte/FH-Vertibot/src/project_src/IMU_algorithm.c **** 	IMU->dcm_ze_line[2] = IMU->dcm_ze_line[2]/normfactor;		
 323              		.loc 1 100 0
 324 01a0 D4ED097A 		flds	s15, [r4, #36]
 325 01a4 87EE800A 		fdivs	s0, s15, s0
 326              	.LVL17:
 327 01a8 84ED090A 		fsts	s0, [r4, #36]
 328 01ac 10BD     		pop	{r4, pc}
 329              		.cfi_endproc
 330              	.LFE3:
 332              		.align	1
 333              		.global	IMU_ortho_adjust
 334              		.thumb
 335              		.thumb_func
 337              	IMU_ortho_adjust:
 338              	.LFB4:
 101:/home/user/Desktop/STM32-Projekte/FH-Vertibot/src/project_src/IMU_algorithm.c **** }
 102:/home/user/Desktop/STM32-Projekte/FH-Vertibot/src/project_src/IMU_algorithm.c **** 
 103:/home/user/Desktop/STM32-Projekte/FH-Vertibot/src/project_src/IMU_algorithm.c **** //! Keep the orthogonality
 104:/home/user/Desktop/STM32-Projekte/FH-Vertibot/src/project_src/IMU_algorithm.c **** void IMU_ortho_adjust(struct IMU_values *IMU)
 105:/home/user/Desktop/STM32-Projekte/FH-Vertibot/src/project_src/IMU_algorithm.c **** {
 339              		.loc 1 105 0
 340              		.cfi_startproc
 341              		@ args = 0, pretend = 0, frame = 24
 342              		@ frame_needed = 0, uses_anonymous_args = 0
 343              	.LVL18:
 344 01ae 70B5     		push	{r4, r5, r6, lr}
 345              	.LCFI2:
 346              		.cfi_def_cfa_offset 16
 347              		.cfi_offset 4, -16
 348              		.cfi_offset 5, -12
 349              		.cfi_offset 6, -8
 350              		.cfi_offset 14, -4
 351 01b0 2DED028B 		fstmfdd	sp!, {d8}
 352              	.LCFI3:
 353              		.cfi_def_cfa_offset 24
 354              		.cfi_offset 80, -24
 106:/home/user/Desktop/STM32-Projekte/FH-Vertibot/src/project_src/IMU_algorithm.c **** 	float ortho_error;
 107:/home/user/Desktop/STM32-Projekte/FH-Vertibot/src/project_src/IMU_algorithm.c **** 
 108:/home/user/Desktop/STM32-Projekte/FH-Vertibot/src/project_src/IMU_algorithm.c **** 	float result_x[3];
 109:/home/user/Desktop/STM32-Projekte/FH-Vertibot/src/project_src/IMU_algorithm.c **** 	float result_y[3];
 110:/home/user/Desktop/STM32-Projekte/FH-Vertibot/src/project_src/IMU_algorithm.c **** 
 111:/home/user/Desktop/STM32-Projekte/FH-Vertibot/src/project_src/IMU_algorithm.c **** 	/*calc the orthogonality error*/	
 112:/home/user/Desktop/STM32-Projekte/FH-Vertibot/src/project_src/IMU_algorithm.c **** 	ortho_error = -VectorDotProduct(&IMU->dcm_xe_line[0], &IMU->dcm_ye_line[0])*0.5f;
 355              		.loc 1 112 0
 356 01b4 00F11004 		add	r4, r0, #16
 357 01b8 051D     		adds	r5, r0, #4
 105:/home/user/Desktop/STM32-Projekte/FH-Vertibot/src/project_src/IMU_algorithm.c **** {
 358              		.loc 1 105 0
 359 01ba 86B0     		sub	sp, sp, #24
 360              	.LCFI4:
 361              		.cfi_def_cfa_offset 48
 105:/home/user/Desktop/STM32-Projekte/FH-Vertibot/src/project_src/IMU_algorithm.c **** {
 362              		.loc 1 105 0
 363 01bc 0646     		mov	r6, r0
 364              		.loc 1 112 0
 365 01be 2146     		mov	r1, r4
 366 01c0 2846     		mov	r0, r5
 367              	.LVL19:
 368 01c2 FFF7FEFF 		bl	VectorDotProduct
 369              	.LVL20:
 370 01c6 B6EE008A 		fconsts	s16, #96
 371 01ca 20EE488A 		fnmuls	s16, s0, s16
 372              	.LVL21:
 113:/home/user/Desktop/STM32-Projekte/FH-Vertibot/src/project_src/IMU_algorithm.c **** 	
 114:/home/user/Desktop/STM32-Projekte/FH-Vertibot/src/project_src/IMU_algorithm.c **** 	/*add the half of the error to xe and ye*/
 115:/home/user/Desktop/STM32-Projekte/FH-Vertibot/src/project_src/IMU_algorithm.c **** 	VectorScale(&result_y[0],&IMU->dcm_ye_line[0],ortho_error);
 373              		.loc 1 115 0
 374 01ce 03A8     		add	r0, sp, #12
 375 01d0 2146     		mov	r1, r4
 376 01d2 B0EE480A 		fcpys	s0, s16
 377 01d6 FFF7FEFF 		bl	VectorScale
 378              	.LVL22:
 116:/home/user/Desktop/STM32-Projekte/FH-Vertibot/src/project_src/IMU_algorithm.c **** 	VectorScale(&result_x[0],&IMU->dcm_xe_line[0],ortho_error);
 379              		.loc 1 116 0
 380 01da B0EE480A 		fcpys	s0, s16
 381 01de 6846     		mov	r0, sp
 382 01e0 2946     		mov	r1, r5
 383 01e2 FFF7FEFF 		bl	VectorScale
 384              	.LVL23:
 117:/home/user/Desktop/STM32-Projekte/FH-Vertibot/src/project_src/IMU_algorithm.c **** 
 118:/home/user/Desktop/STM32-Projekte/FH-Vertibot/src/project_src/IMU_algorithm.c **** 	VectorAdd(&IMU->dcm_xe_line[0], &IMU->dcm_xe_line[0], &result_y[0]);
 385              		.loc 1 118 0
 386 01e6 2846     		mov	r0, r5
 387 01e8 2946     		mov	r1, r5
 388 01ea 03AA     		add	r2, sp, #12
 389 01ec FFF7FEFF 		bl	VectorAdd
 390              	.LVL24:
 119:/home/user/Desktop/STM32-Projekte/FH-Vertibot/src/project_src/IMU_algorithm.c **** 	VectorAdd(&IMU->dcm_ye_line[0], &IMU->dcm_ye_line[0], &result_x[0]);
 391              		.loc 1 119 0
 392 01f0 2046     		mov	r0, r4
 393 01f2 2146     		mov	r1, r4
 394 01f4 6A46     		mov	r2, sp
 395 01f6 FFF7FEFF 		bl	VectorAdd
 396              	.LVL25:
 120:/home/user/Desktop/STM32-Projekte/FH-Vertibot/src/project_src/IMU_algorithm.c **** 	
 121:/home/user/Desktop/STM32-Projekte/FH-Vertibot/src/project_src/IMU_algorithm.c **** 	/*the ze-line will be recalculated with the crossproduct*/	
 122:/home/user/Desktop/STM32-Projekte/FH-Vertibot/src/project_src/IMU_algorithm.c **** 	VectorCrossProduct(&IMU->dcm_ze_line[0],&IMU->dcm_xe_line[0],&IMU->dcm_ye_line[0]);   
 397              		.loc 1 122 0
 398 01fa 06F11C00 		add	r0, r6, #28
 399 01fe 2946     		mov	r1, r5
 400 0200 2246     		mov	r2, r4
 401 0202 FFF7FEFF 		bl	VectorCrossProduct
 402              	.LVL26:
 123:/home/user/Desktop/STM32-Projekte/FH-Vertibot/src/project_src/IMU_algorithm.c **** }
 403              		.loc 1 123 0
 404 0206 06B0     		add	sp, sp, #24
 405              		@ sp needed
 406 0208 BDEC028B 		fldmfdd	sp!, {d8}
 407              	.LVL27:
 408 020c 70BD     		pop	{r4, r5, r6, pc}
 409              		.cfi_endproc
 410              	.LFE4:
 412              		.align	1
 413              		.global	IMU_drift_correction_ACC
 414              		.thumb
 415              		.thumb_func
 417              	IMU_drift_correction_ACC:
 418              	.LFB5:
 124:/home/user/Desktop/STM32-Projekte/FH-Vertibot/src/project_src/IMU_algorithm.c **** 
 125:/home/user/Desktop/STM32-Projekte/FH-Vertibot/src/project_src/IMU_algorithm.c **** 
 126:/home/user/Desktop/STM32-Projekte/FH-Vertibot/src/project_src/IMU_algorithm.c **** //! Roll-pitch Drift-Correction with Accelerometer
 127:/home/user/Desktop/STM32-Projekte/FH-Vertibot/src/project_src/IMU_algorithm.c **** void IMU_drift_correction_ACC(struct IMU_values *IMU)
 128:/home/user/Desktop/STM32-Projekte/FH-Vertibot/src/project_src/IMU_algorithm.c **** {
 419              		.loc 1 128 0
 420              		.cfi_startproc
 421              		@ args = 0, pretend = 0, frame = 0
 422              		@ frame_needed = 0, uses_anonymous_args = 0
 423              	.LVL28:
 129:/home/user/Desktop/STM32-Projekte/FH-Vertibot/src/project_src/IMU_algorithm.c **** 	float normfactor;
 130:/home/user/Desktop/STM32-Projekte/FH-Vertibot/src/project_src/IMU_algorithm.c **** 	float error_absolute;
 131:/home/user/Desktop/STM32-Projekte/FH-Vertibot/src/project_src/IMU_algorithm.c **** 
 132:/home/user/Desktop/STM32-Projekte/FH-Vertibot/src/project_src/IMU_algorithm.c **** 	normfactor = sqrtf((IMU->accel_vector[0]*IMU->accel_vector[0]) + (IMU->accel_vector[1]*IMU->accel_
 424              		.loc 1 132 0
 425 020e 90ED0E0A 		flds	s0, [r0, #56]
 426 0212 90ED0D7A 		flds	s14, [r0, #52]
 427 0216 D0ED0F7A 		flds	s15, [r0, #60]
 428 021a 20EE000A 		fmuls	s0, s0, s0
 128:/home/user/Desktop/STM32-Projekte/FH-Vertibot/src/project_src/IMU_algorithm.c **** {
 429              		.loc 1 128 0
 430 021e 38B5     		push	{r3, r4, r5, lr}
 431              	.LCFI5:
 432              		.cfi_def_cfa_offset 16
 433              		.cfi_offset 3, -16
 434              		.cfi_offset 4, -12
 435              		.cfi_offset 5, -8
 436              		.cfi_offset 14, -4
 437              		.loc 1 132 0
 438 0220 A7EE070A 		vfma.f32	s0, s14, s14
 128:/home/user/Desktop/STM32-Projekte/FH-Vertibot/src/project_src/IMU_algorithm.c **** {
 439              		.loc 1 128 0
 440 0224 0446     		mov	r4, r0
 441              		.loc 1 132 0
 442 0226 A7EEA70A 		vfma.f32	s0, s15, s15
 443 022a FFF7FEFF 		bl	sqrtf
 444              	.LVL29:
 133:/home/user/Desktop/STM32-Projekte/FH-Vertibot/src/project_src/IMU_algorithm.c **** 
 134:/home/user/Desktop/STM32-Projekte/FH-Vertibot/src/project_src/IMU_algorithm.c **** 	if(normfactor != 0)
 445              		.loc 1 134 0
 446 022e B5EE400A 		fcmpzs	s0
 447 0232 F1EE10FA 		fmstat
 448 0236 11D0     		beq	.L7
 135:/home/user/Desktop/STM32-Projekte/FH-Vertibot/src/project_src/IMU_algorithm.c **** 	{
 136:/home/user/Desktop/STM32-Projekte/FH-Vertibot/src/project_src/IMU_algorithm.c **** 		IMU->accel_vector[0] = IMU->accel_vector[0]/normfactor;
 449              		.loc 1 136 0
 450 0238 D4ED0D7A 		flds	s15, [r4, #52]
 451 023c C7EE807A 		fdivs	s15, s15, s0
 452 0240 C4ED0D7A 		fsts	s15, [r4, #52]
 137:/home/user/Desktop/STM32-Projekte/FH-Vertibot/src/project_src/IMU_algorithm.c **** 		IMU->accel_vector[1] = IMU->accel_vector[1]/normfactor;
 453              		.loc 1 137 0
 454 0244 D4ED0E7A 		flds	s15, [r4, #56]
 455 0248 C7EE807A 		fdivs	s15, s15, s0
 456 024c C4ED0E7A 		fsts	s15, [r4, #56]
 138:/home/user/Desktop/STM32-Projekte/FH-Vertibot/src/project_src/IMU_algorithm.c **** 		IMU->accel_vector[2] = IMU->accel_vector[2]/normfactor;
 457              		.loc 1 138 0
 458 0250 D4ED0F7A 		flds	s15, [r4, #60]
 459 0254 87EE800A 		fdivs	s0, s15, s0
 460              	.LVL30:
 461 0258 84ED0F0A 		fsts	s0, [r4, #60]
 462              	.L7:
 139:/home/user/Desktop/STM32-Projekte/FH-Vertibot/src/project_src/IMU_algorithm.c **** 	}
 140:/home/user/Desktop/STM32-Projekte/FH-Vertibot/src/project_src/IMU_algorithm.c **** 	
 141:/home/user/Desktop/STM32-Projekte/FH-Vertibot/src/project_src/IMU_algorithm.c **** 	/*Calc the error between the gyrobased calculations and the vector of the accelerometer, 
 142:/home/user/Desktop/STM32-Projekte/FH-Vertibot/src/project_src/IMU_algorithm.c **** 	this will be done with the crossproduct of the two vectors*/
 143:/home/user/Desktop/STM32-Projekte/FH-Vertibot/src/project_src/IMU_algorithm.c **** 	VectorCrossProduct(&IMU->error_rollpitch[0], &IMU->dcm_ze_line[0], &IMU->accel_vector[0]);
 463              		.loc 1 143 0
 464 025c 04F15005 		add	r5, r4, #80
 465 0260 2846     		mov	r0, r5
 466 0262 04F11C01 		add	r1, r4, #28
 467 0266 04F13402 		add	r2, r4, #52
 468 026a FFF7FEFF 		bl	VectorCrossProduct
 469              	.LVL31:
 144:/home/user/Desktop/STM32-Projekte/FH-Vertibot/src/project_src/IMU_algorithm.c **** 	//VectorCrossProduct(&IMU->error_rollpitch[0], &IMU->dcm_ze_line[0], &test[0]);
 145:/home/user/Desktop/STM32-Projekte/FH-Vertibot/src/project_src/IMU_algorithm.c **** 	
 146:/home/user/Desktop/STM32-Projekte/FH-Vertibot/src/project_src/IMU_algorithm.c **** 	error_absolute = sqrtf((IMU->error_rollpitch[0]*IMU->error_rollpitch[0]) + (IMU->error_rollpitch[1
 470              		.loc 1 146 0
 471 026e 94ED150A 		flds	s0, [r4, #84]
 472 0272 94ED147A 		flds	s14, [r4, #80]
 473 0276 D4ED167A 		flds	s15, [r4, #88]
 474 027a 20EE000A 		fmuls	s0, s0, s0
 475 027e A7EE070A 		vfma.f32	s0, s14, s14
 476 0282 A7EEA70A 		vfma.f32	s0, s15, s15
 477 0286 FFF7FEFF 		bl	sqrtf
 478              	.LVL32:
 147:/home/user/Desktop/STM32-Projekte/FH-Vertibot/src/project_src/IMU_algorithm.c **** 
 148:/home/user/Desktop/STM32-Projekte/FH-Vertibot/src/project_src/IMU_algorithm.c **** 	//printf("%3.1f %3.1f %3.1f %3.1f\n", IMU->accel_vector[0], IMU->accel_vector[1], IMU->accel_vecto
 149:/home/user/Desktop/STM32-Projekte/FH-Vertibot/src/project_src/IMU_algorithm.c **** 	//printf(" %3.1f ", error_absolute);
 150:/home/user/Desktop/STM32-Projekte/FH-Vertibot/src/project_src/IMU_algorithm.c **** 	/*
 151:/home/user/Desktop/STM32-Projekte/FH-Vertibot/src/project_src/IMU_algorithm.c **** 	if(error_absolute > 0.6)
 152:/home/user/Desktop/STM32-Projekte/FH-Vertibot/src/project_src/IMU_algorithm.c **** 	{
 153:/home/user/Desktop/STM32-Projekte/FH-Vertibot/src/project_src/IMU_algorithm.c **** 		VectorScale(&IMU->kp_vector[0], &IMU->error_rollpitch[0], IMU->kp*2);
 154:/home/user/Desktop/STM32-Projekte/FH-Vertibot/src/project_src/IMU_algorithm.c **** 	}
 155:/home/user/Desktop/STM32-Projekte/FH-Vertibot/src/project_src/IMU_algorithm.c **** 	else
 156:/home/user/Desktop/STM32-Projekte/FH-Vertibot/src/project_src/IMU_algorithm.c **** 	{
 157:/home/user/Desktop/STM32-Projekte/FH-Vertibot/src/project_src/IMU_algorithm.c **** 		VectorScale(&IMU->kp_vector[0], &IMU->error_rollpitch[0], IMU->kp);
 158:/home/user/Desktop/STM32-Projekte/FH-Vertibot/src/project_src/IMU_algorithm.c **** 	}
 159:/home/user/Desktop/STM32-Projekte/FH-Vertibot/src/project_src/IMU_algorithm.c **** 	*/
 160:/home/user/Desktop/STM32-Projekte/FH-Vertibot/src/project_src/IMU_algorithm.c **** 	VectorScale(&IMU->kp_vector_ACC[0], &IMU->error_rollpitch[0], (IMU->kp+(IMU->kp*error_absolute)));
 479              		.loc 1 160 0
 480 028a D4ED137A 		flds	s15, [r4, #76]
 481 028e E7EE807A 		vfma.f32	s15, s15, s0
 482 0292 04F16000 		add	r0, r4, #96
 483 0296 2946     		mov	r1, r5
 161:/home/user/Desktop/STM32-Projekte/FH-Vertibot/src/project_src/IMU_algorithm.c **** 	//printf("%f\n", (IMU->kp+(IMU->kp*error_absolute)));
 162:/home/user/Desktop/STM32-Projekte/FH-Vertibot/src/project_src/IMU_algorithm.c **** }
 484              		.loc 1 162 0
 485 0298 BDE83840 		pop	{r3, r4, r5, lr}
 486              	.LVL33:
 160:/home/user/Desktop/STM32-Projekte/FH-Vertibot/src/project_src/IMU_algorithm.c **** 	VectorScale(&IMU->kp_vector_ACC[0], &IMU->error_rollpitch[0], (IMU->kp+(IMU->kp*error_absolute)));
 487              		.loc 1 160 0
 488 029c B0EE670A 		fcpys	s0, s15
 489              	.LVL34:
 490 02a0 FFF7FEBF 		b	VectorScale
 491              	.LVL35:
 492              		.cfi_endproc
 493              	.LFE5:
 495              		.align	1
 496              		.global	IMU_drift_correction_MAG
 497              		.thumb
 498              		.thumb_func
 500              	IMU_drift_correction_MAG:
 501              	.LFB6:
 163:/home/user/Desktop/STM32-Projekte/FH-Vertibot/src/project_src/IMU_algorithm.c **** 
 164:/home/user/Desktop/STM32-Projekte/FH-Vertibot/src/project_src/IMU_algorithm.c **** 
 165:/home/user/Desktop/STM32-Projekte/FH-Vertibot/src/project_src/IMU_algorithm.c **** //! yaw Drift-Correction with Magnetometer
 166:/home/user/Desktop/STM32-Projekte/FH-Vertibot/src/project_src/IMU_algorithm.c **** void IMU_drift_correction_MAG(struct IMU_values *IMU)
 167:/home/user/Desktop/STM32-Projekte/FH-Vertibot/src/project_src/IMU_algorithm.c **** {
 502              		.loc 1 167 0
 503              		.cfi_startproc
 504              		@ args = 0, pretend = 0, frame = 0
 505              		@ frame_needed = 0, uses_anonymous_args = 0
 506              	.LVL36:
 168:/home/user/Desktop/STM32-Projekte/FH-Vertibot/src/project_src/IMU_algorithm.c **** 	float normfactor;
 169:/home/user/Desktop/STM32-Projekte/FH-Vertibot/src/project_src/IMU_algorithm.c **** 	//float error_absolute;
 170:/home/user/Desktop/STM32-Projekte/FH-Vertibot/src/project_src/IMU_algorithm.c **** 
 171:/home/user/Desktop/STM32-Projekte/FH-Vertibot/src/project_src/IMU_algorithm.c **** 	normfactor = sqrtf((IMU->mag_vector[0]*IMU->mag_vector[0]) + (IMU->mag_vector[1]*IMU->mag_vector[1
 507              		.loc 1 171 0
 508 02a4 90ED110A 		flds	s0, [r0, #68]
 509 02a8 90ED107A 		flds	s14, [r0, #64]
 510 02ac D0ED127A 		flds	s15, [r0, #72]
 511 02b0 20EE000A 		fmuls	s0, s0, s0
 167:/home/user/Desktop/STM32-Projekte/FH-Vertibot/src/project_src/IMU_algorithm.c **** {
 512              		.loc 1 167 0
 513 02b4 10B5     		push	{r4, lr}
 514              	.LCFI6:
 515              		.cfi_def_cfa_offset 8
 516              		.cfi_offset 4, -8
 517              		.cfi_offset 14, -4
 518              		.loc 1 171 0
 519 02b6 A7EE070A 		vfma.f32	s0, s14, s14
 167:/home/user/Desktop/STM32-Projekte/FH-Vertibot/src/project_src/IMU_algorithm.c **** {
 520              		.loc 1 167 0
 521 02ba 0446     		mov	r4, r0
 522              		.loc 1 171 0
 523 02bc A7EEA70A 		vfma.f32	s0, s15, s15
 524 02c0 FFF7FEFF 		bl	sqrtf
 525              	.LVL37:
 172:/home/user/Desktop/STM32-Projekte/FH-Vertibot/src/project_src/IMU_algorithm.c **** 
 173:/home/user/Desktop/STM32-Projekte/FH-Vertibot/src/project_src/IMU_algorithm.c **** 	if(normfactor != 0)
 526              		.loc 1 173 0
 527 02c4 B5EE400A 		fcmpzs	s0
 528 02c8 F1EE10FA 		fmstat
 529 02cc 11D0     		beq	.L10
 174:/home/user/Desktop/STM32-Projekte/FH-Vertibot/src/project_src/IMU_algorithm.c **** 	{
 175:/home/user/Desktop/STM32-Projekte/FH-Vertibot/src/project_src/IMU_algorithm.c **** 		IMU->mag_vector[0] = IMU->mag_vector[0]/normfactor;
 530              		.loc 1 175 0
 531 02ce D4ED107A 		flds	s15, [r4, #64]
 532 02d2 C7EE807A 		fdivs	s15, s15, s0
 533 02d6 C4ED107A 		fsts	s15, [r4, #64]
 176:/home/user/Desktop/STM32-Projekte/FH-Vertibot/src/project_src/IMU_algorithm.c **** 		IMU->mag_vector[1] = IMU->mag_vector[1]/normfactor;
 534              		.loc 1 176 0
 535 02da D4ED117A 		flds	s15, [r4, #68]
 536 02de C7EE807A 		fdivs	s15, s15, s0
 537 02e2 C4ED117A 		fsts	s15, [r4, #68]
 177:/home/user/Desktop/STM32-Projekte/FH-Vertibot/src/project_src/IMU_algorithm.c **** 		IMU->mag_vector[2] = IMU->mag_vector[2]/normfactor;
 538              		.loc 1 177 0
 539 02e6 D4ED127A 		flds	s15, [r4, #72]
 540 02ea 87EE800A 		fdivs	s0, s15, s0
 541              	.LVL38:
 542 02ee 84ED120A 		fsts	s0, [r4, #72]
 543              	.L10:
 178:/home/user/Desktop/STM32-Projekte/FH-Vertibot/src/project_src/IMU_algorithm.c **** 	}
 179:/home/user/Desktop/STM32-Projekte/FH-Vertibot/src/project_src/IMU_algorithm.c **** 
 180:/home/user/Desktop/STM32-Projekte/FH-Vertibot/src/project_src/IMU_algorithm.c **** 	/*Calc the error between the gyrobased calculations and the vector of the accelerometer,
 181:/home/user/Desktop/STM32-Projekte/FH-Vertibot/src/project_src/IMU_algorithm.c **** 	this will be done with the crossproduct of the two vectors*/
 182:/home/user/Desktop/STM32-Projekte/FH-Vertibot/src/project_src/IMU_algorithm.c **** 	//VectorCrossProduct(&IMU->error_yaw[0], &IMU->dcm_xe_line[0], &IMU->mag_vector[0]);
 183:/home/user/Desktop/STM32-Projekte/FH-Vertibot/src/project_src/IMU_algorithm.c **** 
 184:/home/user/Desktop/STM32-Projekte/FH-Vertibot/src/project_src/IMU_algorithm.c **** 	IMU->error_yaw = (IMU->dcm_xe_line[0]*IMU->mag_vector[1]) - (IMU->dcm_ye_line[0]*IMU->mag_vector[0
 544              		.loc 1 184 0
 545 02f2 94ED107A 		flds	s14, [r4, #64]
 546 02f6 D4ED047A 		flds	s15, [r4, #16]
 547 02fa D4ED016A 		flds	s13, [r4, #4]
 185:/home/user/Desktop/STM32-Projekte/FH-Vertibot/src/project_src/IMU_algorithm.c **** 	VectorScale(&IMU->kp_vector_MAG[0], &IMU->dcm_ze_line[0], (IMU->kp*IMU->error_yaw));
 548              		.loc 1 185 0
 549 02fe 94ED130A 		flds	s0, [r4, #76]
 550 0302 67EE677A 		fnmuls	s15, s14, s15
 184:/home/user/Desktop/STM32-Projekte/FH-Vertibot/src/project_src/IMU_algorithm.c **** 	IMU->error_yaw = (IMU->dcm_xe_line[0]*IMU->mag_vector[1]) - (IMU->dcm_ye_line[0]*IMU->mag_vector[0
 551              		.loc 1 184 0
 552 0306 94ED117A 		flds	s14, [r4, #68]
 553 030a E6EE877A 		vfma.f32	s15, s13, s14
 554              		.loc 1 185 0
 555 030e 04F16C00 		add	r0, r4, #108
 556 0312 04F11C01 		add	r1, r4, #28
 184:/home/user/Desktop/STM32-Projekte/FH-Vertibot/src/project_src/IMU_algorithm.c **** 	IMU->error_yaw = (IMU->dcm_xe_line[0]*IMU->mag_vector[1]) - (IMU->dcm_ye_line[0]*IMU->mag_vector[0
 557              		.loc 1 184 0
 558 0316 C4ED177A 		fsts	s15, [r4, #92]
 559              		.loc 1 185 0
 560 031a 27EE800A 		fmuls	s0, s15, s0
 186:/home/user/Desktop/STM32-Projekte/FH-Vertibot/src/project_src/IMU_algorithm.c **** 	//VectorScale(&IMU->kp_vector_MAG[0], &IMU->error_yaw[0], IMU->kp);
 187:/home/user/Desktop/STM32-Projekte/FH-Vertibot/src/project_src/IMU_algorithm.c **** 	//printf("%f\n", (IMU->kp+(IMU->kp*error_absolute)));
 188:/home/user/Desktop/STM32-Projekte/FH-Vertibot/src/project_src/IMU_algorithm.c **** }
 561              		.loc 1 188 0
 562 031e BDE81040 		pop	{r4, lr}
 563              	.LVL39:
 185:/home/user/Desktop/STM32-Projekte/FH-Vertibot/src/project_src/IMU_algorithm.c **** 	VectorScale(&IMU->kp_vector_MAG[0], &IMU->dcm_ze_line[0], (IMU->kp*IMU->error_yaw));
 564              		.loc 1 185 0
 565 0322 FFF7FEBF 		b	VectorScale
 566              	.LVL40:
 567              		.cfi_endproc
 568              	.LFE6:
 570              		.align	1
 571              		.global	IMU_DCM_to_Euler_deg
 572              		.thumb
 573              		.thumb_func
 575              	IMU_DCM_to_Euler_deg:
 576              	.LFB7:
 189:/home/user/Desktop/STM32-Projekte/FH-Vertibot/src/project_src/IMU_algorithm.c **** 
 190:/home/user/Desktop/STM32-Projekte/FH-Vertibot/src/project_src/IMU_algorithm.c **** 
 191:/home/user/Desktop/STM32-Projekte/FH-Vertibot/src/project_src/IMU_algorithm.c **** //! DCM to EULER Angles
 192:/home/user/Desktop/STM32-Projekte/FH-Vertibot/src/project_src/IMU_algorithm.c **** void IMU_DCM_to_Euler_deg(struct IMU_values* IMU, struct EULER_angles *euler)
 193:/home/user/Desktop/STM32-Projekte/FH-Vertibot/src/project_src/IMU_algorithm.c **** {
 577              		.loc 1 193 0
 578              		.cfi_startproc
 579              		@ args = 0, pretend = 0, frame = 0
 580              		@ frame_needed = 0, uses_anonymous_args = 0
 581              	.LVL41:
 582 0326 38B5     		push	{r3, r4, r5, lr}
 583              	.LCFI7:
 584              		.cfi_def_cfa_offset 16
 585              		.cfi_offset 3, -16
 586              		.cfi_offset 4, -12
 587              		.cfi_offset 5, -8
 588              		.cfi_offset 14, -4
 194:/home/user/Desktop/STM32-Projekte/FH-Vertibot/src/project_src/IMU_algorithm.c **** 	euler->pitch = (asinf(-IMU->dcm_ze_line[0]))*(180/M_PI);
 589              		.loc 1 194 0
 590 0328 90ED070A 		flds	s0, [r0, #28]
 193:/home/user/Desktop/STM32-Projekte/FH-Vertibot/src/project_src/IMU_algorithm.c **** {
 591              		.loc 1 193 0
 592 032c 2DED028B 		fstmfdd	sp!, {d8}
 593              	.LCFI8:
 594              		.cfi_def_cfa_offset 24
 595              		.cfi_offset 80, -24
 596              		.loc 1 194 0
 597 0330 B1EE400A 		fnegs	s0, s0
 193:/home/user/Desktop/STM32-Projekte/FH-Vertibot/src/project_src/IMU_algorithm.c **** {
 598              		.loc 1 193 0
 599 0334 0446     		mov	r4, r0
 600 0336 0D46     		mov	r5, r1
 601              		.loc 1 194 0
 602 0338 FFF7FEFF 		bl	asinf
 603              	.LVL42:
 604 033c 9FED0E8A 		flds	s16, .L12
 195:/home/user/Desktop/STM32-Projekte/FH-Vertibot/src/project_src/IMU_algorithm.c **** 	euler->roll = (atan2f(IMU->dcm_ze_line[1],IMU->dcm_ze_line[2]))*(180/M_PI);
 605              		.loc 1 195 0
 606 0340 D4ED090A 		flds	s1, [r4, #36]
 194:/home/user/Desktop/STM32-Projekte/FH-Vertibot/src/project_src/IMU_algorithm.c **** 	euler->pitch = (asinf(-IMU->dcm_ze_line[0]))*(180/M_PI);
 607              		.loc 1 194 0
 608 0344 20EE080A 		fmuls	s0, s0, s16
 609 0348 85ED010A 		fsts	s0, [r5, #4]
 610              		.loc 1 195 0
 611 034c 94ED080A 		flds	s0, [r4, #32]
 612 0350 FFF7FEFF 		bl	atan2f
 613              	.LVL43:
 614 0354 20EE080A 		fmuls	s0, s0, s16
 196:/home/user/Desktop/STM32-Projekte/FH-Vertibot/src/project_src/IMU_algorithm.c **** 	euler->yaw = (atan2f(IMU->dcm_ye_line[0],IMU->dcm_xe_line[0]))*(180/M_PI);
 615              		.loc 1 196 0
 616 0358 D4ED010A 		flds	s1, [r4, #4]
 195:/home/user/Desktop/STM32-Projekte/FH-Vertibot/src/project_src/IMU_algorithm.c **** 	euler->roll = (atan2f(IMU->dcm_ze_line[1],IMU->dcm_ze_line[2]))*(180/M_PI);
 617              		.loc 1 195 0
 618 035c 85ED000A 		fsts	s0, [r5]
 619              		.loc 1 196 0
 620 0360 94ED040A 		flds	s0, [r4, #16]
 621 0364 FFF7FEFF 		bl	atan2f
 622              	.LVL44:
 623 0368 20EE080A 		fmuls	s0, s0, s16
 197:/home/user/Desktop/STM32-Projekte/FH-Vertibot/src/project_src/IMU_algorithm.c **** 	//printf("%3.1f  %3.1f  %3.1f\n", roll*(180/M_PI), pitch*(180/M_PI), yaw*(180/M_PI));
 198:/home/user/Desktop/STM32-Projekte/FH-Vertibot/src/project_src/IMU_algorithm.c **** }
 624              		.loc 1 198 0
 625 036c BDEC028B 		fldmfdd	sp!, {d8}
 196:/home/user/Desktop/STM32-Projekte/FH-Vertibot/src/project_src/IMU_algorithm.c **** 	euler->yaw = (atan2f(IMU->dcm_ye_line[0],IMU->dcm_xe_line[0]))*(180/M_PI);
 626              		.loc 1 196 0
 627 0370 85ED020A 		fsts	s0, [r5, #8]
 628              		.loc 1 198 0
 629 0374 38BD     		pop	{r3, r4, r5, pc}
 630              	.LVL45:
 631              	.L13:
 632 0376 00BF     		.align	2
 633              	.L12:
 634 0378 E02E6542 		.word	1113927392
 635              		.cfi_endproc
 636              	.LFE7:
 638              		.align	1
 639              		.global	IMU_Euler_to_DCM
 640              		.thumb
 641              		.thumb_func
 643              	IMU_Euler_to_DCM:
 644              	.LFB8:
 199:/home/user/Desktop/STM32-Projekte/FH-Vertibot/src/project_src/IMU_algorithm.c **** 
 200:/home/user/Desktop/STM32-Projekte/FH-Vertibot/src/project_src/IMU_algorithm.c **** //! EULER Angles to DCM
 201:/home/user/Desktop/STM32-Projekte/FH-Vertibot/src/project_src/IMU_algorithm.c **** void IMU_Euler_to_DCM(struct IMU_values* IMU, struct EULER_angles *euler)
 202:/home/user/Desktop/STM32-Projekte/FH-Vertibot/src/project_src/IMU_algorithm.c **** {
 645              		.loc 1 202 0
 646              		.cfi_startproc
 647              		@ args = 0, pretend = 0, frame = 0
 648              		@ frame_needed = 0, uses_anonymous_args = 0
 649              	.LVL46:
 650 037c 38B5     		push	{r3, r4, r5, lr}
 651              	.LCFI9:
 652              		.cfi_def_cfa_offset 16
 653              		.cfi_offset 3, -16
 654              		.cfi_offset 4, -12
 655              		.cfi_offset 5, -8
 656              		.cfi_offset 14, -4
 657 037e 2DED088B 		fstmfdd	sp!, {d8, d9, d10, d11}
 658              	.LCFI10:
 659              		.cfi_def_cfa_offset 48
 660              		.cfi_offset 80, -48
 661              		.cfi_offset 82, -40
 662              		.cfi_offset 84, -32
 663              		.cfi_offset 86, -24
 203:/home/user/Desktop/STM32-Projekte/FH-Vertibot/src/project_src/IMU_algorithm.c **** 	/*First line DCM Matrix*/
 204:/home/user/Desktop/STM32-Projekte/FH-Vertibot/src/project_src/IMU_algorithm.c **** 	IMU->dcm_xe_line[0] = cosf(euler->pitch)*cosf(euler->yaw);
 664              		.loc 1 204 0
 665 0382 91ED01AA 		flds	s20, [r1, #4]
 666 0386 B0EE4A0A 		fcpys	s0, s20
 202:/home/user/Desktop/STM32-Projekte/FH-Vertibot/src/project_src/IMU_algorithm.c **** {
 667              		.loc 1 202 0
 668 038a 0446     		mov	r4, r0
 669 038c 0D46     		mov	r5, r1
 670              		.loc 1 204 0
 671 038e FFF7FEFF 		bl	cosf
 672              	.LVL47:
 673 0392 95ED029A 		flds	s18, [r5, #8]
 674 0396 F0EE408A 		fcpys	s17, s0
 675 039a B0EE490A 		fcpys	s0, s18
 676 039e FFF7FEFF 		bl	cosf
 677              	.LVL48:
 678 03a2 68EE807A 		fmuls	s15, s17, s0
 679 03a6 B0EE408A 		fcpys	s16, s0
 680 03aa C4ED017A 		fsts	s15, [r4, #4]
 205:/home/user/Desktop/STM32-Projekte/FH-Vertibot/src/project_src/IMU_algorithm.c **** 	IMU->dcm_xe_line[1] = (cosf(euler->pitch)*sinf(euler->yaw))+(sinf(euler->roll)*sinf(euler->pitch)*
 681              		.loc 1 205 0
 682 03ae B0EE490A 		fcpys	s0, s18
 683 03b2 FFF7FEFF 		bl	sinf
 684              	.LVL49:
 685 03b6 D5ED00BA 		flds	s23, [r5]
 686 03ba F0EE409A 		fcpys	s19, s0
 687 03be 28EE80BA 		fmuls	s22, s17, s0
 688 03c2 B0EE6B0A 		fcpys	s0, s23
 689 03c6 FFF7FEFF 		bl	sinf
 690              	.LVL50:
 691 03ca B0EE409A 		fcpys	s18, s0
 692 03ce B0EE4A0A 		fcpys	s0, s20
 693 03d2 FFF7FEFF 		bl	sinf
 694              	.LVL51:
 695 03d6 69EE00AA 		fmuls	s21, s18, s0
 696 03da F0EE4B7A 		fcpys	s15, s22
 697 03de EAEE887A 		vfma.f32	s15, s21, s16
 698 03e2 B0EE40AA 		fcpys	s20, s0
 699 03e6 C4ED027A 		fsts	s15, [r4, #8]
 206:/home/user/Desktop/STM32-Projekte/FH-Vertibot/src/project_src/IMU_algorithm.c **** 	IMU->dcm_xe_line[2] = (sinf(euler->roll)*sinf(euler->yaw))-(cosf(euler->roll)*sinf(euler->pitch)*c
 700              		.loc 1 206 0
 701 03ea B0EE6B0A 		fcpys	s0, s23
 702 03ee FFF7FEFF 		bl	cosf
 703              	.LVL52:
 704 03f2 60EE0A6A 		fmuls	s13, s0, s20
 705 03f6 69EEEA7A 		fnmuls	s15, s19, s21
 706 03fa 28EE667A 		fnmuls	s14, s16, s13
 207:/home/user/Desktop/STM32-Projekte/FH-Vertibot/src/project_src/IMU_algorithm.c **** 
 208:/home/user/Desktop/STM32-Projekte/FH-Vertibot/src/project_src/IMU_algorithm.c **** 	/*Second line DCM Matrix*/
 209:/home/user/Desktop/STM32-Projekte/FH-Vertibot/src/project_src/IMU_algorithm.c **** 	IMU->dcm_ye_line[0] = -(cosf(euler->pitch)*sinf(euler->yaw));
 707              		.loc 1 209 0
 708 03fe B1EE4BBA 		fnegs	s22, s22
 206:/home/user/Desktop/STM32-Projekte/FH-Vertibot/src/project_src/IMU_algorithm.c **** 	IMU->dcm_xe_line[2] = (sinf(euler->roll)*sinf(euler->yaw))-(cosf(euler->roll)*sinf(euler->pitch)*c
 709              		.loc 1 206 0
 710 0402 A9EE297A 		vfma.f32	s14, s18, s19
 210:/home/user/Desktop/STM32-Projekte/FH-Vertibot/src/project_src/IMU_algorithm.c **** 	IMU->dcm_ye_line[1] = (cosf(euler->roll)*cosf(euler->yaw))-(sinf(euler->roll)*sinf(euler->pitch)*s
 211:/home/user/Desktop/STM32-Projekte/FH-Vertibot/src/project_src/IMU_algorithm.c **** 	IMU->dcm_ye_line[2] = (sinf(euler->roll)*cosf(euler->yaw)) + (cosf(euler->roll)*sinf(euler->pitch)
 711              		.loc 1 211 0
 712 0406 66EEA99A 		fmuls	s19, s13, s19
 210:/home/user/Desktop/STM32-Projekte/FH-Vertibot/src/project_src/IMU_algorithm.c **** 	IMU->dcm_ye_line[1] = (cosf(euler->roll)*cosf(euler->yaw))-(sinf(euler->roll)*sinf(euler->pitch)*s
 713              		.loc 1 210 0
 714 040a E0EE087A 		vfma.f32	s15, s0, s16
 715              		.loc 1 211 0
 716 040e E9EE089A 		vfma.f32	s19, s18, s16
 212:/home/user/Desktop/STM32-Projekte/FH-Vertibot/src/project_src/IMU_algorithm.c **** 
 213:/home/user/Desktop/STM32-Projekte/FH-Vertibot/src/project_src/IMU_algorithm.c **** 	/*Third line DCM Matrix*/
 214:/home/user/Desktop/STM32-Projekte/FH-Vertibot/src/project_src/IMU_algorithm.c **** 	IMU->dcm_ze_line[0] = sinf(euler->pitch);
 215:/home/user/Desktop/STM32-Projekte/FH-Vertibot/src/project_src/IMU_algorithm.c **** 	IMU->dcm_ze_line[1] = -sinf(euler->roll)*cosf(euler->pitch);
 717              		.loc 1 215 0
 718 0412 29EE689A 		fnmuls	s18, s18, s17
 216:/home/user/Desktop/STM32-Projekte/FH-Vertibot/src/project_src/IMU_algorithm.c **** 	IMU->dcm_ze_line[2] = cosf(euler->roll)*cosf(euler->pitch);
 719              		.loc 1 216 0
 720 0416 60EE288A 		fmuls	s17, s0, s17
 209:/home/user/Desktop/STM32-Projekte/FH-Vertibot/src/project_src/IMU_algorithm.c **** 	IMU->dcm_ye_line[0] = -(cosf(euler->pitch)*sinf(euler->yaw));
 721              		.loc 1 209 0
 722 041a 84ED04BA 		fsts	s22, [r4, #16]
 211:/home/user/Desktop/STM32-Projekte/FH-Vertibot/src/project_src/IMU_algorithm.c **** 	IMU->dcm_ye_line[2] = (sinf(euler->roll)*cosf(euler->yaw)) + (cosf(euler->roll)*sinf(euler->pitch)
 723              		.loc 1 211 0
 724 041e C4ED069A 		fsts	s19, [r4, #24]
 214:/home/user/Desktop/STM32-Projekte/FH-Vertibot/src/project_src/IMU_algorithm.c **** 	IMU->dcm_ze_line[0] = sinf(euler->pitch);
 725              		.loc 1 214 0
 726 0422 84ED07AA 		fsts	s20, [r4, #28]
 215:/home/user/Desktop/STM32-Projekte/FH-Vertibot/src/project_src/IMU_algorithm.c **** 	IMU->dcm_ze_line[1] = -sinf(euler->roll)*cosf(euler->pitch);
 727              		.loc 1 215 0
 728 0426 84ED089A 		fsts	s18, [r4, #32]
 729              		.loc 1 216 0
 730 042a C4ED098A 		fsts	s17, [r4, #36]
 217:/home/user/Desktop/STM32-Projekte/FH-Vertibot/src/project_src/IMU_algorithm.c **** }
 731              		.loc 1 217 0
 732 042e BDEC088B 		fldmfdd	sp!, {d8-d11}
 206:/home/user/Desktop/STM32-Projekte/FH-Vertibot/src/project_src/IMU_algorithm.c **** 	IMU->dcm_xe_line[2] = (sinf(euler->roll)*sinf(euler->yaw))-(cosf(euler->roll)*sinf(euler->pitch)*c
 733              		.loc 1 206 0
 734 0432 84ED037A 		fsts	s14, [r4, #12]
 210:/home/user/Desktop/STM32-Projekte/FH-Vertibot/src/project_src/IMU_algorithm.c **** 	IMU->dcm_ye_line[1] = (cosf(euler->roll)*cosf(euler->yaw))-(sinf(euler->roll)*sinf(euler->pitch)*s
 735              		.loc 1 210 0
 736 0436 C4ED057A 		fsts	s15, [r4, #20]
 737              		.loc 1 217 0
 738 043a 38BD     		pop	{r3, r4, r5, pc}
 739              		.cfi_endproc
 740              	.LFE8:
 742              		.align	1
 743              		.global	IMU_DCM_to_XYZ
 744              		.thumb
 745              		.thumb_func
 747              	IMU_DCM_to_XYZ:
 748              	.LFB9:
 218:/home/user/Desktop/STM32-Projekte/FH-Vertibot/src/project_src/IMU_algorithm.c **** 
 219:/home/user/Desktop/STM32-Projekte/FH-Vertibot/src/project_src/IMU_algorithm.c **** //! DCM to kartesic coordinates
 220:/home/user/Desktop/STM32-Projekte/FH-Vertibot/src/project_src/IMU_algorithm.c **** void IMU_DCM_to_XYZ(struct IMU_values* IMU, struct XYZ_angles *XYZ)
 221:/home/user/Desktop/STM32-Projekte/FH-Vertibot/src/project_src/IMU_algorithm.c **** {
 749              		.loc 1 221 0
 750              		.cfi_startproc
 751              		@ args = 0, pretend = 0, frame = 0
 752              		@ frame_needed = 0, uses_anonymous_args = 0
 753              	.LVL53:
 754 043c 38B5     		push	{r3, r4, r5, lr}
 755              	.LCFI11:
 756              		.cfi_def_cfa_offset 16
 757              		.cfi_offset 3, -16
 758              		.cfi_offset 4, -12
 759              		.cfi_offset 5, -8
 760              		.cfi_offset 14, -4
 222:/home/user/Desktop/STM32-Projekte/FH-Vertibot/src/project_src/IMU_algorithm.c **** 	XYZ->x = asinf(-IMU->dcm_ze_line[0])*(180/M_PI);
 761              		.loc 1 222 0
 762 043e 90ED070A 		flds	s0, [r0, #28]
 221:/home/user/Desktop/STM32-Projekte/FH-Vertibot/src/project_src/IMU_algorithm.c **** {
 763              		.loc 1 221 0
 764 0442 2DED028B 		fstmfdd	sp!, {d8}
 765              	.LCFI12:
 766              		.cfi_def_cfa_offset 24
 767              		.cfi_offset 80, -24
 768              		.loc 1 222 0
 769 0446 B1EE400A 		fnegs	s0, s0
 221:/home/user/Desktop/STM32-Projekte/FH-Vertibot/src/project_src/IMU_algorithm.c **** {
 770              		.loc 1 221 0
 771 044a 0446     		mov	r4, r0
 772 044c 0D46     		mov	r5, r1
 773              		.loc 1 222 0
 774 044e FFF7FEFF 		bl	asinf
 775              	.LVL54:
 776 0452 9FED0D8A 		flds	s16, .L16
 777 0456 20EE080A 		fmuls	s0, s0, s16
 778 045a 85ED000A 		fsts	s0, [r5]
 223:/home/user/Desktop/STM32-Projekte/FH-Vertibot/src/project_src/IMU_algorithm.c **** 	XYZ->y = asinf(IMU->dcm_ze_line[1])*(180/M_PI);
 779              		.loc 1 223 0
 780 045e 94ED080A 		flds	s0, [r4, #32]
 781 0462 FFF7FEFF 		bl	asinf
 782              	.LVL55:
 783 0466 20EE080A 		fmuls	s0, s0, s16
 224:/home/user/Desktop/STM32-Projekte/FH-Vertibot/src/project_src/IMU_algorithm.c **** 	XYZ->z = (atan2f(IMU->dcm_ye_line[0],IMU->dcm_xe_line[0]))*(180/M_PI);
 784              		.loc 1 224 0
 785 046a D4ED010A 		flds	s1, [r4, #4]
 223:/home/user/Desktop/STM32-Projekte/FH-Vertibot/src/project_src/IMU_algorithm.c **** 	XYZ->y = asinf(IMU->dcm_ze_line[1])*(180/M_PI);
 786              		.loc 1 223 0
 787 046e 85ED010A 		fsts	s0, [r5, #4]
 788              		.loc 1 224 0
 789 0472 94ED040A 		flds	s0, [r4, #16]
 790 0476 FFF7FEFF 		bl	atan2f
 791              	.LVL56:
 792 047a 20EE080A 		fmuls	s0, s0, s16
 225:/home/user/Desktop/STM32-Projekte/FH-Vertibot/src/project_src/IMU_algorithm.c **** }
 793              		.loc 1 225 0
 794 047e BDEC028B 		fldmfdd	sp!, {d8}
 224:/home/user/Desktop/STM32-Projekte/FH-Vertibot/src/project_src/IMU_algorithm.c **** 	XYZ->z = (atan2f(IMU->dcm_ye_line[0],IMU->dcm_xe_line[0]))*(180/M_PI);
 795              		.loc 1 224 0
 796 0482 85ED020A 		fsts	s0, [r5, #8]
 797              		.loc 1 225 0
 798 0486 38BD     		pop	{r3, r4, r5, pc}
 799              	.LVL57:
 800              	.L17:
 801              		.align	2
 802              	.L16:
 803 0488 E02E6542 		.word	1113927392
 804              		.cfi_endproc
 805              	.LFE9:
 807              	.Letext0:
 808              		.file 2 "/home/user/Desktop/STM32-Projekte/FH-Vertibot/src/project_inc/IMU_algorithm.h"
 809              		.file 3 "/home/user/Desktop/STM32-Projekte/FH-Vertibot/src/project_inc/Vector_math.h"
 810              		.file 4 "/home/user/gcc-arm-none-eabi-4_8-2013q4/arm-none-eabi/include/math.h"