   1              		.syntax unified
   2              		.cpu cortex-m4
   3              		.eabi_attribute 27, 3
   4              		.eabi_attribute 28, 1
   5              		.fpu fpv4-sp-d16
   6              		.eabi_attribute 20, 1
   7              		.eabi_attribute 21, 1
   8              		.eabi_attribute 23, 3
   9              		.eabi_attribute 24, 1
  10              		.eabi_attribute 25, 1
  11              		.eabi_attribute 26, 1
  12              		.eabi_attribute 30, 4
  13              		.eabi_attribute 34, 1
  14              		.eabi_attribute 18, 4
  15              		.thumb
  16              		.file	"remote_control.c"
  17              		.text
  18              	.Ltext0:
  19              		.cfi_sections	.debug_frame
  20              		.align	1
  21              		.global	CalcRXValues
  22              		.thumb
  23              		.thumb_func
  25              	CalcRXValues:
  26              	.LFB111:
  27              		.file 1 "/home/user/Desktop/STM32-Projekte/FH-Vertibot/src/project_src/remote_control.c"
   1:/home/user/Desktop/STM32-Projekte/FH-Vertibot/src/project_src/remote_control.c **** /*
   2:/home/user/Desktop/STM32-Projekte/FH-Vertibot/src/project_src/remote_control.c ****  * remote_control.c
   3:/home/user/Desktop/STM32-Projekte/FH-Vertibot/src/project_src/remote_control.c ****  *
   4:/home/user/Desktop/STM32-Projekte/FH-Vertibot/src/project_src/remote_control.c ****  *  Created on: Apr 28, 2013
   5:/home/user/Desktop/STM32-Projekte/FH-Vertibot/src/project_src/remote_control.c ****  *      Author: franz
   6:/home/user/Desktop/STM32-Projekte/FH-Vertibot/src/project_src/remote_control.c ****  */
   7:/home/user/Desktop/STM32-Projekte/FH-Vertibot/src/project_src/remote_control.c **** 
   8:/home/user/Desktop/STM32-Projekte/FH-Vertibot/src/project_src/remote_control.c **** #include <filter_Lib.h>
   9:/home/user/Desktop/STM32-Projekte/FH-Vertibot/src/project_src/remote_control.c **** #include <remote_control.h>
  10:/home/user/Desktop/STM32-Projekte/FH-Vertibot/src/project_src/remote_control.c **** #include <vertibot_settings.h>
  11:/home/user/Desktop/STM32-Projekte/FH-Vertibot/src/project_src/remote_control.c **** 
  12:/home/user/Desktop/STM32-Projekte/FH-Vertibot/src/project_src/remote_control.c **** void CalcRXValues(unsigned char *msgPointer, int16_t adjValue)
  13:/home/user/Desktop/STM32-Projekte/FH-Vertibot/src/project_src/remote_control.c **** {
  28              		.loc 1 13 0
  29              		.cfi_startproc
  30              		@ args = 0, pretend = 0, frame = 0
  31              		@ frame_needed = 0, uses_anonymous_args = 0
  32              	.LVL0:
  33 0000 F8B5     		push	{r3, r4, r5, r6, r7, lr}
  34              	.LCFI0:
  35              		.cfi_def_cfa_offset 24
  36              		.cfi_offset 3, -24
  37              		.cfi_offset 4, -20
  38              		.cfi_offset 5, -16
  39              		.cfi_offset 6, -12
  40              		.cfi_offset 7, -8
  41              		.cfi_offset 14, -4
  14:/home/user/Desktop/STM32-Projekte/FH-Vertibot/src/project_src/remote_control.c **** 	static intFilter gasFiltered = {0,0};
  15:/home/user/Desktop/STM32-Projekte/FH-Vertibot/src/project_src/remote_control.c **** 	static intFilter rollFiltered = {0,0};
  16:/home/user/Desktop/STM32-Projekte/FH-Vertibot/src/project_src/remote_control.c **** 	static intFilter pitchFiltered = {0,0};
  17:/home/user/Desktop/STM32-Projekte/FH-Vertibot/src/project_src/remote_control.c **** 	static intFilter yawFiltered = {0,0};
  18:/home/user/Desktop/STM32-Projekte/FH-Vertibot/src/project_src/remote_control.c **** 	static int16_t currentYaw = 0;
  19:/home/user/Desktop/STM32-Projekte/FH-Vertibot/src/project_src/remote_control.c **** 
  20:/home/user/Desktop/STM32-Projekte/FH-Vertibot/src/project_src/remote_control.c **** 	/*Reset the Watchdog Timer value*/
  21:/home/user/Desktop/STM32-Projekte/FH-Vertibot/src/project_src/remote_control.c **** 	CtrlStates.watchDogTimVal = 0;
  42              		.loc 1 21 0
  43 0002 5A4D     		ldr	r5, .L22
  22:/home/user/Desktop/STM32-Projekte/FH-Vertibot/src/project_src/remote_control.c **** 
  23:/home/user/Desktop/STM32-Projekte/FH-Vertibot/src/project_src/remote_control.c **** 	currentYaw = ((uint8_t)msgPointer[4]-adjValue);
  44              		.loc 1 23 0
  45 0004 5A4C     		ldr	r4, .L22+4
  24:/home/user/Desktop/STM32-Projekte/FH-Vertibot/src/project_src/remote_control.c **** 
  25:/home/user/Desktop/STM32-Projekte/FH-Vertibot/src/project_src/remote_control.c **** 	update_intFilter(&gasFiltered, 1, (((uint8_t)msgPointer[5]-adjValue)*7.5f)+60);
  46              		.loc 1 25 0
  47 0006 DFED5B7A 		flds	s15, .L22+8
  21:/home/user/Desktop/STM32-Projekte/FH-Vertibot/src/project_src/remote_control.c **** 	CtrlStates.watchDogTimVal = 0;
  48              		.loc 1 21 0
  49 000a 0023     		movs	r3, #0
  50 000c 6B72     		strb	r3, [r5, #9]
  23:/home/user/Desktop/STM32-Projekte/FH-Vertibot/src/project_src/remote_control.c **** 	currentYaw = ((uint8_t)msgPointer[4]-adjValue);
  51              		.loc 1 23 0
  52 000e 0379     		ldrb	r3, [r0, #4]	@ zero_extendqisi2
  13:/home/user/Desktop/STM32-Projekte/FH-Vertibot/src/project_src/remote_control.c **** {
  53              		.loc 1 13 0
  54 0010 0746     		mov	r7, r0
  23:/home/user/Desktop/STM32-Projekte/FH-Vertibot/src/project_src/remote_control.c **** 	currentYaw = ((uint8_t)msgPointer[4]-adjValue);
  55              		.loc 1 23 0
  56 0012 2046     		mov	r0, r4
  57              	.LVL1:
  58 0014 5B1A     		subs	r3, r3, r1
  59 0016 20F8043B 		strh	r3, [r0], #4	@ movhi
  60              		.loc 1 25 0
  61 001a 7B79     		ldrb	r3, [r7, #5]	@ zero_extendqisi2
  62 001c 5B1A     		subs	r3, r3, r1
  63 001e 07EE103A 		fmsr	s14, r3	@ int
  64 0022 F8EEC76A 		fsitos	s13, s14
  65 0026 B1EE0E7A 		fconsts	s14, #30
  66 002a E6EE877A 		vfma.f32	s15, s13, s14
  13:/home/user/Desktop/STM32-Projekte/FH-Vertibot/src/project_src/remote_control.c **** {
  67              		.loc 1 13 0
  68 002e 0E46     		mov	r6, r1
  69              		.loc 1 25 0
  70 0030 0121     		movs	r1, #1
  71              	.LVL2:
  72 0032 FDEEE77A 		ftosizs	s15, s15
  73 0036 17EE902A 		fmrs	r2, s15	@ int
  74 003a FFF7FEFF 		bl	update_intFilter
  75              	.LVL3:
  26:/home/user/Desktop/STM32-Projekte/FH-Vertibot/src/project_src/remote_control.c **** 	update_intFilter(&pitchFiltered, 1, ((uint8_t)msgPointer[3]-adjValue)*2.0f);
  76              		.loc 1 26 0
  77 003e FB78     		ldrb	r3, [r7, #3]	@ zero_extendqisi2
  78 0040 9B1B     		subs	r3, r3, r6
  79 0042 07EE103A 		fmsr	s14, r3	@ int
  80 0046 F8EEC77A 		fsitos	s15, s14
  81 004a 04F10C00 		add	r0, r4, #12
  82 004e 77EEA77A 		fadds	s15, s15, s15
  83 0052 0121     		movs	r1, #1
  84 0054 FDEEE77A 		ftosizs	s15, s15
  85 0058 17EE902A 		fmrs	r2, s15	@ int
  86 005c FFF7FEFF 		bl	update_intFilter
  87              	.LVL4:
  27:/home/user/Desktop/STM32-Projekte/FH-Vertibot/src/project_src/remote_control.c **** 	update_intFilter(&rollFiltered, 1, ((uint8_t)msgPointer[2]-adjValue)*2.0f);
  88              		.loc 1 27 0
  89 0060 BB78     		ldrb	r3, [r7, #2]	@ zero_extendqisi2
  90 0062 9E1B     		subs	r6, r3, r6
  91 0064 07EE106A 		fmsr	s14, r6	@ int
  92 0068 F8EEC77A 		fsitos	s15, s14
  93 006c 04F11400 		add	r0, r4, #20
  94 0070 77EEA77A 		fadds	s15, s15, s15
  95 0074 0121     		movs	r1, #1
  96 0076 FDEEE77A 		ftosizs	s15, s15
  97 007a 17EE902A 		fmrs	r2, s15	@ int
  98 007e FFF7FEFF 		bl	update_intFilter
  99              	.LVL5:
  28:/home/user/Desktop/STM32-Projekte/FH-Vertibot/src/project_src/remote_control.c **** 	update_intFilter(&yawFiltered, 1, currentYaw*0.3f);
 100              		.loc 1 28 0
 101 0082 2046     		mov	r0, r4
 102 0084 9FED3C7A 		flds	s14, .L22+12
 103 0088 30F91C3B 		ldrsh	r3, [r0], #28
 104 008c 07EE903A 		fmsr	s15, r3	@ int
 105 0090 F8EEE77A 		fsitos	s15, s15
 106 0094 0121     		movs	r1, #1
 107 0096 67EE877A 		fmuls	s15, s15, s14
 108 009a FDEEE77A 		ftosizs	s15, s15
 109 009e 17EE902A 		fmrs	r2, s15	@ int
 110 00a2 FFF7FEFF 		bl	update_intFilter
 111              	.LVL6:
  29:/home/user/Desktop/STM32-Projekte/FH-Vertibot/src/project_src/remote_control.c **** 
  30:/home/user/Desktop/STM32-Projekte/FH-Vertibot/src/project_src/remote_control.c **** 	//CtrlStates.gas = gasFiltered.filtered;
  31:/home/user/Desktop/STM32-Projekte/FH-Vertibot/src/project_src/remote_control.c **** 	//CtrlStates.roll = rollFiltered.filtered;
  32:/home/user/Desktop/STM32-Projekte/FH-Vertibot/src/project_src/remote_control.c **** 	CtrlStates.pitch = pitchFiltered.filtered;
 112              		.loc 1 32 0
 113 00a6 94ED047A 		flds	s14, [r4, #16]	@ int
  33:/home/user/Desktop/STM32-Projekte/FH-Vertibot/src/project_src/remote_control.c **** 
  34:/home/user/Desktop/STM32-Projekte/FH-Vertibot/src/project_src/remote_control.c **** 	/* integrating the yaw value */
  35:/home/user/Desktop/STM32-Projekte/FH-Vertibot/src/project_src/remote_control.c **** 	if(CtrlStates.copterStatus & ARMED_FLAG)
 114              		.loc 1 35 0
 115 00aa 2B7A     		ldrb	r3, [r5, #8]	@ zero_extendqisi2
  32:/home/user/Desktop/STM32-Projekte/FH-Vertibot/src/project_src/remote_control.c **** 	CtrlStates.pitch = pitchFiltered.filtered;
 116              		.loc 1 32 0
 117 00ac F8EEC77A 		fsitos	s15, s14
 118              		.loc 1 35 0
 119 00b0 13F0010F 		tst	r3, #1
  32:/home/user/Desktop/STM32-Projekte/FH-Vertibot/src/project_src/remote_control.c **** 	CtrlStates.pitch = pitchFiltered.filtered;
 120              		.loc 1 32 0
 121 00b4 C5ED007A 		fsts	s15, [r5]
 122 00b8 2B46     		mov	r3, r5
 123              		.loc 1 35 0
 124 00ba 0AD0     		beq	.L2
  36:/home/user/Desktop/STM32-Projekte/FH-Vertibot/src/project_src/remote_control.c **** 	{
  37:/home/user/Desktop/STM32-Projekte/FH-Vertibot/src/project_src/remote_control.c **** 		CtrlStates.yaw -= yawFiltered.filtered;
 125              		.loc 1 37 0
 126 00bc 94ED087A 		flds	s14, [r4, #32]	@ int
 127 00c0 D5ED016A 		flds	s13, [r5, #4]
 128 00c4 B8EEC77A 		fsitos	s14, s14
 129 00c8 36EEC77A 		fsubs	s14, s13, s14
 130 00cc 85ED017A 		fsts	s14, [r5, #4]
 131 00d0 02E0     		b	.L3
 132              	.L2:
  38:/home/user/Desktop/STM32-Projekte/FH-Vertibot/src/project_src/remote_control.c **** 	}
  39:/home/user/Desktop/STM32-Projekte/FH-Vertibot/src/project_src/remote_control.c **** 	else
  40:/home/user/Desktop/STM32-Projekte/FH-Vertibot/src/project_src/remote_control.c **** 	{
  41:/home/user/Desktop/STM32-Projekte/FH-Vertibot/src/project_src/remote_control.c **** 		CtrlStates.yaw = XYZ.z;
 133              		.loc 1 41 0
 134 00d2 2A4A     		ldr	r2, .L22+16
 135 00d4 9268     		ldr	r2, [r2, #8]	@ float
 136 00d6 6A60     		str	r2, [r5, #4]	@ float
 137              	.L3:
  42:/home/user/Desktop/STM32-Projekte/FH-Vertibot/src/project_src/remote_control.c **** 	}
  43:/home/user/Desktop/STM32-Projekte/FH-Vertibot/src/project_src/remote_control.c **** 
  44:/home/user/Desktop/STM32-Projekte/FH-Vertibot/src/project_src/remote_control.c **** 
  45:/home/user/Desktop/STM32-Projekte/FH-Vertibot/src/project_src/remote_control.c **** 	/* Narrow down all ctrl values */
  46:/home/user/Desktop/STM32-Projekte/FH-Vertibot/src/project_src/remote_control.c **** 	/*
  47:/home/user/Desktop/STM32-Projekte/FH-Vertibot/src/project_src/remote_control.c **** 	//if(CtrlStates.gas > MAX_GAS) CtrlStates.gas = MAX_GAS;
  48:/home/user/Desktop/STM32-Projekte/FH-Vertibot/src/project_src/remote_control.c **** 	//if(CtrlStates.gas < 0) CtrlStates.gas = 0;
  49:/home/user/Desktop/STM32-Projekte/FH-Vertibot/src/project_src/remote_control.c **** 
  50:/home/user/Desktop/STM32-Projekte/FH-Vertibot/src/project_src/remote_control.c **** 	//if(CtrlStates.roll > -ROLL_PITCH_TRSHLD && CtrlStates.roll < ROLL_PITCH_TRSHLD) CtrlStates.roll 
  51:/home/user/Desktop/STM32-Projekte/FH-Vertibot/src/project_src/remote_control.c **** 	//if(CtrlStates.roll > MAX_ROLL) CtrlStates.roll = MAX_ROLL;
  52:/home/user/Desktop/STM32-Projekte/FH-Vertibot/src/project_src/remote_control.c **** 	//if(CtrlStates.roll < -MAX_ROLL) CtrlStates.roll = -MAX_ROLL;
  53:/home/user/Desktop/STM32-Projekte/FH-Vertibot/src/project_src/remote_control.c **** 
  54:/home/user/Desktop/STM32-Projekte/FH-Vertibot/src/project_src/remote_control.c ****     */
  55:/home/user/Desktop/STM32-Projekte/FH-Vertibot/src/project_src/remote_control.c **** 	if(CtrlStates.pitch > -ROLL_PITCH_TRSHLD && CtrlStates.pitch < ROLL_PITCH_TRSHLD) CtrlStates.pitch
 138              		.loc 1 55 0
 139 00d8 B8EE087A 		fconsts	s14, #136
 140 00dc F4EEC77A 		fcmpes	s15, s14
 141 00e0 F1EE10FA 		fmstat
 142 00e4 08DD     		ble	.L4
 143              		.loc 1 55 0 is_stmt 0 discriminator 1
 144 00e6 B0EE087A 		fconsts	s14, #8
 145 00ea F4EEC77A 		fcmpes	s15, s14
 146 00ee F1EE10FA 		fmstat
 147 00f2 44BF     		itt	mi
 148 00f4 0022     		movmi	r2, #0
 149 00f6 1A60     		strmi	r2, [r3]	@ float
 150              	.L4:
  56:/home/user/Desktop/STM32-Projekte/FH-Vertibot/src/project_src/remote_control.c **** 	if(CtrlStates.pitch > MAX_PITCH) CtrlStates.pitch = MAX_PITCH;
 151              		.loc 1 56 0 is_stmt 1
 152 00f8 93ED007A 		flds	s14, [r3]
 153 00fc DFED207A 		flds	s15, .L22+20
 154 0100 B4EEE77A 		fcmpes	s14, s15
 155 0104 F1EE10FA 		fmstat
 156 0108 C4BF     		itt	gt
 157 010a 184A     		ldrgt	r2, .L22
 158 010c C2ED007A 		fstsgt	s15, [r2]
  57:/home/user/Desktop/STM32-Projekte/FH-Vertibot/src/project_src/remote_control.c **** 	if(CtrlStates.pitch < -MAX_PITCH) CtrlStates.pitch = -MAX_PITCH;
 159              		.loc 1 57 0
 160 0110 93ED007A 		flds	s14, [r3]
 161 0114 DFED1B7A 		flds	s15, .L22+24
 162 0118 B4EEE77A 		fcmpes	s14, s15
 163 011c F1EE10FA 		fmstat
 164 0120 48BF     		it	mi
 165 0122 124A     		ldrmi	r2, .L22
  58:/home/user/Desktop/STM32-Projekte/FH-Vertibot/src/project_src/remote_control.c **** 
  59:/home/user/Desktop/STM32-Projekte/FH-Vertibot/src/project_src/remote_control.c **** 	/* The yaw value needs a special handling */
  60:/home/user/Desktop/STM32-Projekte/FH-Vertibot/src/project_src/remote_control.c **** 	if(CtrlStates.yaw > 180) CtrlStates.yaw -= 360;
 166              		.loc 1 60 0
 167 0124 9FED187A 		flds	s14, .L22+28
  57:/home/user/Desktop/STM32-Projekte/FH-Vertibot/src/project_src/remote_control.c **** 	if(CtrlStates.pitch < -MAX_PITCH) CtrlStates.pitch = -MAX_PITCH;
 168              		.loc 1 57 0
 169 0128 48BF     		it	mi
 170 012a C2ED007A 		fstsmi	s15, [r2]
 171              		.loc 1 60 0
 172 012e D3ED017A 		flds	s15, [r3, #4]
 173 0132 F4EEC77A 		fcmpes	s15, s14
 174 0136 F1EE10FA 		fmstat
 175 013a 06DD     		ble	.L11
 176              		.loc 1 60 0 is_stmt 0 discriminator 1
 177 013c 9FED137A 		flds	s14, .L22+32
 178 0140 0A4A     		ldr	r2, .L22
 179 0142 77EEC77A 		fsubs	s15, s15, s14
 180 0146 C2ED017A 		fsts	s15, [r2, #4]
 181              	.L11:
  61:/home/user/Desktop/STM32-Projekte/FH-Vertibot/src/project_src/remote_control.c **** 	if(CtrlStates.yaw < -180) CtrlStates.yaw += 360;
 182              		.loc 1 61 0 is_stmt 1
 183 014a D3ED017A 		flds	s15, [r3, #4]
 184 014e 9FED107A 		flds	s14, .L22+36
 185 0152 F4EEC77A 		fcmpes	s15, s14
 186 0156 F1EE10FA 		fmstat
 187 015a 06D5     		bpl	.L1
 188              		.loc 1 61 0 is_stmt 0 discriminator 1
 189 015c 9FED0B7A 		flds	s14, .L22+32
 190 0160 024B     		ldr	r3, .L22
 191 0162 77EE877A 		fadds	s15, s15, s14
 192 0166 C3ED017A 		fsts	s15, [r3, #4]
 193              	.L1:
 194 016a F8BD     		pop	{r3, r4, r5, r6, r7, pc}
 195              	.LVL7:
 196              	.L23:
 197              		.align	2
 198              	.L22:
 199 016c 00000000 		.word	CtrlStates
 200 0170 00000000 		.word	.LANCHOR0
 201 0174 00007042 		.word	1114636288
 202 0178 9A99993E 		.word	1050253722
 203 017c 00000000 		.word	XYZ
 204 0180 00000C42 		.word	1108082688
 205 0184 00000CC2 		.word	-1039400960
 206 0188 00003443 		.word	1127481344
 207 018c 0000B443 		.word	1135869952
 208 0190 000034C3 		.word	-1020002304
 209              		.cfi_endproc
 210              	.LFE111:
 212              		.comm	XYZ,12,4
 213              		.comm	CtrlStates,12,4
 214              		.comm	GlobalSettings,96,4
 215              		.bss
 216              		.align	2
 217              		.set	.LANCHOR0,. + 0
 220              	currentYaw.6779:
 221 0000 0000     		.space	2
 222 0002 0000     		.space	2
 225              	gasFiltered.6775:
 226 0004 00000000 		.space	8
 226      00000000 
 229              	pitchFiltered.6777:
 230 000c 00000000 		.space	8
 230      00000000 
 233              	rollFiltered.6776:
 234 0014 00000000 		.space	8
 234      00000000 
 237              	yawFiltered.6778:
 238 001c 00000000 		.space	8
 238      00000000 
 239              		.text
 240              	.Letext0:
 241              		.file 2 "/home/user/Desktop/STM32-Projekte/FH-Vertibot/src/project_inc/filter_Lib.h"
 242              		.file 3 "/home/user/gcc-arm-none-eabi-4_8-2013q4/arm-none-eabi/include/stdint.h"
 243              		.file 4 "/home/user/Desktop/STM32-Projekte/FH-Vertibot/src/project_inc/IMU_algorithm.h"
 244              		.file 5 "/home/user/Desktop/STM32-Projekte/FH-Vertibot/src/project_inc/vertibot_settings.h"
 245              		.file 6 "/home/user/Desktop/STM32-Projekte/FH-Vertibot/src/CMSIS/Include/core_cm4.h"