   1              		.syntax unified
   2              		.cpu cortex-m3
   3              		.fpu softvfp
   4              		.eabi_attribute 20, 1
   5              		.eabi_attribute 21, 1
   6              		.eabi_attribute 23, 3
   7              		.eabi_attribute 24, 1
   8              		.eabi_attribute 25, 1
   9              		.eabi_attribute 26, 1
  10              		.eabi_attribute 30, 4
  11              		.eabi_attribute 34, 1
  12              		.eabi_attribute 18, 4
  13              		.thumb
  14              		.file	"stm32f30x_it.c"
  15              		.text
  16              	.Ltext0:
  17              		.cfi_sections	.debug_frame
  18              		.align	1
  19              		.global	NMI_Handler
  20              		.thumb
  21              		.thumb_func
  23              	NMI_Handler:
  24              	.LFB111:
  25              		.file 1 "/home/user/Desktop/STM32-Projekte/FH-Vertibot/src/project_src/stm32f30x_it.c"
   1:/home/user/Desktop/STM32-Projekte/FH-Vertibot/src/project_src/stm32f30x_it.c **** /**
   2:/home/user/Desktop/STM32-Projekte/FH-Vertibot/src/project_src/stm32f30x_it.c ****   ******************************************************************************
   3:/home/user/Desktop/STM32-Projekte/FH-Vertibot/src/project_src/stm32f30x_it.c ****   * @file    Project/STM32F30x_StdPeriph_Templates/stm32f30x_it.c 
   4:/home/user/Desktop/STM32-Projekte/FH-Vertibot/src/project_src/stm32f30x_it.c ****   * @author  MCD Application Team
   5:/home/user/Desktop/STM32-Projekte/FH-Vertibot/src/project_src/stm32f30x_it.c ****   * @version V1.0.0
   6:/home/user/Desktop/STM32-Projekte/FH-Vertibot/src/project_src/stm32f30x_it.c ****   * @date    23-October-2012
   7:/home/user/Desktop/STM32-Projekte/FH-Vertibot/src/project_src/stm32f30x_it.c ****   * @brief   Main Interrupt Service Routines.
   8:/home/user/Desktop/STM32-Projekte/FH-Vertibot/src/project_src/stm32f30x_it.c ****   *          This file provides template for all exceptions handler and 
   9:/home/user/Desktop/STM32-Projekte/FH-Vertibot/src/project_src/stm32f30x_it.c ****   *          peripherals interrupt service routine.
  10:/home/user/Desktop/STM32-Projekte/FH-Vertibot/src/project_src/stm32f30x_it.c ****   ******************************************************************************
  11:/home/user/Desktop/STM32-Projekte/FH-Vertibot/src/project_src/stm32f30x_it.c ****   * @attention
  12:/home/user/Desktop/STM32-Projekte/FH-Vertibot/src/project_src/stm32f30x_it.c ****   *
  13:/home/user/Desktop/STM32-Projekte/FH-Vertibot/src/project_src/stm32f30x_it.c ****   * <h2><center>&copy; COPYRIGHT 2012 STMicroelectronics</center></h2>
  14:/home/user/Desktop/STM32-Projekte/FH-Vertibot/src/project_src/stm32f30x_it.c ****   *
  15:/home/user/Desktop/STM32-Projekte/FH-Vertibot/src/project_src/stm32f30x_it.c ****   * Licensed under MCD-ST Liberty SW License Agreement V2, (the "License");
  16:/home/user/Desktop/STM32-Projekte/FH-Vertibot/src/project_src/stm32f30x_it.c ****   * You may not use this file except in compliance with the License.
  17:/home/user/Desktop/STM32-Projekte/FH-Vertibot/src/project_src/stm32f30x_it.c ****   * You may obtain a copy of the License at:
  18:/home/user/Desktop/STM32-Projekte/FH-Vertibot/src/project_src/stm32f30x_it.c ****   *
  19:/home/user/Desktop/STM32-Projekte/FH-Vertibot/src/project_src/stm32f30x_it.c ****   *        http://www.st.com/software_license_agreement_liberty_v2
  20:/home/user/Desktop/STM32-Projekte/FH-Vertibot/src/project_src/stm32f30x_it.c ****   *
  21:/home/user/Desktop/STM32-Projekte/FH-Vertibot/src/project_src/stm32f30x_it.c ****   * Unless required by applicable law or agreed to in writing, software 
  22:/home/user/Desktop/STM32-Projekte/FH-Vertibot/src/project_src/stm32f30x_it.c ****   * distributed under the License is distributed on an "AS IS" BASIS, 
  23:/home/user/Desktop/STM32-Projekte/FH-Vertibot/src/project_src/stm32f30x_it.c ****   * WITHOUT WARRANTIES OR CONDITIONS OF ANY KIND, either express or implied.
  24:/home/user/Desktop/STM32-Projekte/FH-Vertibot/src/project_src/stm32f30x_it.c ****   * See the License for the specific language governing permissions and
  25:/home/user/Desktop/STM32-Projekte/FH-Vertibot/src/project_src/stm32f30x_it.c ****   * limitations under the License.
  26:/home/user/Desktop/STM32-Projekte/FH-Vertibot/src/project_src/stm32f30x_it.c ****   *
  27:/home/user/Desktop/STM32-Projekte/FH-Vertibot/src/project_src/stm32f30x_it.c ****   ******************************************************************************
  28:/home/user/Desktop/STM32-Projekte/FH-Vertibot/src/project_src/stm32f30x_it.c ****   */
  29:/home/user/Desktop/STM32-Projekte/FH-Vertibot/src/project_src/stm32f30x_it.c **** 
  30:/home/user/Desktop/STM32-Projekte/FH-Vertibot/src/project_src/stm32f30x_it.c **** /* Includes ------------------------------------------------------------------*/
  31:/home/user/Desktop/STM32-Projekte/FH-Vertibot/src/project_src/stm32f30x_it.c **** #include "stm32f30x_it.h"
  32:/home/user/Desktop/STM32-Projekte/FH-Vertibot/src/project_src/stm32f30x_it.c **** #include <remote_control.h>
  33:/home/user/Desktop/STM32-Projekte/FH-Vertibot/src/project_src/stm32f30x_it.c **** #include "usart.h"
  34:/home/user/Desktop/STM32-Projekte/FH-Vertibot/src/project_src/stm32f30x_it.c **** 
  35:/home/user/Desktop/STM32-Projekte/FH-Vertibot/src/project_src/stm32f30x_it.c **** /** @addtogroup Template_Project
  36:/home/user/Desktop/STM32-Projekte/FH-Vertibot/src/project_src/stm32f30x_it.c ****   * @{
  37:/home/user/Desktop/STM32-Projekte/FH-Vertibot/src/project_src/stm32f30x_it.c ****   */
  38:/home/user/Desktop/STM32-Projekte/FH-Vertibot/src/project_src/stm32f30x_it.c **** 
  39:/home/user/Desktop/STM32-Projekte/FH-Vertibot/src/project_src/stm32f30x_it.c **** /* Private typedef -----------------------------------------------------------*/
  40:/home/user/Desktop/STM32-Projekte/FH-Vertibot/src/project_src/stm32f30x_it.c **** /* Private define ------------------------------------------------------------*/
  41:/home/user/Desktop/STM32-Projekte/FH-Vertibot/src/project_src/stm32f30x_it.c **** /* Private macro -------------------------------------------------------------*/
  42:/home/user/Desktop/STM32-Projekte/FH-Vertibot/src/project_src/stm32f30x_it.c **** /* Private variables ---------------------------------------------------------*/
  43:/home/user/Desktop/STM32-Projekte/FH-Vertibot/src/project_src/stm32f30x_it.c **** /* Private function prototypes -----------------------------------------------*/
  44:/home/user/Desktop/STM32-Projekte/FH-Vertibot/src/project_src/stm32f30x_it.c **** /* Private functions ---------------------------------------------------------*/
  45:/home/user/Desktop/STM32-Projekte/FH-Vertibot/src/project_src/stm32f30x_it.c **** 
  46:/home/user/Desktop/STM32-Projekte/FH-Vertibot/src/project_src/stm32f30x_it.c **** /******************************************************************************/
  47:/home/user/Desktop/STM32-Projekte/FH-Vertibot/src/project_src/stm32f30x_it.c **** /*            Cortex-M4 Processor Exceptions Handlers                         */
  48:/home/user/Desktop/STM32-Projekte/FH-Vertibot/src/project_src/stm32f30x_it.c **** /******************************************************************************/
  49:/home/user/Desktop/STM32-Projekte/FH-Vertibot/src/project_src/stm32f30x_it.c **** 
  50:/home/user/Desktop/STM32-Projekte/FH-Vertibot/src/project_src/stm32f30x_it.c **** /**
  51:/home/user/Desktop/STM32-Projekte/FH-Vertibot/src/project_src/stm32f30x_it.c ****   * @brief  This function handles NMI exception.
  52:/home/user/Desktop/STM32-Projekte/FH-Vertibot/src/project_src/stm32f30x_it.c ****   * @param  None
  53:/home/user/Desktop/STM32-Projekte/FH-Vertibot/src/project_src/stm32f30x_it.c ****   * @retval None
  54:/home/user/Desktop/STM32-Projekte/FH-Vertibot/src/project_src/stm32f30x_it.c ****   */
  55:/home/user/Desktop/STM32-Projekte/FH-Vertibot/src/project_src/stm32f30x_it.c **** void NMI_Handler(void)
  56:/home/user/Desktop/STM32-Projekte/FH-Vertibot/src/project_src/stm32f30x_it.c **** {
  26              		.loc 1 56 0
  27              		.cfi_startproc
  28              		@ args = 0, pretend = 0, frame = 0
  29              		@ frame_needed = 0, uses_anonymous_args = 0
  30              		@ link register save eliminated.
  31 0000 7047     		bx	lr
  32              		.cfi_endproc
  33              	.LFE111:
  35              		.align	1
  36              		.global	HardFault_Handler
  37              		.thumb
  38              		.thumb_func
  40              	HardFault_Handler:
  41              	.LFB112:
  57:/home/user/Desktop/STM32-Projekte/FH-Vertibot/src/project_src/stm32f30x_it.c **** }
  58:/home/user/Desktop/STM32-Projekte/FH-Vertibot/src/project_src/stm32f30x_it.c **** 
  59:/home/user/Desktop/STM32-Projekte/FH-Vertibot/src/project_src/stm32f30x_it.c **** /**
  60:/home/user/Desktop/STM32-Projekte/FH-Vertibot/src/project_src/stm32f30x_it.c ****   * @brief  This function handles Hard Fault exception.
  61:/home/user/Desktop/STM32-Projekte/FH-Vertibot/src/project_src/stm32f30x_it.c ****   * @param  None
  62:/home/user/Desktop/STM32-Projekte/FH-Vertibot/src/project_src/stm32f30x_it.c ****   * @retval None
  63:/home/user/Desktop/STM32-Projekte/FH-Vertibot/src/project_src/stm32f30x_it.c ****   */
  64:/home/user/Desktop/STM32-Projekte/FH-Vertibot/src/project_src/stm32f30x_it.c **** void HardFault_Handler(void)
  65:/home/user/Desktop/STM32-Projekte/FH-Vertibot/src/project_src/stm32f30x_it.c **** {
  42              		.loc 1 65 0
  43              		.cfi_startproc
  44              		@ Volatile: function does not return.
  45              		@ args = 0, pretend = 0, frame = 0
  46              		@ frame_needed = 0, uses_anonymous_args = 0
  47              		@ link register save eliminated.
  48              	.L3:
  49 0002 FEE7     		b	.L3
  50              		.cfi_endproc
  51              	.LFE112:
  53              		.align	1
  54              		.global	MemManage_Handler
  55              		.thumb
  56              		.thumb_func
  58              	MemManage_Handler:
  59              	.LFB113:
  66:/home/user/Desktop/STM32-Projekte/FH-Vertibot/src/project_src/stm32f30x_it.c ****   /* Go to infinite loop when Hard Fault exception occurs */
  67:/home/user/Desktop/STM32-Projekte/FH-Vertibot/src/project_src/stm32f30x_it.c ****   while (1)
  68:/home/user/Desktop/STM32-Projekte/FH-Vertibot/src/project_src/stm32f30x_it.c ****   {
  69:/home/user/Desktop/STM32-Projekte/FH-Vertibot/src/project_src/stm32f30x_it.c ****   }
  70:/home/user/Desktop/STM32-Projekte/FH-Vertibot/src/project_src/stm32f30x_it.c **** }
  71:/home/user/Desktop/STM32-Projekte/FH-Vertibot/src/project_src/stm32f30x_it.c **** 
  72:/home/user/Desktop/STM32-Projekte/FH-Vertibot/src/project_src/stm32f30x_it.c **** /**
  73:/home/user/Desktop/STM32-Projekte/FH-Vertibot/src/project_src/stm32f30x_it.c ****   * @brief  This function handles Memory Manage exception.
  74:/home/user/Desktop/STM32-Projekte/FH-Vertibot/src/project_src/stm32f30x_it.c ****   * @param  None
  75:/home/user/Desktop/STM32-Projekte/FH-Vertibot/src/project_src/stm32f30x_it.c ****   * @retval None
  76:/home/user/Desktop/STM32-Projekte/FH-Vertibot/src/project_src/stm32f30x_it.c ****   */
  77:/home/user/Desktop/STM32-Projekte/FH-Vertibot/src/project_src/stm32f30x_it.c **** void MemManage_Handler(void)
  78:/home/user/Desktop/STM32-Projekte/FH-Vertibot/src/project_src/stm32f30x_it.c **** {
  60              		.loc 1 78 0
  61              		.cfi_startproc
  62              		@ Volatile: function does not return.
  63              		@ args = 0, pretend = 0, frame = 0
  64              		@ frame_needed = 0, uses_anonymous_args = 0
  65              		@ link register save eliminated.
  66              	.L5:
  67 0004 FEE7     		b	.L5
  68              		.cfi_endproc
  69              	.LFE113:
  71              		.align	1
  72              		.global	BusFault_Handler
  73              		.thumb
  74              		.thumb_func
  76              	BusFault_Handler:
  77              	.LFB114:
  79:/home/user/Desktop/STM32-Projekte/FH-Vertibot/src/project_src/stm32f30x_it.c ****   /* Go to infinite loop when Memory Manage exception occurs */
  80:/home/user/Desktop/STM32-Projekte/FH-Vertibot/src/project_src/stm32f30x_it.c ****   while (1)
  81:/home/user/Desktop/STM32-Projekte/FH-Vertibot/src/project_src/stm32f30x_it.c ****   {
  82:/home/user/Desktop/STM32-Projekte/FH-Vertibot/src/project_src/stm32f30x_it.c ****   }
  83:/home/user/Desktop/STM32-Projekte/FH-Vertibot/src/project_src/stm32f30x_it.c **** }
  84:/home/user/Desktop/STM32-Projekte/FH-Vertibot/src/project_src/stm32f30x_it.c **** 
  85:/home/user/Desktop/STM32-Projekte/FH-Vertibot/src/project_src/stm32f30x_it.c **** /**
  86:/home/user/Desktop/STM32-Projekte/FH-Vertibot/src/project_src/stm32f30x_it.c ****   * @brief  This function handles Bus Fault exception.
  87:/home/user/Desktop/STM32-Projekte/FH-Vertibot/src/project_src/stm32f30x_it.c ****   * @param  None
  88:/home/user/Desktop/STM32-Projekte/FH-Vertibot/src/project_src/stm32f30x_it.c ****   * @retval None
  89:/home/user/Desktop/STM32-Projekte/FH-Vertibot/src/project_src/stm32f30x_it.c ****   */
  90:/home/user/Desktop/STM32-Projekte/FH-Vertibot/src/project_src/stm32f30x_it.c **** void BusFault_Handler(void)
  91:/home/user/Desktop/STM32-Projekte/FH-Vertibot/src/project_src/stm32f30x_it.c **** {
  78              		.loc 1 91 0
  79              		.cfi_startproc
  80              		@ Volatile: function does not return.
  81              		@ args = 0, pretend = 0, frame = 0
  82              		@ frame_needed = 0, uses_anonymous_args = 0
  83              		@ link register save eliminated.
  84              	.L7:
  85 0006 FEE7     		b	.L7
  86              		.cfi_endproc
  87              	.LFE114:
  89              		.align	1
  90              		.global	UsageFault_Handler
  91              		.thumb
  92              		.thumb_func
  94              	UsageFault_Handler:
  95              	.LFB115:
  92:/home/user/Desktop/STM32-Projekte/FH-Vertibot/src/project_src/stm32f30x_it.c ****   /* Go to infinite loop when Bus Fault exception occurs */
  93:/home/user/Desktop/STM32-Projekte/FH-Vertibot/src/project_src/stm32f30x_it.c ****   while (1)
  94:/home/user/Desktop/STM32-Projekte/FH-Vertibot/src/project_src/stm32f30x_it.c ****   {
  95:/home/user/Desktop/STM32-Projekte/FH-Vertibot/src/project_src/stm32f30x_it.c ****   }
  96:/home/user/Desktop/STM32-Projekte/FH-Vertibot/src/project_src/stm32f30x_it.c **** }
  97:/home/user/Desktop/STM32-Projekte/FH-Vertibot/src/project_src/stm32f30x_it.c **** 
  98:/home/user/Desktop/STM32-Projekte/FH-Vertibot/src/project_src/stm32f30x_it.c **** /**
  99:/home/user/Desktop/STM32-Projekte/FH-Vertibot/src/project_src/stm32f30x_it.c ****   * @brief  This function handles Usage Fault exception.
 100:/home/user/Desktop/STM32-Projekte/FH-Vertibot/src/project_src/stm32f30x_it.c ****   * @param  None
 101:/home/user/Desktop/STM32-Projekte/FH-Vertibot/src/project_src/stm32f30x_it.c ****   * @retval None
 102:/home/user/Desktop/STM32-Projekte/FH-Vertibot/src/project_src/stm32f30x_it.c ****   */
 103:/home/user/Desktop/STM32-Projekte/FH-Vertibot/src/project_src/stm32f30x_it.c **** void UsageFault_Handler(void)
 104:/home/user/Desktop/STM32-Projekte/FH-Vertibot/src/project_src/stm32f30x_it.c **** {
  96              		.loc 1 104 0
  97              		.cfi_startproc
  98              		@ Volatile: function does not return.
  99              		@ args = 0, pretend = 0, frame = 0
 100              		@ frame_needed = 0, uses_anonymous_args = 0
 101              		@ link register save eliminated.
 102              	.L9:
 103 0008 FEE7     		b	.L9
 104              		.cfi_endproc
 105              	.LFE115:
 107              		.align	1
 108              		.global	DebugMon_Handler
 109              		.thumb
 110              		.thumb_func
 112              	DebugMon_Handler:
 113              	.LFB116:
 105:/home/user/Desktop/STM32-Projekte/FH-Vertibot/src/project_src/stm32f30x_it.c ****   /* Go to infinite loop when Usage Fault exception occurs */
 106:/home/user/Desktop/STM32-Projekte/FH-Vertibot/src/project_src/stm32f30x_it.c ****   while (1)
 107:/home/user/Desktop/STM32-Projekte/FH-Vertibot/src/project_src/stm32f30x_it.c ****   {
 108:/home/user/Desktop/STM32-Projekte/FH-Vertibot/src/project_src/stm32f30x_it.c ****   }
 109:/home/user/Desktop/STM32-Projekte/FH-Vertibot/src/project_src/stm32f30x_it.c **** }
 110:/home/user/Desktop/STM32-Projekte/FH-Vertibot/src/project_src/stm32f30x_it.c **** 
 111:/home/user/Desktop/STM32-Projekte/FH-Vertibot/src/project_src/stm32f30x_it.c **** ///**
 112:/home/user/Desktop/STM32-Projekte/FH-Vertibot/src/project_src/stm32f30x_it.c **** //  * @brief  This function handles SVCall exception.
 113:/home/user/Desktop/STM32-Projekte/FH-Vertibot/src/project_src/stm32f30x_it.c **** //  * @param  None
 114:/home/user/Desktop/STM32-Projekte/FH-Vertibot/src/project_src/stm32f30x_it.c **** //  * @retval None
 115:/home/user/Desktop/STM32-Projekte/FH-Vertibot/src/project_src/stm32f30x_it.c **** //  */
 116:/home/user/Desktop/STM32-Projekte/FH-Vertibot/src/project_src/stm32f30x_it.c **** //void SVC_Handler(void)
 117:/home/user/Desktop/STM32-Projekte/FH-Vertibot/src/project_src/stm32f30x_it.c **** //{
 118:/home/user/Desktop/STM32-Projekte/FH-Vertibot/src/project_src/stm32f30x_it.c **** //}
 119:/home/user/Desktop/STM32-Projekte/FH-Vertibot/src/project_src/stm32f30x_it.c **** 
 120:/home/user/Desktop/STM32-Projekte/FH-Vertibot/src/project_src/stm32f30x_it.c **** /**
 121:/home/user/Desktop/STM32-Projekte/FH-Vertibot/src/project_src/stm32f30x_it.c ****   * @brief  This function handles Debug Monitor exception.
 122:/home/user/Desktop/STM32-Projekte/FH-Vertibot/src/project_src/stm32f30x_it.c ****   * @param  None
 123:/home/user/Desktop/STM32-Projekte/FH-Vertibot/src/project_src/stm32f30x_it.c ****   * @retval None
 124:/home/user/Desktop/STM32-Projekte/FH-Vertibot/src/project_src/stm32f30x_it.c ****   */
 125:/home/user/Desktop/STM32-Projekte/FH-Vertibot/src/project_src/stm32f30x_it.c **** void DebugMon_Handler(void)
 126:/home/user/Desktop/STM32-Projekte/FH-Vertibot/src/project_src/stm32f30x_it.c **** {
 114              		.loc 1 126 0
 115              		.cfi_startproc
 116              		@ args = 0, pretend = 0, frame = 0
 117              		@ frame_needed = 0, uses_anonymous_args = 0
 118              		@ link register save eliminated.
 119 000a 7047     		bx	lr
 120              		.cfi_endproc
 121              	.LFE116:
 123              		.align	1
 124              		.global	USART3_IRQHandler
 125              		.thumb
 126              		.thumb_func
 128              	USART3_IRQHandler:
 129              	.LFB117:
 127:/home/user/Desktop/STM32-Projekte/FH-Vertibot/src/project_src/stm32f30x_it.c **** }
 128:/home/user/Desktop/STM32-Projekte/FH-Vertibot/src/project_src/stm32f30x_it.c **** 
 129:/home/user/Desktop/STM32-Projekte/FH-Vertibot/src/project_src/stm32f30x_it.c **** ///**
 130:/home/user/Desktop/STM32-Projekte/FH-Vertibot/src/project_src/stm32f30x_it.c **** //  * @brief  This function handles PendSVC exception.
 131:/home/user/Desktop/STM32-Projekte/FH-Vertibot/src/project_src/stm32f30x_it.c **** //  * @param  None
 132:/home/user/Desktop/STM32-Projekte/FH-Vertibot/src/project_src/stm32f30x_it.c **** //  * @retval None
 133:/home/user/Desktop/STM32-Projekte/FH-Vertibot/src/project_src/stm32f30x_it.c **** //  */
 134:/home/user/Desktop/STM32-Projekte/FH-Vertibot/src/project_src/stm32f30x_it.c **** //void PendSV_Handler(void)
 135:/home/user/Desktop/STM32-Projekte/FH-Vertibot/src/project_src/stm32f30x_it.c **** //{
 136:/home/user/Desktop/STM32-Projekte/FH-Vertibot/src/project_src/stm32f30x_it.c **** //}
 137:/home/user/Desktop/STM32-Projekte/FH-Vertibot/src/project_src/stm32f30x_it.c **** 
 138:/home/user/Desktop/STM32-Projekte/FH-Vertibot/src/project_src/stm32f30x_it.c **** ///**
 139:/home/user/Desktop/STM32-Projekte/FH-Vertibot/src/project_src/stm32f30x_it.c **** //  * @brief  This function handles SysTick Handler.
 140:/home/user/Desktop/STM32-Projekte/FH-Vertibot/src/project_src/stm32f30x_it.c **** //  * @param  None
 141:/home/user/Desktop/STM32-Projekte/FH-Vertibot/src/project_src/stm32f30x_it.c **** //  * @retval None
 142:/home/user/Desktop/STM32-Projekte/FH-Vertibot/src/project_src/stm32f30x_it.c **** //  */
 143:/home/user/Desktop/STM32-Projekte/FH-Vertibot/src/project_src/stm32f30x_it.c **** //void SysTick_Handler(void)
 144:/home/user/Desktop/STM32-Projekte/FH-Vertibot/src/project_src/stm32f30x_it.c **** //{
 145:/home/user/Desktop/STM32-Projekte/FH-Vertibot/src/project_src/stm32f30x_it.c **** //}
 146:/home/user/Desktop/STM32-Projekte/FH-Vertibot/src/project_src/stm32f30x_it.c **** 
 147:/home/user/Desktop/STM32-Projekte/FH-Vertibot/src/project_src/stm32f30x_it.c **** // this is the interrupt request handler (IRQ) for ALL USART1 interrupts
 148:/home/user/Desktop/STM32-Projekte/FH-Vertibot/src/project_src/stm32f30x_it.c **** 
 149:/home/user/Desktop/STM32-Projekte/FH-Vertibot/src/project_src/stm32f30x_it.c **** /*! ***************************************************************************
 150:/home/user/Desktop/STM32-Projekte/FH-Vertibot/src/project_src/stm32f30x_it.c ****  *    USART3 Interrupt
 151:/home/user/Desktop/STM32-Projekte/FH-Vertibot/src/project_src/stm32f30x_it.c ****  *   Dient zur schnellen Übertragung der aktuellen Telemetriedaten
 152:/home/user/Desktop/STM32-Projekte/FH-Vertibot/src/project_src/stm32f30x_it.c ****  *  ************************************************************************ */
 153:/home/user/Desktop/STM32-Projekte/FH-Vertibot/src/project_src/stm32f30x_it.c **** void USART3_IRQHandler(void)
 154:/home/user/Desktop/STM32-Projekte/FH-Vertibot/src/project_src/stm32f30x_it.c **** {
 130              		.loc 1 154 0
 131              		.cfi_startproc
 132              		@ args = 0, pretend = 0, frame = 0
 133              		@ frame_needed = 0, uses_anonymous_args = 0
 134              		.loc 1 154 0
 135 000c 08B5     		push	{r3, lr}
 136              	.LCFI0:
 137              		.cfi_def_cfa_offset 8
 138              		.cfi_offset 3, -8
 139              		.cfi_offset 14, -4
 155:/home/user/Desktop/STM32-Projekte/FH-Vertibot/src/project_src/stm32f30x_it.c **** 	// TODO: Timeout for Receive-Datas
 156:/home/user/Desktop/STM32-Projekte/FH-Vertibot/src/project_src/stm32f30x_it.c **** 	/* Receive Data register not empty interrupt */
 157:/home/user/Desktop/STM32-Projekte/FH-Vertibot/src/project_src/stm32f30x_it.c **** 	if(USART_GetITStatus(USART3, USART_IT_RXNE) != RESET)
 140              		.loc 1 157 0
 141 000e 2A48     		ldr	r0, .L31
 142 0010 2A49     		ldr	r1, .L31+4
 143 0012 FFF7FEFF 		bl	USART_GetITStatus
 144              	.LVL0:
 145 0016 28B3     		cbz	r0, .L12
 146              	.LBB2:
 158:/home/user/Desktop/STM32-Projekte/FH-Vertibot/src/project_src/stm32f30x_it.c **** 	{
 159:/home/user/Desktop/STM32-Projekte/FH-Vertibot/src/project_src/stm32f30x_it.c **** 		char Data = USART_ReceiveData(USART3);
 147              		.loc 1 159 0
 148 0018 2748     		ldr	r0, .L31
 149 001a FFF7FEFF 		bl	USART_ReceiveData
 150              	.LVL1:
 160:/home/user/Desktop/STM32-Projekte/FH-Vertibot/src/project_src/stm32f30x_it.c **** 
 161:/home/user/Desktop/STM32-Projekte/FH-Vertibot/src/project_src/stm32f30x_it.c **** 		if (It_Com.rxready == 0) {
 151              		.loc 1 161 0
 152 001e 284B     		ldr	r3, .L31+8
 153 0020 D3F80012 		ldr	r1, [r3, #512]
 154 0024 D1B9     		cbnz	r1, .L13
 162:/home/user/Desktop/STM32-Projekte/FH-Vertibot/src/project_src/stm32f30x_it.c **** 			It_Com.rxbuffer[It_Com.rxcnt] = Data;
 155              		.loc 1 162 0
 156 0026 D3F80822 		ldr	r2, [r3, #520]
 159:/home/user/Desktop/STM32-Projekte/FH-Vertibot/src/project_src/stm32f30x_it.c **** 		char Data = USART_ReceiveData(USART3);
 157              		.loc 1 159 0
 158 002a C0B2     		uxtb	r0, r0
 159              	.LVL2:
 163:/home/user/Desktop/STM32-Projekte/FH-Vertibot/src/project_src/stm32f30x_it.c **** 			switch (It_Com.rxcnt) {
 160              		.loc 1 163 0
 161 002c 012A     		cmp	r2, #1
 162:/home/user/Desktop/STM32-Projekte/FH-Vertibot/src/project_src/stm32f30x_it.c **** 			It_Com.rxbuffer[It_Com.rxcnt] = Data;
 162              		.loc 1 162 0
 163 002e 9854     		strb	r0, [r3, r2]
 164              		.loc 1 163 0
 165 0030 07D0     		beq	.L16
 166 0032 02D3     		bcc	.L15
 167 0034 0F2A     		cmp	r2, #15
 168 0036 0ED1     		bne	.L28
 169 0038 07E0     		b	.L17
 170              	.L15:
 164:/home/user/Desktop/STM32-Projekte/FH-Vertibot/src/project_src/stm32f30x_it.c **** 				/* Header LOW */
 165:/home/user/Desktop/STM32-Projekte/FH-Vertibot/src/project_src/stm32f30x_it.c **** 				case 0:
 166:/home/user/Desktop/STM32-Projekte/FH-Vertibot/src/project_src/stm32f30x_it.c **** 					if (It_Com.rxbuffer[It_Com.rxcnt] == 0xff) It_Com.rxcnt++;
 171              		.loc 1 166 0
 172 003a FF28     		cmp	r0, #255
 173 003c 08D1     		bne	.L30
 174              		.loc 1 166 0 is_stmt 0 discriminator 1
 175 003e 0122     		movs	r2, #1
 176 0040 0AE0     		b	.L29
 177              	.L16:
 167:/home/user/Desktop/STM32-Projekte/FH-Vertibot/src/project_src/stm32f30x_it.c **** 					else It_Com.rxcnt = 0;
 168:/home/user/Desktop/STM32-Projekte/FH-Vertibot/src/project_src/stm32f30x_it.c **** 					break;
 169:/home/user/Desktop/STM32-Projekte/FH-Vertibot/src/project_src/stm32f30x_it.c **** 				/* Header High */
 170:/home/user/Desktop/STM32-Projekte/FH-Vertibot/src/project_src/stm32f30x_it.c **** 				case 1:
 171:/home/user/Desktop/STM32-Projekte/FH-Vertibot/src/project_src/stm32f30x_it.c **** 					if (It_Com.rxbuffer[It_Com.rxcnt] == 0x7F) It_Com.rxcnt++;
 178              		.loc 1 171 0 is_stmt 1
 179 0042 7F28     		cmp	r0, #127
 180 0044 04D1     		bne	.L30
 181              		.loc 1 171 0 is_stmt 0 discriminator 1
 182 0046 0222     		movs	r2, #2
 183 0048 06E0     		b	.L29
 184              	.L17:
 172:/home/user/Desktop/STM32-Projekte/FH-Vertibot/src/project_src/stm32f30x_it.c **** 					else It_Com.rxcnt = 0;
 173:/home/user/Desktop/STM32-Projekte/FH-Vertibot/src/project_src/stm32f30x_it.c **** 					break;
 174:/home/user/Desktop/STM32-Projekte/FH-Vertibot/src/project_src/stm32f30x_it.c **** 				case 15:
 175:/home/user/Desktop/STM32-Projekte/FH-Vertibot/src/project_src/stm32f30x_it.c **** 					It_Com.rxready = 1;
 185              		.loc 1 175 0 is_stmt 1
 186 004a 0122     		movs	r2, #1
 187 004c C3F80022 		str	r2, [r3, #512]
 188              	.L30:
 176:/home/user/Desktop/STM32-Projekte/FH-Vertibot/src/project_src/stm32f30x_it.c **** 					It_Com.rxcnt = 0;
 189              		.loc 1 176 0
 190 0050 C3F80812 		str	r1, [r3, #520]
 177:/home/user/Desktop/STM32-Projekte/FH-Vertibot/src/project_src/stm32f30x_it.c **** 					break;
 191              		.loc 1 177 0
 192 0054 02E0     		b	.L13
 193              	.L28:
 178:/home/user/Desktop/STM32-Projekte/FH-Vertibot/src/project_src/stm32f30x_it.c **** 				default:
 179:/home/user/Desktop/STM32-Projekte/FH-Vertibot/src/project_src/stm32f30x_it.c **** 					It_Com.rxcnt ++;
 194              		.loc 1 179 0
 195 0056 0132     		adds	r2, r2, #1
 196              	.L29:
 197 0058 C3F80822 		str	r2, [r3, #520]
 198              	.L13:
 180:/home/user/Desktop/STM32-Projekte/FH-Vertibot/src/project_src/stm32f30x_it.c **** 					break;
 181:/home/user/Desktop/STM32-Projekte/FH-Vertibot/src/project_src/stm32f30x_it.c **** 			}
 182:/home/user/Desktop/STM32-Projekte/FH-Vertibot/src/project_src/stm32f30x_it.c **** 		}
 183:/home/user/Desktop/STM32-Projekte/FH-Vertibot/src/project_src/stm32f30x_it.c **** 	    USART_ClearFlag(USART3, USART_IT_RXNE);
 199              		.loc 1 183 0
 200 005c 1648     		ldr	r0, .L31
 201 005e 1749     		ldr	r1, .L31+4
 202 0060 FFF7FEFF 		bl	USART_ClearFlag
 203              	.LVL3:
 204              	.L12:
 205              	.LBE2:
 184:/home/user/Desktop/STM32-Projekte/FH-Vertibot/src/project_src/stm32f30x_it.c **** 	}
 185:/home/user/Desktop/STM32-Projekte/FH-Vertibot/src/project_src/stm32f30x_it.c **** 
 186:/home/user/Desktop/STM32-Projekte/FH-Vertibot/src/project_src/stm32f30x_it.c **** 	// Transmit Data Register empty interrupt
 187:/home/user/Desktop/STM32-Projekte/FH-Vertibot/src/project_src/stm32f30x_it.c ****     if(USART_GetITStatus(USART3, USART_IT_TXE) != RESET)
 206              		.loc 1 187 0
 207 0064 1448     		ldr	r0, .L31
 208 0066 1749     		ldr	r1, .L31+12
 209 0068 FFF7FEFF 		bl	USART_GetITStatus
 210              	.LVL4:
 211 006c F0B1     		cbz	r0, .L20
 188:/home/user/Desktop/STM32-Projekte/FH-Vertibot/src/project_src/stm32f30x_it.c ****   	{
 189:/home/user/Desktop/STM32-Projekte/FH-Vertibot/src/project_src/stm32f30x_it.c ****   		USART_ClearITPendingBit(USART3, USART_IT_TXE);
 212              		.loc 1 189 0
 213 006e 1549     		ldr	r1, .L31+12
 214 0070 1148     		ldr	r0, .L31
 215 0072 FFF7FEFF 		bl	USART_ClearITPendingBit
 216              	.LVL5:
 190:/home/user/Desktop/STM32-Projekte/FH-Vertibot/src/project_src/stm32f30x_it.c **** 
 191:/home/user/Desktop/STM32-Projekte/FH-Vertibot/src/project_src/stm32f30x_it.c ****   		//if(ModbusData.txcnt <= ModbusData.txlen)
 192:/home/user/Desktop/STM32-Projekte/FH-Vertibot/src/project_src/stm32f30x_it.c ****   		if(It_Com.txcnt <= (It_Com.txlen-1))
 217              		.loc 1 192 0
 218 0076 124B     		ldr	r3, .L31+8
 219 0078 D3F81012 		ldr	r1, [r3, #528]
 220 007c D3F80C22 		ldr	r2, [r3, #524]
 221 0080 0139     		subs	r1, r1, #1
 222 0082 8A42     		cmp	r2, r1
 223 0084 09D8     		bhi	.L21
 193:/home/user/Desktop/STM32-Projekte/FH-Vertibot/src/project_src/stm32f30x_it.c ****   		{
 194:/home/user/Desktop/STM32-Projekte/FH-Vertibot/src/project_src/stm32f30x_it.c ****             USART_SendData(USART3,It_Com.txbuffer[It_Com.txcnt++]);
 224              		.loc 1 194 0
 225 0086 9918     		adds	r1, r3, r2
 226 0088 91F80011 		ldrb	r1, [r1, #256]	@ zero_extendqisi2
 227 008c 0132     		adds	r2, r2, #1
 228 008e 0A48     		ldr	r0, .L31
 229 0090 C3F80C22 		str	r2, [r3, #524]
 230 0094 FFF7FEFF 		bl	USART_SendData
 231              	.LVL6:
 232 0098 08E0     		b	.L20
 233              	.L21:
 195:/home/user/Desktop/STM32-Projekte/FH-Vertibot/src/project_src/stm32f30x_it.c ****   		}
 196:/home/user/Desktop/STM32-Projekte/FH-Vertibot/src/project_src/stm32f30x_it.c ****   		else
 197:/home/user/Desktop/STM32-Projekte/FH-Vertibot/src/project_src/stm32f30x_it.c ****   		{
 198:/home/user/Desktop/STM32-Projekte/FH-Vertibot/src/project_src/stm32f30x_it.c ****   			It_Com.txcnt = 0;
 234              		.loc 1 198 0
 235 009a 0022     		movs	r2, #0
 199:/home/user/Desktop/STM32-Projekte/FH-Vertibot/src/project_src/stm32f30x_it.c ****   			It_Com.txready = 0;
 200:/home/user/Desktop/STM32-Projekte/FH-Vertibot/src/project_src/stm32f30x_it.c ****   		    //USART_ITConfig(USART3, USART_IT_RXNE, ENABLE);
 201:/home/user/Desktop/STM32-Projekte/FH-Vertibot/src/project_src/stm32f30x_it.c ****   		    USART_ITConfig(USART3, USART_IT_TXE, DISABLE);
 236              		.loc 1 201 0
 237 009c 0648     		ldr	r0, .L31
 238 009e 0949     		ldr	r1, .L31+12
 198:/home/user/Desktop/STM32-Projekte/FH-Vertibot/src/project_src/stm32f30x_it.c ****   			It_Com.txcnt = 0;
 239              		.loc 1 198 0
 240 00a0 C3F80C22 		str	r2, [r3, #524]
 199:/home/user/Desktop/STM32-Projekte/FH-Vertibot/src/project_src/stm32f30x_it.c ****   			It_Com.txready = 0;
 241              		.loc 1 199 0
 242 00a4 C3F80422 		str	r2, [r3, #516]
 243              		.loc 1 201 0
 244 00a8 FFF7FEFF 		bl	USART_ITConfig
 245              	.LVL7:
 246              	.L20:
 202:/home/user/Desktop/STM32-Projekte/FH-Vertibot/src/project_src/stm32f30x_it.c ****   		}
 203:/home/user/Desktop/STM32-Projekte/FH-Vertibot/src/project_src/stm32f30x_it.c ****   	}
 204:/home/user/Desktop/STM32-Projekte/FH-Vertibot/src/project_src/stm32f30x_it.c **** 	USART_ClearITPendingBit(USART3, USART_IT_RXNE);
 247              		.loc 1 204 0
 248 00ac 0248     		ldr	r0, .L31
 249 00ae 0349     		ldr	r1, .L31+4
 205:/home/user/Desktop/STM32-Projekte/FH-Vertibot/src/project_src/stm32f30x_it.c **** }
 250              		.loc 1 205 0
 251 00b0 BDE80840 		pop	{r3, lr}
 204:/home/user/Desktop/STM32-Projekte/FH-Vertibot/src/project_src/stm32f30x_it.c **** 	USART_ClearITPendingBit(USART3, USART_IT_RXNE);
 252              		.loc 1 204 0
 253 00b4 FFF7FEBF 		b	USART_ClearITPendingBit
 254              	.LVL8:
 255              	.L32:
 256              		.align	2
 257              	.L31:
 258 00b8 00480040 		.word	1073760256
 259 00bc 05010500 		.word	327941
 260 00c0 00000000 		.word	It_Com
 261 00c4 07010700 		.word	459015
 262              		.cfi_endproc
 263              	.LFE117:
 265              		.align	1
 266              		.global	USART2_IRQHandler
 267              		.thumb
 268              		.thumb_func
 270              	USART2_IRQHandler:
 271              	.LFB118:
 206:/home/user/Desktop/STM32-Projekte/FH-Vertibot/src/project_src/stm32f30x_it.c **** 
 207:/home/user/Desktop/STM32-Projekte/FH-Vertibot/src/project_src/stm32f30x_it.c **** /*USART Reception*/
 208:/home/user/Desktop/STM32-Projekte/FH-Vertibot/src/project_src/stm32f30x_it.c **** void USART2_IRQHandler(void)
 209:/home/user/Desktop/STM32-Projekte/FH-Vertibot/src/project_src/stm32f30x_it.c **** {
 272              		.loc 1 209 0
 273              		.cfi_startproc
 274              		@ args = 0, pretend = 0, frame = 0
 275              		@ frame_needed = 0, uses_anonymous_args = 0
 276 00c8 38B5     		push	{r3, r4, r5, lr}
 277              	.LCFI1:
 278              		.cfi_def_cfa_offset 16
 279              		.cfi_offset 3, -16
 280              		.cfi_offset 4, -12
 281              		.cfi_offset 5, -8
 282              		.cfi_offset 14, -4
 210:/home/user/Desktop/STM32-Projekte/FH-Vertibot/src/project_src/stm32f30x_it.c **** 	static unsigned char rxBuffer[5];
 211:/home/user/Desktop/STM32-Projekte/FH-Vertibot/src/project_src/stm32f30x_it.c **** 	static uint8_t i = 0;
 212:/home/user/Desktop/STM32-Projekte/FH-Vertibot/src/project_src/stm32f30x_it.c **** 
 213:/home/user/Desktop/STM32-Projekte/FH-Vertibot/src/project_src/stm32f30x_it.c **** 	if(USART_GetITStatus(USART2, USART_IT_RXNE) != RESET)
 283              		.loc 1 213 0
 284 00ca 1648     		ldr	r0, .L41
 285 00cc 1649     		ldr	r1, .L41+4
 286 00ce FFF7FEFF 		bl	USART_GetITStatus
 287              	.LVL9:
 288 00d2 E0B1     		cbz	r0, .L34
 214:/home/user/Desktop/STM32-Projekte/FH-Vertibot/src/project_src/stm32f30x_it.c **** 	{
 215:/home/user/Desktop/STM32-Projekte/FH-Vertibot/src/project_src/stm32f30x_it.c **** 		/* Read one byte from the receive data register */
 216:/home/user/Desktop/STM32-Projekte/FH-Vertibot/src/project_src/stm32f30x_it.c **** 		rxBuffer[i] = USART_ReceiveData(USART2);
 289              		.loc 1 216 0
 290 00d4 154C     		ldr	r4, .L41+8
 291 00d6 1348     		ldr	r0, .L41
 292 00d8 2578     		ldrb	r5, [r4, #0]	@ zero_extendqisi2
 293 00da FFF7FEFF 		bl	USART_ReceiveData
 294              	.LVL10:
 217:/home/user/Desktop/STM32-Projekte/FH-Vertibot/src/project_src/stm32f30x_it.c **** 		if(i >= 4)
 295              		.loc 1 217 0
 296 00de 2378     		ldrb	r3, [r4, #0]	@ zero_extendqisi2
 216:/home/user/Desktop/STM32-Projekte/FH-Vertibot/src/project_src/stm32f30x_it.c **** 		rxBuffer[i] = USART_ReceiveData(USART2);
 297              		.loc 1 216 0
 298 00e0 6519     		adds	r5, r4, r5
 299              		.loc 1 217 0
 300 00e2 032B     		cmp	r3, #3
 216:/home/user/Desktop/STM32-Projekte/FH-Vertibot/src/project_src/stm32f30x_it.c **** 		rxBuffer[i] = USART_ReceiveData(USART2);
 301              		.loc 1 216 0
 302 00e4 6870     		strb	r0, [r5, #1]
 303              		.loc 1 217 0
 304 00e6 05D9     		bls	.L35
 218:/home/user/Desktop/STM32-Projekte/FH-Vertibot/src/project_src/stm32f30x_it.c **** 		{
 219:/home/user/Desktop/STM32-Projekte/FH-Vertibot/src/project_src/stm32f30x_it.c **** 			//xQueueSendFromISR( usartRxQueue, &msgPointer, &xYieldRequired );
 220:/home/user/Desktop/STM32-Projekte/FH-Vertibot/src/project_src/stm32f30x_it.c **** 			CalcRXValues(&rxBuffer[0], 55);
 305              		.loc 1 220 0
 306 00e8 601C     		adds	r0, r4, #1
 307 00ea 3721     		movs	r1, #55
 308 00ec FFF7FEFF 		bl	CalcRXValues
 309              	.LVL11:
 221:/home/user/Desktop/STM32-Projekte/FH-Vertibot/src/project_src/stm32f30x_it.c **** 			i = 0;
 310              		.loc 1 221 0
 311 00f0 0023     		movs	r3, #0
 312 00f2 03E0     		b	.L40
 313              	.L35:
 222:/home/user/Desktop/STM32-Projekte/FH-Vertibot/src/project_src/stm32f30x_it.c **** 		}
 223:/home/user/Desktop/STM32-Projekte/FH-Vertibot/src/project_src/stm32f30x_it.c **** 		else
 224:/home/user/Desktop/STM32-Projekte/FH-Vertibot/src/project_src/stm32f30x_it.c **** 		{
 225:/home/user/Desktop/STM32-Projekte/FH-Vertibot/src/project_src/stm32f30x_it.c **** 			if(rxBuffer[0] == 'A')
 314              		.loc 1 225 0
 315 00f4 6278     		ldrb	r2, [r4, #1]	@ zero_extendqisi2
 316 00f6 412A     		cmp	r2, #65
 317 00f8 02D1     		bne	.L36
 226:/home/user/Desktop/STM32-Projekte/FH-Vertibot/src/project_src/stm32f30x_it.c **** 			{
 227:/home/user/Desktop/STM32-Projekte/FH-Vertibot/src/project_src/stm32f30x_it.c **** 				i++;
 318              		.loc 1 227 0
 319 00fa 0133     		adds	r3, r3, #1
 320              	.L40:
 321 00fc 2370     		strb	r3, [r4, #0]
 322 00fe 06E0     		b	.L34
 323              	.L36:
 228:/home/user/Desktop/STM32-Projekte/FH-Vertibot/src/project_src/stm32f30x_it.c **** 			}
 229:/home/user/Desktop/STM32-Projekte/FH-Vertibot/src/project_src/stm32f30x_it.c **** 			else
 230:/home/user/Desktop/STM32-Projekte/FH-Vertibot/src/project_src/stm32f30x_it.c **** 			{
 231:/home/user/Desktop/STM32-Projekte/FH-Vertibot/src/project_src/stm32f30x_it.c **** 				i = 0;
 324              		.loc 1 231 0
 325 0100 0023     		movs	r3, #0
 326 0102 2370     		strb	r3, [r4, #0]
 232:/home/user/Desktop/STM32-Projekte/FH-Vertibot/src/project_src/stm32f30x_it.c **** 				rxBuffer[0] = 0;
 327              		.loc 1 232 0
 328 0104 6370     		strb	r3, [r4, #1]
 233:/home/user/Desktop/STM32-Projekte/FH-Vertibot/src/project_src/stm32f30x_it.c **** 				rxBuffer[1] = 0;
 329              		.loc 1 233 0
 330 0106 A370     		strb	r3, [r4, #2]
 234:/home/user/Desktop/STM32-Projekte/FH-Vertibot/src/project_src/stm32f30x_it.c **** 				rxBuffer[2] = 0;
 331              		.loc 1 234 0
 332 0108 E370     		strb	r3, [r4, #3]
 235:/home/user/Desktop/STM32-Projekte/FH-Vertibot/src/project_src/stm32f30x_it.c **** 				rxBuffer[3] = 0;
 333              		.loc 1 235 0
 334 010a 2371     		strb	r3, [r4, #4]
 236:/home/user/Desktop/STM32-Projekte/FH-Vertibot/src/project_src/stm32f30x_it.c **** 				rxBuffer[4] = 0;
 335              		.loc 1 236 0
 336 010c 6371     		strb	r3, [r4, #5]
 337              	.L34:
 237:/home/user/Desktop/STM32-Projekte/FH-Vertibot/src/project_src/stm32f30x_it.c **** 			}
 238:/home/user/Desktop/STM32-Projekte/FH-Vertibot/src/project_src/stm32f30x_it.c **** 		}
 239:/home/user/Desktop/STM32-Projekte/FH-Vertibot/src/project_src/stm32f30x_it.c **** 	}
 240:/home/user/Desktop/STM32-Projekte/FH-Vertibot/src/project_src/stm32f30x_it.c **** 	USART_ClearITPendingBit(USART2, USART_IT_RXNE);
 338              		.loc 1 240 0
 339 010e 0548     		ldr	r0, .L41
 340 0110 0549     		ldr	r1, .L41+4
 341 0112 FFF7FEFF 		bl	USART_ClearITPendingBit
 342              	.LVL12:
 241:/home/user/Desktop/STM32-Projekte/FH-Vertibot/src/project_src/stm32f30x_it.c **** 	USART_ClearFlag(USART2, USART_IT_RXNE);
 343              		.loc 1 241 0
 344 0116 0348     		ldr	r0, .L41
 345 0118 0349     		ldr	r1, .L41+4
 242:/home/user/Desktop/STM32-Projekte/FH-Vertibot/src/project_src/stm32f30x_it.c **** }
 346              		.loc 1 242 0
 347 011a BDE83840 		pop	{r3, r4, r5, lr}
 241:/home/user/Desktop/STM32-Projekte/FH-Vertibot/src/project_src/stm32f30x_it.c **** 	USART_ClearFlag(USART2, USART_IT_RXNE);
 348              		.loc 1 241 0
 349 011e FFF7FEBF 		b	USART_ClearFlag
 350              	.LVL13:
 351              	.L42:
 352 0122 00BF     		.align	2
 353              	.L41:
 354 0124 00440040 		.word	1073759232
 355 0128 05010500 		.word	327941
 356 012c 00000000 		.word	.LANCHOR0
 357              		.cfi_endproc
 358              	.LFE118:
 360              		.align	1
 361              		.global	disableEXTI
 362              		.thumb
 363              		.thumb_func
 365              	disableEXTI:
 366              	.LFB119:
 243:/home/user/Desktop/STM32-Projekte/FH-Vertibot/src/project_src/stm32f30x_it.c **** 
 244:/home/user/Desktop/STM32-Projekte/FH-Vertibot/src/project_src/stm32f30x_it.c **** void disableEXTI(uint32_t EXTINr)
 245:/home/user/Desktop/STM32-Projekte/FH-Vertibot/src/project_src/stm32f30x_it.c **** {
 367              		.loc 1 245 0
 368              		.cfi_startproc
 369              		@ args = 0, pretend = 0, frame = 0
 370              		@ frame_needed = 0, uses_anonymous_args = 0
 371              	.LVL14:
 372 0130 10B5     		push	{r4, lr}
 373              	.LCFI2:
 374              		.cfi_def_cfa_offset 8
 375              		.cfi_offset 4, -8
 376              		.cfi_offset 14, -4
 377              		.loc 1 245 0
 378 0132 0446     		mov	r4, r0
 246:/home/user/Desktop/STM32-Projekte/FH-Vertibot/src/project_src/stm32f30x_it.c **** 	getEXTI_Config()->EXTI_Line = EXTINr;
 379              		.loc 1 246 0
 380 0134 FFF7FEFF 		bl	getEXTI_Config
 381              	.LVL15:
 382 0138 0460     		str	r4, [r0, #0]
 247:/home/user/Desktop/STM32-Projekte/FH-Vertibot/src/project_src/stm32f30x_it.c **** 	getEXTI_Config()->EXTI_LineCmd = DISABLE;
 383              		.loc 1 247 0
 384 013a FFF7FEFF 		bl	getEXTI_Config
 385              	.LVL16:
 386 013e 0023     		movs	r3, #0
 387 0140 8371     		strb	r3, [r0, #6]
 248:/home/user/Desktop/STM32-Projekte/FH-Vertibot/src/project_src/stm32f30x_it.c **** 	EXTI_Init(getEXTI_Config());
 388              		.loc 1 248 0
 389 0142 FFF7FEFF 		bl	getEXTI_Config
 390              	.LVL17:
 249:/home/user/Desktop/STM32-Projekte/FH-Vertibot/src/project_src/stm32f30x_it.c **** }
 391              		.loc 1 249 0
 392 0146 BDE81040 		pop	{r4, lr}
 248:/home/user/Desktop/STM32-Projekte/FH-Vertibot/src/project_src/stm32f30x_it.c **** 	EXTI_Init(getEXTI_Config());
 393              		.loc 1 248 0
 394 014a FFF7FEBF 		b	EXTI_Init
 395              	.LVL18:
 396              		.cfi_endproc
 397              	.LFE119:
 399              		.align	1
 400              		.global	enableEXTI
 401              		.thumb
 402              		.thumb_func
 404              	enableEXTI:
 405              	.LFB120:
 250:/home/user/Desktop/STM32-Projekte/FH-Vertibot/src/project_src/stm32f30x_it.c **** 
 251:/home/user/Desktop/STM32-Projekte/FH-Vertibot/src/project_src/stm32f30x_it.c **** void enableEXTI(uint32_t EXTINr)
 252:/home/user/Desktop/STM32-Projekte/FH-Vertibot/src/project_src/stm32f30x_it.c **** {
 406              		.loc 1 252 0
 407              		.cfi_startproc
 408              		@ args = 0, pretend = 0, frame = 0
 409              		@ frame_needed = 0, uses_anonymous_args = 0
 410              	.LVL19:
 411 014e 10B5     		push	{r4, lr}
 412              	.LCFI3:
 413              		.cfi_def_cfa_offset 8
 414              		.cfi_offset 4, -8
 415              		.cfi_offset 14, -4
 416              		.loc 1 252 0
 417 0150 0446     		mov	r4, r0
 253:/home/user/Desktop/STM32-Projekte/FH-Vertibot/src/project_src/stm32f30x_it.c **** 	getEXTI_Config()->EXTI_Line = EXTINr;
 418              		.loc 1 253 0
 419 0152 FFF7FEFF 		bl	getEXTI_Config
 420              	.LVL20:
 421 0156 0460     		str	r4, [r0, #0]
 254:/home/user/Desktop/STM32-Projekte/FH-Vertibot/src/project_src/stm32f30x_it.c **** 	getEXTI_Config()->EXTI_LineCmd = ENABLE;
 422              		.loc 1 254 0
 423 0158 FFF7FEFF 		bl	getEXTI_Config
 424              	.LVL21:
 425 015c 0123     		movs	r3, #1
 426 015e 8371     		strb	r3, [r0, #6]
 255:/home/user/Desktop/STM32-Projekte/FH-Vertibot/src/project_src/stm32f30x_it.c **** 	EXTI_Init(getEXTI_Config());
 427              		.loc 1 255 0
 428 0160 FFF7FEFF 		bl	getEXTI_Config
 429              	.LVL22:
 256:/home/user/Desktop/STM32-Projekte/FH-Vertibot/src/project_src/stm32f30x_it.c **** }
 430              		.loc 1 256 0
 431 0164 BDE81040 		pop	{r4, lr}
 255:/home/user/Desktop/STM32-Projekte/FH-Vertibot/src/project_src/stm32f30x_it.c **** 	EXTI_Init(getEXTI_Config());
 432              		.loc 1 255 0
 433 0168 FFF7FEBF 		b	EXTI_Init
 434              	.LVL23:
 435              		.cfi_endproc
 436              	.LFE120:
 438              		.align	1
 439              		.global	EXTI15_10_IRQHandler
 440              		.thumb
 441              		.thumb_func
 443              	EXTI15_10_IRQHandler:
 444              	.LFB121:
 257:/home/user/Desktop/STM32-Projekte/FH-Vertibot/src/project_src/stm32f30x_it.c **** 
 258:/home/user/Desktop/STM32-Projekte/FH-Vertibot/src/project_src/stm32f30x_it.c **** /* Interupt Handlers */
 259:/home/user/Desktop/STM32-Projekte/FH-Vertibot/src/project_src/stm32f30x_it.c **** void EXTI15_10_IRQHandler(void)
 260:/home/user/Desktop/STM32-Projekte/FH-Vertibot/src/project_src/stm32f30x_it.c **** {
 445              		.loc 1 260 0
 446              		.cfi_startproc
 447              		@ args = 0, pretend = 0, frame = 0
 448              		@ frame_needed = 0, uses_anonymous_args = 0
 449              		@ link register save eliminated.
 450 016c 7047     		bx	lr
 451              		.cfi_endproc
 452              	.LFE121:
 454              		.comm	It_Com,532,4
 455              		.bss
 456              		.set	.LANCHOR0,. + 0
 459              	i.8599:
 460 0000 00       		.space	1
 463              	rxBuffer.8598:
 464 0001 00000000 		.space	5
 464      00
 465              		.text
 466              	.Letext0:
 467              		.file 2 "/opt/CodeSourcery/Sourcery_CodeBench_Lite_for_ARM_EABI/bin/../lib/gcc/arm-none-eabi/4.7.2
 468              		.file 3 "/home/user/Desktop/STM32-Projekte/FH-Vertibot/src/CMSIS/Device/ST/STM32F30x/Include/stm32
 469              		.file 4 "/home/user/Desktop/STM32-Projekte/FH-Vertibot/src/STM32F30x_StdPeriph_Driver/inc/stm32f30
 470              		.file 5 "/home/user/Desktop/STM32-Projekte/FH-Vertibot/src/project_inc/usart.h"
 471              		.file 6 "/home/user/Desktop/STM32-Projekte/FH-Vertibot/src/CMSIS/Include/core_cm4.h"
 472              		.file 7 "/home/user/Desktop/STM32-Projekte/FH-Vertibot/src/STM32F30x_StdPeriph_Driver/inc/stm32f30
 473              		.file 8 "/home/user/Desktop/STM32-Projekte/FH-Vertibot/src/project_inc/remote_control.h"
 474              		.file 9 "/home/user/Desktop/STM32-Projekte/FH-Vertibot/src/project_inc/stm32_configuration.h"