   1              		.syntax unified
   2              		.cpu cortex-m3
   3              		.fpu softvfp
   4              		.eabi_attribute 20, 1
   5              		.eabi_attribute 21, 1
   6              		.eabi_attribute 23, 3
   7              		.eabi_attribute 24, 1
   8              		.eabi_attribute 25, 1
   9              		.eabi_attribute 26, 1
  10              		.eabi_attribute 30, 4
  11              		.eabi_attribute 34, 1
  12              		.eabi_attribute 18, 4
  13              		.thumb
  14              		.file	"Task1.c"
  15              		.text
  16              	.Ltext0:
  17              		.cfi_sections	.debug_frame
  18              		.align	1
  19              		.global	Init_PositionController
  20              		.thumb
  21              		.thumb_func
  23              	Init_PositionController:
  24              	.LFB111:
  25              		.file 1 "/home/user/Desktop/STM32-Projekte/FH-Vertibot/src/project_src/Task1.c"
   1:/home/user/Desktop/STM32-Projekte/FH-Vertibot/src/project_src/Task1.c **** /*
   2:/home/user/Desktop/STM32-Projekte/FH-Vertibot/src/project_src/Task1.c ****  *
   3:/home/user/Desktop/STM32-Projekte/FH-Vertibot/src/project_src/Task1.c ****  */
   4:/home/user/Desktop/STM32-Projekte/FH-Vertibot/src/project_src/Task1.c **** 
   5:/home/user/Desktop/STM32-Projekte/FH-Vertibot/src/project_src/Task1.c **** #include <Task1.h>
   6:/home/user/Desktop/STM32-Projekte/FH-Vertibot/src/project_src/Task1.c **** 
   7:/home/user/Desktop/STM32-Projekte/FH-Vertibot/src/project_src/Task1.c **** uint16_t i = 0;
   8:/home/user/Desktop/STM32-Projekte/FH-Vertibot/src/project_src/Task1.c **** 
   9:/home/user/Desktop/STM32-Projekte/FH-Vertibot/src/project_src/Task1.c **** struct IMU_values IMU;
  10:/home/user/Desktop/STM32-Projekte/FH-Vertibot/src/project_src/Task1.c **** 
  11:/home/user/Desktop/STM32-Projekte/FH-Vertibot/src/project_src/Task1.c **** /************ GYRO **************/
  12:/home/user/Desktop/STM32-Projekte/FH-Vertibot/src/project_src/Task1.c **** /*TODO Put GyroValues together */
  13:/home/user/Desktop/STM32-Projekte/FH-Vertibot/src/project_src/Task1.c **** struct gyroValues gyroOffset = {0,0,0};
  14:/home/user/Desktop/STM32-Projekte/FH-Vertibot/src/project_src/Task1.c **** struct gyroValues gyroXYZ = {0,0,0};
  15:/home/user/Desktop/STM32-Projekte/FH-Vertibot/src/project_src/Task1.c **** 
  16:/home/user/Desktop/STM32-Projekte/FH-Vertibot/src/project_src/Task1.c **** floatFilter xGyroFiltered_float;
  17:/home/user/Desktop/STM32-Projekte/FH-Vertibot/src/project_src/Task1.c **** floatFilter yGyroFiltered_float;
  18:/home/user/Desktop/STM32-Projekte/FH-Vertibot/src/project_src/Task1.c **** floatFilter zGyroFiltered_float;
  19:/home/user/Desktop/STM32-Projekte/FH-Vertibot/src/project_src/Task1.c **** 
  20:/home/user/Desktop/STM32-Projekte/FH-Vertibot/src/project_src/Task1.c **** 
  21:/home/user/Desktop/STM32-Projekte/FH-Vertibot/src/project_src/Task1.c **** /************ ACC ***************/
  22:/home/user/Desktop/STM32-Projekte/FH-Vertibot/src/project_src/Task1.c **** struct accValues accXYZ = {0,0,0};
  23:/home/user/Desktop/STM32-Projekte/FH-Vertibot/src/project_src/Task1.c **** uint8_t accCount = 0;
  24:/home/user/Desktop/STM32-Projekte/FH-Vertibot/src/project_src/Task1.c **** 
  25:/home/user/Desktop/STM32-Projekte/FH-Vertibot/src/project_src/Task1.c **** floatFilter xAccFiltered_float;
  26:/home/user/Desktop/STM32-Projekte/FH-Vertibot/src/project_src/Task1.c **** floatFilter yAccFiltered_float;
  27:/home/user/Desktop/STM32-Projekte/FH-Vertibot/src/project_src/Task1.c **** floatFilter zAccFiltered_float;
  28:/home/user/Desktop/STM32-Projekte/FH-Vertibot/src/project_src/Task1.c **** 
  29:/home/user/Desktop/STM32-Projekte/FH-Vertibot/src/project_src/Task1.c **** 
  30:/home/user/Desktop/STM32-Projekte/FH-Vertibot/src/project_src/Task1.c **** /************ MAG ***************/
  31:/home/user/Desktop/STM32-Projekte/FH-Vertibot/src/project_src/Task1.c **** uint8_t magCount = 0;
  32:/home/user/Desktop/STM32-Projekte/FH-Vertibot/src/project_src/Task1.c **** struct magValues magXYZ = {0,0,0};
  33:/home/user/Desktop/STM32-Projekte/FH-Vertibot/src/project_src/Task1.c **** struct EULER_angles eulerTemp;
  34:/home/user/Desktop/STM32-Projekte/FH-Vertibot/src/project_src/Task1.c **** intFilter xMagFiltered = {0,0};
  35:/home/user/Desktop/STM32-Projekte/FH-Vertibot/src/project_src/Task1.c **** intFilter yMagFiltered = {0,0};
  36:/home/user/Desktop/STM32-Projekte/FH-Vertibot/src/project_src/Task1.c **** 
  37:/home/user/Desktop/STM32-Projekte/FH-Vertibot/src/project_src/Task1.c **** /************ Position Controller ***********/
  38:/home/user/Desktop/STM32-Projekte/FH-Vertibot/src/project_src/Task1.c **** uint16_t MOT0 = 0;
  39:/home/user/Desktop/STM32-Projekte/FH-Vertibot/src/project_src/Task1.c **** uint16_t MOT1 = 0;
  40:/home/user/Desktop/STM32-Projekte/FH-Vertibot/src/project_src/Task1.c **** 
  41:/home/user/Desktop/STM32-Projekte/FH-Vertibot/src/project_src/Task1.c **** PID_Control PID_Position;
  42:/home/user/Desktop/STM32-Projekte/FH-Vertibot/src/project_src/Task1.c **** SmitPredictor_Control Smith_Position;
  43:/home/user/Desktop/STM32-Projekte/FH-Vertibot/src/project_src/Task1.c **** 
  44:/home/user/Desktop/STM32-Projekte/FH-Vertibot/src/project_src/Task1.c **** 
  45:/home/user/Desktop/STM32-Projekte/FH-Vertibot/src/project_src/Task1.c **** void Init_PositionController(){
  26              		.loc 1 45 0
  27              		.cfi_startproc
  28              		@ args = 0, pretend = 0, frame = 0
  29              		@ frame_needed = 0, uses_anonymous_args = 0
  30 0000 1FB5     		push	{r0, r1, r2, r3, r4, lr}
  31              	.LCFI0:
  32              		.cfi_def_cfa_offset 24
  33              		.cfi_offset 0, -24
  34              		.cfi_offset 1, -20
  35              		.cfi_offset 2, -16
  36              		.cfi_offset 3, -12
  37              		.cfi_offset 4, -8
  38              		.cfi_offset 14, -4
  46:/home/user/Desktop/STM32-Projekte/FH-Vertibot/src/project_src/Task1.c **** 
  47:/home/user/Desktop/STM32-Projekte/FH-Vertibot/src/project_src/Task1.c **** 	init_PID(DT_S, 	GlobalSettings.PID_rollPitch.PID_kp,
  39              		.loc 1 47 0
  40 0002 0D4C     		ldr	r4, .L2
  41 0004 0D48     		ldr	r0, .L2+4
  42 0006 636B     		ldr	r3, [r4, #52]	@ float
  43 0008 A16A     		ldr	r1, [r4, #40]	@ float
  44 000a 0093     		str	r3, [sp, #0]	@ float
  45 000c 0C4B     		ldr	r3, .L2+8
  46 000e E26A     		ldr	r2, [r4, #44]	@ float
  47 0010 0193     		str	r3, [sp, #4]
  48 0012 236B     		ldr	r3, [r4, #48]	@ float
  49 0014 FFF7FEFF 		bl	init_PID
  50              	.LVL0:
  48:/home/user/Desktop/STM32-Projekte/FH-Vertibot/src/project_src/Task1.c **** 					GlobalSettings.PID_rollPitch.PID_ki,
  49:/home/user/Desktop/STM32-Projekte/FH-Vertibot/src/project_src/Task1.c **** 					GlobalSettings.PID_rollPitch.PID_kd,
  50:/home/user/Desktop/STM32-Projekte/FH-Vertibot/src/project_src/Task1.c **** 					GlobalSettings.PID_rollPitch.PID_kn, &PID_Position);
  51:/home/user/Desktop/STM32-Projekte/FH-Vertibot/src/project_src/Task1.c **** 
  52:/home/user/Desktop/STM32-Projekte/FH-Vertibot/src/project_src/Task1.c **** 
  53:/home/user/Desktop/STM32-Projekte/FH-Vertibot/src/project_src/Task1.c **** 	init_SmithPredictor(GlobalSettings.SmithPrediktor_rollPitch.a1, GlobalSettings.SmithPrediktor_roll
  51              		.loc 1 53 0
  52 0018 A36D     		ldr	r3, [r4, #88]	@ float
  53 001a 226D     		ldr	r2, [r4, #80]	@ float
  54 001c 0093     		str	r3, [sp, #0]	@ float
  55 001e E36D     		ldr	r3, [r4, #92]	@ float
  56 0020 A06C     		ldr	r0, [r4, #72]	@ float
  57 0022 0193     		str	r3, [sp, #4]	@ float
  58 0024 074B     		ldr	r3, .L2+12
  59 0026 E16C     		ldr	r1, [r4, #76]	@ float
  60 0028 0293     		str	r3, [sp, #8]
  61 002a 636D     		ldr	r3, [r4, #84]	@ float
  62 002c FFF7FEFF 		bl	init_SmithPredictor
  63              	.LVL1:
  54:/home/user/Desktop/STM32-Projekte/FH-Vertibot/src/project_src/Task1.c **** 						GlobalSettings.SmithPrediktor_rollPitch.b1, GlobalSettings.SmithPrediktor_rollPitch.b2,
  55:/home/user/Desktop/STM32-Projekte/FH-Vertibot/src/project_src/Task1.c **** 						GlobalSettings.SmithPrediktor_rollPitch.b3, GlobalSettings.SmithPrediktor_rollPitch.gain,
  56:/home/user/Desktop/STM32-Projekte/FH-Vertibot/src/project_src/Task1.c **** 						&Smith_Position);
  57:/home/user/Desktop/STM32-Projekte/FH-Vertibot/src/project_src/Task1.c **** 
  58:/home/user/Desktop/STM32-Projekte/FH-Vertibot/src/project_src/Task1.c **** 	CtrlStates.pitch = 0.0f;
  64              		.loc 1 58 0
  65 0030 054B     		ldr	r3, .L2+16
  66 0032 0022     		movs	r2, #0
  67 0034 1A60     		str	r2, [r3, #0]	@ float
  59:/home/user/Desktop/STM32-Projekte/FH-Vertibot/src/project_src/Task1.c **** 
  60:/home/user/Desktop/STM32-Projekte/FH-Vertibot/src/project_src/Task1.c **** }
  68              		.loc 1 60 0
  69 0036 1FBD     		pop	{r0, r1, r2, r3, r4, pc}
  70              	.L3:
  71              		.align	2
  72              	.L2:
  73 0038 00000000 		.word	GlobalSettings
  74 003c 0AD7A33B 		.word	1000593162
  75 0040 00000000 		.word	PID_Position
  76 0044 00000000 		.word	Smith_Position
  77 0048 00000000 		.word	CtrlStates
  78              		.cfi_endproc
  79              	.LFE111:
  81              		.global	__aeabi_i2f
  82              		.global	__aeabi_fmul
  83              		.global	__aeabi_fadd
  84              		.global	__aeabi_fcmpgt
  85              		.global	__aeabi_fcmplt
  86              		.global	__aeabi_f2d
  87              		.global	__aeabi_dsub
  88              		.global	__aeabi_d2f
  89              		.global	__aeabi_fsub
  90              		.align	1
  91              		.global	Init_IMU
  92              		.thumb
  93              		.thumb_func
  95              	Init_IMU:
  96              	.LFB112:
  61:/home/user/Desktop/STM32-Projekte/FH-Vertibot/src/project_src/Task1.c **** 
  62:/home/user/Desktop/STM32-Projekte/FH-Vertibot/src/project_src/Task1.c **** void Init_IMU(){
  97              		.loc 1 62 0
  98              		.cfi_startproc
  99              		@ args = 0, pretend = 0, frame = 8
 100              		@ frame_needed = 0, uses_anonymous_args = 0
 101 004c 2DE9F74F 		push	{r0, r1, r2, r4, r5, r6, r7, r8, r9, sl, fp, lr}
 102              	.LCFI1:
 103              		.cfi_def_cfa_offset 48
 104              		.cfi_offset 0, -48
 105              		.cfi_offset 1, -44
 106              		.cfi_offset 2, -40
 107              		.cfi_offset 4, -36
 108              		.cfi_offset 5, -32
 109              		.cfi_offset 6, -28
 110              		.cfi_offset 7, -24
 111              		.cfi_offset 8, -20
 112              		.cfi_offset 9, -16
 113              		.cfi_offset 10, -12
 114              		.cfi_offset 11, -8
 115              		.cfi_offset 14, -4
  63:/home/user/Desktop/STM32-Projekte/FH-Vertibot/src/project_src/Task1.c **** 
  64:/home/user/Desktop/STM32-Projekte/FH-Vertibot/src/project_src/Task1.c **** 
  65:/home/user/Desktop/STM32-Projekte/FH-Vertibot/src/project_src/Task1.c **** 	memset(&xGyroFiltered_float, 0, sizeof(xGyroFiltered_float));
 116              		.loc 1 65 0
 117 0050 0021     		movs	r1, #0
 118 0052 2C22     		movs	r2, #44
 119 0054 9248     		ldr	r0, .L39+8
 120 0056 FFF7FEFF 		bl	memset
 121              	.LVL2:
  66:/home/user/Desktop/STM32-Projekte/FH-Vertibot/src/project_src/Task1.c **** 	memset(&yGyroFiltered_float, 0, sizeof(yGyroFiltered_float));
 122              		.loc 1 66 0
 123 005a 0021     		movs	r1, #0
 124 005c 2C22     		movs	r2, #44
 125 005e 9148     		ldr	r0, .L39+12
 126 0060 FFF7FEFF 		bl	memset
 127              	.LVL3:
  67:/home/user/Desktop/STM32-Projekte/FH-Vertibot/src/project_src/Task1.c **** 	memset(&zGyroFiltered_float, 0, sizeof(zGyroFiltered_float));
 128              		.loc 1 67 0
 129 0064 0021     		movs	r1, #0
 130 0066 2C22     		movs	r2, #44
 131 0068 8F48     		ldr	r0, .L39+16
 132 006a FFF7FEFF 		bl	memset
 133              	.LVL4:
  68:/home/user/Desktop/STM32-Projekte/FH-Vertibot/src/project_src/Task1.c **** 
  69:/home/user/Desktop/STM32-Projekte/FH-Vertibot/src/project_src/Task1.c **** 
  70:/home/user/Desktop/STM32-Projekte/FH-Vertibot/src/project_src/Task1.c **** 	memset(&xAccFiltered_float, 0, sizeof(xAccFiltered_float));
 134              		.loc 1 70 0
 135 006e 0021     		movs	r1, #0
 136 0070 2C22     		movs	r2, #44
 137 0072 8E48     		ldr	r0, .L39+20
 138 0074 FFF7FEFF 		bl	memset
 139              	.LVL5:
  71:/home/user/Desktop/STM32-Projekte/FH-Vertibot/src/project_src/Task1.c **** 	memset(&yAccFiltered_float, 0, sizeof(yAccFiltered_float));
 140              		.loc 1 71 0
 141 0078 0021     		movs	r1, #0
 142 007a 2C22     		movs	r2, #44
 143 007c 8C48     		ldr	r0, .L39+24
 144 007e FFF7FEFF 		bl	memset
 145              	.LVL6:
  72:/home/user/Desktop/STM32-Projekte/FH-Vertibot/src/project_src/Task1.c **** 	memset(&zAccFiltered_float, 0, sizeof(zAccFiltered_float));
 146              		.loc 1 72 0
 147 0082 0021     		movs	r1, #0
 148 0084 2C22     		movs	r2, #44
 149 0086 8B48     		ldr	r0, .L39+28
 150 0088 FFF7FEFF 		bl	memset
 151              	.LVL7:
  73:/home/user/Desktop/STM32-Projekte/FH-Vertibot/src/project_src/Task1.c **** 
  74:/home/user/Desktop/STM32-Projekte/FH-Vertibot/src/project_src/Task1.c **** 
  75:/home/user/Desktop/STM32-Projekte/FH-Vertibot/src/project_src/Task1.c **** 	/*Initialize the DCM-variables*/
  76:/home/user/Desktop/STM32-Projekte/FH-Vertibot/src/project_src/Task1.c **** 	IMU_init(&IMU, DT_S);
 152              		.loc 1 76 0
 153 008c 8A48     		ldr	r0, .L39+32
 154 008e 8B49     		ldr	r1, .L39+36
 155 0090 FFF7FEFF 		bl	IMU_init
 156              	.LVL8:
  77:/home/user/Desktop/STM32-Projekte/FH-Vertibot/src/project_src/Task1.c **** 
  78:/home/user/Desktop/STM32-Projekte/FH-Vertibot/src/project_src/Task1.c **** 	if(GlobalSettings.enableDriftCorrection)
 157              		.loc 1 78 0
 158 0094 8A4B     		ldr	r3, .L39+40
 159 0096 9B7A     		ldrb	r3, [r3, #10]	@ zero_extendqisi2
 160 0098 1BB1     		cbz	r3, .L17
  79:/home/user/Desktop/STM32-Projekte/FH-Vertibot/src/project_src/Task1.c **** 	{
  80:/home/user/Desktop/STM32-Projekte/FH-Vertibot/src/project_src/Task1.c **** 		IMU_init_drift_correction(&IMU, 0.00040f);  //0.00020f/*kp-value*/);
 161              		.loc 1 80 0
 162 009a 8748     		ldr	r0, .L39+32
 163 009c 8949     		ldr	r1, .L39+44
 164 009e FFF7FEFF 		bl	IMU_init_drift_correction
 165              	.LVL9:
 166              	.L17:
 167 00a2 0026     		movs	r6, #0
 168              	.L37:
  81:/home/user/Desktop/STM32-Projekte/FH-Vertibot/src/project_src/Task1.c **** 	}
  82:/home/user/Desktop/STM32-Projekte/FH-Vertibot/src/project_src/Task1.c **** 
  83:/home/user/Desktop/STM32-Projekte/FH-Vertibot/src/project_src/Task1.c **** 	while(1)
  84:/home/user/Desktop/STM32-Projekte/FH-Vertibot/src/project_src/Task1.c **** 	{
  85:/home/user/Desktop/STM32-Projekte/FH-Vertibot/src/project_src/Task1.c **** 		Gyro_calibrate(&gyroOffset);
 169              		.loc 1 85 0
 170 00a4 884C     		ldr	r4, .L39+48
 171 00a6 2046     		mov	r0, r4
 172 00a8 FFF7FEFF 		bl	Gyro_calibrate
 173              	.LVL10:
  86:/home/user/Desktop/STM32-Projekte/FH-Vertibot/src/project_src/Task1.c **** 		for (i = 0;i<5000;i++)
 174              		.loc 1 86 0
 175 00ac 0023     		movs	r3, #0
 176 00ae 3BE0     		b	.L38
 177              	.L7:
  87:/home/user/Desktop/STM32-Projekte/FH-Vertibot/src/project_src/Task1.c **** 		{
  88:/home/user/Desktop/STM32-Projekte/FH-Vertibot/src/project_src/Task1.c **** 			Gyro_readValues(&gyroXYZ);
 178              		.loc 1 88 0 discriminator 2
 179 00b0 8648     		ldr	r0, .L39+52
 180 00b2 FFF7FEFF 		bl	Gyro_readValues
 181              	.LVL11:
  89:/home/user/Desktop/STM32-Projekte/FH-Vertibot/src/project_src/Task1.c **** 			gyroXYZ.gyroValueX = ((gyroXYZ.gyroValueX-gyroOffset.gyroValueX));
 182              		.loc 1 89 0 discriminator 2
 183 00b6 2089     		ldrh	r0, [r4, #8]
 184 00b8 2388     		ldrh	r3, [r4, #0]
  90:/home/user/Desktop/STM32-Projekte/FH-Vertibot/src/project_src/Task1.c **** 			gyroXYZ.gyroValueY = ((gyroXYZ.gyroValueY-gyroOffset.gyroValueY));
 185              		.loc 1 90 0 discriminator 2
 186 00ba 6289     		ldrh	r2, [r4, #10]
  89:/home/user/Desktop/STM32-Projekte/FH-Vertibot/src/project_src/Task1.c **** 			gyroXYZ.gyroValueX = ((gyroXYZ.gyroValueX-gyroOffset.gyroValueX));
 187              		.loc 1 89 0 discriminator 2
 188 00bc C01A     		subs	r0, r0, r3
 189              		.loc 1 90 0 discriminator 2
 190 00be 6388     		ldrh	r3, [r4, #2]
  89:/home/user/Desktop/STM32-Projekte/FH-Vertibot/src/project_src/Task1.c **** 			gyroXYZ.gyroValueX = ((gyroXYZ.gyroValueX-gyroOffset.gyroValueX));
 191              		.loc 1 89 0 discriminator 2
 192 00c0 2081     		strh	r0, [r4, #8]	@ movhi
 193              		.loc 1 90 0 discriminator 2
 194 00c2 D31A     		subs	r3, r2, r3
 195 00c4 6381     		strh	r3, [r4, #10]	@ movhi
  91:/home/user/Desktop/STM32-Projekte/FH-Vertibot/src/project_src/Task1.c **** 			gyroXYZ.gyroValueZ = ((gyroXYZ.gyroValueZ-gyroOffset.gyroValueZ));
 196              		.loc 1 91 0 discriminator 2
 197 00c6 A289     		ldrh	r2, [r4, #12]
 198 00c8 A388     		ldrh	r3, [r4, #4]
  92:/home/user/Desktop/STM32-Projekte/FH-Vertibot/src/project_src/Task1.c **** 
  93:/home/user/Desktop/STM32-Projekte/FH-Vertibot/src/project_src/Task1.c **** 			IMU.velocity_vector[GlobalSettings.gyroDir.sensOrder[sensX]] += ((float)gyroXYZ.gyroValueX*GYROC
 199              		.loc 1 93 0 discriminator 2
 200 00ca 00B2     		sxth	r0, r0
  91:/home/user/Desktop/STM32-Projekte/FH-Vertibot/src/project_src/Task1.c **** 			gyroXYZ.gyroValueZ = ((gyroXYZ.gyroValueZ-gyroOffset.gyroValueZ));
 201              		.loc 1 91 0 discriminator 2
 202 00cc D31A     		subs	r3, r2, r3
 203 00ce A381     		strh	r3, [r4, #12]	@ movhi
 204              		.loc 1 93 0 discriminator 2
 205 00d0 FFF7FEFF 		bl	__aeabi_i2f
 206              	.LVL12:
 207 00d4 7E49     		ldr	r1, .L39+56
 208 00d6 FFF7FEFF 		bl	__aeabi_fmul
 209              	.LVL13:
 210 00da 7849     		ldr	r1, .L39+36
 211 00dc FFF7FEFF 		bl	__aeabi_fmul
 212              	.LVL14:
 213 00e0 774F     		ldr	r7, .L39+40
 214 00e2 754D     		ldr	r5, .L39+32
 215 00e4 97F80490 		ldrb	r9, [r7, #4]	@ zero_extendqisi2
 216 00e8 8046     		mov	r8, r0
 217 00ea 09F10A09 		add	r9, r9, #10
 218 00ee 55F82900 		ldr	r0, [r5, r9, lsl #2]	@ float
 219 00f2 4146     		mov	r1, r8
 220 00f4 FFF7FEFF 		bl	__aeabi_fadd
 221              	.LVL15:
 222 00f8 45F82900 		str	r0, [r5, r9, lsl #2]	@ float
  94:/home/user/Desktop/STM32-Projekte/FH-Vertibot/src/project_src/Task1.c **** 			IMU.velocity_vector[GlobalSettings.gyroDir.sensOrder[sensY]] += ((float)gyroXYZ.gyroValueX*GYROC
 223              		.loc 1 94 0 discriminator 2
 224 00fc 97F80590 		ldrb	r9, [r7, #5]	@ zero_extendqisi2
 225 0100 4146     		mov	r1, r8
 226 0102 09F10A09 		add	r9, r9, #10
 227 0106 55F82900 		ldr	r0, [r5, r9, lsl #2]	@ float
 228 010a FFF7FEFF 		bl	__aeabi_fadd
 229              	.LVL16:
  95:/home/user/Desktop/STM32-Projekte/FH-Vertibot/src/project_src/Task1.c **** 			IMU.velocity_vector[GlobalSettings.gyroDir.sensOrder[sensZ]] += ((float)gyroXYZ.gyroValueX*GYROC
 230              		.loc 1 95 0 discriminator 2
 231 010e BF79     		ldrb	r7, [r7, #6]	@ zero_extendqisi2
  94:/home/user/Desktop/STM32-Projekte/FH-Vertibot/src/project_src/Task1.c **** 			IMU.velocity_vector[GlobalSettings.gyroDir.sensOrder[sensY]] += ((float)gyroXYZ.gyroValueX*GYROC
 232              		.loc 1 94 0 discriminator 2
 233 0110 45F82900 		str	r0, [r5, r9, lsl #2]	@ float
 234              		.loc 1 95 0 discriminator 2
 235 0114 0A37     		adds	r7, r7, #10
 236 0116 55F82700 		ldr	r0, [r5, r7, lsl #2]	@ float
 237 011a 4146     		mov	r1, r8
 238 011c FFF7FEFF 		bl	__aeabi_fadd
 239              	.LVL17:
  86:/home/user/Desktop/STM32-Projekte/FH-Vertibot/src/project_src/Task1.c **** 		for (i = 0;i<5000;i++)
 240              		.loc 1 86 0 discriminator 2
 241 0120 E388     		ldrh	r3, [r4, #6]
 242              		.loc 1 95 0 discriminator 2
 243 0122 45F82700 		str	r0, [r5, r7, lsl #2]	@ float
  86:/home/user/Desktop/STM32-Projekte/FH-Vertibot/src/project_src/Task1.c **** 		for (i = 0;i<5000;i++)
 244              		.loc 1 86 0 discriminator 2
 245 0126 0133     		adds	r3, r3, #1
 246              	.L38:
 247 0128 E380     		strh	r3, [r4, #6]	@ movhi
 248 012a E288     		ldrh	r2, [r4, #6]
 249 012c 41F28733 		movw	r3, #4999
 250 0130 9A42     		cmp	r2, r3
 251 0132 BDD9     		bls	.L7
  96:/home/user/Desktop/STM32-Projekte/FH-Vertibot/src/project_src/Task1.c **** 		}
  97:/home/user/Desktop/STM32-Projekte/FH-Vertibot/src/project_src/Task1.c **** 		//vTaskDelayUntil( &xNextWakeTime, DT );
  98:/home/user/Desktop/STM32-Projekte/FH-Vertibot/src/project_src/Task1.c **** 		GPIOC->ODR ^= GPIO_Pin_11;
 252              		.loc 1 98 0
 253 0134 674B     		ldr	r3, .L39+60
  99:/home/user/Desktop/STM32-Projekte/FH-Vertibot/src/project_src/Task1.c **** 		vTaskDelay( 1000 );
 100:/home/user/Desktop/STM32-Projekte/FH-Vertibot/src/project_src/Task1.c **** 
 101:/home/user/Desktop/STM32-Projekte/FH-Vertibot/src/project_src/Task1.c **** 		if((IMU.velocity_vector[GlobalSettings.gyroDir.sensOrder[sensX]] > -MAX_GYRO_ERROR) && (IMU.veloc
 254              		.loc 1 101 0
 255 0136 624D     		ldr	r5, .L39+40
  98:/home/user/Desktop/STM32-Projekte/FH-Vertibot/src/project_src/Task1.c **** 		GPIOC->ODR ^= GPIO_Pin_11;
 256              		.loc 1 98 0
 257 0138 9A8A     		ldrh	r2, [r3, #20]
  99:/home/user/Desktop/STM32-Projekte/FH-Vertibot/src/project_src/Task1.c **** 		vTaskDelay( 1000 );
 258              		.loc 1 99 0
 259 013a 4FF47A70 		mov	r0, #1000
  98:/home/user/Desktop/STM32-Projekte/FH-Vertibot/src/project_src/Task1.c **** 		GPIOC->ODR ^= GPIO_Pin_11;
 260              		.loc 1 98 0
 261 013e 92B2     		uxth	r2, r2
 262 0140 82F40062 		eor	r2, r2, #2048
 263 0144 9A82     		strh	r2, [r3, #20]	@ movhi
  99:/home/user/Desktop/STM32-Projekte/FH-Vertibot/src/project_src/Task1.c **** 		vTaskDelay( 1000 );
 264              		.loc 1 99 0
 265 0146 FFF7FEFF 		bl	vTaskDelay
 266              	.LVL18:
 267              		.loc 1 101 0
 268 014a 95F80480 		ldrb	r8, [r5, #4]	@ zero_extendqisi2
 269 014e 5A4C     		ldr	r4, .L39+32
 270 0150 08F10A0B 		add	fp, r8, #10
 271 0154 54F82B90 		ldr	r9, [r4, fp, lsl #2]	@ float
 272 0158 5F49     		ldr	r1, .L39+64
 273 015a 4846     		mov	r0, r9
 274 015c FFF7FEFF 		bl	__aeabi_fcmpgt
 275              	.LVL19:
 276 0160 0027     		movs	r7, #0
 277 0162 78B3     		cbz	r0, .L8
 278              		.loc 1 101 0 is_stmt 0 discriminator 1
 279 0164 4846     		mov	r0, r9
 280 0166 5D49     		ldr	r1, .L39+68
 281 0168 FFF7FEFF 		bl	__aeabi_fcmplt
 282              	.LVL20:
 283 016c 50B3     		cbz	r0, .L8
 102:/home/user/Desktop/STM32-Projekte/FH-Vertibot/src/project_src/Task1.c **** 		   (IMU.velocity_vector[GlobalSettings.gyroDir.sensOrder[sensY]] > -MAX_GYRO_ERROR) && (IMU.veloc
 284              		.loc 1 102 0 is_stmt 1 discriminator 1
 285 016e 95F805A0 		ldrb	sl, [r5, #5]	@ zero_extendqisi2
 101:/home/user/Desktop/STM32-Projekte/FH-Vertibot/src/project_src/Task1.c **** 		if((IMU.velocity_vector[GlobalSettings.gyroDir.sensOrder[sensX]] > -MAX_GYRO_ERROR) && (IMU.veloc
 286              		.loc 1 101 0 discriminator 1
 287 0172 5949     		ldr	r1, .L39+64
 288              		.loc 1 102 0 discriminator 1
 289 0174 0AF10A0A 		add	sl, sl, #10
 290 0178 54F82A90 		ldr	r9, [r4, sl, lsl #2]	@ float
 101:/home/user/Desktop/STM32-Projekte/FH-Vertibot/src/project_src/Task1.c **** 		if((IMU.velocity_vector[GlobalSettings.gyroDir.sensOrder[sensX]] > -MAX_GYRO_ERROR) && (IMU.veloc
 291              		.loc 1 101 0 discriminator 1
 292 017c 4846     		mov	r0, r9
 293 017e FFF7FEFF 		bl	__aeabi_fcmpgt
 294              	.LVL21:
 295 0182 F8B1     		cbz	r0, .L8
 296              		.loc 1 102 0
 297 0184 4846     		mov	r0, r9
 298 0186 5549     		ldr	r1, .L39+68
 299 0188 FFF7FEFF 		bl	__aeabi_fcmplt
 300              	.LVL22:
 301 018c D0B1     		cbz	r0, .L8
 103:/home/user/Desktop/STM32-Projekte/FH-Vertibot/src/project_src/Task1.c **** 		   (IMU.velocity_vector[GlobalSettings.gyroDir.sensOrder[sensZ]] > -MAX_GYRO_ERROR) && (IMU.veloc
 302              		.loc 1 103 0 discriminator 1
 303 018e 95F80690 		ldrb	r9, [r5, #6]	@ zero_extendqisi2
 102:/home/user/Desktop/STM32-Projekte/FH-Vertibot/src/project_src/Task1.c **** 		   (IMU.velocity_vector[GlobalSettings.gyroDir.sensOrder[sensY]] > -MAX_GYRO_ERROR) && (IMU.veloc
 304              		.loc 1 102 0 discriminator 1
 305 0192 5149     		ldr	r1, .L39+64
 306              		.loc 1 103 0 discriminator 1
 307 0194 09F10A09 		add	r9, r9, #10
 308 0198 54F82930 		ldr	r3, [r4, r9, lsl #2]	@ float
 102:/home/user/Desktop/STM32-Projekte/FH-Vertibot/src/project_src/Task1.c **** 		   (IMU.velocity_vector[GlobalSettings.gyroDir.sensOrder[sensY]] > -MAX_GYRO_ERROR) && (IMU.veloc
 309              		.loc 1 102 0 discriminator 1
 310 019c 1846     		mov	r0, r3
 311 019e 0193     		str	r3, [sp, #4]
 312 01a0 FFF7FEFF 		bl	__aeabi_fcmpgt
 313              	.LVL23:
 314 01a4 019B     		ldr	r3, [sp, #4]
 315 01a6 68B1     		cbz	r0, .L8
 316              		.loc 1 103 0
 317 01a8 1846     		mov	r0, r3
 318 01aa 4C49     		ldr	r1, .L39+68
 319 01ac FFF7FEFF 		bl	__aeabi_fcmplt
 320              	.LVL24:
 321 01b0 40B1     		cbz	r0, .L8
 104:/home/user/Desktop/STM32-Projekte/FH-Vertibot/src/project_src/Task1.c **** 		{
 105:/home/user/Desktop/STM32-Projekte/FH-Vertibot/src/project_src/Task1.c **** 			IMU.velocity_vector[GlobalSettings.gyroDir.sensOrder[sensX]] = 0;
 106:/home/user/Desktop/STM32-Projekte/FH-Vertibot/src/project_src/Task1.c **** 			IMU.velocity_vector[GlobalSettings.gyroDir.sensOrder[sensY]] = 0;
 107:/home/user/Desktop/STM32-Projekte/FH-Vertibot/src/project_src/Task1.c **** 			IMU.velocity_vector[GlobalSettings.gyroDir.sensOrder[sensZ]] = 0;
 108:/home/user/Desktop/STM32-Projekte/FH-Vertibot/src/project_src/Task1.c **** 			break;
 109:/home/user/Desktop/STM32-Projekte/FH-Vertibot/src/project_src/Task1.c **** 		}
 110:/home/user/Desktop/STM32-Projekte/FH-Vertibot/src/project_src/Task1.c **** 		IMU.velocity_vector[GlobalSettings.gyroDir.sensOrder[sensX]] = 0;
 111:/home/user/Desktop/STM32-Projekte/FH-Vertibot/src/project_src/Task1.c **** 		IMU.velocity_vector[GlobalSettings.gyroDir.sensOrder[sensY]] = 0;
 112:/home/user/Desktop/STM32-Projekte/FH-Vertibot/src/project_src/Task1.c **** 		IMU.velocity_vector[GlobalSettings.gyroDir.sensOrder[sensZ]] = 0;
 113:/home/user/Desktop/STM32-Projekte/FH-Vertibot/src/project_src/Task1.c **** 		printf("Error Gyro Test!\n\r");
 114:/home/user/Desktop/STM32-Projekte/FH-Vertibot/src/project_src/Task1.c **** 	}
 115:/home/user/Desktop/STM32-Projekte/FH-Vertibot/src/project_src/Task1.c **** 
 116:/home/user/Desktop/STM32-Projekte/FH-Vertibot/src/project_src/Task1.c **** 	if(GlobalSettings.enableACC)
 322              		.loc 1 116 0
 323 01b2 EB7A     		ldrb	r3, [r5, #11]	@ zero_extendqisi2
 105:/home/user/Desktop/STM32-Projekte/FH-Vertibot/src/project_src/Task1.c **** 			IMU.velocity_vector[GlobalSettings.gyroDir.sensOrder[sensX]] = 0;
 324              		.loc 1 105 0
 325 01b4 44F82B70 		str	r7, [r4, fp, lsl #2]	@ float
 106:/home/user/Desktop/STM32-Projekte/FH-Vertibot/src/project_src/Task1.c **** 			IMU.velocity_vector[GlobalSettings.gyroDir.sensOrder[sensY]] = 0;
 326              		.loc 1 106 0
 327 01b8 44F82A70 		str	r7, [r4, sl, lsl #2]	@ float
 107:/home/user/Desktop/STM32-Projekte/FH-Vertibot/src/project_src/Task1.c **** 			IMU.velocity_vector[GlobalSettings.gyroDir.sensOrder[sensZ]] = 0;
 328              		.loc 1 107 0
 329 01bc 44F82970 		str	r7, [r4, r9, lsl #2]	@ float
 330              		.loc 1 116 0
 331 01c0 B3B1     		cbz	r3, .L16
 332 01c2 11E0     		b	.L15
 333              	.L8:
 111:/home/user/Desktop/STM32-Projekte/FH-Vertibot/src/project_src/Task1.c **** 		IMU.velocity_vector[GlobalSettings.gyroDir.sensOrder[sensY]] = 0;
 334              		.loc 1 111 0
 335 01c4 3E4A     		ldr	r2, .L39+40
 110:/home/user/Desktop/STM32-Projekte/FH-Vertibot/src/project_src/Task1.c **** 		IMU.velocity_vector[GlobalSettings.gyroDir.sensOrder[sensX]] = 0;
 336              		.loc 1 110 0
 337 01c6 3C4B     		ldr	r3, .L39+32
 111:/home/user/Desktop/STM32-Projekte/FH-Vertibot/src/project_src/Task1.c **** 		IMU.velocity_vector[GlobalSettings.gyroDir.sensOrder[sensY]] = 0;
 338              		.loc 1 111 0
 339 01c8 5179     		ldrb	r1, [r2, #5]	@ zero_extendqisi2
 112:/home/user/Desktop/STM32-Projekte/FH-Vertibot/src/project_src/Task1.c **** 		IMU.velocity_vector[GlobalSettings.gyroDir.sensOrder[sensZ]] = 0;
 340              		.loc 1 112 0
 341 01ca 9279     		ldrb	r2, [r2, #6]	@ zero_extendqisi2
 110:/home/user/Desktop/STM32-Projekte/FH-Vertibot/src/project_src/Task1.c **** 		IMU.velocity_vector[GlobalSettings.gyroDir.sensOrder[sensX]] = 0;
 342              		.loc 1 110 0
 343 01cc 08F10A08 		add	r8, r8, #10
 111:/home/user/Desktop/STM32-Projekte/FH-Vertibot/src/project_src/Task1.c **** 		IMU.velocity_vector[GlobalSettings.gyroDir.sensOrder[sensY]] = 0;
 344              		.loc 1 111 0
 345 01d0 0A31     		adds	r1, r1, #10
 112:/home/user/Desktop/STM32-Projekte/FH-Vertibot/src/project_src/Task1.c **** 		IMU.velocity_vector[GlobalSettings.gyroDir.sensOrder[sensZ]] = 0;
 346              		.loc 1 112 0
 347 01d2 0A32     		adds	r2, r2, #10
 113:/home/user/Desktop/STM32-Projekte/FH-Vertibot/src/project_src/Task1.c **** 		printf("Error Gyro Test!\n\r");
 348              		.loc 1 113 0
 349 01d4 4248     		ldr	r0, .L39+72
 110:/home/user/Desktop/STM32-Projekte/FH-Vertibot/src/project_src/Task1.c **** 		IMU.velocity_vector[GlobalSettings.gyroDir.sensOrder[sensX]] = 0;
 350              		.loc 1 110 0
 351 01d6 43F82860 		str	r6, [r3, r8, lsl #2]	@ float
 111:/home/user/Desktop/STM32-Projekte/FH-Vertibot/src/project_src/Task1.c **** 		IMU.velocity_vector[GlobalSettings.gyroDir.sensOrder[sensY]] = 0;
 352              		.loc 1 111 0
 353 01da 43F82160 		str	r6, [r3, r1, lsl #2]	@ float
 112:/home/user/Desktop/STM32-Projekte/FH-Vertibot/src/project_src/Task1.c **** 		IMU.velocity_vector[GlobalSettings.gyroDir.sensOrder[sensZ]] = 0;
 354              		.loc 1 112 0
 355 01de 43F82260 		str	r6, [r3, r2, lsl #2]	@ float
 113:/home/user/Desktop/STM32-Projekte/FH-Vertibot/src/project_src/Task1.c **** 		printf("Error Gyro Test!\n\r");
 356              		.loc 1 113 0
 357 01e2 FFF7FEFF 		bl	printf
 358              	.LVL25:
 114:/home/user/Desktop/STM32-Projekte/FH-Vertibot/src/project_src/Task1.c **** 	}
 359              		.loc 1 114 0
 360 01e6 5DE7     		b	.L37
 361              	.L15:
 117:/home/user/Desktop/STM32-Projekte/FH-Vertibot/src/project_src/Task1.c **** 	{
 118:/home/user/Desktop/STM32-Projekte/FH-Vertibot/src/project_src/Task1.c **** 		//ADXL345_calibrate(GlobalSettings.accMaxGOverflow, &accXYZ);
 119:/home/user/Desktop/STM32-Projekte/FH-Vertibot/src/project_src/Task1.c **** 		LSM303DLHC_ACC_calibrate(GlobalSettings.accMaxGOverflow, &accXYZ);
 362              		.loc 1 119 0
 363 01e8 6869     		ldr	r0, [r5, #20]	@ float
 364 01ea 3E49     		ldr	r1, .L39+76
 365 01ec FFF7FEFF 		bl	LSM303DLHC_ACC_calibrate
 366              	.LVL26:
 367              	.L16:
 120:/home/user/Desktop/STM32-Projekte/FH-Vertibot/src/project_src/Task1.c **** 	}
 121:/home/user/Desktop/STM32-Projekte/FH-Vertibot/src/project_src/Task1.c **** 
 122:/home/user/Desktop/STM32-Projekte/FH-Vertibot/src/project_src/Task1.c **** 	if(GlobalSettings.enableMAG)
 368              		.loc 1 122 0
 369 01f0 334B     		ldr	r3, .L39+40
 370 01f2 1B7E     		ldrb	r3, [r3, #24]	@ zero_extendqisi2
 371 01f4 002B     		cmp	r3, #0
 372 01f6 48D0     		beq	.L18
 123:/home/user/Desktop/STM32-Projekte/FH-Vertibot/src/project_src/Task1.c **** 	{
 124:/home/user/Desktop/STM32-Projekte/FH-Vertibot/src/project_src/Task1.c **** 		Mag_calibrate();
 125:/home/user/Desktop/STM32-Projekte/FH-Vertibot/src/project_src/Task1.c **** 		vTaskDelay( 200 );
 126:/home/user/Desktop/STM32-Projekte/FH-Vertibot/src/project_src/Task1.c **** 		Mag_readValues(&magXYZ);
 373              		.loc 1 126 0
 374 01f8 334E     		ldr	r6, .L39+48
 124:/home/user/Desktop/STM32-Projekte/FH-Vertibot/src/project_src/Task1.c **** 		Mag_calibrate();
 375              		.loc 1 124 0
 376 01fa FFF7FEFF 		bl	Mag_calibrate
 377              	.LVL27:
 125:/home/user/Desktop/STM32-Projekte/FH-Vertibot/src/project_src/Task1.c **** 		vTaskDelay( 200 );
 378              		.loc 1 125 0
 379 01fe C820     		movs	r0, #200
 380 0200 FFF7FEFF 		bl	vTaskDelay
 381              	.LVL28:
 382              		.loc 1 126 0
 383 0204 06F11C00 		add	r0, r6, #28
 384 0208 FFF7FEFF 		bl	Mag_readValues
 385              	.LVL29:
 127:/home/user/Desktop/STM32-Projekte/FH-Vertibot/src/project_src/Task1.c **** 		eulerTemp.yaw = atan2((float)(-magXYZ.magValueX),(float)(magXYZ.magValueY))-1.5707;
 386              		.loc 1 127 0
 387 020c B6F91C00 		ldrsh	r0, [r6, #28]
 388 0210 4042     		negs	r0, r0
 389 0212 FFF7FEFF 		bl	__aeabi_i2f
 390              	.LVL30:
 391 0216 FFF7FEFF 		bl	__aeabi_f2d
 392              	.LVL31:
 393 021a 0446     		mov	r4, r0
 394 021c B6F91E00 		ldrsh	r0, [r6, #30]
 395 0220 0D46     		mov	r5, r1
 396 0222 FFF7FEFF 		bl	__aeabi_i2f
 397              	.LVL32:
 398 0226 FFF7FEFF 		bl	__aeabi_f2d
 399              	.LVL33:
 400 022a 0246     		mov	r2, r0
 401 022c 0B46     		mov	r3, r1
 402 022e 2046     		mov	r0, r4
 403 0230 2946     		mov	r1, r5
 404 0232 FFF7FEFF 		bl	atan2
 405              	.LVL34:
 406 0236 18A3     		adr	r3, .L39
 407 0238 D3E90023 		ldrd	r2, [r3]
 408 023c FFF7FEFF 		bl	__aeabi_dsub
 409              	.LVL35:
 410 0240 FFF7FEFF 		bl	__aeabi_d2f
 411              	.LVL36:
 412 0244 284B     		ldr	r3, .L39+80
 128:/home/user/Desktop/STM32-Projekte/FH-Vertibot/src/project_src/Task1.c **** 		CtrlStates.yaw = -eulerTemp.yaw*(180/M_PI);
 413              		.loc 1 128 0
 414 0246 2949     		ldr	r1, .L39+84
 127:/home/user/Desktop/STM32-Projekte/FH-Vertibot/src/project_src/Task1.c **** 		eulerTemp.yaw = atan2((float)(-magXYZ.magValueX),(float)(magXYZ.magValueY))-1.5707;
 415              		.loc 1 127 0
 416 0248 9860     		str	r0, [r3, #8]	@ float
 417              		.loc 1 128 0
 418 024a 00F10040 		add	r0, r0, #-2147483648
 419 024e FFF7FEFF 		bl	__aeabi_fmul
 420              	.LVL37:
 421 0252 274C     		ldr	r4, .L39+88
 129:/home/user/Desktop/STM32-Projekte/FH-Vertibot/src/project_src/Task1.c **** 		/* The yaw value needs a special handling */
 130:/home/user/Desktop/STM32-Projekte/FH-Vertibot/src/project_src/Task1.c **** 		if(CtrlStates.yaw > 180) CtrlStates.yaw -= 360;
 422              		.loc 1 130 0
 423 0254 2749     		ldr	r1, .L39+92
 128:/home/user/Desktop/STM32-Projekte/FH-Vertibot/src/project_src/Task1.c **** 		CtrlStates.yaw = -eulerTemp.yaw*(180/M_PI);
 424              		.loc 1 128 0
 425 0256 6060     		str	r0, [r4, #4]	@ float
 426 0258 0546     		mov	r5, r0
 427              		.loc 1 130 0
 428 025a FFF7FEFF 		bl	__aeabi_fcmpgt
 429              	.LVL38:
 430 025e 20B1     		cbz	r0, .L19
 431              		.loc 1 130 0 is_stmt 0 discriminator 1
 432 0260 2846     		mov	r0, r5
 433 0262 2549     		ldr	r1, .L39+96
 434 0264 FFF7FEFF 		bl	__aeabi_fsub
 435              	.LVL39:
 436 0268 6060     		str	r0, [r4, #4]	@ float
 437              	.L19:
 131:/home/user/Desktop/STM32-Projekte/FH-Vertibot/src/project_src/Task1.c **** 		if(CtrlStates.yaw < -180) CtrlStates.yaw += 360;
 438              		.loc 1 131 0 is_stmt 1
 439 026a 6468     		ldr	r4, [r4, #4]	@ float
 440 026c 2349     		ldr	r1, .L39+100
 441 026e 2046     		mov	r0, r4
 442 0270 FFF7FEFF 		bl	__aeabi_fcmplt
 443              	.LVL40:
 444 0274 28B1     		cbz	r0, .L21
 445              		.loc 1 131 0 is_stmt 0 discriminator 1
 446 0276 2046     		mov	r0, r4
 447 0278 1F49     		ldr	r1, .L39+96
 448 027a FFF7FEFF 		bl	__aeabi_fadd
 449              	.LVL41:
 450 027e 1C4B     		ldr	r3, .L39+88
 451 0280 5860     		str	r0, [r3, #4]	@ float
 452              	.L21:
 132:/home/user/Desktop/STM32-Projekte/FH-Vertibot/src/project_src/Task1.c **** 		IMU_Euler_to_DCM(&IMU, &eulerTemp);
 453              		.loc 1 132 0 is_stmt 1
 454 0282 0D48     		ldr	r0, .L39+32
 455 0284 1849     		ldr	r1, .L39+80
 456 0286 FFF7FEFF 		bl	IMU_Euler_to_DCM
 457              	.LVL42:
 458              	.L18:
 133:/home/user/Desktop/STM32-Projekte/FH-Vertibot/src/project_src/Task1.c **** 	}
 134:/home/user/Desktop/STM32-Projekte/FH-Vertibot/src/project_src/Task1.c **** 
 135:/home/user/Desktop/STM32-Projekte/FH-Vertibot/src/project_src/Task1.c **** 	/* Set the START Flag! */
 136:/home/user/Desktop/STM32-Projekte/FH-Vertibot/src/project_src/Task1.c **** 	CtrlStates.copterStatus |= IMU_READY_FLAG;
 137:/home/user/Desktop/STM32-Projekte/FH-Vertibot/src/project_src/Task1.c **** 
 138:/home/user/Desktop/STM32-Projekte/FH-Vertibot/src/project_src/Task1.c **** 	//xNextWakeTime = xTaskGetTickCount();
 139:/home/user/Desktop/STM32-Projekte/FH-Vertibot/src/project_src/Task1.c **** 
 140:/home/user/Desktop/STM32-Projekte/FH-Vertibot/src/project_src/Task1.c **** 	/* Set the DRIVE Flag! */
 141:/home/user/Desktop/STM32-Projekte/FH-Vertibot/src/project_src/Task1.c **** 	CtrlStates.copterStatus |= ARMED_FLAG;
 459              		.loc 1 141 0
 460 028a 194B     		ldr	r3, .L39+88
 461 028c 1A7A     		ldrb	r2, [r3, #8]	@ zero_extendqisi2
 462 028e 42F00302 		orr	r2, r2, #3
 463 0292 1A72     		strb	r2, [r3, #8]
 142:/home/user/Desktop/STM32-Projekte/FH-Vertibot/src/project_src/Task1.c **** 
 143:/home/user/Desktop/STM32-Projekte/FH-Vertibot/src/project_src/Task1.c **** }
 464              		.loc 1 143 0
 465 0294 BDE8FE8F 		pop	{r1, r2, r3, r4, r5, r6, r7, r8, r9, sl, fp, pc}
 466              	.L40:
 467              		.align	3
 468              	.L39:
 469 0298 00000060 		.word	1610612736
 470 029c 9621F93F 		.word	1073291670
 471 02a0 00000000 		.word	xGyroFiltered_float
 472 02a4 00000000 		.word	yGyroFiltered_float
 473 02a8 00000000 		.word	zGyroFiltered_float
 474 02ac 00000000 		.word	xAccFiltered_float
 475 02b0 00000000 		.word	yAccFiltered_float
 476 02b4 00000000 		.word	zAccFiltered_float
 477 02b8 00000000 		.word	IMU
 478 02bc 0AD7A33B 		.word	1000593162
 479 02c0 00000000 		.word	GlobalSettings
 480 02c4 17B7D139 		.word	970045207
 481 02c8 00000000 		.word	.LANCHOR0
 482 02cc 08000000 		.word	.LANCHOR0+8
 483 02d0 295C8F3D 		.word	1032805417
 484 02d4 00080048 		.word	1207961600
 485 02d8 9A9919BE 		.word	-1105618534
 486 02dc 9A99193E 		.word	1041865114
 487 02e0 00000000 		.word	.LC0
 488 02e4 10000000 		.word	.LANCHOR0+16
 489 02e8 00000000 		.word	eulerTemp
 490 02ec E02E6542 		.word	1113927392
 491 02f0 00000000 		.word	CtrlStates
 492 02f4 00003443 		.word	1127481344
 493 02f8 0000B443 		.word	1135869952
 494 02fc 000034C3 		.word	-1020002304
 495              		.cfi_endproc
 496              	.LFE112:
 498              		.global	__aeabi_f2iz
 499              		.align	1
 500              		.global	IMU_Calculation
 501              		.thumb
 502              		.thumb_func
 504              	IMU_Calculation:
 505              	.LFB113:
 144:/home/user/Desktop/STM32-Projekte/FH-Vertibot/src/project_src/Task1.c **** 
 145:/home/user/Desktop/STM32-Projekte/FH-Vertibot/src/project_src/Task1.c **** 
 146:/home/user/Desktop/STM32-Projekte/FH-Vertibot/src/project_src/Task1.c **** void IMU_Calculation()
 147:/home/user/Desktop/STM32-Projekte/FH-Vertibot/src/project_src/Task1.c **** {
 506              		.loc 1 147 0
 507              		.cfi_startproc
 508              		@ args = 0, pretend = 0, frame = 0
 509              		@ frame_needed = 0, uses_anonymous_args = 0
 510 0300 2DE9F84F 		push	{r3, r4, r5, r6, r7, r8, r9, sl, fp, lr}
 511              	.LCFI2:
 512              		.cfi_def_cfa_offset 40
 513              		.cfi_offset 3, -40
 514              		.cfi_offset 4, -36
 515              		.cfi_offset 5, -32
 516              		.cfi_offset 6, -28
 517              		.cfi_offset 7, -24
 518              		.cfi_offset 8, -20
 519              		.cfi_offset 9, -16
 520              		.cfi_offset 10, -12
 521              		.cfi_offset 11, -8
 522              		.cfi_offset 14, -4
 148:/home/user/Desktop/STM32-Projekte/FH-Vertibot/src/project_src/Task1.c **** 	/*!
 149:/home/user/Desktop/STM32-Projekte/FH-Vertibot/src/project_src/Task1.c **** 	 *  IMU - Calculation Process
 150:/home/user/Desktop/STM32-Projekte/FH-Vertibot/src/project_src/Task1.c **** 	 */
 151:/home/user/Desktop/STM32-Projekte/FH-Vertibot/src/project_src/Task1.c **** 		Gyro_readValues(&gyroXYZ);
 523              		.loc 1 151 0
 524 0304 854C     		ldr	r4, .L77
 525 0306 04F10800 		add	r0, r4, #8
 526 030a FFF7FEFF 		bl	Gyro_readValues
 527              	.LVL43:
 152:/home/user/Desktop/STM32-Projekte/FH-Vertibot/src/project_src/Task1.c **** 		gyroXYZ.gyroValueX = ((gyroXYZ.gyroValueX-gyroOffset.gyroValueX));
 528              		.loc 1 152 0
 529 030e 2589     		ldrh	r5, [r4, #8]
 530 0310 2388     		ldrh	r3, [r4, #0]
 153:/home/user/Desktop/STM32-Projekte/FH-Vertibot/src/project_src/Task1.c **** 		gyroXYZ.gyroValueY = ((gyroXYZ.gyroValueY-gyroOffset.gyroValueY));
 531              		.loc 1 153 0
 532 0312 6089     		ldrh	r0, [r4, #10]
 152:/home/user/Desktop/STM32-Projekte/FH-Vertibot/src/project_src/Task1.c **** 		gyroXYZ.gyroValueX = ((gyroXYZ.gyroValueX-gyroOffset.gyroValueX));
 533              		.loc 1 152 0
 534 0314 ED1A     		subs	r5, r5, r3
 535              		.loc 1 153 0
 536 0316 6388     		ldrh	r3, [r4, #2]
 154:/home/user/Desktop/STM32-Projekte/FH-Vertibot/src/project_src/Task1.c **** 		gyroXYZ.gyroValueZ = ((gyroXYZ.gyroValueZ-gyroOffset.gyroValueZ));
 537              		.loc 1 154 0
 538 0318 A189     		ldrh	r1, [r4, #12]
 153:/home/user/Desktop/STM32-Projekte/FH-Vertibot/src/project_src/Task1.c **** 		gyroXYZ.gyroValueY = ((gyroXYZ.gyroValueY-gyroOffset.gyroValueY));
 539              		.loc 1 153 0
 540 031a C01A     		subs	r0, r0, r3
 541              		.loc 1 154 0
 542 031c A388     		ldrh	r3, [r4, #4]
 152:/home/user/Desktop/STM32-Projekte/FH-Vertibot/src/project_src/Task1.c **** 		gyroXYZ.gyroValueX = ((gyroXYZ.gyroValueX-gyroOffset.gyroValueX));
 543              		.loc 1 152 0
 544 031e 2581     		strh	r5, [r4, #8]	@ movhi
 545              		.loc 1 154 0
 546 0320 C91A     		subs	r1, r1, r3
 155:/home/user/Desktop/STM32-Projekte/FH-Vertibot/src/project_src/Task1.c **** 
 156:/home/user/Desktop/STM32-Projekte/FH-Vertibot/src/project_src/Task1.c **** 		/* Cut-off the lower values to reduce noise and fail-integration*/
 157:/home/user/Desktop/STM32-Projekte/FH-Vertibot/src/project_src/Task1.c **** 		if(gyroXYZ.gyroValueX > -GlobalSettings.gyroSensTreshold && gyroXYZ.gyroValueX < GlobalSettings.g
 547              		.loc 1 157 0
 548 0322 7F4B     		ldr	r3, .L77+4
 549 0324 2DB2     		sxth	r5, r5
 550 0326 1B88     		ldrh	r3, [r3, #0]
 153:/home/user/Desktop/STM32-Projekte/FH-Vertibot/src/project_src/Task1.c **** 		gyroXYZ.gyroValueY = ((gyroXYZ.gyroValueY-gyroOffset.gyroValueY));
 551              		.loc 1 153 0
 552 0328 6081     		strh	r0, [r4, #10]	@ movhi
 553              		.loc 1 157 0
 554 032a 5A42     		negs	r2, r3
 555 032c 9542     		cmp	r5, r2
 154:/home/user/Desktop/STM32-Projekte/FH-Vertibot/src/project_src/Task1.c **** 		gyroXYZ.gyroValueZ = ((gyroXYZ.gyroValueZ-gyroOffset.gyroValueZ));
 556              		.loc 1 154 0
 557 032e A181     		strh	r1, [r4, #12]	@ movhi
 558              		.loc 1 157 0
 559 0330 03DD     		ble	.L42
 560              		.loc 1 157 0 is_stmt 0 discriminator 1
 561 0332 9D42     		cmp	r5, r3
 562 0334 01DA     		bge	.L42
 563 0336 0025     		movs	r5, #0
 564 0338 2581     		strh	r5, [r4, #8]	@ movhi
 565              	.L42:
 158:/home/user/Desktop/STM32-Projekte/FH-Vertibot/src/project_src/Task1.c **** 		if(gyroXYZ.gyroValueY > -GlobalSettings.gyroSensTreshold && gyroXYZ.gyroValueY < GlobalSettings.g
 566              		.loc 1 158 0 is_stmt 1
 567 033a 00B2     		sxth	r0, r0
 568 033c 9042     		cmp	r0, r2
 569 033e 03DD     		ble	.L43
 570              		.loc 1 158 0 is_stmt 0 discriminator 1
 571 0340 9842     		cmp	r0, r3
 572 0342 01DA     		bge	.L43
 573 0344 0020     		movs	r0, #0
 574 0346 6081     		strh	r0, [r4, #10]	@ movhi
 575              	.L43:
 159:/home/user/Desktop/STM32-Projekte/FH-Vertibot/src/project_src/Task1.c **** 		if(gyroXYZ.gyroValueZ > -GlobalSettings.gyroSensTreshold && gyroXYZ.gyroValueZ < GlobalSettings.g
 576              		.loc 1 159 0 is_stmt 1
 577 0348 09B2     		sxth	r1, r1
 578 034a 9142     		cmp	r1, r2
 579 034c 734C     		ldr	r4, .L77
 580 034e 03DD     		ble	.L44
 581              		.loc 1 159 0 is_stmt 0 discriminator 1
 582 0350 9942     		cmp	r1, r3
 583 0352 01DA     		bge	.L44
 584 0354 0023     		movs	r3, #0
 585 0356 A381     		strh	r3, [r4, #12]	@ movhi
 586              	.L44:
 160:/home/user/Desktop/STM32-Projekte/FH-Vertibot/src/project_src/Task1.c **** 
 161:/home/user/Desktop/STM32-Projekte/FH-Vertibot/src/project_src/Task1.c **** 		floatFilterGyro(&xGyroFiltered_float, gyroXYZ.gyroValueX);
 587              		.loc 1 161 0 is_stmt 1
 588 0358 DFF8EC91 		ldr	r9, .L77+44
 162:/home/user/Desktop/STM32-Projekte/FH-Vertibot/src/project_src/Task1.c **** 		floatFilterGyro(&yGyroFiltered_float, gyroXYZ.gyroValueY);
 589              		.loc 1 162 0
 590 035c DFF8EC81 		ldr	r8, .L77+48
 161:/home/user/Desktop/STM32-Projekte/FH-Vertibot/src/project_src/Task1.c **** 		floatFilterGyro(&xGyroFiltered_float, gyroXYZ.gyroValueX);
 591              		.loc 1 161 0
 592 0360 4846     		mov	r0, r9
 593 0362 B4F90810 		ldrsh	r1, [r4, #8]
 594 0366 FFF7FEFF 		bl	floatFilterGyro
 595              	.LVL44:
 163:/home/user/Desktop/STM32-Projekte/FH-Vertibot/src/project_src/Task1.c **** 		floatFilterGyro(&zGyroFiltered_float, gyroXYZ.gyroValueZ);
 596              		.loc 1 163 0
 597 036a 6E4F     		ldr	r7, .L77+8
 162:/home/user/Desktop/STM32-Projekte/FH-Vertibot/src/project_src/Task1.c **** 		floatFilterGyro(&yGyroFiltered_float, gyroXYZ.gyroValueY);
 598              		.loc 1 162 0
 599 036c 4046     		mov	r0, r8
 600 036e B4F90A10 		ldrsh	r1, [r4, #10]
 601 0372 FFF7FEFF 		bl	floatFilterGyro
 602              	.LVL45:
 603              		.loc 1 163 0
 604 0376 B4F90C10 		ldrsh	r1, [r4, #12]
 164:/home/user/Desktop/STM32-Projekte/FH-Vertibot/src/project_src/Task1.c **** 
 165:/home/user/Desktop/STM32-Projekte/FH-Vertibot/src/project_src/Task1.c **** 		IMU.velocity_vector[GlobalSettings.gyroDir.sensOrder[sensX]] = GlobalSettings.gyroDir.sensDirecti
 605              		.loc 1 165 0
 606 037a 694C     		ldr	r4, .L77+4
 163:/home/user/Desktop/STM32-Projekte/FH-Vertibot/src/project_src/Task1.c **** 		floatFilterGyro(&zGyroFiltered_float, gyroXYZ.gyroValueZ);
 607              		.loc 1 163 0
 608 037c 3846     		mov	r0, r7
 609 037e FFF7FEFF 		bl	floatFilterGyro
 610              	.LVL46:
 611              		.loc 1 165 0
 612 0382 94F90700 		ldrsb	r0, [r4, #7]
 613 0386 FFF7FEFF 		bl	__aeabi_i2f
 614              	.LVL47:
 615 038a 6749     		ldr	r1, .L77+12
 616 038c 8346     		mov	fp, r0
 617 038e D9F82800 		ldr	r0, [r9, #40]	@ float
 618 0392 FFF7FEFF 		bl	__aeabi_fmul
 619              	.LVL48:
 620 0396 0146     		mov	r1, r0
 621 0398 5846     		mov	r0, fp
 622 039a FFF7FEFF 		bl	__aeabi_fmul
 623              	.LVL49:
 624 039e 6349     		ldr	r1, .L77+16
 625 03a0 FFF7FEFF 		bl	__aeabi_fmul
 626              	.LVL50:
 627 03a4 94F804A0 		ldrb	sl, [r4, #4]	@ zero_extendqisi2
 628 03a8 614D     		ldr	r5, .L77+20
 629 03aa 0AF10A0A 		add	sl, sl, #10
 630 03ae 45F82A00 		str	r0, [r5, sl, lsl #2]	@ float
 166:/home/user/Desktop/STM32-Projekte/FH-Vertibot/src/project_src/Task1.c **** 		IMU.velocity_vector[GlobalSettings.gyroDir.sensOrder[sensY]] = GlobalSettings.gyroDir.sensDirecti
 631              		.loc 1 166 0
 632 03b2 94F90800 		ldrsb	r0, [r4, #8]
 633 03b6 FFF7FEFF 		bl	__aeabi_i2f
 634              	.LVL51:
 635 03ba 5B49     		ldr	r1, .L77+12
 636 03bc 8246     		mov	sl, r0
 637 03be D8F82800 		ldr	r0, [r8, #40]	@ float
 638 03c2 FFF7FEFF 		bl	__aeabi_fmul
 639              	.LVL52:
 640 03c6 0146     		mov	r1, r0
 641 03c8 5046     		mov	r0, sl
 642 03ca FFF7FEFF 		bl	__aeabi_fmul
 643              	.LVL53:
 644 03ce 5749     		ldr	r1, .L77+16
 645 03d0 FFF7FEFF 		bl	__aeabi_fmul
 646              	.LVL54:
 647 03d4 94F80590 		ldrb	r9, [r4, #5]	@ zero_extendqisi2
 167:/home/user/Desktop/STM32-Projekte/FH-Vertibot/src/project_src/Task1.c **** 		IMU.velocity_vector[GlobalSettings.gyroDir.sensOrder[sensZ]] = GlobalSettings.gyroDir.sensDirecti
 648              		.loc 1 167 0
 649 03d8 94F80680 		ldrb	r8, [r4, #6]	@ zero_extendqisi2
 166:/home/user/Desktop/STM32-Projekte/FH-Vertibot/src/project_src/Task1.c **** 		IMU.velocity_vector[GlobalSettings.gyroDir.sensOrder[sensY]] = GlobalSettings.gyroDir.sensDirecti
 650              		.loc 1 166 0
 651 03dc 09F10A09 		add	r9, r9, #10
 652 03e0 45F82900 		str	r0, [r5, r9, lsl #2]	@ float
 653              		.loc 1 167 0
 654 03e4 94F90900 		ldrsb	r0, [r4, #9]
 655 03e8 FFF7FEFF 		bl	__aeabi_i2f
 656              	.LVL55:
 657 03ec 4E49     		ldr	r1, .L77+12
 658 03ee 8146     		mov	r9, r0
 659 03f0 B86A     		ldr	r0, [r7, #40]	@ float
 660 03f2 FFF7FEFF 		bl	__aeabi_fmul
 661              	.LVL56:
 662 03f6 0146     		mov	r1, r0
 663 03f8 4846     		mov	r0, r9
 664 03fa FFF7FEFF 		bl	__aeabi_fmul
 665              	.LVL57:
 666 03fe 4B49     		ldr	r1, .L77+16
 667 0400 FFF7FEFF 		bl	__aeabi_fmul
 668              	.LVL58:
 168:/home/user/Desktop/STM32-Projekte/FH-Vertibot/src/project_src/Task1.c **** 
 169:/home/user/Desktop/STM32-Projekte/FH-Vertibot/src/project_src/Task1.c **** 		/*Here the ACC-Compensation, we do this in every tenth round*/
 170:/home/user/Desktop/STM32-Projekte/FH-Vertibot/src/project_src/Task1.c **** 		if(GlobalSettings.enableACC)
 669              		.loc 1 170 0
 670 0404 E37A     		ldrb	r3, [r4, #11]	@ zero_extendqisi2
 167:/home/user/Desktop/STM32-Projekte/FH-Vertibot/src/project_src/Task1.c **** 		IMU.velocity_vector[GlobalSettings.gyroDir.sensOrder[sensZ]] = GlobalSettings.gyroDir.sensDirecti
 671              		.loc 1 167 0
 672 0406 08F10A08 		add	r8, r8, #10
 161:/home/user/Desktop/STM32-Projekte/FH-Vertibot/src/project_src/Task1.c **** 		floatFilterGyro(&xGyroFiltered_float, gyroXYZ.gyroValueX);
 673              		.loc 1 161 0
 674 040a 444E     		ldr	r6, .L77
 167:/home/user/Desktop/STM32-Projekte/FH-Vertibot/src/project_src/Task1.c **** 		IMU.velocity_vector[GlobalSettings.gyroDir.sensOrder[sensZ]] = GlobalSettings.gyroDir.sensDirecti
 675              		.loc 1 167 0
 676 040c 45F82800 		str	r0, [r5, r8, lsl #2]	@ float
 677              		.loc 1 170 0
 678 0410 002B     		cmp	r3, #0
 679 0412 00F0BD80 		beq	.L45
 171:/home/user/Desktop/STM32-Projekte/FH-Vertibot/src/project_src/Task1.c **** 		{
 172:/home/user/Desktop/STM32-Projekte/FH-Vertibot/src/project_src/Task1.c **** 			if(accCount >= 5)
 680              		.loc 1 172 0
 681 0416 96F82230 		ldrb	r3, [r6, #34]	@ zero_extendqisi2
 682 041a 042B     		cmp	r3, #4
 683 041c 40F2B280 		bls	.L46
 173:/home/user/Desktop/STM32-Projekte/FH-Vertibot/src/project_src/Task1.c **** 			{
 174:/home/user/Desktop/STM32-Projekte/FH-Vertibot/src/project_src/Task1.c **** 				//ADXL345_readValues(&accXYZ);
 175:/home/user/Desktop/STM32-Projekte/FH-Vertibot/src/project_src/Task1.c **** 				//LSM303DLHC_ACC_readValues(&accXYZ);
 176:/home/user/Desktop/STM32-Projekte/FH-Vertibot/src/project_src/Task1.c **** 				LSM303DLHC_ACC_readValuesDMA(&accXYZ, &accBuffer[0]);
 177:/home/user/Desktop/STM32-Projekte/FH-Vertibot/src/project_src/Task1.c **** 
 178:/home/user/Desktop/STM32-Projekte/FH-Vertibot/src/project_src/Task1.c **** 				//ADC_AutoInjectedConvCmd(ADC2,ENABLE);
 179:/home/user/Desktop/STM32-Projekte/FH-Vertibot/src/project_src/Task1.c **** //				ADC_StartConversion(ADC2);
 180:/home/user/Desktop/STM32-Projekte/FH-Vertibot/src/project_src/Task1.c **** //				/* wait for ADRDY */
 181:/home/user/Desktop/STM32-Projekte/FH-Vertibot/src/project_src/Task1.c **** //				while(!ADC_GetFlagStatus(ADC2, ADC_FLAG_EOC));
 182:/home/user/Desktop/STM32-Projekte/FH-Vertibot/src/project_src/Task1.c **** //				ADC_StartInjectedConversion(ADC2);
 183:/home/user/Desktop/STM32-Projekte/FH-Vertibot/src/project_src/Task1.c **** //
 184:/home/user/Desktop/STM32-Projekte/FH-Vertibot/src/project_src/Task1.c **** //				accXYZ.accValueX = ADC_GetInjectedConversionValue(ADC2,ADC_InjectedSequence_2)-1700;
 185:/home/user/Desktop/STM32-Projekte/FH-Vertibot/src/project_src/Task1.c **** //				accXYZ.accValueZ = ADC_GetInjectedConversionValue(ADC2,ADC_InjectedSequence_1)-1700;
 186:/home/user/Desktop/STM32-Projekte/FH-Vertibot/src/project_src/Task1.c **** //				accXYZ.accValueY = ADC_GetInjectedConversionValue(ADC2,ADC_InjectedSequence_3)-1700;
 187:/home/user/Desktop/STM32-Projekte/FH-Vertibot/src/project_src/Task1.c **** 
 188:/home/user/Desktop/STM32-Projekte/FH-Vertibot/src/project_src/Task1.c **** 				floatFilterAcc(&xAccFiltered_float, accXYZ.accValueX);
 684              		.loc 1 188 0
 685 0420 DFF82C91 		ldr	r9, .L77+52
 176:/home/user/Desktop/STM32-Projekte/FH-Vertibot/src/project_src/Task1.c **** 				LSM303DLHC_ACC_readValuesDMA(&accXYZ, &accBuffer[0]);
 686              		.loc 1 176 0
 687 0424 06F11000 		add	r0, r6, #16
 688 0428 4249     		ldr	r1, .L77+24
 189:/home/user/Desktop/STM32-Projekte/FH-Vertibot/src/project_src/Task1.c **** 				floatFilterAcc(&yAccFiltered_float, accXYZ.accValueY);
 689              		.loc 1 189 0
 690 042a DFF82881 		ldr	r8, .L77+56
 176:/home/user/Desktop/STM32-Projekte/FH-Vertibot/src/project_src/Task1.c **** 				LSM303DLHC_ACC_readValuesDMA(&accXYZ, &accBuffer[0]);
 691              		.loc 1 176 0
 692 042e FFF7FEFF 		bl	LSM303DLHC_ACC_readValuesDMA
 693              	.LVL59:
 190:/home/user/Desktop/STM32-Projekte/FH-Vertibot/src/project_src/Task1.c **** 				floatFilterAcc(&zAccFiltered_float, accXYZ.accValueZ);
 694              		.loc 1 190 0
 695 0432 414F     		ldr	r7, .L77+28
 188:/home/user/Desktop/STM32-Projekte/FH-Vertibot/src/project_src/Task1.c **** 				floatFilterAcc(&xAccFiltered_float, accXYZ.accValueX);
 696              		.loc 1 188 0
 697 0434 4846     		mov	r0, r9
 698 0436 B6F91010 		ldrsh	r1, [r6, #16]
 699 043a FFF7FEFF 		bl	floatFilterAcc
 700              	.LVL60:
 189:/home/user/Desktop/STM32-Projekte/FH-Vertibot/src/project_src/Task1.c **** 				floatFilterAcc(&yAccFiltered_float, accXYZ.accValueY);
 701              		.loc 1 189 0
 702 043e B6F91210 		ldrsh	r1, [r6, #18]
 703 0442 4046     		mov	r0, r8
 704 0444 FFF7FEFF 		bl	floatFilterAcc
 705              	.LVL61:
 706              		.loc 1 190 0
 707 0448 B6F91410 		ldrsh	r1, [r6, #20]
 708 044c 3846     		mov	r0, r7
 709 044e FFF7FEFF 		bl	floatFilterAcc
 710              	.LVL62:
 191:/home/user/Desktop/STM32-Projekte/FH-Vertibot/src/project_src/Task1.c **** 
 192:/home/user/Desktop/STM32-Projekte/FH-Vertibot/src/project_src/Task1.c **** 				if((xAccFiltered_float.currentValue < accXYZ.accGValue) && (xAccFiltered_float.currentValue > -
 711              		.loc 1 192 0
 712 0452 D9F82890 		ldr	r9, [r9, #40]	@ float
 713 0456 B669     		ldr	r6, [r6, #24]	@ float
 714 0458 4846     		mov	r0, r9
 715 045a 3146     		mov	r1, r6
 716 045c FFF7FEFF 		bl	__aeabi_fcmplt
 717              	.LVL63:
 718 0460 0028     		cmp	r0, #0
 719 0462 79D0     		beq	.L47
 720              		.loc 1 192 0 is_stmt 0 discriminator 1
 721 0464 06F1004A 		add	sl, r6, #-2147483648
 722 0468 4846     		mov	r0, r9
 723 046a 5146     		mov	r1, sl
 724 046c FFF7FEFF 		bl	__aeabi_fcmpgt
 725              	.LVL64:
 726 0470 0028     		cmp	r0, #0
 727 0472 71D0     		beq	.L47
 193:/home/user/Desktop/STM32-Projekte/FH-Vertibot/src/project_src/Task1.c **** 				   (yAccFiltered_float.currentValue < accXYZ.accGValue) && (yAccFiltered_float.currentValue > -
 728              		.loc 1 193 0 is_stmt 1 discriminator 1
 729 0474 D8F82880 		ldr	r8, [r8, #40]	@ float
 192:/home/user/Desktop/STM32-Projekte/FH-Vertibot/src/project_src/Task1.c **** 				if((xAccFiltered_float.currentValue < accXYZ.accGValue) && (xAccFiltered_float.currentValue > -
 730              		.loc 1 192 0 discriminator 1
 731 0478 3146     		mov	r1, r6
 732 047a 4046     		mov	r0, r8
 733 047c FFF7FEFF 		bl	__aeabi_fcmplt
 734              	.LVL65:
 735 0480 0028     		cmp	r0, #0
 736 0482 69D0     		beq	.L47
 737              		.loc 1 193 0
 738 0484 4046     		mov	r0, r8
 739 0486 5146     		mov	r1, sl
 740 0488 FFF7FEFF 		bl	__aeabi_fcmpgt
 741              	.LVL66:
 742 048c 0028     		cmp	r0, #0
 743 048e 63D0     		beq	.L47
 194:/home/user/Desktop/STM32-Projekte/FH-Vertibot/src/project_src/Task1.c **** 				   (zAccFiltered_float.currentValue < accXYZ.accGValue) && (zAccFiltered_float.currentValue > -
 744              		.loc 1 194 0 discriminator 1
 745 0490 BF6A     		ldr	r7, [r7, #40]	@ float
 193:/home/user/Desktop/STM32-Projekte/FH-Vertibot/src/project_src/Task1.c **** 				   (yAccFiltered_float.currentValue < accXYZ.accGValue) && (yAccFiltered_float.currentValue > -
 746              		.loc 1 193 0 discriminator 1
 747 0492 3146     		mov	r1, r6
 748 0494 3846     		mov	r0, r7
 749 0496 FFF7FEFF 		bl	__aeabi_fcmplt
 750              	.LVL67:
 751 049a 0028     		cmp	r0, #0
 752 049c 5CD0     		beq	.L47
 753              		.loc 1 194 0
 754 049e 3846     		mov	r0, r7
 755 04a0 5146     		mov	r1, sl
 756 04a2 FFF7FEFF 		bl	__aeabi_fcmpgt
 757              	.LVL68:
 758 04a6 0028     		cmp	r0, #0
 759 04a8 56D0     		beq	.L47
 195:/home/user/Desktop/STM32-Projekte/FH-Vertibot/src/project_src/Task1.c **** 				{
 196:/home/user/Desktop/STM32-Projekte/FH-Vertibot/src/project_src/Task1.c **** 					/*Direction setup is the same as above*/
 197:/home/user/Desktop/STM32-Projekte/FH-Vertibot/src/project_src/Task1.c **** 					IMU.accel_vector[GlobalSettings.accDir.sensOrder[sensX]] = GlobalSettings.accDir.sensDirection
 760              		.loc 1 197 0
 761 04aa 94F90F00 		ldrsb	r0, [r4, #15]
 762 04ae FFF7FEFF 		bl	__aeabi_i2f
 763              	.LVL69:
 764 04b2 4946     		mov	r1, r9
 765 04b4 FFF7FEFF 		bl	__aeabi_fmul
 766              	.LVL70:
 767 04b8 94F80CA0 		ldrb	sl, [r4, #12]	@ zero_extendqisi2
 198:/home/user/Desktop/STM32-Projekte/FH-Vertibot/src/project_src/Task1.c **** 					IMU.accel_vector[GlobalSettings.accDir.sensOrder[sensY]] = GlobalSettings.accDir.sensDirection
 768              		.loc 1 198 0
 769 04bc 667B     		ldrb	r6, [r4, #13]	@ zero_extendqisi2
 197:/home/user/Desktop/STM32-Projekte/FH-Vertibot/src/project_src/Task1.c **** 					IMU.accel_vector[GlobalSettings.accDir.sensOrder[sensX]] = GlobalSettings.accDir.sensDirection
 770              		.loc 1 197 0
 771 04be 0AF10C0A 		add	sl, sl, #12
 772 04c2 05EB8A0A 		add	sl, r5, sl, lsl #2
 773 04c6 CAF80400 		str	r0, [sl, #4]	@ float
 774              		.loc 1 198 0
 775 04ca 94F91000 		ldrsb	r0, [r4, #16]
 776 04ce FFF7FEFF 		bl	__aeabi_i2f
 777              	.LVL71:
 778 04d2 4146     		mov	r1, r8
 779 04d4 FFF7FEFF 		bl	__aeabi_fmul
 780              	.LVL72:
 781 04d8 0C36     		adds	r6, r6, #12
 782 04da 05EB8606 		add	r6, r5, r6, lsl #2
 783 04de 7060     		str	r0, [r6, #4]	@ float
 199:/home/user/Desktop/STM32-Projekte/FH-Vertibot/src/project_src/Task1.c **** 					IMU.accel_vector[GlobalSettings.accDir.sensOrder[sensZ]] = GlobalSettings.accDir.sensDirection
 784              		.loc 1 199 0
 785 04e0 94F91100 		ldrsb	r0, [r4, #17]
 786 04e4 FFF7FEFF 		bl	__aeabi_i2f
 787              	.LVL73:
 788 04e8 3946     		mov	r1, r7
 789 04ea FFF7FEFF 		bl	__aeabi_fmul
 790              	.LVL74:
 791 04ee A37B     		ldrb	r3, [r4, #14]	@ zero_extendqisi2
 792 04f0 0746     		mov	r7, r0
 793 04f2 05EB8305 		add	r5, r5, r3, lsl #2
 794 04f6 6863     		str	r0, [r5, #52]	@ float
 200:/home/user/Desktop/STM32-Projekte/FH-Vertibot/src/project_src/Task1.c **** 
 201:/home/user/Desktop/STM32-Projekte/FH-Vertibot/src/project_src/Task1.c **** 					xTemp = (int)IMU.accel_vector[GlobalSettings.accDir.sensOrder[sensX]];
 795              		.loc 1 201 0
 796 04f8 DAF80400 		ldr	r0, [sl, #4]	@ float
 797 04fc FFF7FEFF 		bl	__aeabi_f2iz
 798              	.LVL75:
 799 0500 0E4B     		ldr	r3, .L77+32
 800 0502 1860     		str	r0, [r3, #0]
 202:/home/user/Desktop/STM32-Projekte/FH-Vertibot/src/project_src/Task1.c **** 					yTemp = (int)IMU.accel_vector[GlobalSettings.accDir.sensOrder[sensY]];
 801              		.loc 1 202 0
 802 0504 7068     		ldr	r0, [r6, #4]	@ float
 803 0506 FFF7FEFF 		bl	__aeabi_f2iz
 804              	.LVL76:
 805 050a 0D4B     		ldr	r3, .L77+36
 806 050c 1860     		str	r0, [r3, #0]
 203:/home/user/Desktop/STM32-Projekte/FH-Vertibot/src/project_src/Task1.c **** 					zTemp = (int)IMU.accel_vector[GlobalSettings.accDir.sensOrder[sensZ]];
 807              		.loc 1 203 0
 808 050e 3846     		mov	r0, r7
 809 0510 FFF7FEFF 		bl	__aeabi_f2iz
 810              	.LVL77:
 811 0514 0B4B     		ldr	r3, .L77+40
 812 0516 1860     		str	r0, [r3, #0]
 813 0518 2AE0     		b	.L54
 814              	.L78:
 815 051a 00BF     		.align	2
 816              	.L77:
 817 051c 00000000 		.word	.LANCHOR0
 818 0520 00000000 		.word	GlobalSettings
 819 0524 00000000 		.word	zGyroFiltered_float
 820 0528 295C8F3D 		.word	1032805417
 821 052c 35FA8E3C 		.word	1016003125
 822 0530 00000000 		.word	IMU
 823 0534 00000000 		.word	accBuffer
 824 0538 00000000 		.word	zAccFiltered_float
 825 053c 00000000 		.word	xTemp
 826 0540 00000000 		.word	yTemp
 827 0544 00000000 		.word	zTemp
 828 0548 00000000 		.word	xGyroFiltered_float
 829 054c 00000000 		.word	yGyroFiltered_float
 830 0550 00000000 		.word	xAccFiltered_float
 831 0554 00000000 		.word	yAccFiltered_float
 832              	.L47:
 204:/home/user/Desktop/STM32-Projekte/FH-Vertibot/src/project_src/Task1.c **** 				}
 205:/home/user/Desktop/STM32-Projekte/FH-Vertibot/src/project_src/Task1.c **** 				else
 206:/home/user/Desktop/STM32-Projekte/FH-Vertibot/src/project_src/Task1.c **** 				{
 207:/home/user/Desktop/STM32-Projekte/FH-Vertibot/src/project_src/Task1.c **** 					IMU.kp_vector_ACC[0] = 0;
 833              		.loc 1 207 0
 834 0558 374B     		ldr	r3, .L79
 835 055a 0022     		movs	r2, #0
 836 055c 1A66     		str	r2, [r3, #96]	@ float
 208:/home/user/Desktop/STM32-Projekte/FH-Vertibot/src/project_src/Task1.c **** 					IMU.kp_vector_ACC[1] = 0;
 837              		.loc 1 208 0
 838 055e 5A66     		str	r2, [r3, #100]	@ float
 209:/home/user/Desktop/STM32-Projekte/FH-Vertibot/src/project_src/Task1.c **** 					IMU.kp_vector_ACC[2] = 0;
 839              		.loc 1 209 0
 840 0560 9A66     		str	r2, [r3, #104]	@ float
 210:/home/user/Desktop/STM32-Projekte/FH-Vertibot/src/project_src/Task1.c **** 
 211:/home/user/Desktop/STM32-Projekte/FH-Vertibot/src/project_src/Task1.c **** 					xTemp = 0;
 841              		.loc 1 211 0
 842 0562 364A     		ldr	r2, .L79+4
 843 0564 0023     		movs	r3, #0
 844 0566 1360     		str	r3, [r2, #0]
 212:/home/user/Desktop/STM32-Projekte/FH-Vertibot/src/project_src/Task1.c **** 					yTemp = 0;
 845              		.loc 1 212 0
 846 0568 354A     		ldr	r2, .L79+8
 847 056a 1360     		str	r3, [r2, #0]
 213:/home/user/Desktop/STM32-Projekte/FH-Vertibot/src/project_src/Task1.c **** 					zTemp = 0;
 848              		.loc 1 213 0
 849 056c 354A     		ldr	r2, .L79+12
 850 056e 1360     		str	r3, [r2, #0]
 851              	.L54:
 214:/home/user/Desktop/STM32-Projekte/FH-Vertibot/src/project_src/Task1.c **** 				}
 215:/home/user/Desktop/STM32-Projekte/FH-Vertibot/src/project_src/Task1.c **** 
 216:/home/user/Desktop/STM32-Projekte/FH-Vertibot/src/project_src/Task1.c **** 				//printf("%d %d %d\n\r", (int)(IMU.accel_vector[0]*30),(int)(IMU.accel_vector[1]*30), (int)(IMU
 217:/home/user/Desktop/STM32-Projekte/FH-Vertibot/src/project_src/Task1.c **** 
 218:/home/user/Desktop/STM32-Projekte/FH-Vertibot/src/project_src/Task1.c **** 				if(GlobalSettings.enableDriftCorrection)
 852              		.loc 1 218 0
 853 0570 354B     		ldr	r3, .L79+16
 854 0572 9B7A     		ldrb	r3, [r3, #10]	@ zero_extendqisi2
 855 0574 13B1     		cbz	r3, .L55
 219:/home/user/Desktop/STM32-Projekte/FH-Vertibot/src/project_src/Task1.c **** 				{
 220:/home/user/Desktop/STM32-Projekte/FH-Vertibot/src/project_src/Task1.c **** 					IMU_drift_correction_ACC(&IMU);
 856              		.loc 1 220 0
 857 0576 3048     		ldr	r0, .L79
 858 0578 FFF7FEFF 		bl	IMU_drift_correction_ACC
 859              	.LVL78:
 860              	.L55:
 221:/home/user/Desktop/STM32-Projekte/FH-Vertibot/src/project_src/Task1.c **** 				}
 222:/home/user/Desktop/STM32-Projekte/FH-Vertibot/src/project_src/Task1.c **** 				accCount = 0;
 861              		.loc 1 222 0
 862 057c 334B     		ldr	r3, .L79+20
 863 057e 0022     		movs	r2, #0
 864 0580 83F82220 		strb	r2, [r3, #34]
 865              	.L46:
 223:/home/user/Desktop/STM32-Projekte/FH-Vertibot/src/project_src/Task1.c **** 			}
 224:/home/user/Desktop/STM32-Projekte/FH-Vertibot/src/project_src/Task1.c **** 			accCount++;
 866              		.loc 1 224 0
 867 0584 314B     		ldr	r3, .L79+20
 868 0586 93F82220 		ldrb	r2, [r3, #34]	@ zero_extendqisi2
 869 058a 0132     		adds	r2, r2, #1
 870 058c 83F82220 		strb	r2, [r3, #34]
 871              	.L45:
 225:/home/user/Desktop/STM32-Projekte/FH-Vertibot/src/project_src/Task1.c **** 		}
 226:/home/user/Desktop/STM32-Projekte/FH-Vertibot/src/project_src/Task1.c **** 
 227:/home/user/Desktop/STM32-Projekte/FH-Vertibot/src/project_src/Task1.c **** 		/*Here the Mag-Compensation, we do this in every 45 round*/
 228:/home/user/Desktop/STM32-Projekte/FH-Vertibot/src/project_src/Task1.c **** 		if(GlobalSettings.enableMAG)
 872              		.loc 1 228 0
 873 0590 2D4C     		ldr	r4, .L79+16
 874 0592 237E     		ldrb	r3, [r4, #24]	@ zero_extendqisi2
 875 0594 002B     		cmp	r3, #0
 876 0596 3FD0     		beq	.L56
 229:/home/user/Desktop/STM32-Projekte/FH-Vertibot/src/project_src/Task1.c **** 		{
 230:/home/user/Desktop/STM32-Projekte/FH-Vertibot/src/project_src/Task1.c **** 			if(magCount >= 45)
 877              		.loc 1 230 0
 878 0598 2C4D     		ldr	r5, .L79+20
 879 059a 95F82330 		ldrb	r3, [r5, #35]	@ zero_extendqisi2
 880 059e 2C2B     		cmp	r3, #44
 881 05a0 34D9     		bls	.L57
 231:/home/user/Desktop/STM32-Projekte/FH-Vertibot/src/project_src/Task1.c **** 			{
 232:/home/user/Desktop/STM32-Projekte/FH-Vertibot/src/project_src/Task1.c **** 				Mag_readValues(&magXYZ);
 882              		.loc 1 232 0
 883 05a2 05F11C00 		add	r0, r5, #28
 884 05a6 FFF7FEFF 		bl	Mag_readValues
 885              	.LVL79:
 233:/home/user/Desktop/STM32-Projekte/FH-Vertibot/src/project_src/Task1.c **** 				update_intFilter(&xMagFiltered, GlobalSettings.magLowpassValue, (magXYZ.magValueX));
 886              		.loc 1 233 0
 887 05aa 05F12400 		add	r0, r5, #36
 888 05ae 218C     		ldrh	r1, [r4, #32]
 889 05b0 B5F91C20 		ldrsh	r2, [r5, #28]
 890 05b4 FFF7FEFF 		bl	update_intFilter
 891              	.LVL80:
 234:/home/user/Desktop/STM32-Projekte/FH-Vertibot/src/project_src/Task1.c **** 				update_intFilter(&yMagFiltered, GlobalSettings.magLowpassValue, (magXYZ.magValueY));
 892              		.loc 1 234 0
 893 05b8 B5F91E20 		ldrsh	r2, [r5, #30]
 894 05bc 218C     		ldrh	r1, [r4, #32]
 895 05be 05F12C00 		add	r0, r5, #44
 896 05c2 FFF7FEFF 		bl	update_intFilter
 897              	.LVL81:
 235:/home/user/Desktop/STM32-Projekte/FH-Vertibot/src/project_src/Task1.c **** 
 236:/home/user/Desktop/STM32-Projekte/FH-Vertibot/src/project_src/Task1.c **** 				/*Direction setup is the same as above*/
 237:/home/user/Desktop/STM32-Projekte/FH-Vertibot/src/project_src/Task1.c **** 				IMU.mag_vector[GlobalSettings.magDir.sensOrder[sensX]] = GlobalSettings.magDir.sensDirection[se
 898              		.loc 1 237 0
 899 05c6 AB6A     		ldr	r3, [r5, #40]
 900 05c8 94F91C00 		ldrsb	r0, [r4, #28]
 901 05cc 677E     		ldrb	r7, [r4, #25]	@ zero_extendqisi2
 902 05ce 5843     		muls	r0, r3, r0
 903 05d0 FFF7FEFF 		bl	__aeabi_i2f
 904              	.LVL82:
 905 05d4 184E     		ldr	r6, .L79
 906 05d6 1037     		adds	r7, r7, #16
 907 05d8 46F82700 		str	r0, [r6, r7, lsl #2]	@ float
 238:/home/user/Desktop/STM32-Projekte/FH-Vertibot/src/project_src/Task1.c **** 				IMU.mag_vector[GlobalSettings.magDir.sensOrder[sensY]] = GlobalSettings.magDir.sensDirection[se
 908              		.loc 1 238 0
 909 05dc 94F91D30 		ldrsb	r3, [r4, #29]
 910 05e0 286B     		ldr	r0, [r5, #48]
 911 05e2 A77E     		ldrb	r7, [r4, #26]	@ zero_extendqisi2
 912 05e4 5843     		muls	r0, r3, r0
 913 05e6 FFF7FEFF 		bl	__aeabi_i2f
 914              	.LVL83:
 239:/home/user/Desktop/STM32-Projekte/FH-Vertibot/src/project_src/Task1.c **** 				//IMU.mag_vector[GlobalSettings.magDir.sensOrder[sensZ]] = GlobalSettings.magDir.sensDirection[
 240:/home/user/Desktop/STM32-Projekte/FH-Vertibot/src/project_src/Task1.c **** 				IMU.mag_vector[GlobalSettings.magDir.sensOrder[sensZ]] = 0;
 915              		.loc 1 240 0
 916 05ea E37E     		ldrb	r3, [r4, #27]	@ zero_extendqisi2
 238:/home/user/Desktop/STM32-Projekte/FH-Vertibot/src/project_src/Task1.c **** 				IMU.mag_vector[GlobalSettings.magDir.sensOrder[sensY]] = GlobalSettings.magDir.sensDirection[se
 917              		.loc 1 238 0
 918 05ec 1037     		adds	r7, r7, #16
 919              		.loc 1 240 0
 920 05ee 1033     		adds	r3, r3, #16
 921 05f0 0022     		movs	r2, #0
 238:/home/user/Desktop/STM32-Projekte/FH-Vertibot/src/project_src/Task1.c **** 				IMU.mag_vector[GlobalSettings.magDir.sensOrder[sensY]] = GlobalSettings.magDir.sensDirection[se
 922              		.loc 1 238 0
 923 05f2 46F82700 		str	r0, [r6, r7, lsl #2]	@ float
 924              		.loc 1 240 0
 925 05f6 46F82320 		str	r2, [r6, r3, lsl #2]	@ float
 241:/home/user/Desktop/STM32-Projekte/FH-Vertibot/src/project_src/Task1.c **** 
 242:/home/user/Desktop/STM32-Projekte/FH-Vertibot/src/project_src/Task1.c **** 				if(GlobalSettings.enableDriftCorrection)
 926              		.loc 1 242 0
 927 05fa A37A     		ldrb	r3, [r4, #10]	@ zero_extendqisi2
 928 05fc 13B1     		cbz	r3, .L58
 243:/home/user/Desktop/STM32-Projekte/FH-Vertibot/src/project_src/Task1.c **** 				{
 244:/home/user/Desktop/STM32-Projekte/FH-Vertibot/src/project_src/Task1.c **** 					IMU_drift_correction_MAG(&IMU);
 929              		.loc 1 244 0
 930 05fe 3046     		mov	r0, r6
 931 0600 FFF7FEFF 		bl	IMU_drift_correction_MAG
 932              	.LVL84:
 933              	.L58:
 245:/home/user/Desktop/STM32-Projekte/FH-Vertibot/src/project_src/Task1.c **** 				}
 246:/home/user/Desktop/STM32-Projekte/FH-Vertibot/src/project_src/Task1.c **** 				magCount = 0;
 934              		.loc 1 246 0
 935 0604 114B     		ldr	r3, .L79+20
 936 0606 0022     		movs	r2, #0
 937 0608 83F82320 		strb	r2, [r3, #35]
 938              	.L57:
 247:/home/user/Desktop/STM32-Projekte/FH-Vertibot/src/project_src/Task1.c **** 				//printf("%d,%d\n\r", (int)xMagFiltered.filtered, (int)yMagFiltered.filtered);
 248:/home/user/Desktop/STM32-Projekte/FH-Vertibot/src/project_src/Task1.c **** 			}
 249:/home/user/Desktop/STM32-Projekte/FH-Vertibot/src/project_src/Task1.c **** 			magCount++;
 939              		.loc 1 249 0
 940 060c 0F4B     		ldr	r3, .L79+20
 941 060e 93F82320 		ldrb	r2, [r3, #35]	@ zero_extendqisi2
 942 0612 0132     		adds	r2, r2, #1
 943 0614 83F82320 		strb	r2, [r3, #35]
 944              	.L56:
 250:/home/user/Desktop/STM32-Projekte/FH-Vertibot/src/project_src/Task1.c **** 		}
 251:/home/user/Desktop/STM32-Projekte/FH-Vertibot/src/project_src/Task1.c **** 
 252:/home/user/Desktop/STM32-Projekte/FH-Vertibot/src/project_src/Task1.c **** 		/*This functions here do the DCM-Algorithm stuff*/
 253:/home/user/Desktop/STM32-Projekte/FH-Vertibot/src/project_src/Task1.c **** 		IMU_update(&IMU);
 945              		.loc 1 253 0
 946 0618 0748     		ldr	r0, .L79
 947 061a FFF7FEFF 		bl	IMU_update
 948              	.LVL85:
 254:/home/user/Desktop/STM32-Projekte/FH-Vertibot/src/project_src/Task1.c **** 		IMU_ortho_adjust(&IMU);
 949              		.loc 1 254 0
 950 061e 0648     		ldr	r0, .L79
 951 0620 FFF7FEFF 		bl	IMU_ortho_adjust
 952              	.LVL86:
 255:/home/user/Desktop/STM32-Projekte/FH-Vertibot/src/project_src/Task1.c **** 		IMU_normalize(&IMU);
 953              		.loc 1 255 0
 954 0624 0448     		ldr	r0, .L79
 955 0626 FFF7FEFF 		bl	IMU_normalize
 956              	.LVL87:
 256:/home/user/Desktop/STM32-Projekte/FH-Vertibot/src/project_src/Task1.c **** 		//Euler_angles(&DCM);
 257:/home/user/Desktop/STM32-Projekte/FH-Vertibot/src/project_src/Task1.c **** 		//IMU_DCM_to_Euler_deg(&IMU, &euler);
 258:/home/user/Desktop/STM32-Projekte/FH-Vertibot/src/project_src/Task1.c **** 		IMU_DCM_to_XYZ(&IMU, &XYZ);
 957              		.loc 1 258 0
 958 062a 0348     		ldr	r0, .L79
 959 062c 0849     		ldr	r1, .L79+24
 259:/home/user/Desktop/STM32-Projekte/FH-Vertibot/src/project_src/Task1.c **** 
 260:/home/user/Desktop/STM32-Projekte/FH-Vertibot/src/project_src/Task1.c **** 
 261:/home/user/Desktop/STM32-Projekte/FH-Vertibot/src/project_src/Task1.c **** }
 960              		.loc 1 261 0
 961 062e BDE8F84F 		pop	{r3, r4, r5, r6, r7, r8, r9, sl, fp, lr}
 258:/home/user/Desktop/STM32-Projekte/FH-Vertibot/src/project_src/Task1.c **** 		IMU_DCM_to_XYZ(&IMU, &XYZ);
 962              		.loc 1 258 0
 963 0632 FFF7FEBF 		b	IMU_DCM_to_XYZ
 964              	.LVL88:
 965              	.L80:
 966 0636 00BF     		.align	2
 967              	.L79:
 968 0638 00000000 		.word	IMU
 969 063c 00000000 		.word	xTemp
 970 0640 00000000 		.word	yTemp
 971 0644 00000000 		.word	zTemp
 972 0648 00000000 		.word	GlobalSettings
 973 064c 00000000 		.word	.LANCHOR0
 974 0650 00000000 		.word	XYZ
 975              		.cfi_endproc
 976              	.LFE113:
 978              		.global	__aeabi_f2uiz
 979              		.align	1
 980              		.global	PositionController
 981              		.thumb
 982              		.thumb_func
 984              	PositionController:
 985              	.LFB114:
 262:/home/user/Desktop/STM32-Projekte/FH-Vertibot/src/project_src/Task1.c **** 
 263:/home/user/Desktop/STM32-Projekte/FH-Vertibot/src/project_src/Task1.c **** float InPut[4];
 264:/home/user/Desktop/STM32-Projekte/FH-Vertibot/src/project_src/Task1.c **** void PositionController()
 265:/home/user/Desktop/STM32-Projekte/FH-Vertibot/src/project_src/Task1.c **** {
 986              		.loc 1 265 0
 987              		.cfi_startproc
 988              		@ args = 0, pretend = 0, frame = 8
 989              		@ frame_needed = 0, uses_anonymous_args = 0
 990              	.LVL89:
 991              	.LBB2:
 266:/home/user/Desktop/STM32-Projekte/FH-Vertibot/src/project_src/Task1.c **** 	//** PID Calculation Test
 267:/home/user/Desktop/STM32-Projekte/FH-Vertibot/src/project_src/Task1.c **** 
 268:/home/user/Desktop/STM32-Projekte/FH-Vertibot/src/project_src/Task1.c **** 	//if(CtrlStates.copterStatus & ARMED_FLAG )
 269:/home/user/Desktop/STM32-Projekte/FH-Vertibot/src/project_src/Task1.c **** 	{
 270:/home/user/Desktop/STM32-Projekte/FH-Vertibot/src/project_src/Task1.c **** 		float MiddelPos = 4.8f;
 271:/home/user/Desktop/STM32-Projekte/FH-Vertibot/src/project_src/Task1.c **** 		float Setpoint;
 272:/home/user/Desktop/STM32-Projekte/FH-Vertibot/src/project_src/Task1.c **** 
 273:/home/user/Desktop/STM32-Projekte/FH-Vertibot/src/project_src/Task1.c **** 
 274:/home/user/Desktop/STM32-Projekte/FH-Vertibot/src/project_src/Task1.c **** 		/* Get Controll Values */
 275:/home/user/Desktop/STM32-Projekte/FH-Vertibot/src/project_src/Task1.c **** 		if(It_Com.rxready == 1)
 992              		.loc 1 275 0
 993 0654 2C4B     		ldr	r3, .L89
 994              	.LBE2:
 265:/home/user/Desktop/STM32-Projekte/FH-Vertibot/src/project_src/Task1.c **** {
 995              		.loc 1 265 0
 996 0656 37B5     		push	{r0, r1, r2, r4, r5, lr}
 997              	.LCFI3:
 998              		.cfi_def_cfa_offset 24
 999              		.cfi_offset 0, -24
 1000              		.cfi_offset 1, -20
 1001              		.cfi_offset 2, -16
 1002              		.cfi_offset 4, -12
 1003              		.cfi_offset 5, -8
 1004              		.cfi_offset 14, -4
 1005              	.LBB3:
 1006              		.loc 1 275 0
 1007 0658 D3F80022 		ldr	r2, [r3, #512]
 1008 065c 012A     		cmp	r2, #1
 1009 065e 07D1     		bne	.L82
 276:/home/user/Desktop/STM32-Projekte/FH-Vertibot/src/project_src/Task1.c **** 		{
 277:/home/user/Desktop/STM32-Projekte/FH-Vertibot/src/project_src/Task1.c **** 			It_Com.rxready = 0;
 1010              		.loc 1 277 0
 1011 0660 0022     		movs	r2, #0
 1012 0662 C3F80022 		str	r2, [r3, #512]
 278:/home/user/Desktop/STM32-Projekte/FH-Vertibot/src/project_src/Task1.c **** 			memcpy(&CtrlStates.pitch, &It_Com.rxbuffer[4], 4);
 1013              		.loc 1 278 0
 1014 0666 5968     		ldr	r1, [r3, #4]	@ float
 1015 0668 284A     		ldr	r2, .L89+4
 279:/home/user/Desktop/STM32-Projekte/FH-Vertibot/src/project_src/Task1.c **** 			memcpy(&CtrlStates.yaw, &It_Com.rxbuffer[8], 4);
 1016              		.loc 1 279 0
 1017 066a 9B68     		ldr	r3, [r3, #8]	@ float
 278:/home/user/Desktop/STM32-Projekte/FH-Vertibot/src/project_src/Task1.c **** 			memcpy(&CtrlStates.pitch, &It_Com.rxbuffer[4], 4);
 1018              		.loc 1 278 0
 1019 066c 1160     		str	r1, [r2, #0]	@ float
 1020              		.loc 1 279 0
 1021 066e 5360     		str	r3, [r2, #4]	@ float
 1022              	.L82:
 1023              	.LVL90:
 280:/home/user/Desktop/STM32-Projekte/FH-Vertibot/src/project_src/Task1.c **** 		}
 281:/home/user/Desktop/STM32-Projekte/FH-Vertibot/src/project_src/Task1.c **** 		/* Calc Setpoint */
 282:/home/user/Desktop/STM32-Projekte/FH-Vertibot/src/project_src/Task1.c **** 		Setpoint = MiddelPos + CtrlStates.pitch;
 283:/home/user/Desktop/STM32-Projekte/FH-Vertibot/src/project_src/Task1.c **** 
 284:/home/user/Desktop/STM32-Projekte/FH-Vertibot/src/project_src/Task1.c **** #ifdef  PID-Controller
 285:/home/user/Desktop/STM32-Projekte/FH-Vertibot/src/project_src/Task1.c **** 
 286:/home/user/Desktop/STM32-Projekte/FH-Vertibot/src/project_src/Task1.c **** 		calc_PID(XYZ.y, 4.8f, &PID_Position); // Hier stellt er sich auf 6 ein
 287:/home/user/Desktop/STM32-Projekte/FH-Vertibot/src/project_src/Task1.c **** 
 288:/home/user/Desktop/STM32-Projekte/FH-Vertibot/src/project_src/Task1.c **** 		MOT0 = GlobalSettings.stopSpeed - PID_Position.y;
 289:/home/user/Desktop/STM32-Projekte/FH-Vertibot/src/project_src/Task1.c **** 		MOT1 = GlobalSettings.stopSpeed - PID_Position.y;
 290:/home/user/Desktop/STM32-Projekte/FH-Vertibot/src/project_src/Task1.c **** 
 291:/home/user/Desktop/STM32-Projekte/FH-Vertibot/src/project_src/Task1.c **** 		if(MOT0 < GlobalSettings.minSpeed) MOT0 = GlobalSettings.minSpeed;
 292:/home/user/Desktop/STM32-Projekte/FH-Vertibot/src/project_src/Task1.c **** 		if(MOT0 > GlobalSettings.maxSpeed) MOT0 = GlobalSettings.maxSpeed;
 293:/home/user/Desktop/STM32-Projekte/FH-Vertibot/src/project_src/Task1.c **** 
 294:/home/user/Desktop/STM32-Projekte/FH-Vertibot/src/project_src/Task1.c **** 		if(MOT1 < GlobalSettings.minSpeed) MOT1 = GlobalSettings.minSpeed;
 295:/home/user/Desktop/STM32-Projekte/FH-Vertibot/src/project_src/Task1.c **** 		if(MOT1 > GlobalSettings.maxSpeed) MOT1 = GlobalSettings.maxSpeed;
 296:/home/user/Desktop/STM32-Projekte/FH-Vertibot/src/project_src/Task1.c **** 
 297:/home/user/Desktop/STM32-Projekte/FH-Vertibot/src/project_src/Task1.c **** 		// Disable Interrupts
 298:/home/user/Desktop/STM32-Projekte/FH-Vertibot/src/project_src/Task1.c **** 		taskENTER_CRITICAL();
 299:/home/user/Desktop/STM32-Projekte/FH-Vertibot/src/project_src/Task1.c **** 
 300:/home/user/Desktop/STM32-Projekte/FH-Vertibot/src/project_src/Task1.c **** 		yTemp = MOT0;
 301:/home/user/Desktop/STM32-Projekte/FH-Vertibot/src/project_src/Task1.c **** 
 302:/home/user/Desktop/STM32-Projekte/FH-Vertibot/src/project_src/Task1.c **** 		PWM_Motor(0, MOT0);
 303:/home/user/Desktop/STM32-Projekte/FH-Vertibot/src/project_src/Task1.c **** 		PWM_Motor(1, MOT1);
 304:/home/user/Desktop/STM32-Projekte/FH-Vertibot/src/project_src/Task1.c **** 
 305:/home/user/Desktop/STM32-Projekte/FH-Vertibot/src/project_src/Task1.c **** 		taskEXIT_CRITICAL();
 306:/home/user/Desktop/STM32-Projekte/FH-Vertibot/src/project_src/Task1.c **** #endif
 307:/home/user/Desktop/STM32-Projekte/FH-Vertibot/src/project_src/Task1.c **** 
 308:/home/user/Desktop/STM32-Projekte/FH-Vertibot/src/project_src/Task1.c **** #ifdef PIDSmithPredictor-Controller
 309:/home/user/Desktop/STM32-Projekte/FH-Vertibot/src/project_src/Task1.c **** 
 310:/home/user/Desktop/STM32-Projekte/FH-Vertibot/src/project_src/Task1.c **** 		//calc_PID_SmithPredictor(XYZ.y, 4.8f, &PID_Position, &Smith_Position);
 311:/home/user/Desktop/STM32-Projekte/FH-Vertibot/src/project_src/Task1.c **** 
 312:/home/user/Desktop/STM32-Projekte/FH-Vertibot/src/project_src/Task1.c **** 		//calc_PID(XYZ.y, 4.8f, &PID_Position);
 313:/home/user/Desktop/STM32-Projekte/FH-Vertibot/src/project_src/Task1.c **** 
 314:/home/user/Desktop/STM32-Projekte/FH-Vertibot/src/project_src/Task1.c **** 
 315:/home/user/Desktop/STM32-Projekte/FH-Vertibot/src/project_src/Task1.c **** 
 316:/home/user/Desktop/STM32-Projekte/FH-Vertibot/src/project_src/Task1.c **** 		/* Get Angle */
 317:/home/user/Desktop/STM32-Projekte/FH-Vertibot/src/project_src/Task1.c **** 		InPut[0] = XYZ.y;
 1024              		.loc 1 317 0
 1025 0670 274B     		ldr	r3, .L89+8
 1026 0672 2848     		ldr	r0, .L89+12
 1027 0674 5B68     		ldr	r3, [r3, #4]	@ float
 318:/home/user/Desktop/STM32-Projekte/FH-Vertibot/src/project_src/Task1.c **** 		/* Get Angle Acceleration */
 319:/home/user/Desktop/STM32-Projekte/FH-Vertibot/src/project_src/Task1.c **** 		InPut[1] = yGyroFiltered_float.currentValue;
 320:/home/user/Desktop/STM32-Projekte/FH-Vertibot/src/project_src/Task1.c **** 
 321:/home/user/Desktop/STM32-Projekte/FH-Vertibot/src/project_src/Task1.c **** 		float OutPut[1];
 322:/home/user/Desktop/STM32-Projekte/FH-Vertibot/src/project_src/Task1.c **** 
 323:/home/user/Desktop/STM32-Projekte/FH-Vertibot/src/project_src/Task1.c **** 		//MyFirstFuzzy(&InPut, &OutPut);
 324:/home/user/Desktop/STM32-Projekte/FH-Vertibot/src/project_src/Task1.c **** 		fuzzy(&InPut, &OutPut);
 325:/home/user/Desktop/STM32-Projekte/FH-Vertibot/src/project_src/Task1.c **** 
 326:/home/user/Desktop/STM32-Projekte/FH-Vertibot/src/project_src/Task1.c **** 		//float Y = CalcDirektForm2(XYZ.y, 4.8f, &Smith_Position);
 327:/home/user/Desktop/STM32-Projekte/FH-Vertibot/src/project_src/Task1.c **** 
 328:/home/user/Desktop/STM32-Projekte/FH-Vertibot/src/project_src/Task1.c **** 
 329:/home/user/Desktop/STM32-Projekte/FH-Vertibot/src/project_src/Task1.c **** 		//if  (PID_Position.y > -5.0f && PID_Position.y < 5.0f )
 330:/home/user/Desktop/STM32-Projekte/FH-Vertibot/src/project_src/Task1.c **** 		//	NotLinear = 0.0f;
 331:/home/user/Desktop/STM32-Projekte/FH-Vertibot/src/project_src/Task1.c **** 
 332:/home/user/Desktop/STM32-Projekte/FH-Vertibot/src/project_src/Task1.c **** 
 333:/home/user/Desktop/STM32-Projekte/FH-Vertibot/src/project_src/Task1.c **** 		MOT0 = GlobalSettings.stopSpeed - PID_Position.y;
 1028              		.loc 1 333 0
 1029 0676 284C     		ldr	r4, .L89+16
 317:/home/user/Desktop/STM32-Projekte/FH-Vertibot/src/project_src/Task1.c **** 		InPut[0] = XYZ.y;
 1030              		.loc 1 317 0
 1031 0678 0360     		str	r3, [r0, #0]	@ float
 319:/home/user/Desktop/STM32-Projekte/FH-Vertibot/src/project_src/Task1.c **** 		InPut[1] = yGyroFiltered_float.currentValue;
 1032              		.loc 1 319 0
 1033 067a 284B     		ldr	r3, .L89+20
 324:/home/user/Desktop/STM32-Projekte/FH-Vertibot/src/project_src/Task1.c **** 		fuzzy(&InPut, &OutPut);
 1034              		.loc 1 324 0
 1035 067c 01A9     		add	r1, sp, #4
 319:/home/user/Desktop/STM32-Projekte/FH-Vertibot/src/project_src/Task1.c **** 		InPut[1] = yGyroFiltered_float.currentValue;
 1036              		.loc 1 319 0
 1037 067e 9B6A     		ldr	r3, [r3, #40]	@ float
 1038 0680 4360     		str	r3, [r0, #4]	@ float
 324:/home/user/Desktop/STM32-Projekte/FH-Vertibot/src/project_src/Task1.c **** 		fuzzy(&InPut, &OutPut);
 1039              		.loc 1 324 0
 1040 0682 FFF7FEFF 		bl	fuzzy
 1041              	.LVL91:
 1042              		.loc 1 333 0
 1043 0686 608C     		ldrh	r0, [r4, #34]
 1044 0688 FFF7FEFF 		bl	__aeabi_i2f
 1045              	.LVL92:
 1046 068c 244B     		ldr	r3, .L89+24
 1047 068e 5968     		ldr	r1, [r3, #4]	@ float
 1048 0690 FFF7FEFF 		bl	__aeabi_fsub
 1049              	.LVL93:
 1050 0694 FFF7FEFF 		bl	__aeabi_f2uiz
 1051              	.LVL94:
 334:/home/user/Desktop/STM32-Projekte/FH-Vertibot/src/project_src/Task1.c **** 		MOT1 = GlobalSettings.stopSpeed - PID_Position.y;
 335:/home/user/Desktop/STM32-Projekte/FH-Vertibot/src/project_src/Task1.c **** 
 336:/home/user/Desktop/STM32-Projekte/FH-Vertibot/src/project_src/Task1.c **** 		if(MOT0 < GlobalSettings.minSpeed) MOT0 = GlobalSettings.minSpeed;
 1052              		.loc 1 336 0
 1053 0698 A38C     		ldrh	r3, [r4, #36]
 333:/home/user/Desktop/STM32-Projekte/FH-Vertibot/src/project_src/Task1.c **** 		MOT0 = GlobalSettings.stopSpeed - PID_Position.y;
 1054              		.loc 1 333 0
 1055 069a 224A     		ldr	r2, .L89+28
 1056 069c 81B2     		uxth	r1, r0
 1057              		.loc 1 336 0
 1058 069e 9942     		cmp	r1, r3
 333:/home/user/Desktop/STM32-Projekte/FH-Vertibot/src/project_src/Task1.c **** 		MOT0 = GlobalSettings.stopSpeed - PID_Position.y;
 1059              		.loc 1 333 0
 1060 06a0 9086     		strh	r0, [r2, #52]	@ movhi
 1061              		.loc 1 336 0
 1062 06a2 38BF     		it	cc
 1063 06a4 9386     		strhcc	r3, [r2, #52]	@ movhi
 334:/home/user/Desktop/STM32-Projekte/FH-Vertibot/src/project_src/Task1.c **** 		MOT1 = GlobalSettings.stopSpeed - PID_Position.y;
 1064              		.loc 1 334 0
 1065 06a6 D086     		strh	r0, [r2, #54]	@ movhi
 337:/home/user/Desktop/STM32-Projekte/FH-Vertibot/src/project_src/Task1.c **** 		if(MOT0 > GlobalSettings.maxSpeed) MOT0 = GlobalSettings.maxSpeed;
 1066              		.loc 1 337 0
 1067 06a8 928E     		ldrh	r2, [r2, #52]
 1068 06aa E08C     		ldrh	r0, [r4, #38]
 1069 06ac 8242     		cmp	r2, r0
 1070 06ae 84BF     		itt	hi
 1071 06b0 1C4A     		ldrhi	r2, .L89+28
 1072 06b2 9086     		strhhi	r0, [r2, #52]	@ movhi
 1073 06b4 1B4A     		ldr	r2, .L89+28
 338:/home/user/Desktop/STM32-Projekte/FH-Vertibot/src/project_src/Task1.c **** 
 339:/home/user/Desktop/STM32-Projekte/FH-Vertibot/src/project_src/Task1.c **** 		if(MOT1 < GlobalSettings.minSpeed) MOT1 = GlobalSettings.minSpeed;
 1074              		.loc 1 339 0
 1075 06b6 9942     		cmp	r1, r3
 1076 06b8 38BF     		it	cc
 1077 06ba D386     		strhcc	r3, [r2, #54]	@ movhi
 340:/home/user/Desktop/STM32-Projekte/FH-Vertibot/src/project_src/Task1.c **** 		if(MOT1 > GlobalSettings.maxSpeed) MOT1 = GlobalSettings.maxSpeed;
 341:/home/user/Desktop/STM32-Projekte/FH-Vertibot/src/project_src/Task1.c **** 
 342:/home/user/Desktop/STM32-Projekte/FH-Vertibot/src/project_src/Task1.c **** 
 343:/home/user/Desktop/STM32-Projekte/FH-Vertibot/src/project_src/Task1.c **** 		if ( MOT0 < 100 ) MOT0 -= 10;
 1078              		.loc 1 343 0
 1079 06bc 938E     		ldrh	r3, [r2, #52]
 1080 06be 632B     		cmp	r3, #99
 1081 06c0 02D8     		bhi	.L87
 1082              		.loc 1 343 0 is_stmt 0 discriminator 1
 1083 06c2 184A     		ldr	r2, .L89+28
 1084 06c4 0A3B     		subs	r3, r3, #10
 1085 06c6 9386     		strh	r3, [r2, #52]	@ movhi
 1086              	.L87:
 344:/home/user/Desktop/STM32-Projekte/FH-Vertibot/src/project_src/Task1.c **** 		if ( MOT0 > 100 ) MOT0 += 10;
 1087              		.loc 1 344 0 is_stmt 1
 1088 06c8 164C     		ldr	r4, .L89+28
 1089 06ca A38E     		ldrh	r3, [r4, #52]
 1090 06cc 642B     		cmp	r3, #100
 1091 06ce 01D9     		bls	.L88
 1092              		.loc 1 344 0 is_stmt 0 discriminator 1
 1093 06d0 0A33     		adds	r3, r3, #10
 1094 06d2 A386     		strh	r3, [r4, #52]	@ movhi
 1095              	.L88:
 345:/home/user/Desktop/STM32-Projekte/FH-Vertibot/src/project_src/Task1.c **** 
 346:/home/user/Desktop/STM32-Projekte/FH-Vertibot/src/project_src/Task1.c **** 		MOT1 = MOT0;
 1096              		.loc 1 346 0 is_stmt 1
 1097 06d4 A18E     		ldrh	r1, [r4, #52]
 347:/home/user/Desktop/STM32-Projekte/FH-Vertibot/src/project_src/Task1.c **** 
 348:/home/user/Desktop/STM32-Projekte/FH-Vertibot/src/project_src/Task1.c **** 		// Disable Interrupts
 349:/home/user/Desktop/STM32-Projekte/FH-Vertibot/src/project_src/Task1.c **** 		// taskENTER_CRITICAL();
 350:/home/user/Desktop/STM32-Projekte/FH-Vertibot/src/project_src/Task1.c **** 
 351:/home/user/Desktop/STM32-Projekte/FH-Vertibot/src/project_src/Task1.c **** 		PWM_Motor(0, MOT0);
 1098              		.loc 1 351 0
 1099 06d6 0020     		movs	r0, #0
 346:/home/user/Desktop/STM32-Projekte/FH-Vertibot/src/project_src/Task1.c **** 		MOT1 = MOT0;
 1100              		.loc 1 346 0
 1101 06d8 E186     		strh	r1, [r4, #54]	@ movhi
 1102              	.LBE3:
 352:/home/user/Desktop/STM32-Projekte/FH-Vertibot/src/project_src/Task1.c **** 		PWM_Motor(1, MOT1);
 353:/home/user/Desktop/STM32-Projekte/FH-Vertibot/src/project_src/Task1.c **** 
 354:/home/user/Desktop/STM32-Projekte/FH-Vertibot/src/project_src/Task1.c **** 		// taskEXIT_CRITICAL();
 355:/home/user/Desktop/STM32-Projekte/FH-Vertibot/src/project_src/Task1.c **** #endif
 356:/home/user/Desktop/STM32-Projekte/FH-Vertibot/src/project_src/Task1.c **** 
 357:/home/user/Desktop/STM32-Projekte/FH-Vertibot/src/project_src/Task1.c **** #ifdef ForceMotorValues
 358:/home/user/Desktop/STM32-Projekte/FH-Vertibot/src/project_src/Task1.c **** 
 359:/home/user/Desktop/STM32-Projekte/FH-Vertibot/src/project_src/Task1.c **** 			if(It_Com.rxready == 1)
 360:/home/user/Desktop/STM32-Projekte/FH-Vertibot/src/project_src/Task1.c **** 				{
 361:/home/user/Desktop/STM32-Projekte/FH-Vertibot/src/project_src/Task1.c **** 					It_Com.rxready = 0;
 362:/home/user/Desktop/STM32-Projekte/FH-Vertibot/src/project_src/Task1.c **** 					//SendBufferedDataFrame(&It_Com ,&It_Com.rxbuffer[0], &It_Com.rxbuffer[4], &It_Com.rxbuffer[8]
 363:/home/user/Desktop/STM32-Projekte/FH-Vertibot/src/project_src/Task1.c **** 					//float fValue;
 364:/home/user/Desktop/STM32-Projekte/FH-Vertibot/src/project_src/Task1.c **** 					memcpy(&CtrlStates.pitch, &It_Com.rxbuffer[4], 4);
 365:/home/user/Desktop/STM32-Projekte/FH-Vertibot/src/project_src/Task1.c **** 					//CtrlStates.pitch = fValue;
 366:/home/user/Desktop/STM32-Projekte/FH-Vertibot/src/project_src/Task1.c **** 					memcpy(&CtrlStates.yaw, &It_Com.rxbuffer[8], 4);
 367:/home/user/Desktop/STM32-Projekte/FH-Vertibot/src/project_src/Task1.c **** 					//CtrlStates.yaw = fValue;
 368:/home/user/Desktop/STM32-Projekte/FH-Vertibot/src/project_src/Task1.c **** 				}
 369:/home/user/Desktop/STM32-Projekte/FH-Vertibot/src/project_src/Task1.c **** 
 370:/home/user/Desktop/STM32-Projekte/FH-Vertibot/src/project_src/Task1.c **** 
 371:/home/user/Desktop/STM32-Projekte/FH-Vertibot/src/project_src/Task1.c **** 			MOT0 = MOT1= GlobalSettings.stopSpeed + (int16_t) CtrlStates.pitch;
 372:/home/user/Desktop/STM32-Projekte/FH-Vertibot/src/project_src/Task1.c **** 
 373:/home/user/Desktop/STM32-Projekte/FH-Vertibot/src/project_src/Task1.c **** 				PWM_Motor(0, (uint16_t)MOT0);
 374:/home/user/Desktop/STM32-Projekte/FH-Vertibot/src/project_src/Task1.c **** 				PWM_Motor(1, (uint16_t)MOT1);
 375:/home/user/Desktop/STM32-Projekte/FH-Vertibot/src/project_src/Task1.c **** 
 376:/home/user/Desktop/STM32-Projekte/FH-Vertibot/src/project_src/Task1.c **** #endif
 377:/home/user/Desktop/STM32-Projekte/FH-Vertibot/src/project_src/Task1.c **** 
 378:/home/user/Desktop/STM32-Projekte/FH-Vertibot/src/project_src/Task1.c **** 	}
 379:/home/user/Desktop/STM32-Projekte/FH-Vertibot/src/project_src/Task1.c **** //	else
 380:/home/user/Desktop/STM32-Projekte/FH-Vertibot/src/project_src/Task1.c **** 	{
 381:/home/user/Desktop/STM32-Projekte/FH-Vertibot/src/project_src/Task1.c **** 		resetIntegralValues_PID(&PID_Position);
 382:/home/user/Desktop/STM32-Projekte/FH-Vertibot/src/project_src/Task1.c **** 
 383:/home/user/Desktop/STM32-Projekte/FH-Vertibot/src/project_src/Task1.c **** 		PWM_Motor(0, (uint16_t)GlobalSettings.stopSpeed);
 1103              		.loc 1 383 0
 1104 06da 0F4D     		ldr	r5, .L89+16
 1105              	.LBB4:
 351:/home/user/Desktop/STM32-Projekte/FH-Vertibot/src/project_src/Task1.c **** 		PWM_Motor(0, MOT0);
 1106              		.loc 1 351 0
 1107 06dc FFF7FEFF 		bl	PWM_Motor
 1108              	.LVL95:
 352:/home/user/Desktop/STM32-Projekte/FH-Vertibot/src/project_src/Task1.c **** 		PWM_Motor(1, MOT1);
 1109              		.loc 1 352 0
 1110 06e0 E18E     		ldrh	r1, [r4, #54]
 1111 06e2 0120     		movs	r0, #1
 1112 06e4 FFF7FEFF 		bl	PWM_Motor
 1113              	.LVL96:
 1114              	.LBE4:
 381:/home/user/Desktop/STM32-Projekte/FH-Vertibot/src/project_src/Task1.c **** 		resetIntegralValues_PID(&PID_Position);
 1115              		.loc 1 381 0
 1116 06e8 0D48     		ldr	r0, .L89+24
 1117 06ea FFF7FEFF 		bl	resetIntegralValues_PID
 1118              	.LVL97:
 1119              		.loc 1 383 0
 1120 06ee 0020     		movs	r0, #0
 1121 06f0 698C     		ldrh	r1, [r5, #34]
 1122 06f2 FFF7FEFF 		bl	PWM_Motor
 1123              	.LVL98:
 384:/home/user/Desktop/STM32-Projekte/FH-Vertibot/src/project_src/Task1.c **** 		PWM_Motor(1, (uint16_t)GlobalSettings.stopSpeed);
 1124              		.loc 1 384 0
 1125 06f6 0120     		movs	r0, #1
 1126 06f8 698C     		ldrh	r1, [r5, #34]
 1127 06fa FFF7FEFF 		bl	PWM_Motor
 1128              	.LVL99:
 385:/home/user/Desktop/STM32-Projekte/FH-Vertibot/src/project_src/Task1.c **** 	}
 386:/home/user/Desktop/STM32-Projekte/FH-Vertibot/src/project_src/Task1.c **** 
 387:/home/user/Desktop/STM32-Projekte/FH-Vertibot/src/project_src/Task1.c **** 
 388:/home/user/Desktop/STM32-Projekte/FH-Vertibot/src/project_src/Task1.c **** 
 389:/home/user/Desktop/STM32-Projekte/FH-Vertibot/src/project_src/Task1.c **** 	uint32_t Header = 0xFF7F3F1F;
 390:/home/user/Desktop/STM32-Projekte/FH-Vertibot/src/project_src/Task1.c **** 
 391:/home/user/Desktop/STM32-Projekte/FH-Vertibot/src/project_src/Task1.c **** 	static uint16_t foo = 0;
 392:/home/user/Desktop/STM32-Projekte/FH-Vertibot/src/project_src/Task1.c **** 	foo++;
 1129              		.loc 1 392 0
 1130 06fe 238F     		ldrh	r3, [r4, #56]
 1131 0700 0133     		adds	r3, r3, #1
 1132 0702 2387     		strh	r3, [r4, #56]	@ movhi
 1133              	.LVL100:
 393:/home/user/Desktop/STM32-Projekte/FH-Vertibot/src/project_src/Task1.c **** 
 394:/home/user/Desktop/STM32-Projekte/FH-Vertibot/src/project_src/Task1.c **** 	uint32_t foobar = MOT0;
 395:/home/user/Desktop/STM32-Projekte/FH-Vertibot/src/project_src/Task1.c **** 
 396:/home/user/Desktop/STM32-Projekte/FH-Vertibot/src/project_src/Task1.c **** 	// SendBufferedDataFrame(&It_Com ,&Header, &XYZ.y, &PID_Position.Isum, &foobar, 12);
 397:/home/user/Desktop/STM32-Projekte/FH-Vertibot/src/project_src/Task1.c **** 	//SendBufferedDataFrame(&It_Com ,&Header, &XYZ.y, &PID_Position.e, &foobar, 12);
 398:/home/user/Desktop/STM32-Projekte/FH-Vertibot/src/project_src/Task1.c **** //	SendBufferedDataFrame(&It_Com, &Header, &InPut[0], &InPut[1], &foobar, 12);
 399:/home/user/Desktop/STM32-Projekte/FH-Vertibot/src/project_src/Task1.c **** 
 400:/home/user/Desktop/STM32-Projekte/FH-Vertibot/src/project_src/Task1.c **** 
 401:/home/user/Desktop/STM32-Projekte/FH-Vertibot/src/project_src/Task1.c **** 
 402:/home/user/Desktop/STM32-Projekte/FH-Vertibot/src/project_src/Task1.c **** /* CalcVirtualPlant Function Checked */
 403:/home/user/Desktop/STM32-Projekte/FH-Vertibot/src/project_src/Task1.c **** /*
 404:/home/user/Desktop/STM32-Projekte/FH-Vertibot/src/project_src/Task1.c **** 	float plantvalue = CalcVirtualPlant(&Smith_Position, 1.0f);
 405:/home/user/Desktop/STM32-Projekte/FH-Vertibot/src/project_src/Task1.c **** 	float tmp = 1.0f;
 406:/home/user/Desktop/STM32-Projekte/FH-Vertibot/src/project_src/Task1.c **** 	SendBufferedDataFrame(&It_Com ,&Header, &plantvalue, &tmp, &foo, 12);
 407:/home/user/Desktop/STM32-Projekte/FH-Vertibot/src/project_src/Task1.c **** */
 408:/home/user/Desktop/STM32-Projekte/FH-Vertibot/src/project_src/Task1.c **** 
 409:/home/user/Desktop/STM32-Projekte/FH-Vertibot/src/project_src/Task1.c **** /* Delay Function Checked */
 410:/home/user/Desktop/STM32-Projekte/FH-Vertibot/src/project_src/Task1.c **** /*
 411:/home/user/Desktop/STM32-Projekte/FH-Vertibot/src/project_src/Task1.c **** 	static float tmp;
 412:/home/user/Desktop/STM32-Projekte/FH-Vertibot/src/project_src/Task1.c **** 
 413:/home/user/Desktop/STM32-Projekte/FH-Vertibot/src/project_src/Task1.c **** 	if (tmp >= 20) tmp = 0.0f;
 414:/home/user/Desktop/STM32-Projekte/FH-Vertibot/src/project_src/Task1.c **** 	else tmp += 1.0f;
 415:/home/user/Desktop/STM32-Projekte/FH-Vertibot/src/project_src/Task1.c **** 
 416:/home/user/Desktop/STM32-Projekte/FH-Vertibot/src/project_src/Task1.c **** 	float delayoutvalue;
 417:/home/user/Desktop/STM32-Projekte/FH-Vertibot/src/project_src/Task1.c **** 
 418:/home/user/Desktop/STM32-Projekte/FH-Vertibot/src/project_src/Task1.c **** 	if (tmp > 10 && tmp <= 20 ) {
 419:/home/user/Desktop/STM32-Projekte/FH-Vertibot/src/project_src/Task1.c **** 		delayoutvalue = CalcDelay(&Smith_Position, 0.0f);
 420:/home/user/Desktop/STM32-Projekte/FH-Vertibot/src/project_src/Task1.c **** 		foo = 0;
 421:/home/user/Desktop/STM32-Projekte/FH-Vertibot/src/project_src/Task1.c **** 	} else {
 422:/home/user/Desktop/STM32-Projekte/FH-Vertibot/src/project_src/Task1.c **** 		delayoutvalue = CalcDelay(&Smith_Position, 1.0f);
 423:/home/user/Desktop/STM32-Projekte/FH-Vertibot/src/project_src/Task1.c **** 		foo = 1;
 424:/home/user/Desktop/STM32-Projekte/FH-Vertibot/src/project_src/Task1.c **** 	}
 425:/home/user/Desktop/STM32-Projekte/FH-Vertibot/src/project_src/Task1.c **** 	SendBufferedDataFrame(&It_Com ,&Header, &delayoutvalue, &tmp, &foo, 12);
 426:/home/user/Desktop/STM32-Projekte/FH-Vertibot/src/project_src/Task1.c **** */
 427:/home/user/Desktop/STM32-Projekte/FH-Vertibot/src/project_src/Task1.c **** 
 428:/home/user/Desktop/STM32-Projekte/FH-Vertibot/src/project_src/Task1.c **** 	// Debug
 429:/home/user/Desktop/STM32-Projekte/FH-Vertibot/src/project_src/Task1.c **** 	//if(It_Com.rxready == 1)
 430:/home/user/Desktop/STM32-Projekte/FH-Vertibot/src/project_src/Task1.c **** 	//{
 431:/home/user/Desktop/STM32-Projekte/FH-Vertibot/src/project_src/Task1.c **** 	//	It_Com.rxready = 0;
 432:/home/user/Desktop/STM32-Projekte/FH-Vertibot/src/project_src/Task1.c **** 	//	SendBufferedDataFrame(&It_Com ,&It_Com.rxbuffer[0], &It_Com.rxbuffer[4], &It_Com.rxbuffer[8], &
 433:/home/user/Desktop/STM32-Projekte/FH-Vertibot/src/project_src/Task1.c **** 	//}
 434:/home/user/Desktop/STM32-Projekte/FH-Vertibot/src/project_src/Task1.c **** 
 435:/home/user/Desktop/STM32-Projekte/FH-Vertibot/src/project_src/Task1.c **** 	//float delayoutvalue = CalcDelay(&Smith_Position, 1.0f);
 436:/home/user/Desktop/STM32-Projekte/FH-Vertibot/src/project_src/Task1.c **** 
 437:/home/user/Desktop/STM32-Projekte/FH-Vertibot/src/project_src/Task1.c **** 	// **** End Test
 438:/home/user/Desktop/STM32-Projekte/FH-Vertibot/src/project_src/Task1.c **** }
 1134              		.loc 1 438 0
 1135 0704 3EBD     		pop	{r1, r2, r3, r4, r5, pc}
 1136              	.L90:
 1137 0706 00BF     		.align	2
 1138              	.L89:
 1139 0708 00000000 		.word	It_Com
 1140 070c 00000000 		.word	CtrlStates
 1141 0710 00000000 		.word	XYZ
 1142 0714 00000000 		.word	InPut
 1143 0718 00000000 		.word	GlobalSettings
 1144 071c 00000000 		.word	yGyroFiltered_float
 1145 0720 00000000 		.word	PID_Position
 1146 0724 00000000 		.word	.LANCHOR0
 1147              		.cfi_endproc
 1148              	.LFE114:
 1150              		.comm	InPut,16,4
 1151              		.comm	Smith_Position,100,4
 1152              		.comm	PID_Position,40,4
 1153              		.global	MOT1
 1154              		.global	MOT0
 1155              		.global	yMagFiltered
 1156              		.global	xMagFiltered
 1157              		.comm	eulerTemp,12,4
 1158              		.global	magXYZ
 1159              		.global	magCount
 1160              		.comm	zAccFiltered_float,44,4
 1161              		.comm	yAccFiltered_float,44,4
 1162              		.comm	xAccFiltered_float,44,4
 1163              		.global	accCount
 1164              		.global	accXYZ
 1165              		.comm	zGyroFiltered_float,44,4
 1166              		.comm	yGyroFiltered_float,44,4
 1167              		.comm	xGyroFiltered_float,44,4
 1168              		.global	gyroXYZ
 1169              		.global	gyroOffset
 1170              		.comm	IMU,120,4
 1171              		.global	i
 1172              		.comm	loopcnt,4,4
 1173              		.comm	zTemp,4,4
 1174              		.comm	yTemp,4,4
 1175              		.comm	xTemp,4,4
 1176              		.comm	accBuffer,6,1
 1177              		.comm	XYZ,12,4
 1178              		.comm	CtrlStates,12,4
 1179              		.comm	GlobalSettings,96,4
 1180              		.comm	It_Com,532,4
 1181              		.section	.rodata.str1.1,"aMS",%progbits,1
 1182              	.LC0:
 1183 0000 4572726F 		.ascii	"Error Gyro Test!\012\015\000"
 1183      72204779 
 1183      726F2054 
 1183      65737421 
 1183      0A0D00
 1184              		.bss
 1185              		.align	2
 1186              		.set	.LANCHOR0,. + 0
 1189              	gyroOffset:
 1190 0000 00000000 		.space	6
 1190      0000
 1193              	i:
 1194 0006 0000     		.space	2
 1197              	gyroXYZ:
 1198 0008 00000000 		.space	6
 1198      0000
 1199 000e 0000     		.space	2
 1202              	accXYZ:
 1203 0010 00000000 		.space	12
 1203      00000000 
 1203      00000000 
 1206              	magXYZ:
 1207 001c 00000000 		.space	6
 1207      0000
 1210              	accCount:
 1211 0022 00       		.space	1
 1214              	magCount:
 1215 0023 00       		.space	1
 1218              	xMagFiltered:
 1219 0024 00000000 		.space	8
 1219      00000000 
 1222              	yMagFiltered:
 1223 002c 00000000 		.space	8
 1223      00000000 
 1226              	MOT0:
 1227 0034 0000     		.space	2
 1230              	MOT1:
 1231 0036 0000     		.space	2
 1234              	foo.9361:
 1235 0038 0000     		.space	2
 1236 003a 0000     		.text
 1237              	.Letext0:
 1238              		.file 2 "/opt/CodeSourcery/Sourcery_CodeBench_Lite_for_ARM_EABI/bin/../lib/gcc/arm-none-eabi/4.7.2
 1239              		.file 3 "/home/user/Desktop/STM32-Projekte/FH-Vertibot/src/CMSIS/Device/ST/STM32F30x/Include/stm32
 1240              		.file 4 "/home/user/Desktop/STM32-Projekte/FH-Vertibot/src/project_inc/usart.h"
 1241              		.file 5 "/home/user/Desktop/STM32-Projekte/FH-Vertibot/src/FreeRTOS/Source/portable/GCC/ARM_CM4F/p
 1242              		.file 6 "/home/user/Desktop/STM32-Projekte/FH-Vertibot/src/project_inc/IMU_algorithm.h"
 1243              		.file 7 "/home/user/Desktop/STM32-Projekte/FH-Vertibot/src/project_inc/filter_Lib.h"
 1244              		.file 8 "/home/user/Desktop/STM32-Projekte/FH-Vertibot/src/project_inc/vertibot_settings.h"
 1245              		.file 9 "/home/user/Desktop/STM32-Projekte/FH-Vertibot/src/project_inc/L3GD20_Lib_SPI.h"
 1246              		.file 10 "/home/user/Desktop/STM32-Projekte/FH-Vertibot/src/project_inc/LSM303DLHC_Lib_I2C.h"
 1247              		.file 11 "/home/user/Desktop/STM32-Projekte/FH-Vertibot/src/project_inc/PID_control.h"
 1248              		.file 12 "/home/user/Desktop/STM32-Projekte/FH-Vertibot/src/CMSIS/Include/core_cm4.h"
 1249              		.file 13 "/home/user/Desktop/STM32-Projekte/FH-Vertibot/src/project_inc/Task1.h"
 1250              		.file 14 "/home/user/Desktop/STM32-Projekte/FH-Vertibot/src/FreeRTOS/Source/include/task.h"
 1251              		.file 15 "/opt/CodeSourcery/Sourcery_CodeBench_Lite_for_ARM_EABI/bin/../lib/gcc/arm-none-eabi/4.7.
 1252              		.file 16 "/opt/CodeSourcery/Sourcery_CodeBench_Lite_for_ARM_EABI/bin/../lib/gcc/arm-none-eabi/4.7.
 1253              		.file 17 "/home/user/Desktop/STM32-Projekte/FH-Vertibot/src/project_inc/MotorPWM.h"