   1              		.syntax unified
   2              		.cpu cortex-m4
   3              		.eabi_attribute 27, 3
   4              		.eabi_attribute 28, 1
   5              		.fpu fpv4-sp-d16
   6              		.eabi_attribute 20, 1
   7              		.eabi_attribute 21, 1
   8              		.eabi_attribute 23, 3
   9              		.eabi_attribute 24, 1
  10              		.eabi_attribute 25, 1
  11              		.eabi_attribute 26, 1
  12              		.eabi_attribute 30, 4
  13              		.eabi_attribute 34, 1
  14              		.eabi_attribute 18, 4
  15              		.thumb
  16              		.file	"usart.c"
  17              		.text
  18              	.Ltext0:
  19              		.cfi_sections	.debug_frame
  20              		.align	1
  21              		.global	Usart2Put
  22              		.thumb
  23              		.thumb_func
  25              	Usart2Put:
  26              	.LFB111:
  27              		.file 1 "/home/user/Desktop/STM32-Projekte/FH-Vertibot/src/project_src/usart.c"
   1:/home/user/Desktop/STM32-Projekte/FH-Vertibot/src/project_src/usart.c **** #include <stm32f30x.h>
   2:/home/user/Desktop/STM32-Projekte/FH-Vertibot/src/project_src/usart.c **** #include <stm32f30x_conf.h>
   3:/home/user/Desktop/STM32-Projekte/FH-Vertibot/src/project_src/usart.c **** #include <usart.h>
   4:/home/user/Desktop/STM32-Projekte/FH-Vertibot/src/project_src/usart.c **** 
   5:/home/user/Desktop/STM32-Projekte/FH-Vertibot/src/project_src/usart.c **** void Usart2Put(uint8_t ch)
   6:/home/user/Desktop/STM32-Projekte/FH-Vertibot/src/project_src/usart.c **** {
  28              		.loc 1 6 0
  29              		.cfi_startproc
  30              		@ args = 0, pretend = 0, frame = 0
  31              		@ frame_needed = 0, uses_anonymous_args = 0
  32              	.LVL0:
  33 0000 0146     		mov	r1, r0
  34 0002 08B5     		push	{r3, lr}
  35              	.LCFI0:
  36              		.cfi_def_cfa_offset 8
  37              		.cfi_offset 3, -8
  38              		.cfi_offset 14, -4
   7:/home/user/Desktop/STM32-Projekte/FH-Vertibot/src/project_src/usart.c ****       USART_SendData(USART2, (uint8_t) ch);
  39              		.loc 1 7 0
  40 0004 0448     		ldr	r0, .L5
  41              	.LVL1:
  42 0006 FFF7FEFF 		bl	USART_SendData
  43              	.LVL2:
  44              	.L3:
   8:/home/user/Desktop/STM32-Projekte/FH-Vertibot/src/project_src/usart.c ****       //Loop until the end of transmission
   9:/home/user/Desktop/STM32-Projekte/FH-Vertibot/src/project_src/usart.c ****       while(USART_GetFlagStatus(USART2, USART_FLAG_TC) == RESET)
  45              		.loc 1 9 0 discriminator 1
  46 000a 0348     		ldr	r0, .L5
  47 000c 4021     		movs	r1, #64
  48 000e FFF7FEFF 		bl	USART_GetFlagStatus
  49              	.LVL3:
  50 0012 0028     		cmp	r0, #0
  51 0014 F9D0     		beq	.L3
  10:/home/user/Desktop/STM32-Projekte/FH-Vertibot/src/project_src/usart.c ****       {
  11:/home/user/Desktop/STM32-Projekte/FH-Vertibot/src/project_src/usart.c ****       }
  12:/home/user/Desktop/STM32-Projekte/FH-Vertibot/src/project_src/usart.c **** }
  52              		.loc 1 12 0
  53 0016 08BD     		pop	{r3, pc}
  54              	.L6:
  55              		.align	2
  56              	.L5:
  57 0018 00440040 		.word	1073759232
  58              		.cfi_endproc
  59              	.LFE111:
  61              		.align	1
  62              		.global	Usart3Put
  63              		.thumb
  64              		.thumb_func
  66              	Usart3Put:
  67              	.LFB112:
  13:/home/user/Desktop/STM32-Projekte/FH-Vertibot/src/project_src/usart.c **** 
  14:/home/user/Desktop/STM32-Projekte/FH-Vertibot/src/project_src/usart.c **** /*
  15:/home/user/Desktop/STM32-Projekte/FH-Vertibot/src/project_src/usart.c ****  * USART3 use Interrupt
  16:/home/user/Desktop/STM32-Projekte/FH-Vertibot/src/project_src/usart.c ****  * */
  17:/home/user/Desktop/STM32-Projekte/FH-Vertibot/src/project_src/usart.c **** 
  18:/home/user/Desktop/STM32-Projekte/FH-Vertibot/src/project_src/usart.c **** void Usart3Put(uint8_t ch)
  19:/home/user/Desktop/STM32-Projekte/FH-Vertibot/src/project_src/usart.c **** {
  68              		.loc 1 19 0
  69              		.cfi_startproc
  70              		@ args = 0, pretend = 0, frame = 0
  71              		@ frame_needed = 0, uses_anonymous_args = 0
  72              	.LVL4:
  73 001c 0146     		mov	r1, r0
  74 001e 08B5     		push	{r3, lr}
  75              	.LCFI1:
  76              		.cfi_def_cfa_offset 8
  77              		.cfi_offset 3, -8
  78              		.cfi_offset 14, -4
  20:/home/user/Desktop/STM32-Projekte/FH-Vertibot/src/project_src/usart.c ****       USART_SendData(USART3, (uint8_t) ch);
  79              		.loc 1 20 0
  80 0020 0448     		ldr	r0, .L10
  81              	.LVL5:
  82 0022 FFF7FEFF 		bl	USART_SendData
  83              	.LVL6:
  84              	.L9:
  21:/home/user/Desktop/STM32-Projekte/FH-Vertibot/src/project_src/usart.c ****       //Loop until the end of transmission
  22:/home/user/Desktop/STM32-Projekte/FH-Vertibot/src/project_src/usart.c ****       while(USART_GetFlagStatus(USART3, USART_FLAG_TC) == RESET)
  85              		.loc 1 22 0 discriminator 1
  86 0026 0348     		ldr	r0, .L10
  87 0028 4021     		movs	r1, #64
  88 002a FFF7FEFF 		bl	USART_GetFlagStatus
  89              	.LVL7:
  90 002e 0028     		cmp	r0, #0
  91 0030 F9D0     		beq	.L9
  23:/home/user/Desktop/STM32-Projekte/FH-Vertibot/src/project_src/usart.c ****       {
  24:/home/user/Desktop/STM32-Projekte/FH-Vertibot/src/project_src/usart.c ****       }
  25:/home/user/Desktop/STM32-Projekte/FH-Vertibot/src/project_src/usart.c **** }
  92              		.loc 1 25 0
  93 0032 08BD     		pop	{r3, pc}
  94              	.L11:
  95              		.align	2
  96              	.L10:
  97 0034 00480040 		.word	1073760256
  98              		.cfi_endproc
  99              	.LFE112:
 101              		.align	1
 102              		.global	Usart3Get
 103              		.thumb
 104              		.thumb_func
 106              	Usart3Get:
 107              	.LFB113:
  26:/home/user/Desktop/STM32-Projekte/FH-Vertibot/src/project_src/usart.c **** 
  27:/home/user/Desktop/STM32-Projekte/FH-Vertibot/src/project_src/usart.c **** uint8_t Usart3Get(){
 108              		.loc 1 27 0
 109              		.cfi_startproc
 110              		@ args = 0, pretend = 0, frame = 0
 111              		@ frame_needed = 0, uses_anonymous_args = 0
 112 0038 08B5     		push	{r3, lr}
 113              	.LCFI2:
 114              		.cfi_def_cfa_offset 8
 115              		.cfi_offset 3, -8
 116              		.cfi_offset 14, -4
 117              	.L14:
  28:/home/user/Desktop/STM32-Projekte/FH-Vertibot/src/project_src/usart.c **** 	uint8_t ch;
  29:/home/user/Desktop/STM32-Projekte/FH-Vertibot/src/project_src/usart.c **** 	while(USART_GetFlagStatus(USART3, USART_FLAG_RXNE) == RESET)
 118              		.loc 1 29 0 discriminator 1
 119 003a 0548     		ldr	r0, .L15
 120 003c 2021     		movs	r1, #32
 121 003e FFF7FEFF 		bl	USART_GetFlagStatus
 122              	.LVL8:
 123 0042 0028     		cmp	r0, #0
 124 0044 F9D0     		beq	.L14
  30:/home/user/Desktop/STM32-Projekte/FH-Vertibot/src/project_src/usart.c **** 	{
  31:/home/user/Desktop/STM32-Projekte/FH-Vertibot/src/project_src/usart.c **** 	}
  32:/home/user/Desktop/STM32-Projekte/FH-Vertibot/src/project_src/usart.c **** 	ch = USART_ReceiveData(USART3);
 125              		.loc 1 32 0
 126 0046 0248     		ldr	r0, .L15
 127 0048 FFF7FEFF 		bl	USART_ReceiveData
 128              	.LVL9:
  33:/home/user/Desktop/STM32-Projekte/FH-Vertibot/src/project_src/usart.c **** 	return ch;
  34:/home/user/Desktop/STM32-Projekte/FH-Vertibot/src/project_src/usart.c **** }
 129              		.loc 1 34 0
 130 004c C0B2     		uxtb	r0, r0
 131 004e 08BD     		pop	{r3, pc}
 132              	.L16:
 133              		.align	2
 134              	.L15:
 135 0050 00480040 		.word	1073760256
 136              		.cfi_endproc
 137              	.LFE113:
 139              		.align	1
 140              		.global	SendBufferedDataFrame
 141              		.thumb
 142              		.thumb_func
 144              	SendBufferedDataFrame:
 145              	.LFB114:
  35:/home/user/Desktop/STM32-Projekte/FH-Vertibot/src/project_src/usart.c **** 
  36:/home/user/Desktop/STM32-Projekte/FH-Vertibot/src/project_src/usart.c **** void SendBufferedDataFrame(USART_OBJ* It_Data ,void* Header, void* Value1, void* Value2, void* Valu
 146              		.loc 1 36 0
 147              		.cfi_startproc
 148              		@ args = 8, pretend = 0, frame = 0
 149              		@ frame_needed = 0, uses_anonymous_args = 0
 150              	.LVL10:
 151 0054 F0B5     		push	{r4, r5, r6, r7, lr}
 152              	.LCFI3:
 153              		.cfi_def_cfa_offset 20
 154              		.cfi_offset 4, -20
 155              		.cfi_offset 5, -16
 156              		.cfi_offset 6, -12
 157              		.cfi_offset 7, -8
 158              		.cfi_offset 14, -4
 159              		.loc 1 36 0
 160 0056 069C     		ldr	r4, [sp, #24]
  37:/home/user/Desktop/STM32-Projekte/FH-Vertibot/src/project_src/usart.c **** 	uint32_t offset;
  38:/home/user/Desktop/STM32-Projekte/FH-Vertibot/src/project_src/usart.c **** 	static uint32_t loopcnt = 0;
  39:/home/user/Desktop/STM32-Projekte/FH-Vertibot/src/project_src/usart.c **** 
  40:/home/user/Desktop/STM32-Projekte/FH-Vertibot/src/project_src/usart.c **** 	if (Bufferdeep < 1) {
  41:/home/user/Desktop/STM32-Projekte/FH-Vertibot/src/project_src/usart.c **** 		Bufferdeep = 1;
  42:/home/user/Desktop/STM32-Projekte/FH-Vertibot/src/project_src/usart.c **** 	}
  43:/home/user/Desktop/STM32-Projekte/FH-Vertibot/src/project_src/usart.c **** 
  44:/home/user/Desktop/STM32-Projekte/FH-Vertibot/src/project_src/usart.c **** 	if (loopcnt < (Bufferdeep-1)) {
 161              		.loc 1 44 0
 162 0058 1C4D     		ldr	r5, .L23
  36:/home/user/Desktop/STM32-Projekte/FH-Vertibot/src/project_src/usart.c **** void SendBufferedDataFrame(USART_OBJ* It_Data ,void* Header, void* Value1, void* Value2, void* Valu
 163              		.loc 1 36 0
 164 005a 059F     		ldr	r7, [sp, #20]
 165              		.loc 1 44 0
 166 005c 2E68     		ldr	r6, [r5]
 167 005e 0968     		ldr	r1, [r1]	@ unaligned
 168              	.LVL11:
  40:/home/user/Desktop/STM32-Projekte/FH-Vertibot/src/project_src/usart.c **** 	if (Bufferdeep < 1) {
 169              		.loc 1 40 0
 170 0060 002C     		cmp	r4, #0
  41:/home/user/Desktop/STM32-Projekte/FH-Vertibot/src/project_src/usart.c **** 		Bufferdeep = 1;
 171              		.loc 1 41 0
 172 0062 08BF     		it	eq
 173 0064 0124     		moveq	r4, #1
 174              		.loc 1 44 0
 175 0066 013C     		subs	r4, r4, #1
 176 0068 A642     		cmp	r6, r4
 177 006a 4FEA0614 		lsl	r4, r6, #4
 178 006e 12D2     		bcs	.L19
 179              	.LVL12:
 180              	.LBB2:
  45:/home/user/Desktop/STM32-Projekte/FH-Vertibot/src/project_src/usart.c **** 		offset = loopcnt * 16;
  46:/home/user/Desktop/STM32-Projekte/FH-Vertibot/src/project_src/usart.c **** 		memcpy(&It_Data->txbuffer[offset + 0], Header, 4); // 0xFF7F3F1F => 4286529311 => [255][127][63][
 181              		.loc 1 46 0
 182 0070 04F5807C 		add	ip, r4, #256
  47:/home/user/Desktop/STM32-Projekte/FH-Vertibot/src/project_src/usart.c **** 		memcpy(&It_Data->txbuffer[offset + 4], Value1, 4);
  48:/home/user/Desktop/STM32-Projekte/FH-Vertibot/src/project_src/usart.c **** 		memcpy(&It_Data->txbuffer[offset + 8], Value2, 4);
  49:/home/user/Desktop/STM32-Projekte/FH-Vertibot/src/project_src/usart.c **** 		memcpy(&It_Data->txbuffer[offset + 12], Value3, 4);
  50:/home/user/Desktop/STM32-Projekte/FH-Vertibot/src/project_src/usart.c **** 		loopcnt++;
 183              		.loc 1 50 0
 184 0074 0136     		adds	r6, r6, #1
  46:/home/user/Desktop/STM32-Projekte/FH-Vertibot/src/project_src/usart.c **** 		memcpy(&It_Data->txbuffer[offset + 0], Header, 4); // 0xFF7F3F1F => 4286529311 => [255][127][63][
 185              		.loc 1 46 0
 186 0076 40F80C10 		str	r1, [r0, ip]	@ unaligned
  47:/home/user/Desktop/STM32-Projekte/FH-Vertibot/src/project_src/usart.c **** 		memcpy(&It_Data->txbuffer[offset + 4], Value1, 4);
 187              		.loc 1 47 0
 188 007a 04F58271 		add	r1, r4, #260
 189 007e 1268     		ldr	r2, [r2]	@ unaligned
 190              	.LVL13:
 191 0080 4250     		str	r2, [r0, r1]	@ unaligned
  48:/home/user/Desktop/STM32-Projekte/FH-Vertibot/src/project_src/usart.c **** 		memcpy(&It_Data->txbuffer[offset + 8], Value2, 4);
 192              		.loc 1 48 0
 193 0082 04F58472 		add	r2, r4, #264
 194 0086 1B68     		ldr	r3, [r3]	@ unaligned
 195              	.LVL14:
 196 0088 8350     		str	r3, [r0, r2]	@ unaligned
  49:/home/user/Desktop/STM32-Projekte/FH-Vertibot/src/project_src/usart.c **** 		memcpy(&It_Data->txbuffer[offset + 12], Value3, 4);
 197              		.loc 1 49 0
 198 008a 04F58674 		add	r4, r4, #268
 199              	.LVL15:
 200 008e 3B68     		ldr	r3, [r7]	@ unaligned
 201 0090 0351     		str	r3, [r0, r4]	@ unaligned
 202              		.loc 1 50 0
 203 0092 2E60     		str	r6, [r5]
 204              	.LBE2:
 205 0094 F0BD     		pop	{r4, r5, r6, r7, pc}
 206              	.LVL16:
 207              	.L19:
 208              	.LBB3:
  51:/home/user/Desktop/STM32-Projekte/FH-Vertibot/src/project_src/usart.c **** 	} else {
  52:/home/user/Desktop/STM32-Projekte/FH-Vertibot/src/project_src/usart.c **** 		offset = loopcnt * 16;
  53:/home/user/Desktop/STM32-Projekte/FH-Vertibot/src/project_src/usart.c **** 		memcpy(&It_Data->txbuffer[offset + 0], Header, 4); // 0xFF7F3F1F => 4286529311 => [255][127][63][
 209              		.loc 1 53 0
 210 0096 04F58076 		add	r6, r4, #256
 211 009a 8151     		str	r1, [r0, r6]	@ unaligned
  54:/home/user/Desktop/STM32-Projekte/FH-Vertibot/src/project_src/usart.c **** 		memcpy(&It_Data->txbuffer[offset + 4], Value1, 4);
 212              		.loc 1 54 0
 213 009c 04F58271 		add	r1, r4, #260
 214 00a0 1268     		ldr	r2, [r2]	@ unaligned
 215              	.LVL17:
 216 00a2 4250     		str	r2, [r0, r1]	@ unaligned
  55:/home/user/Desktop/STM32-Projekte/FH-Vertibot/src/project_src/usart.c **** 		memcpy(&It_Data->txbuffer[offset + 8], Value2, 4);
 217              		.loc 1 55 0
 218 00a4 04F58472 		add	r2, r4, #264
 219 00a8 1B68     		ldr	r3, [r3]	@ unaligned
 220              	.LVL18:
 221 00aa 8350     		str	r3, [r0, r2]	@ unaligned
  56:/home/user/Desktop/STM32-Projekte/FH-Vertibot/src/project_src/usart.c **** 		memcpy(&It_Data->txbuffer[offset + 12], Value3, 4);
 222              		.loc 1 56 0
 223 00ac 04F58673 		add	r3, r4, #268
 224 00b0 3A68     		ldr	r2, [r7]	@ unaligned
 225 00b2 C250     		str	r2, [r0, r3]	@ unaligned
  57:/home/user/Desktop/STM32-Projekte/FH-Vertibot/src/project_src/usart.c **** 		It_Data->txlen = (loopcnt+1)*16;
 226              		.loc 1 57 0
 227 00b4 1034     		adds	r4, r4, #16
 228              	.LVL19:
  58:/home/user/Desktop/STM32-Projekte/FH-Vertibot/src/project_src/usart.c **** 		loopcnt = 0;
 229              		.loc 1 58 0
 230 00b6 0023     		movs	r3, #0
  57:/home/user/Desktop/STM32-Projekte/FH-Vertibot/src/project_src/usart.c **** 		It_Data->txlen = (loopcnt+1)*16;
 231              		.loc 1 57 0
 232 00b8 C0F81042 		str	r4, [r0, #528]
 233              		.loc 1 58 0
 234 00bc 2B60     		str	r3, [r5]
  59:/home/user/Desktop/STM32-Projekte/FH-Vertibot/src/project_src/usart.c **** 		USART_ITConfig(USART3, USART_IT_TXE, ENABLE);
 235              		.loc 1 59 0
 236 00be 0448     		ldr	r0, .L23+4
 237              	.LVL20:
 238 00c0 0449     		ldr	r1, .L23+8
 239 00c2 0122     		movs	r2, #1
 240              	.LBE3:
  60:/home/user/Desktop/STM32-Projekte/FH-Vertibot/src/project_src/usart.c **** 	}
  61:/home/user/Desktop/STM32-Projekte/FH-Vertibot/src/project_src/usart.c **** }
 241              		.loc 1 61 0
 242 00c4 BDE8F040 		pop	{r4, r5, r6, r7, lr}
 243              	.LVL21:
 244              	.LBB4:
  59:/home/user/Desktop/STM32-Projekte/FH-Vertibot/src/project_src/usart.c **** 		USART_ITConfig(USART3, USART_IT_TXE, ENABLE);
 245              		.loc 1 59 0
 246 00c8 FFF7FEBF 		b	USART_ITConfig
 247              	.LVL22:
 248              	.L24:
 249              		.align	2
 250              	.L23:
 251 00cc 00000000 		.word	.LANCHOR0
 252 00d0 00480040 		.word	1073760256
 253 00d4 07010700 		.word	459015
 254              	.LBE4:
 255              		.cfi_endproc
 256              	.LFE114:
 258              		.comm	It_Com,532,4
 259              		.bss
 260              		.align	2
 261              		.set	.LANCHOR0,. + 0
 264              	loopcnt.6688:
 265 0000 00000000 		.space	4
 266              		.text
 267              	.Letext0:
 268              		.file 2 "/home/user/gcc-arm-none-eabi-4_8-2013q4/arm-none-eabi/include/stdint.h"
 269              		.file 3 "/home/user/Desktop/STM32-Projekte/FH-Vertibot/src/CMSIS/Device/ST/STM32F30x/Include/stm32
 270              		.file 4 "/home/user/Desktop/STM32-Projekte/FH-Vertibot/src/project_inc/usart.h"
 271              		.file 5 "/home/user/Desktop/STM32-Projekte/FH-Vertibot/src/CMSIS/Include/core_cm4.h"
 272              		.file 6 "<built-in>"
 273              		.file 7 "/home/user/Desktop/STM32-Projekte/FH-Vertibot/src/STM32F30x_StdPeriph_Driver/inc/stm32f30