   1              		.syntax unified
   2              		.cpu cortex-m4
   3              		.eabi_attribute 27, 3
   4              		.eabi_attribute 28, 1
   5              		.fpu fpv4-sp-d16
   6              		.eabi_attribute 20, 1
   7              		.eabi_attribute 21, 1
   8              		.eabi_attribute 23, 3
   9              		.eabi_attribute 24, 1
  10              		.eabi_attribute 25, 1
  11              		.eabi_attribute 26, 1
  12              		.eabi_attribute 30, 4
  13              		.eabi_attribute 34, 1
  14              		.eabi_attribute 18, 4
  15              		.thumb
  16              		.file	"stm32f30x_spi.c"
  17              		.text
  18              	.Ltext0:
  19              		.cfi_sections	.debug_frame
  20              		.align	1
  21              		.global	SPI_I2S_DeInit
  22              		.thumb
  23              		.thumb_func
  25              	SPI_I2S_DeInit:
  26              	.LFB111:
  27              		.file 1 "/home/user/Desktop/STM32-Projekte/FH-Vertibot/src/STM32F30x_StdPeriph_Driver/src/stm32f30
   1:/home/user/Desktop/STM32-Projekte/FH-Vertibot/src/STM32F30x_StdPeriph_Driver/src/stm32f30x_spi.c **** /**
   2:/home/user/Desktop/STM32-Projekte/FH-Vertibot/src/STM32F30x_StdPeriph_Driver/src/stm32f30x_spi.c ****   ******************************************************************************
   3:/home/user/Desktop/STM32-Projekte/FH-Vertibot/src/STM32F30x_StdPeriph_Driver/src/stm32f30x_spi.c ****   * @file    stm32f30x_spi.c
   4:/home/user/Desktop/STM32-Projekte/FH-Vertibot/src/STM32F30x_StdPeriph_Driver/src/stm32f30x_spi.c ****   * @author  MCD Application Team
   5:/home/user/Desktop/STM32-Projekte/FH-Vertibot/src/STM32F30x_StdPeriph_Driver/src/stm32f30x_spi.c ****   * @version V1.0.1
   6:/home/user/Desktop/STM32-Projekte/FH-Vertibot/src/STM32F30x_StdPeriph_Driver/src/stm32f30x_spi.c ****   * @date    23-October-2012
   7:/home/user/Desktop/STM32-Projekte/FH-Vertibot/src/STM32F30x_StdPeriph_Driver/src/stm32f30x_spi.c ****   * @brief   This file provides firmware functions to manage the following 
   8:/home/user/Desktop/STM32-Projekte/FH-Vertibot/src/STM32F30x_StdPeriph_Driver/src/stm32f30x_spi.c ****   *          functionalities of the Serial peripheral interface (SPI):
   9:/home/user/Desktop/STM32-Projekte/FH-Vertibot/src/STM32F30x_StdPeriph_Driver/src/stm32f30x_spi.c ****   *           + Initialization and Configuration
  10:/home/user/Desktop/STM32-Projekte/FH-Vertibot/src/STM32F30x_StdPeriph_Driver/src/stm32f30x_spi.c ****   *           + Data transfers functions
  11:/home/user/Desktop/STM32-Projekte/FH-Vertibot/src/STM32F30x_StdPeriph_Driver/src/stm32f30x_spi.c ****   *           + Hardware CRC Calculation
  12:/home/user/Desktop/STM32-Projekte/FH-Vertibot/src/STM32F30x_StdPeriph_Driver/src/stm32f30x_spi.c ****   *           + DMA transfers management
  13:/home/user/Desktop/STM32-Projekte/FH-Vertibot/src/STM32F30x_StdPeriph_Driver/src/stm32f30x_spi.c ****   *           + Interrupts and flags management
  14:/home/user/Desktop/STM32-Projekte/FH-Vertibot/src/STM32F30x_StdPeriph_Driver/src/stm32f30x_spi.c ****   *
  15:/home/user/Desktop/STM32-Projekte/FH-Vertibot/src/STM32F30x_StdPeriph_Driver/src/stm32f30x_spi.c ****   *  @verbatim
  16:/home/user/Desktop/STM32-Projekte/FH-Vertibot/src/STM32F30x_StdPeriph_Driver/src/stm32f30x_spi.c ****   
  17:/home/user/Desktop/STM32-Projekte/FH-Vertibot/src/STM32F30x_StdPeriph_Driver/src/stm32f30x_spi.c ****   
  18:/home/user/Desktop/STM32-Projekte/FH-Vertibot/src/STM32F30x_StdPeriph_Driver/src/stm32f30x_spi.c ****  ===============================================================================
  19:/home/user/Desktop/STM32-Projekte/FH-Vertibot/src/STM32F30x_StdPeriph_Driver/src/stm32f30x_spi.c ****                       ##### How to use this driver #####
  20:/home/user/Desktop/STM32-Projekte/FH-Vertibot/src/STM32F30x_StdPeriph_Driver/src/stm32f30x_spi.c ****  ===============================================================================
  21:/home/user/Desktop/STM32-Projekte/FH-Vertibot/src/STM32F30x_StdPeriph_Driver/src/stm32f30x_spi.c ****     [..]
  22:/home/user/Desktop/STM32-Projekte/FH-Vertibot/src/STM32F30x_StdPeriph_Driver/src/stm32f30x_spi.c ****         (#) Enable peripheral clock using RCC_APBPeriphClockCmd(RCC_APB2Periph_SPI1, ENABLE)
  23:/home/user/Desktop/STM32-Projekte/FH-Vertibot/src/STM32F30x_StdPeriph_Driver/src/stm32f30x_spi.c ****             function for SPI1 or using RCC_APBPeriphClockCmd(RCC_APB1Periph_SPI2, ENABLE)
  24:/home/user/Desktop/STM32-Projekte/FH-Vertibot/src/STM32F30x_StdPeriph_Driver/src/stm32f30x_spi.c ****             function for SPI2.
  25:/home/user/Desktop/STM32-Projekte/FH-Vertibot/src/STM32F30x_StdPeriph_Driver/src/stm32f30x_spi.c ****         (#) Enable SCK, MOSI, MISO and NSS GPIO clocks using RCC_AHBPeriphClockCmd()
  26:/home/user/Desktop/STM32-Projekte/FH-Vertibot/src/STM32F30x_StdPeriph_Driver/src/stm32f30x_spi.c ****             function. 
  27:/home/user/Desktop/STM32-Projekte/FH-Vertibot/src/STM32F30x_StdPeriph_Driver/src/stm32f30x_spi.c ****         (#) Peripherals alternate function: 
  28:/home/user/Desktop/STM32-Projekte/FH-Vertibot/src/STM32F30x_StdPeriph_Driver/src/stm32f30x_spi.c ****             (++) Connect the pin to the desired peripherals' Alternate 
  29:/home/user/Desktop/STM32-Projekte/FH-Vertibot/src/STM32F30x_StdPeriph_Driver/src/stm32f30x_spi.c ****                  Function (AF) using GPIO_PinAFConfig() function.
  30:/home/user/Desktop/STM32-Projekte/FH-Vertibot/src/STM32F30x_StdPeriph_Driver/src/stm32f30x_spi.c ****             (++) Configure the desired pin in alternate function by:
  31:/home/user/Desktop/STM32-Projekte/FH-Vertibot/src/STM32F30x_StdPeriph_Driver/src/stm32f30x_spi.c ****                  GPIO_InitStruct->GPIO_Mode = GPIO_Mode_AF.
  32:/home/user/Desktop/STM32-Projekte/FH-Vertibot/src/STM32F30x_StdPeriph_Driver/src/stm32f30x_spi.c ****             (++) Select the type, pull-up/pull-down and output speed via 
  33:/home/user/Desktop/STM32-Projekte/FH-Vertibot/src/STM32F30x_StdPeriph_Driver/src/stm32f30x_spi.c ****                  GPIO_PuPd, GPIO_OType and GPIO_Speed members.
  34:/home/user/Desktop/STM32-Projekte/FH-Vertibot/src/STM32F30x_StdPeriph_Driver/src/stm32f30x_spi.c ****             (++) Call GPIO_Init() function.
  35:/home/user/Desktop/STM32-Projekte/FH-Vertibot/src/STM32F30x_StdPeriph_Driver/src/stm32f30x_spi.c ****         (#) Program the Polarity, Phase, First Data, Baud Rate Prescaler, Slave 
  36:/home/user/Desktop/STM32-Projekte/FH-Vertibot/src/STM32F30x_StdPeriph_Driver/src/stm32f30x_spi.c ****             Management, Peripheral Mode and CRC Polynomial values using the SPI_Init()
  37:/home/user/Desktop/STM32-Projekte/FH-Vertibot/src/STM32F30x_StdPeriph_Driver/src/stm32f30x_spi.c ****             function in SPI mode. In I2S mode, program the Mode, Standard, Data Format,
  38:/home/user/Desktop/STM32-Projekte/FH-Vertibot/src/STM32F30x_StdPeriph_Driver/src/stm32f30x_spi.c ****             MCLK Output, Audio frequency and Polarity using I2S_Init() function.
  39:/home/user/Desktop/STM32-Projekte/FH-Vertibot/src/STM32F30x_StdPeriph_Driver/src/stm32f30x_spi.c ****         (#) Configure the FIFO threshold using SPI_RxFIFOThresholdConfig() to select 
  40:/home/user/Desktop/STM32-Projekte/FH-Vertibot/src/STM32F30x_StdPeriph_Driver/src/stm32f30x_spi.c ****             at which threshold the RXNE event is generated.     
  41:/home/user/Desktop/STM32-Projekte/FH-Vertibot/src/STM32F30x_StdPeriph_Driver/src/stm32f30x_spi.c ****         (#) Enable the NVIC and the corresponding interrupt using the function 
  42:/home/user/Desktop/STM32-Projekte/FH-Vertibot/src/STM32F30x_StdPeriph_Driver/src/stm32f30x_spi.c ****             SPI_I2S_ITConfig() if you need to use interrupt mode. 
  43:/home/user/Desktop/STM32-Projekte/FH-Vertibot/src/STM32F30x_StdPeriph_Driver/src/stm32f30x_spi.c ****         (#) When using the DMA mode 
  44:/home/user/Desktop/STM32-Projekte/FH-Vertibot/src/STM32F30x_StdPeriph_Driver/src/stm32f30x_spi.c ****             (++) Configure the DMA using DMA_Init() function.
  45:/home/user/Desktop/STM32-Projekte/FH-Vertibot/src/STM32F30x_StdPeriph_Driver/src/stm32f30x_spi.c ****             (++) Active the needed channel Request using SPI_I2S_DMACmd() function.
  46:/home/user/Desktop/STM32-Projekte/FH-Vertibot/src/STM32F30x_StdPeriph_Driver/src/stm32f30x_spi.c ****         (#) Enable the SPI using the SPI_Cmd() function or enable the I2S using
  47:/home/user/Desktop/STM32-Projekte/FH-Vertibot/src/STM32F30x_StdPeriph_Driver/src/stm32f30x_spi.c ****             I2S_Cmd().
  48:/home/user/Desktop/STM32-Projekte/FH-Vertibot/src/STM32F30x_StdPeriph_Driver/src/stm32f30x_spi.c ****         (#) Enable the DMA using the DMA_Cmd() function when using DMA mode. 
  49:/home/user/Desktop/STM32-Projekte/FH-Vertibot/src/STM32F30x_StdPeriph_Driver/src/stm32f30x_spi.c ****         (#) Optionally you can enable/configure the following parameters without
  50:/home/user/Desktop/STM32-Projekte/FH-Vertibot/src/STM32F30x_StdPeriph_Driver/src/stm32f30x_spi.c ****             re-initialization (i.e there is no need to call again SPI_Init() function):
  51:/home/user/Desktop/STM32-Projekte/FH-Vertibot/src/STM32F30x_StdPeriph_Driver/src/stm32f30x_spi.c ****             (++) When bidirectional mode (SPI_Direction_1Line_Rx or SPI_Direction_1Line_Tx)
  52:/home/user/Desktop/STM32-Projekte/FH-Vertibot/src/STM32F30x_StdPeriph_Driver/src/stm32f30x_spi.c ****                  is programmed as Data direction parameter using the SPI_Init() function
  53:/home/user/Desktop/STM32-Projekte/FH-Vertibot/src/STM32F30x_StdPeriph_Driver/src/stm32f30x_spi.c ****                  it can be possible to switch between SPI_Direction_Tx or SPI_Direction_Rx
  54:/home/user/Desktop/STM32-Projekte/FH-Vertibot/src/STM32F30x_StdPeriph_Driver/src/stm32f30x_spi.c ****                  using the SPI_BiDirectionalLineConfig() function.
  55:/home/user/Desktop/STM32-Projekte/FH-Vertibot/src/STM32F30x_StdPeriph_Driver/src/stm32f30x_spi.c ****             (++) When SPI_NSS_Soft is selected as Slave Select Management parameter 
  56:/home/user/Desktop/STM32-Projekte/FH-Vertibot/src/STM32F30x_StdPeriph_Driver/src/stm32f30x_spi.c ****                  using the SPI_Init() function it can be possible to manage the 
  57:/home/user/Desktop/STM32-Projekte/FH-Vertibot/src/STM32F30x_StdPeriph_Driver/src/stm32f30x_spi.c ****                  NSS internal signal using the SPI_NSSInternalSoftwareConfig() function.
  58:/home/user/Desktop/STM32-Projekte/FH-Vertibot/src/STM32F30x_StdPeriph_Driver/src/stm32f30x_spi.c ****             (++) Reconfigure the data size using the SPI_DataSizeConfig() function.  
  59:/home/user/Desktop/STM32-Projekte/FH-Vertibot/src/STM32F30x_StdPeriph_Driver/src/stm32f30x_spi.c ****             (++) Enable or disable the SS output using the SPI_SSOutputCmd() function.
  60:/home/user/Desktop/STM32-Projekte/FH-Vertibot/src/STM32F30x_StdPeriph_Driver/src/stm32f30x_spi.c ****         (#) To use the CRC Hardware calculation feature refer to the Peripheral 
  61:/home/user/Desktop/STM32-Projekte/FH-Vertibot/src/STM32F30x_StdPeriph_Driver/src/stm32f30x_spi.c ****             CRC hardware Calculation subsection.
  62:/home/user/Desktop/STM32-Projekte/FH-Vertibot/src/STM32F30x_StdPeriph_Driver/src/stm32f30x_spi.c ****     [..] It is possible to use SPI in I2S full duplex mode, in this case, each SPI 
  63:/home/user/Desktop/STM32-Projekte/FH-Vertibot/src/STM32F30x_StdPeriph_Driver/src/stm32f30x_spi.c ****          peripheral is able to manage sending and receiving data simultaneously
  64:/home/user/Desktop/STM32-Projekte/FH-Vertibot/src/STM32F30x_StdPeriph_Driver/src/stm32f30x_spi.c ****          using two data lines. Each SPI peripheral has an extended block called I2Sxext
  65:/home/user/Desktop/STM32-Projekte/FH-Vertibot/src/STM32F30x_StdPeriph_Driver/src/stm32f30x_spi.c ****          (ie. I2S2ext for SPI2 and I2S3ext for SPI3).
  66:/home/user/Desktop/STM32-Projekte/FH-Vertibot/src/STM32F30x_StdPeriph_Driver/src/stm32f30x_spi.c ****          The extension block is not a full SPI IP, it is used only as I2S slave to
  67:/home/user/Desktop/STM32-Projekte/FH-Vertibot/src/STM32F30x_StdPeriph_Driver/src/stm32f30x_spi.c ****          implement full duplex mode. The extension block uses the same clock sources
  68:/home/user/Desktop/STM32-Projekte/FH-Vertibot/src/STM32F30x_StdPeriph_Driver/src/stm32f30x_spi.c ****          as its master.          
  69:/home/user/Desktop/STM32-Projekte/FH-Vertibot/src/STM32F30x_StdPeriph_Driver/src/stm32f30x_spi.c ****          To configure I2S full duplex you have to:
  70:/home/user/Desktop/STM32-Projekte/FH-Vertibot/src/STM32F30x_StdPeriph_Driver/src/stm32f30x_spi.c ****         (#) Configure SPIx in I2S mode (I2S_Init() function) as described above. 
  71:/home/user/Desktop/STM32-Projekte/FH-Vertibot/src/STM32F30x_StdPeriph_Driver/src/stm32f30x_spi.c ****         (#) Call the I2S_FullDuplexConfig() function using the same strucutre passed to  
  72:/home/user/Desktop/STM32-Projekte/FH-Vertibot/src/STM32F30x_StdPeriph_Driver/src/stm32f30x_spi.c ****             I2S_Init() function.
  73:/home/user/Desktop/STM32-Projekte/FH-Vertibot/src/STM32F30x_StdPeriph_Driver/src/stm32f30x_spi.c ****         (#) Call I2S_Cmd() for SPIx then for its extended block.
  74:/home/user/Desktop/STM32-Projekte/FH-Vertibot/src/STM32F30x_StdPeriph_Driver/src/stm32f30x_spi.c ****         (#) Configure interrupts or DMA requests and to get/clear flag status, 
  75:/home/user/Desktop/STM32-Projekte/FH-Vertibot/src/STM32F30x_StdPeriph_Driver/src/stm32f30x_spi.c ****             use I2Sxext instance for the extension block.
  76:/home/user/Desktop/STM32-Projekte/FH-Vertibot/src/STM32F30x_StdPeriph_Driver/src/stm32f30x_spi.c ****         [..] Functions that can be called with I2Sxext instances are:
  77:/home/user/Desktop/STM32-Projekte/FH-Vertibot/src/STM32F30x_StdPeriph_Driver/src/stm32f30x_spi.c ****              I2S_Cmd(), I2S_FullDuplexConfig(), SPI_I2S_ReceiveData16(), SPI_I2S_SendData16(), 
  78:/home/user/Desktop/STM32-Projekte/FH-Vertibot/src/STM32F30x_StdPeriph_Driver/src/stm32f30x_spi.c ****              SPI_I2S_DMACmd(), SPI_I2S_ITConfig(), SPI_I2S_GetFlagStatus(), SPI_I2S_ClearFlag(),
  79:/home/user/Desktop/STM32-Projekte/FH-Vertibot/src/STM32F30x_StdPeriph_Driver/src/stm32f30x_spi.c ****              SPI_I2S_GetITStatus() and SPI_I2S_ClearITPendingBit().
  80:/home/user/Desktop/STM32-Projekte/FH-Vertibot/src/STM32F30x_StdPeriph_Driver/src/stm32f30x_spi.c ****         [..] Example: To use SPI3 in Full duplex mode (SPI3 is Master Tx, I2S3ext is Slave Rx):
  81:/home/user/Desktop/STM32-Projekte/FH-Vertibot/src/STM32F30x_StdPeriph_Driver/src/stm32f30x_spi.c ****         [..] RCC_APB1PeriphClockCmd(RCC_APB1Periph_SPI3, ENABLE);   
  82:/home/user/Desktop/STM32-Projekte/FH-Vertibot/src/STM32F30x_StdPeriph_Driver/src/stm32f30x_spi.c ****              I2S_StructInit(&I2SInitStruct);
  83:/home/user/Desktop/STM32-Projekte/FH-Vertibot/src/STM32F30x_StdPeriph_Driver/src/stm32f30x_spi.c ****              I2SInitStruct.Mode = I2S_Mode_MasterTx;     
  84:/home/user/Desktop/STM32-Projekte/FH-Vertibot/src/STM32F30x_StdPeriph_Driver/src/stm32f30x_spi.c ****              I2S_Init(SPI3, &I2SInitStruct);
  85:/home/user/Desktop/STM32-Projekte/FH-Vertibot/src/STM32F30x_StdPeriph_Driver/src/stm32f30x_spi.c ****              I2S_FullDuplexConfig(SPI3ext, &I2SInitStruct)
  86:/home/user/Desktop/STM32-Projekte/FH-Vertibot/src/STM32F30x_StdPeriph_Driver/src/stm32f30x_spi.c ****              I2S_Cmd(SPI3, ENABLE);
  87:/home/user/Desktop/STM32-Projekte/FH-Vertibot/src/STM32F30x_StdPeriph_Driver/src/stm32f30x_spi.c ****              I2S_Cmd(SPI3ext, ENABLE);
  88:/home/user/Desktop/STM32-Projekte/FH-Vertibot/src/STM32F30x_StdPeriph_Driver/src/stm32f30x_spi.c ****              ...
  89:/home/user/Desktop/STM32-Projekte/FH-Vertibot/src/STM32F30x_StdPeriph_Driver/src/stm32f30x_spi.c ****              while (SPI_I2S_GetFlagStatus(SPI2, SPI_FLAG_TXE) == RESET)
  90:/home/user/Desktop/STM32-Projekte/FH-Vertibot/src/STM32F30x_StdPeriph_Driver/src/stm32f30x_spi.c ****              {}
  91:/home/user/Desktop/STM32-Projekte/FH-Vertibot/src/STM32F30x_StdPeriph_Driver/src/stm32f30x_spi.c ****              SPI_I2S_SendData16(SPI3, txdata[i]);
  92:/home/user/Desktop/STM32-Projekte/FH-Vertibot/src/STM32F30x_StdPeriph_Driver/src/stm32f30x_spi.c ****              ...  
  93:/home/user/Desktop/STM32-Projekte/FH-Vertibot/src/STM32F30x_StdPeriph_Driver/src/stm32f30x_spi.c ****              while (SPI_I2S_GetFlagStatus(I2S3ext, SPI_FLAG_RXNE) == RESET)
  94:/home/user/Desktop/STM32-Projekte/FH-Vertibot/src/STM32F30x_StdPeriph_Driver/src/stm32f30x_spi.c ****              {}
  95:/home/user/Desktop/STM32-Projekte/FH-Vertibot/src/STM32F30x_StdPeriph_Driver/src/stm32f30x_spi.c ****              rxdata[i] = SPI_I2S_ReceiveData16(I2S3ext);
  96:/home/user/Desktop/STM32-Projekte/FH-Vertibot/src/STM32F30x_StdPeriph_Driver/src/stm32f30x_spi.c ****              ...          
  97:/home/user/Desktop/STM32-Projekte/FH-Vertibot/src/STM32F30x_StdPeriph_Driver/src/stm32f30x_spi.c ****     [..]
  98:/home/user/Desktop/STM32-Projekte/FH-Vertibot/src/STM32F30x_StdPeriph_Driver/src/stm32f30x_spi.c ****     (@) In SPI mode: To use the SPI TI mode, call the function SPI_TIModeCmd() 
  99:/home/user/Desktop/STM32-Projekte/FH-Vertibot/src/STM32F30x_StdPeriph_Driver/src/stm32f30x_spi.c ****         just after calling the function SPI_Init().  
 100:/home/user/Desktop/STM32-Projekte/FH-Vertibot/src/STM32F30x_StdPeriph_Driver/src/stm32f30x_spi.c ****               
 101:/home/user/Desktop/STM32-Projekte/FH-Vertibot/src/STM32F30x_StdPeriph_Driver/src/stm32f30x_spi.c ****     @endverbatim
 102:/home/user/Desktop/STM32-Projekte/FH-Vertibot/src/STM32F30x_StdPeriph_Driver/src/stm32f30x_spi.c ****   ******************************************************************************
 103:/home/user/Desktop/STM32-Projekte/FH-Vertibot/src/STM32F30x_StdPeriph_Driver/src/stm32f30x_spi.c ****   * @attention
 104:/home/user/Desktop/STM32-Projekte/FH-Vertibot/src/STM32F30x_StdPeriph_Driver/src/stm32f30x_spi.c ****   *
 105:/home/user/Desktop/STM32-Projekte/FH-Vertibot/src/STM32F30x_StdPeriph_Driver/src/stm32f30x_spi.c ****   * <h2><center>&copy; COPYRIGHT 2012 STMicroelectronics</center></h2>
 106:/home/user/Desktop/STM32-Projekte/FH-Vertibot/src/STM32F30x_StdPeriph_Driver/src/stm32f30x_spi.c ****   *
 107:/home/user/Desktop/STM32-Projekte/FH-Vertibot/src/STM32F30x_StdPeriph_Driver/src/stm32f30x_spi.c ****   * Licensed under MCD-ST Liberty SW License Agreement V2, (the "License");
 108:/home/user/Desktop/STM32-Projekte/FH-Vertibot/src/STM32F30x_StdPeriph_Driver/src/stm32f30x_spi.c ****   * You may not use this file except in compliance with the License.
 109:/home/user/Desktop/STM32-Projekte/FH-Vertibot/src/STM32F30x_StdPeriph_Driver/src/stm32f30x_spi.c ****   * You may obtain a copy of the License at:
 110:/home/user/Desktop/STM32-Projekte/FH-Vertibot/src/STM32F30x_StdPeriph_Driver/src/stm32f30x_spi.c ****   *
 111:/home/user/Desktop/STM32-Projekte/FH-Vertibot/src/STM32F30x_StdPeriph_Driver/src/stm32f30x_spi.c ****   *        http://www.st.com/software_license_agreement_liberty_v2
 112:/home/user/Desktop/STM32-Projekte/FH-Vertibot/src/STM32F30x_StdPeriph_Driver/src/stm32f30x_spi.c ****   *
 113:/home/user/Desktop/STM32-Projekte/FH-Vertibot/src/STM32F30x_StdPeriph_Driver/src/stm32f30x_spi.c ****   * Unless required by applicable law or agreed to in writing, software 
 114:/home/user/Desktop/STM32-Projekte/FH-Vertibot/src/STM32F30x_StdPeriph_Driver/src/stm32f30x_spi.c ****   * distributed under the License is distributed on an "AS IS" BASIS, 
 115:/home/user/Desktop/STM32-Projekte/FH-Vertibot/src/STM32F30x_StdPeriph_Driver/src/stm32f30x_spi.c ****   * WITHOUT WARRANTIES OR CONDITIONS OF ANY KIND, either express or implied.
 116:/home/user/Desktop/STM32-Projekte/FH-Vertibot/src/STM32F30x_StdPeriph_Driver/src/stm32f30x_spi.c ****   * See the License for the specific language governing permissions and
 117:/home/user/Desktop/STM32-Projekte/FH-Vertibot/src/STM32F30x_StdPeriph_Driver/src/stm32f30x_spi.c ****   * limitations under the License.
 118:/home/user/Desktop/STM32-Projekte/FH-Vertibot/src/STM32F30x_StdPeriph_Driver/src/stm32f30x_spi.c ****   *
 119:/home/user/Desktop/STM32-Projekte/FH-Vertibot/src/STM32F30x_StdPeriph_Driver/src/stm32f30x_spi.c ****   ******************************************************************************
 120:/home/user/Desktop/STM32-Projekte/FH-Vertibot/src/STM32F30x_StdPeriph_Driver/src/stm32f30x_spi.c ****   */
 121:/home/user/Desktop/STM32-Projekte/FH-Vertibot/src/STM32F30x_StdPeriph_Driver/src/stm32f30x_spi.c **** 
 122:/home/user/Desktop/STM32-Projekte/FH-Vertibot/src/STM32F30x_StdPeriph_Driver/src/stm32f30x_spi.c **** /* Includes ------------------------------------------------------------------*/
 123:/home/user/Desktop/STM32-Projekte/FH-Vertibot/src/STM32F30x_StdPeriph_Driver/src/stm32f30x_spi.c **** #include "stm32f30x_spi.h"
 124:/home/user/Desktop/STM32-Projekte/FH-Vertibot/src/STM32F30x_StdPeriph_Driver/src/stm32f30x_spi.c **** #include "stm32f30x_rcc.h"
 125:/home/user/Desktop/STM32-Projekte/FH-Vertibot/src/STM32F30x_StdPeriph_Driver/src/stm32f30x_spi.c **** 
 126:/home/user/Desktop/STM32-Projekte/FH-Vertibot/src/STM32F30x_StdPeriph_Driver/src/stm32f30x_spi.c **** /** @addtogroup STM32F30x_StdPeriph_Driver
 127:/home/user/Desktop/STM32-Projekte/FH-Vertibot/src/STM32F30x_StdPeriph_Driver/src/stm32f30x_spi.c ****   * @{
 128:/home/user/Desktop/STM32-Projekte/FH-Vertibot/src/STM32F30x_StdPeriph_Driver/src/stm32f30x_spi.c ****   */
 129:/home/user/Desktop/STM32-Projekte/FH-Vertibot/src/STM32F30x_StdPeriph_Driver/src/stm32f30x_spi.c **** 
 130:/home/user/Desktop/STM32-Projekte/FH-Vertibot/src/STM32F30x_StdPeriph_Driver/src/stm32f30x_spi.c **** /** @defgroup SPI
 131:/home/user/Desktop/STM32-Projekte/FH-Vertibot/src/STM32F30x_StdPeriph_Driver/src/stm32f30x_spi.c ****   * @brief SPI driver modules
 132:/home/user/Desktop/STM32-Projekte/FH-Vertibot/src/STM32F30x_StdPeriph_Driver/src/stm32f30x_spi.c ****   * @{
 133:/home/user/Desktop/STM32-Projekte/FH-Vertibot/src/STM32F30x_StdPeriph_Driver/src/stm32f30x_spi.c ****   */
 134:/home/user/Desktop/STM32-Projekte/FH-Vertibot/src/STM32F30x_StdPeriph_Driver/src/stm32f30x_spi.c **** 
 135:/home/user/Desktop/STM32-Projekte/FH-Vertibot/src/STM32F30x_StdPeriph_Driver/src/stm32f30x_spi.c **** /* Private typedef -----------------------------------------------------------*/
 136:/home/user/Desktop/STM32-Projekte/FH-Vertibot/src/STM32F30x_StdPeriph_Driver/src/stm32f30x_spi.c **** /* Private define ------------------------------------------------------------*/
 137:/home/user/Desktop/STM32-Projekte/FH-Vertibot/src/STM32F30x_StdPeriph_Driver/src/stm32f30x_spi.c **** /* SPI registers Masks */
 138:/home/user/Desktop/STM32-Projekte/FH-Vertibot/src/STM32F30x_StdPeriph_Driver/src/stm32f30x_spi.c **** #define CR1_CLEAR_MASK       ((uint16_t)0x3040)
 139:/home/user/Desktop/STM32-Projekte/FH-Vertibot/src/STM32F30x_StdPeriph_Driver/src/stm32f30x_spi.c **** #define CR2_LDMA_MASK        ((uint16_t)0x9FFF)
 140:/home/user/Desktop/STM32-Projekte/FH-Vertibot/src/STM32F30x_StdPeriph_Driver/src/stm32f30x_spi.c **** 
 141:/home/user/Desktop/STM32-Projekte/FH-Vertibot/src/STM32F30x_StdPeriph_Driver/src/stm32f30x_spi.c **** #define I2SCFGR_CLEAR_MASK   ((uint16_t)0xF040)
 142:/home/user/Desktop/STM32-Projekte/FH-Vertibot/src/STM32F30x_StdPeriph_Driver/src/stm32f30x_spi.c **** 
 143:/home/user/Desktop/STM32-Projekte/FH-Vertibot/src/STM32F30x_StdPeriph_Driver/src/stm32f30x_spi.c **** /* Private macro -------------------------------------------------------------*/
 144:/home/user/Desktop/STM32-Projekte/FH-Vertibot/src/STM32F30x_StdPeriph_Driver/src/stm32f30x_spi.c **** /* Private variables ---------------------------------------------------------*/
 145:/home/user/Desktop/STM32-Projekte/FH-Vertibot/src/STM32F30x_StdPeriph_Driver/src/stm32f30x_spi.c **** /* Private function prototypes -----------------------------------------------*/
 146:/home/user/Desktop/STM32-Projekte/FH-Vertibot/src/STM32F30x_StdPeriph_Driver/src/stm32f30x_spi.c **** /* Private functions ---------------------------------------------------------*/
 147:/home/user/Desktop/STM32-Projekte/FH-Vertibot/src/STM32F30x_StdPeriph_Driver/src/stm32f30x_spi.c **** 
 148:/home/user/Desktop/STM32-Projekte/FH-Vertibot/src/STM32F30x_StdPeriph_Driver/src/stm32f30x_spi.c **** /** @defgroup SPI_Private_Functions
 149:/home/user/Desktop/STM32-Projekte/FH-Vertibot/src/STM32F30x_StdPeriph_Driver/src/stm32f30x_spi.c ****   * @{
 150:/home/user/Desktop/STM32-Projekte/FH-Vertibot/src/STM32F30x_StdPeriph_Driver/src/stm32f30x_spi.c ****   */
 151:/home/user/Desktop/STM32-Projekte/FH-Vertibot/src/STM32F30x_StdPeriph_Driver/src/stm32f30x_spi.c **** 
 152:/home/user/Desktop/STM32-Projekte/FH-Vertibot/src/STM32F30x_StdPeriph_Driver/src/stm32f30x_spi.c **** /** @defgroup SPI_Group1 Initialization and Configuration functions
 153:/home/user/Desktop/STM32-Projekte/FH-Vertibot/src/STM32F30x_StdPeriph_Driver/src/stm32f30x_spi.c ****  *  @brief   Initialization and Configuration functions 
 154:/home/user/Desktop/STM32-Projekte/FH-Vertibot/src/STM32F30x_StdPeriph_Driver/src/stm32f30x_spi.c ****  *
 155:/home/user/Desktop/STM32-Projekte/FH-Vertibot/src/STM32F30x_StdPeriph_Driver/src/stm32f30x_spi.c **** @verbatim   
 156:/home/user/Desktop/STM32-Projekte/FH-Vertibot/src/STM32F30x_StdPeriph_Driver/src/stm32f30x_spi.c ****  ===============================================================================
 157:/home/user/Desktop/STM32-Projekte/FH-Vertibot/src/STM32F30x_StdPeriph_Driver/src/stm32f30x_spi.c ****            ##### Initialization and Configuration functions #####
 158:/home/user/Desktop/STM32-Projekte/FH-Vertibot/src/STM32F30x_StdPeriph_Driver/src/stm32f30x_spi.c ****  ===============================================================================  
 159:/home/user/Desktop/STM32-Projekte/FH-Vertibot/src/STM32F30x_StdPeriph_Driver/src/stm32f30x_spi.c ****     [..] This section provides a set of functions allowing to initialize the SPI Direction,
 160:/home/user/Desktop/STM32-Projekte/FH-Vertibot/src/STM32F30x_StdPeriph_Driver/src/stm32f30x_spi.c ****          SPI Mode, SPI Data Size, SPI Polarity, SPI Phase, SPI NSS Management, SPI Baud
 161:/home/user/Desktop/STM32-Projekte/FH-Vertibot/src/STM32F30x_StdPeriph_Driver/src/stm32f30x_spi.c ****          Rate Prescaler, SPI First Bit and SPI CRC Polynomial.
 162:/home/user/Desktop/STM32-Projekte/FH-Vertibot/src/STM32F30x_StdPeriph_Driver/src/stm32f30x_spi.c ****     [..] The SPI_Init() function follows the SPI configuration procedures for Master mode
 163:/home/user/Desktop/STM32-Projekte/FH-Vertibot/src/STM32F30x_StdPeriph_Driver/src/stm32f30x_spi.c ****          and Slave mode (details for these procedures are available in reference manual).
 164:/home/user/Desktop/STM32-Projekte/FH-Vertibot/src/STM32F30x_StdPeriph_Driver/src/stm32f30x_spi.c ****     [..] When the Software NSS management (SPI_InitStruct->SPI_NSS = SPI_NSS_Soft) is selected,
 165:/home/user/Desktop/STM32-Projekte/FH-Vertibot/src/STM32F30x_StdPeriph_Driver/src/stm32f30x_spi.c ****          use the following function to manage the NSS bit:
 166:/home/user/Desktop/STM32-Projekte/FH-Vertibot/src/STM32F30x_StdPeriph_Driver/src/stm32f30x_spi.c ****          void SPI_NSSInternalSoftwareConfig(SPI_TypeDef* SPIx, uint16_t SPI_NSSInternalSoft);
 167:/home/user/Desktop/STM32-Projekte/FH-Vertibot/src/STM32F30x_StdPeriph_Driver/src/stm32f30x_spi.c ****     [..] In Master mode, when the Hardware NSS management (SPI_InitStruct->SPI_NSS = SPI_NSS_Hard)
 168:/home/user/Desktop/STM32-Projekte/FH-Vertibot/src/STM32F30x_StdPeriph_Driver/src/stm32f30x_spi.c ****          is selected, use the follwoing function to enable the NSS output feature.
 169:/home/user/Desktop/STM32-Projekte/FH-Vertibot/src/STM32F30x_StdPeriph_Driver/src/stm32f30x_spi.c ****          void SPI_SSOutputCmd(SPI_TypeDef* SPIx, FunctionalState NewState);
 170:/home/user/Desktop/STM32-Projekte/FH-Vertibot/src/STM32F30x_StdPeriph_Driver/src/stm32f30x_spi.c ****     [..] The NSS pulse mode can be managed by the SPI TI mode when enabling it using the 
 171:/home/user/Desktop/STM32-Projekte/FH-Vertibot/src/STM32F30x_StdPeriph_Driver/src/stm32f30x_spi.c ****          following function: void SPI_TIModeCmd(SPI_TypeDef* SPIx, FunctionalState NewState);
 172:/home/user/Desktop/STM32-Projekte/FH-Vertibot/src/STM32F30x_StdPeriph_Driver/src/stm32f30x_spi.c ****          And it can be managed by software in the SPI Motorola mode using this function: 
 173:/home/user/Desktop/STM32-Projekte/FH-Vertibot/src/STM32F30x_StdPeriph_Driver/src/stm32f30x_spi.c ****          void SPI_NSSPulseModeCmd(SPI_TypeDef* SPIx, FunctionalState NewState);
 174:/home/user/Desktop/STM32-Projekte/FH-Vertibot/src/STM32F30x_StdPeriph_Driver/src/stm32f30x_spi.c ****     [..] This section provides also functions to initialize the I2S Mode, Standard, 
 175:/home/user/Desktop/STM32-Projekte/FH-Vertibot/src/STM32F30x_StdPeriph_Driver/src/stm32f30x_spi.c ****          Data Format, MCLK Output, Audio frequency and Polarity.
 176:/home/user/Desktop/STM32-Projekte/FH-Vertibot/src/STM32F30x_StdPeriph_Driver/src/stm32f30x_spi.c ****     [..] The I2S_Init() function follows the I2S configuration procedures for Master mode
 177:/home/user/Desktop/STM32-Projekte/FH-Vertibot/src/STM32F30x_StdPeriph_Driver/src/stm32f30x_spi.c ****          and Slave mode.
 178:/home/user/Desktop/STM32-Projekte/FH-Vertibot/src/STM32F30x_StdPeriph_Driver/src/stm32f30x_spi.c ****   
 179:/home/user/Desktop/STM32-Projekte/FH-Vertibot/src/STM32F30x_StdPeriph_Driver/src/stm32f30x_spi.c **** @endverbatim
 180:/home/user/Desktop/STM32-Projekte/FH-Vertibot/src/STM32F30x_StdPeriph_Driver/src/stm32f30x_spi.c ****   * @{
 181:/home/user/Desktop/STM32-Projekte/FH-Vertibot/src/STM32F30x_StdPeriph_Driver/src/stm32f30x_spi.c ****   */
 182:/home/user/Desktop/STM32-Projekte/FH-Vertibot/src/STM32F30x_StdPeriph_Driver/src/stm32f30x_spi.c **** 
 183:/home/user/Desktop/STM32-Projekte/FH-Vertibot/src/STM32F30x_StdPeriph_Driver/src/stm32f30x_spi.c **** /**
 184:/home/user/Desktop/STM32-Projekte/FH-Vertibot/src/STM32F30x_StdPeriph_Driver/src/stm32f30x_spi.c ****   * @brief  Deinitializes the SPIx peripheral registers to their default
 185:/home/user/Desktop/STM32-Projekte/FH-Vertibot/src/STM32F30x_StdPeriph_Driver/src/stm32f30x_spi.c ****   *         reset values.
 186:/home/user/Desktop/STM32-Projekte/FH-Vertibot/src/STM32F30x_StdPeriph_Driver/src/stm32f30x_spi.c ****   * @param  SPIx: To select the SPIx peripheral, where x can be: 1, 2 or 3 
 187:/home/user/Desktop/STM32-Projekte/FH-Vertibot/src/STM32F30x_StdPeriph_Driver/src/stm32f30x_spi.c ****   *         in SPI mode.
 188:/home/user/Desktop/STM32-Projekte/FH-Vertibot/src/STM32F30x_StdPeriph_Driver/src/stm32f30x_spi.c ****   * @retval None
 189:/home/user/Desktop/STM32-Projekte/FH-Vertibot/src/STM32F30x_StdPeriph_Driver/src/stm32f30x_spi.c ****   */
 190:/home/user/Desktop/STM32-Projekte/FH-Vertibot/src/STM32F30x_StdPeriph_Driver/src/stm32f30x_spi.c **** void SPI_I2S_DeInit(SPI_TypeDef* SPIx)
 191:/home/user/Desktop/STM32-Projekte/FH-Vertibot/src/STM32F30x_StdPeriph_Driver/src/stm32f30x_spi.c **** {
  28              		.loc 1 191 0
  29              		.cfi_startproc
  30              		@ args = 0, pretend = 0, frame = 0
  31              		@ frame_needed = 0, uses_anonymous_args = 0
  32              	.LVL0:
  33 0000 08B5     		push	{r3, lr}
  34              	.LCFI0:
  35              		.cfi_def_cfa_offset 8
  36              		.cfi_offset 3, -8
  37              		.cfi_offset 14, -4
 192:/home/user/Desktop/STM32-Projekte/FH-Vertibot/src/STM32F30x_StdPeriph_Driver/src/stm32f30x_spi.c ****   /* Check the parameters */
 193:/home/user/Desktop/STM32-Projekte/FH-Vertibot/src/STM32F30x_StdPeriph_Driver/src/stm32f30x_spi.c ****   assert_param(IS_SPI_ALL_PERIPH(SPIx));
 194:/home/user/Desktop/STM32-Projekte/FH-Vertibot/src/STM32F30x_StdPeriph_Driver/src/stm32f30x_spi.c **** 
 195:/home/user/Desktop/STM32-Projekte/FH-Vertibot/src/STM32F30x_StdPeriph_Driver/src/stm32f30x_spi.c ****   if (SPIx == SPI1)
  38              		.loc 1 195 0
  39 0002 154B     		ldr	r3, .L6
  40 0004 9842     		cmp	r0, r3
  41 0006 0BD1     		bne	.L2
 196:/home/user/Desktop/STM32-Projekte/FH-Vertibot/src/STM32F30x_StdPeriph_Driver/src/stm32f30x_spi.c ****   {
 197:/home/user/Desktop/STM32-Projekte/FH-Vertibot/src/STM32F30x_StdPeriph_Driver/src/stm32f30x_spi.c ****     /* Enable SPI1 reset state */
 198:/home/user/Desktop/STM32-Projekte/FH-Vertibot/src/STM32F30x_StdPeriph_Driver/src/stm32f30x_spi.c ****     RCC_APB2PeriphResetCmd(RCC_APB2Periph_SPI1, ENABLE);
  42              		.loc 1 198 0
  43 0008 0121     		movs	r1, #1
  44 000a 4FF48050 		mov	r0, #4096
  45              	.LVL1:
  46 000e FFF7FEFF 		bl	RCC_APB2PeriphResetCmd
  47              	.LVL2:
 199:/home/user/Desktop/STM32-Projekte/FH-Vertibot/src/STM32F30x_StdPeriph_Driver/src/stm32f30x_spi.c ****     /* Release SPI1 from reset state */
 200:/home/user/Desktop/STM32-Projekte/FH-Vertibot/src/STM32F30x_StdPeriph_Driver/src/stm32f30x_spi.c ****     RCC_APB2PeriphResetCmd(RCC_APB2Periph_SPI1, DISABLE);
  48              		.loc 1 200 0
  49 0012 4FF48050 		mov	r0, #4096
  50 0016 0021     		movs	r1, #0
 201:/home/user/Desktop/STM32-Projekte/FH-Vertibot/src/STM32F30x_StdPeriph_Driver/src/stm32f30x_spi.c ****   }
 202:/home/user/Desktop/STM32-Projekte/FH-Vertibot/src/STM32F30x_StdPeriph_Driver/src/stm32f30x_spi.c ****   else if (SPIx == SPI2)
 203:/home/user/Desktop/STM32-Projekte/FH-Vertibot/src/STM32F30x_StdPeriph_Driver/src/stm32f30x_spi.c ****   {
 204:/home/user/Desktop/STM32-Projekte/FH-Vertibot/src/STM32F30x_StdPeriph_Driver/src/stm32f30x_spi.c ****     /* Enable SPI2 reset state */
 205:/home/user/Desktop/STM32-Projekte/FH-Vertibot/src/STM32F30x_StdPeriph_Driver/src/stm32f30x_spi.c ****     RCC_APB1PeriphResetCmd(RCC_APB1Periph_SPI2, ENABLE);
 206:/home/user/Desktop/STM32-Projekte/FH-Vertibot/src/STM32F30x_StdPeriph_Driver/src/stm32f30x_spi.c ****     /* Release SPI2 from reset state */
 207:/home/user/Desktop/STM32-Projekte/FH-Vertibot/src/STM32F30x_StdPeriph_Driver/src/stm32f30x_spi.c ****     RCC_APB1PeriphResetCmd(RCC_APB1Periph_SPI2, DISABLE);
 208:/home/user/Desktop/STM32-Projekte/FH-Vertibot/src/STM32F30x_StdPeriph_Driver/src/stm32f30x_spi.c ****   }
 209:/home/user/Desktop/STM32-Projekte/FH-Vertibot/src/STM32F30x_StdPeriph_Driver/src/stm32f30x_spi.c ****   else
 210:/home/user/Desktop/STM32-Projekte/FH-Vertibot/src/STM32F30x_StdPeriph_Driver/src/stm32f30x_spi.c ****   {
 211:/home/user/Desktop/STM32-Projekte/FH-Vertibot/src/STM32F30x_StdPeriph_Driver/src/stm32f30x_spi.c ****     if (SPIx == SPI3)
 212:/home/user/Desktop/STM32-Projekte/FH-Vertibot/src/STM32F30x_StdPeriph_Driver/src/stm32f30x_spi.c ****     {
 213:/home/user/Desktop/STM32-Projekte/FH-Vertibot/src/STM32F30x_StdPeriph_Driver/src/stm32f30x_spi.c ****       /* Enable SPI3 reset state */
 214:/home/user/Desktop/STM32-Projekte/FH-Vertibot/src/STM32F30x_StdPeriph_Driver/src/stm32f30x_spi.c ****       RCC_APB1PeriphResetCmd(RCC_APB1Periph_SPI3, ENABLE);
 215:/home/user/Desktop/STM32-Projekte/FH-Vertibot/src/STM32F30x_StdPeriph_Driver/src/stm32f30x_spi.c ****       /* Release SPI3 from reset state */
 216:/home/user/Desktop/STM32-Projekte/FH-Vertibot/src/STM32F30x_StdPeriph_Driver/src/stm32f30x_spi.c ****       RCC_APB1PeriphResetCmd(RCC_APB1Periph_SPI3, DISABLE);
 217:/home/user/Desktop/STM32-Projekte/FH-Vertibot/src/STM32F30x_StdPeriph_Driver/src/stm32f30x_spi.c ****     }
 218:/home/user/Desktop/STM32-Projekte/FH-Vertibot/src/STM32F30x_StdPeriph_Driver/src/stm32f30x_spi.c ****   }
 219:/home/user/Desktop/STM32-Projekte/FH-Vertibot/src/STM32F30x_StdPeriph_Driver/src/stm32f30x_spi.c **** }
  51              		.loc 1 219 0
  52 0018 BDE80840 		pop	{r3, lr}
 200:/home/user/Desktop/STM32-Projekte/FH-Vertibot/src/STM32F30x_StdPeriph_Driver/src/stm32f30x_spi.c ****     RCC_APB2PeriphResetCmd(RCC_APB2Periph_SPI1, DISABLE);
  53              		.loc 1 200 0
  54 001c FFF7FEBF 		b	RCC_APB2PeriphResetCmd
  55              	.LVL3:
  56              	.L2:
 202:/home/user/Desktop/STM32-Projekte/FH-Vertibot/src/STM32F30x_StdPeriph_Driver/src/stm32f30x_spi.c ****   else if (SPIx == SPI2)
  57              		.loc 1 202 0
  58 0020 0E4B     		ldr	r3, .L6+4
  59 0022 9842     		cmp	r0, r3
  60 0024 07D1     		bne	.L3
 205:/home/user/Desktop/STM32-Projekte/FH-Vertibot/src/STM32F30x_StdPeriph_Driver/src/stm32f30x_spi.c ****     RCC_APB1PeriphResetCmd(RCC_APB1Periph_SPI2, ENABLE);
  61              		.loc 1 205 0
  62 0026 4FF48040 		mov	r0, #16384
  63              	.LVL4:
  64 002a 0121     		movs	r1, #1
  65 002c FFF7FEFF 		bl	RCC_APB1PeriphResetCmd
  66              	.LVL5:
 207:/home/user/Desktop/STM32-Projekte/FH-Vertibot/src/STM32F30x_StdPeriph_Driver/src/stm32f30x_spi.c ****     RCC_APB1PeriphResetCmd(RCC_APB1Periph_SPI2, DISABLE);
  67              		.loc 1 207 0
  68 0030 4FF48040 		mov	r0, #16384
  69 0034 09E0     		b	.L5
  70              	.LVL6:
  71              	.L3:
 211:/home/user/Desktop/STM32-Projekte/FH-Vertibot/src/STM32F30x_StdPeriph_Driver/src/stm32f30x_spi.c ****     if (SPIx == SPI3)
  72              		.loc 1 211 0
  73 0036 0A4B     		ldr	r3, .L6+8
  74 0038 9842     		cmp	r0, r3
  75 003a 0BD1     		bne	.L1
 214:/home/user/Desktop/STM32-Projekte/FH-Vertibot/src/STM32F30x_StdPeriph_Driver/src/stm32f30x_spi.c ****       RCC_APB1PeriphResetCmd(RCC_APB1Periph_SPI3, ENABLE);
  76              		.loc 1 214 0
  77 003c 4FF40040 		mov	r0, #32768
  78              	.LVL7:
  79 0040 0121     		movs	r1, #1
  80 0042 FFF7FEFF 		bl	RCC_APB1PeriphResetCmd
  81              	.LVL8:
 216:/home/user/Desktop/STM32-Projekte/FH-Vertibot/src/STM32F30x_StdPeriph_Driver/src/stm32f30x_spi.c ****       RCC_APB1PeriphResetCmd(RCC_APB1Periph_SPI3, DISABLE);
  82              		.loc 1 216 0
  83 0046 4FF40040 		mov	r0, #32768
  84              	.L5:
  85 004a 0021     		movs	r1, #0
  86              		.loc 1 219 0
  87 004c BDE80840 		pop	{r3, lr}
 216:/home/user/Desktop/STM32-Projekte/FH-Vertibot/src/STM32F30x_StdPeriph_Driver/src/stm32f30x_spi.c ****       RCC_APB1PeriphResetCmd(RCC_APB1Periph_SPI3, DISABLE);
  88              		.loc 1 216 0
  89 0050 FFF7FEBF 		b	RCC_APB1PeriphResetCmd
  90              	.LVL9:
  91              	.L1:
  92 0054 08BD     		pop	{r3, pc}
  93              	.L7:
  94 0056 00BF     		.align	2
  95              	.L6:
  96 0058 00300140 		.word	1073819648
  97 005c 00380040 		.word	1073756160
  98 0060 003C0040 		.word	1073757184
  99              		.cfi_endproc
 100              	.LFE111:
 102              		.align	1
 103              		.global	SPI_StructInit
 104              		.thumb
 105              		.thumb_func
 107              	SPI_StructInit:
 108              	.LFB112:
 220:/home/user/Desktop/STM32-Projekte/FH-Vertibot/src/STM32F30x_StdPeriph_Driver/src/stm32f30x_spi.c **** 
 221:/home/user/Desktop/STM32-Projekte/FH-Vertibot/src/STM32F30x_StdPeriph_Driver/src/stm32f30x_spi.c **** /**
 222:/home/user/Desktop/STM32-Projekte/FH-Vertibot/src/STM32F30x_StdPeriph_Driver/src/stm32f30x_spi.c ****   * @brief  Fills each SPI_InitStruct member with its default value.
 223:/home/user/Desktop/STM32-Projekte/FH-Vertibot/src/STM32F30x_StdPeriph_Driver/src/stm32f30x_spi.c ****   * @param  SPI_InitStruct: pointer to a SPI_InitTypeDef structure which will be initialized.
 224:/home/user/Desktop/STM32-Projekte/FH-Vertibot/src/STM32F30x_StdPeriph_Driver/src/stm32f30x_spi.c ****   * @retval None
 225:/home/user/Desktop/STM32-Projekte/FH-Vertibot/src/STM32F30x_StdPeriph_Driver/src/stm32f30x_spi.c ****   */
 226:/home/user/Desktop/STM32-Projekte/FH-Vertibot/src/STM32F30x_StdPeriph_Driver/src/stm32f30x_spi.c **** void SPI_StructInit(SPI_InitTypeDef* SPI_InitStruct)
 227:/home/user/Desktop/STM32-Projekte/FH-Vertibot/src/STM32F30x_StdPeriph_Driver/src/stm32f30x_spi.c **** {
 109              		.loc 1 227 0
 110              		.cfi_startproc
 111              		@ args = 0, pretend = 0, frame = 0
 112              		@ frame_needed = 0, uses_anonymous_args = 0
 113              		@ link register save eliminated.
 114              	.LVL10:
 228:/home/user/Desktop/STM32-Projekte/FH-Vertibot/src/STM32F30x_StdPeriph_Driver/src/stm32f30x_spi.c **** /*--------------- Reset SPI init structure parameters values -----------------*/
 229:/home/user/Desktop/STM32-Projekte/FH-Vertibot/src/STM32F30x_StdPeriph_Driver/src/stm32f30x_spi.c ****   /* Initialize the SPI_Direction member */
 230:/home/user/Desktop/STM32-Projekte/FH-Vertibot/src/STM32F30x_StdPeriph_Driver/src/stm32f30x_spi.c ****   SPI_InitStruct->SPI_Direction = SPI_Direction_2Lines_FullDuplex;
 115              		.loc 1 230 0
 116 0064 0023     		movs	r3, #0
 117 0066 0380     		strh	r3, [r0, #0]	@ movhi
 231:/home/user/Desktop/STM32-Projekte/FH-Vertibot/src/STM32F30x_StdPeriph_Driver/src/stm32f30x_spi.c ****   /* Initialize the SPI_Mode member */
 232:/home/user/Desktop/STM32-Projekte/FH-Vertibot/src/STM32F30x_StdPeriph_Driver/src/stm32f30x_spi.c ****   SPI_InitStruct->SPI_Mode = SPI_Mode_Slave;
 118              		.loc 1 232 0
 119 0068 4380     		strh	r3, [r0, #2]	@ movhi
 233:/home/user/Desktop/STM32-Projekte/FH-Vertibot/src/STM32F30x_StdPeriph_Driver/src/stm32f30x_spi.c ****   /* Initialize the SPI_DataSize member */
 234:/home/user/Desktop/STM32-Projekte/FH-Vertibot/src/STM32F30x_StdPeriph_Driver/src/stm32f30x_spi.c ****   SPI_InitStruct->SPI_DataSize = SPI_DataSize_8b;
 120              		.loc 1 234 0
 121 006a 4FF4E062 		mov	r2, #1792
 235:/home/user/Desktop/STM32-Projekte/FH-Vertibot/src/STM32F30x_StdPeriph_Driver/src/stm32f30x_spi.c ****   /* Initialize the SPI_CPOL member */
 236:/home/user/Desktop/STM32-Projekte/FH-Vertibot/src/STM32F30x_StdPeriph_Driver/src/stm32f30x_spi.c ****   SPI_InitStruct->SPI_CPOL = SPI_CPOL_Low;
 122              		.loc 1 236 0
 123 006e C380     		strh	r3, [r0, #6]	@ movhi
 237:/home/user/Desktop/STM32-Projekte/FH-Vertibot/src/STM32F30x_StdPeriph_Driver/src/stm32f30x_spi.c ****   /* Initialize the SPI_CPHA member */
 238:/home/user/Desktop/STM32-Projekte/FH-Vertibot/src/STM32F30x_StdPeriph_Driver/src/stm32f30x_spi.c ****   SPI_InitStruct->SPI_CPHA = SPI_CPHA_1Edge;
 124              		.loc 1 238 0
 125 0070 0381     		strh	r3, [r0, #8]	@ movhi
 239:/home/user/Desktop/STM32-Projekte/FH-Vertibot/src/STM32F30x_StdPeriph_Driver/src/stm32f30x_spi.c ****   /* Initialize the SPI_NSS member */
 240:/home/user/Desktop/STM32-Projekte/FH-Vertibot/src/STM32F30x_StdPeriph_Driver/src/stm32f30x_spi.c ****   SPI_InitStruct->SPI_NSS = SPI_NSS_Hard;
 126              		.loc 1 240 0
 127 0072 4381     		strh	r3, [r0, #10]	@ movhi
 241:/home/user/Desktop/STM32-Projekte/FH-Vertibot/src/STM32F30x_StdPeriph_Driver/src/stm32f30x_spi.c ****   /* Initialize the SPI_BaudRatePrescaler member */
 242:/home/user/Desktop/STM32-Projekte/FH-Vertibot/src/STM32F30x_StdPeriph_Driver/src/stm32f30x_spi.c ****   SPI_InitStruct->SPI_BaudRatePrescaler = SPI_BaudRatePrescaler_2;
 128              		.loc 1 242 0
 129 0074 8381     		strh	r3, [r0, #12]	@ movhi
 243:/home/user/Desktop/STM32-Projekte/FH-Vertibot/src/STM32F30x_StdPeriph_Driver/src/stm32f30x_spi.c ****   /* Initialize the SPI_FirstBit member */
 244:/home/user/Desktop/STM32-Projekte/FH-Vertibot/src/STM32F30x_StdPeriph_Driver/src/stm32f30x_spi.c ****   SPI_InitStruct->SPI_FirstBit = SPI_FirstBit_MSB;
 130              		.loc 1 244 0
 131 0076 C381     		strh	r3, [r0, #14]	@ movhi
 245:/home/user/Desktop/STM32-Projekte/FH-Vertibot/src/STM32F30x_StdPeriph_Driver/src/stm32f30x_spi.c ****   /* Initialize the SPI_CRCPolynomial member */
 246:/home/user/Desktop/STM32-Projekte/FH-Vertibot/src/STM32F30x_StdPeriph_Driver/src/stm32f30x_spi.c ****   SPI_InitStruct->SPI_CRCPolynomial = 7;
 132              		.loc 1 246 0
 133 0078 0723     		movs	r3, #7
 234:/home/user/Desktop/STM32-Projekte/FH-Vertibot/src/STM32F30x_StdPeriph_Driver/src/stm32f30x_spi.c ****   SPI_InitStruct->SPI_DataSize = SPI_DataSize_8b;
 134              		.loc 1 234 0
 135 007a 8280     		strh	r2, [r0, #4]	@ movhi
 136              		.loc 1 246 0
 137 007c 0382     		strh	r3, [r0, #16]	@ movhi
 138 007e 7047     		bx	lr
 139              		.cfi_endproc
 140              	.LFE112:
 142              		.align	1
 143              		.global	SPI_Init
 144              		.thumb
 145              		.thumb_func
 147              	SPI_Init:
 148              	.LFB113:
 247:/home/user/Desktop/STM32-Projekte/FH-Vertibot/src/STM32F30x_StdPeriph_Driver/src/stm32f30x_spi.c **** }
 248:/home/user/Desktop/STM32-Projekte/FH-Vertibot/src/STM32F30x_StdPeriph_Driver/src/stm32f30x_spi.c **** 
 249:/home/user/Desktop/STM32-Projekte/FH-Vertibot/src/STM32F30x_StdPeriph_Driver/src/stm32f30x_spi.c **** /**
 250:/home/user/Desktop/STM32-Projekte/FH-Vertibot/src/STM32F30x_StdPeriph_Driver/src/stm32f30x_spi.c ****   * @brief  Initializes the SPIx peripheral according to the specified 
 251:/home/user/Desktop/STM32-Projekte/FH-Vertibot/src/STM32F30x_StdPeriph_Driver/src/stm32f30x_spi.c ****   *         parameters in the SPI_InitStruct.
 252:/home/user/Desktop/STM32-Projekte/FH-Vertibot/src/STM32F30x_StdPeriph_Driver/src/stm32f30x_spi.c ****   * @param  SPIx: where x can be 1, 2 or 3 to select the SPI peripheral.
 253:/home/user/Desktop/STM32-Projekte/FH-Vertibot/src/STM32F30x_StdPeriph_Driver/src/stm32f30x_spi.c ****   * @param  SPI_InitStruct: pointer to a SPI_InitTypeDef structure that
 254:/home/user/Desktop/STM32-Projekte/FH-Vertibot/src/STM32F30x_StdPeriph_Driver/src/stm32f30x_spi.c ****   *         contains the configuration information for the specified SPI peripheral.
 255:/home/user/Desktop/STM32-Projekte/FH-Vertibot/src/STM32F30x_StdPeriph_Driver/src/stm32f30x_spi.c ****   * @retval None
 256:/home/user/Desktop/STM32-Projekte/FH-Vertibot/src/STM32F30x_StdPeriph_Driver/src/stm32f30x_spi.c ****   */
 257:/home/user/Desktop/STM32-Projekte/FH-Vertibot/src/STM32F30x_StdPeriph_Driver/src/stm32f30x_spi.c **** void SPI_Init(SPI_TypeDef* SPIx, SPI_InitTypeDef* SPI_InitStruct)
 258:/home/user/Desktop/STM32-Projekte/FH-Vertibot/src/STM32F30x_StdPeriph_Driver/src/stm32f30x_spi.c **** {
 149              		.loc 1 258 0
 150              		.cfi_startproc
 151              		@ args = 0, pretend = 0, frame = 0
 152              		@ frame_needed = 0, uses_anonymous_args = 0
 153              	.LVL11:
 259:/home/user/Desktop/STM32-Projekte/FH-Vertibot/src/STM32F30x_StdPeriph_Driver/src/stm32f30x_spi.c ****   uint16_t tmpreg = 0;
 260:/home/user/Desktop/STM32-Projekte/FH-Vertibot/src/STM32F30x_StdPeriph_Driver/src/stm32f30x_spi.c **** 
 261:/home/user/Desktop/STM32-Projekte/FH-Vertibot/src/STM32F30x_StdPeriph_Driver/src/stm32f30x_spi.c ****   /* check the parameters */
 262:/home/user/Desktop/STM32-Projekte/FH-Vertibot/src/STM32F30x_StdPeriph_Driver/src/stm32f30x_spi.c ****   assert_param(IS_SPI_ALL_PERIPH(SPIx));
 263:/home/user/Desktop/STM32-Projekte/FH-Vertibot/src/STM32F30x_StdPeriph_Driver/src/stm32f30x_spi.c **** 
 264:/home/user/Desktop/STM32-Projekte/FH-Vertibot/src/STM32F30x_StdPeriph_Driver/src/stm32f30x_spi.c ****   /* Check the SPI parameters */
 265:/home/user/Desktop/STM32-Projekte/FH-Vertibot/src/STM32F30x_StdPeriph_Driver/src/stm32f30x_spi.c ****   assert_param(IS_SPI_DIRECTION_MODE(SPI_InitStruct->SPI_Direction));
 266:/home/user/Desktop/STM32-Projekte/FH-Vertibot/src/STM32F30x_StdPeriph_Driver/src/stm32f30x_spi.c ****   assert_param(IS_SPI_MODE(SPI_InitStruct->SPI_Mode));
 267:/home/user/Desktop/STM32-Projekte/FH-Vertibot/src/STM32F30x_StdPeriph_Driver/src/stm32f30x_spi.c ****   assert_param(IS_SPI_DATA_SIZE(SPI_InitStruct->SPI_DataSize));
 268:/home/user/Desktop/STM32-Projekte/FH-Vertibot/src/STM32F30x_StdPeriph_Driver/src/stm32f30x_spi.c ****   assert_param(IS_SPI_CPOL(SPI_InitStruct->SPI_CPOL));
 269:/home/user/Desktop/STM32-Projekte/FH-Vertibot/src/STM32F30x_StdPeriph_Driver/src/stm32f30x_spi.c ****   assert_param(IS_SPI_CPHA(SPI_InitStruct->SPI_CPHA));
 270:/home/user/Desktop/STM32-Projekte/FH-Vertibot/src/STM32F30x_StdPeriph_Driver/src/stm32f30x_spi.c ****   assert_param(IS_SPI_NSS(SPI_InitStruct->SPI_NSS));
 271:/home/user/Desktop/STM32-Projekte/FH-Vertibot/src/STM32F30x_StdPeriph_Driver/src/stm32f30x_spi.c ****   assert_param(IS_SPI_BAUDRATE_PRESCALER(SPI_InitStruct->SPI_BaudRatePrescaler));
 272:/home/user/Desktop/STM32-Projekte/FH-Vertibot/src/STM32F30x_StdPeriph_Driver/src/stm32f30x_spi.c ****   assert_param(IS_SPI_FIRST_BIT(SPI_InitStruct->SPI_FirstBit));
 273:/home/user/Desktop/STM32-Projekte/FH-Vertibot/src/STM32F30x_StdPeriph_Driver/src/stm32f30x_spi.c ****   assert_param(IS_SPI_CRC_POLYNOMIAL(SPI_InitStruct->SPI_CRCPolynomial));
 274:/home/user/Desktop/STM32-Projekte/FH-Vertibot/src/STM32F30x_StdPeriph_Driver/src/stm32f30x_spi.c **** 
 275:/home/user/Desktop/STM32-Projekte/FH-Vertibot/src/STM32F30x_StdPeriph_Driver/src/stm32f30x_spi.c ****   /* Configuring the SPI in master mode */
 276:/home/user/Desktop/STM32-Projekte/FH-Vertibot/src/STM32F30x_StdPeriph_Driver/src/stm32f30x_spi.c ****   if(SPI_InitStruct->SPI_Mode == SPI_Mode_Master)
 154              		.loc 1 276 0
 155 0080 4A88     		ldrh	r2, [r1, #2]
 156 0082 B2F5827F 		cmp	r2, #260
 258:/home/user/Desktop/STM32-Projekte/FH-Vertibot/src/STM32F30x_StdPeriph_Driver/src/stm32f30x_spi.c **** {
 157              		.loc 1 258 0
 158 0086 30B5     		push	{r4, r5, lr}
 159              	.LCFI1:
 160              		.cfi_def_cfa_offset 12
 161              		.cfi_offset 4, -12
 162              		.cfi_offset 5, -8
 163              		.cfi_offset 14, -4
 164              		.loc 1 276 0
 165 0088 1AD1     		bne	.L10
 277:/home/user/Desktop/STM32-Projekte/FH-Vertibot/src/STM32F30x_StdPeriph_Driver/src/stm32f30x_spi.c ****   {
 278:/home/user/Desktop/STM32-Projekte/FH-Vertibot/src/STM32F30x_StdPeriph_Driver/src/stm32f30x_spi.c **** /*---------------------------- SPIx CR1 Configuration ------------------------*/
 279:/home/user/Desktop/STM32-Projekte/FH-Vertibot/src/STM32F30x_StdPeriph_Driver/src/stm32f30x_spi.c ****     /* Get the SPIx CR1 value */
 280:/home/user/Desktop/STM32-Projekte/FH-Vertibot/src/STM32F30x_StdPeriph_Driver/src/stm32f30x_spi.c ****     tmpreg = SPIx->CR1;
 281:/home/user/Desktop/STM32-Projekte/FH-Vertibot/src/STM32F30x_StdPeriph_Driver/src/stm32f30x_spi.c ****     /* Clear BIDIMode, BIDIOE, RxONLY, SSM, SSI, LSBFirst, BR, MSTR, CPOL and CPHA bits */
 282:/home/user/Desktop/STM32-Projekte/FH-Vertibot/src/STM32F30x_StdPeriph_Driver/src/stm32f30x_spi.c ****     tmpreg &= CR1_CLEAR_MASK;
 283:/home/user/Desktop/STM32-Projekte/FH-Vertibot/src/STM32F30x_StdPeriph_Driver/src/stm32f30x_spi.c ****     /* Configure SPIx: direction, NSS management, first transmitted bit, BaudRate prescaler
 284:/home/user/Desktop/STM32-Projekte/FH-Vertibot/src/STM32F30x_StdPeriph_Driver/src/stm32f30x_spi.c ****        master/slave mode, CPOL and CPHA */
 285:/home/user/Desktop/STM32-Projekte/FH-Vertibot/src/STM32F30x_StdPeriph_Driver/src/stm32f30x_spi.c ****     /* Set BIDImode, BIDIOE and RxONLY bits according to SPI_Direction value */
 286:/home/user/Desktop/STM32-Projekte/FH-Vertibot/src/STM32F30x_StdPeriph_Driver/src/stm32f30x_spi.c ****     /* Set SSM, SSI and MSTR bits according to SPI_Mode and SPI_NSS values */
 287:/home/user/Desktop/STM32-Projekte/FH-Vertibot/src/STM32F30x_StdPeriph_Driver/src/stm32f30x_spi.c ****     /* Set LSBFirst bit according to SPI_FirstBit value */
 288:/home/user/Desktop/STM32-Projekte/FH-Vertibot/src/STM32F30x_StdPeriph_Driver/src/stm32f30x_spi.c ****     /* Set BR bits according to SPI_BaudRatePrescaler value */
 289:/home/user/Desktop/STM32-Projekte/FH-Vertibot/src/STM32F30x_StdPeriph_Driver/src/stm32f30x_spi.c ****     /* Set CPOL bit according to SPI_CPOL value */
 290:/home/user/Desktop/STM32-Projekte/FH-Vertibot/src/STM32F30x_StdPeriph_Driver/src/stm32f30x_spi.c ****     /* Set CPHA bit according to SPI_CPHA value */
 291:/home/user/Desktop/STM32-Projekte/FH-Vertibot/src/STM32F30x_StdPeriph_Driver/src/stm32f30x_spi.c ****     tmpreg |= (uint16_t)((uint16_t)(SPI_InitStruct->SPI_Direction | SPI_InitStruct->SPI_Mode) |
 166              		.loc 1 291 0
 167 008a 0C88     		ldrh	r4, [r1, #0]
 168 008c CB88     		ldrh	r3, [r1, #6]
 280:/home/user/Desktop/STM32-Projekte/FH-Vertibot/src/STM32F30x_StdPeriph_Driver/src/stm32f30x_spi.c ****     tmpreg = SPIx->CR1;
 169              		.loc 1 280 0
 170 008e 0288     		ldrh	r2, [r0, #0]
 171              	.LVL12:
 172              		.loc 1 291 0
 173 0090 2343     		orrs	r3, r3, r4
 292:/home/user/Desktop/STM32-Projekte/FH-Vertibot/src/STM32F30x_StdPeriph_Driver/src/stm32f30x_spi.c ****                          (uint16_t)((uint16_t)(SPI_InitStruct->SPI_CPOL | SPI_InitStruct->SPI_CPHA)
 293:/home/user/Desktop/STM32-Projekte/FH-Vertibot/src/STM32F30x_StdPeriph_Driver/src/stm32f30x_spi.c ****                          (uint16_t)((uint16_t)(SPI_InitStruct->SPI_NSS | SPI_InitStruct->SPI_BaudRa
 174              		.loc 1 293 0
 175 0092 0C89     		ldrh	r4, [r1, #8]
 176 0094 43F48273 		orr	r3, r3, #260
 177 0098 2343     		orrs	r3, r3, r4
 292:/home/user/Desktop/STM32-Projekte/FH-Vertibot/src/STM32F30x_StdPeriph_Driver/src/stm32f30x_spi.c ****                          (uint16_t)((uint16_t)(SPI_InitStruct->SPI_CPOL | SPI_InitStruct->SPI_CPHA)
 178              		.loc 1 292 0
 179 009a 4C89     		ldrh	r4, [r1, #10]
 180 009c 2343     		orrs	r3, r3, r4
 181 009e 8C89     		ldrh	r4, [r1, #12]
 182 00a0 2343     		orrs	r3, r3, r4
 291:/home/user/Desktop/STM32-Projekte/FH-Vertibot/src/STM32F30x_StdPeriph_Driver/src/stm32f30x_spi.c ****     tmpreg |= (uint16_t)((uint16_t)(SPI_InitStruct->SPI_Direction | SPI_InitStruct->SPI_Mode) |
 183              		.loc 1 291 0
 184 00a2 CC89     		ldrh	r4, [r1, #14]
 282:/home/user/Desktop/STM32-Projekte/FH-Vertibot/src/STM32F30x_StdPeriph_Driver/src/stm32f30x_spi.c ****     tmpreg &= CR1_CLEAR_MASK;
 185              		.loc 1 282 0
 186 00a4 02F44152 		and	r2, r2, #12352
 187              	.LVL13:
 291:/home/user/Desktop/STM32-Projekte/FH-Vertibot/src/STM32F30x_StdPeriph_Driver/src/stm32f30x_spi.c ****     tmpreg |= (uint16_t)((uint16_t)(SPI_InitStruct->SPI_Direction | SPI_InitStruct->SPI_Mode) |
 188              		.loc 1 291 0
 189 00a8 2343     		orrs	r3, r3, r4
 190 00aa 1343     		orrs	r3, r3, r2
 191              	.LVL14:
 294:/home/user/Desktop/STM32-Projekte/FH-Vertibot/src/STM32F30x_StdPeriph_Driver/src/stm32f30x_spi.c ****                          SPI_InitStruct->SPI_FirstBit)));
 295:/home/user/Desktop/STM32-Projekte/FH-Vertibot/src/STM32F30x_StdPeriph_Driver/src/stm32f30x_spi.c ****     /* Write to SPIx CR1 */
 296:/home/user/Desktop/STM32-Projekte/FH-Vertibot/src/STM32F30x_StdPeriph_Driver/src/stm32f30x_spi.c ****     SPIx->CR1 = tmpreg;
 192              		.loc 1 296 0
 193 00ac 0380     		strh	r3, [r0, #0]	@ movhi
 297:/home/user/Desktop/STM32-Projekte/FH-Vertibot/src/STM32F30x_StdPeriph_Driver/src/stm32f30x_spi.c ****     /*-------------------------Data Size Configuration -----------------------*/
 298:/home/user/Desktop/STM32-Projekte/FH-Vertibot/src/STM32F30x_StdPeriph_Driver/src/stm32f30x_spi.c ****     /* Get the SPIx CR2 value */
 299:/home/user/Desktop/STM32-Projekte/FH-Vertibot/src/STM32F30x_StdPeriph_Driver/src/stm32f30x_spi.c ****     tmpreg = SPIx->CR2;
 194              		.loc 1 299 0
 195 00ae 8388     		ldrh	r3, [r0, #4]
 196              	.LVL15:
 300:/home/user/Desktop/STM32-Projekte/FH-Vertibot/src/STM32F30x_StdPeriph_Driver/src/stm32f30x_spi.c ****     /* Clear DS[3:0] bits */
 301:/home/user/Desktop/STM32-Projekte/FH-Vertibot/src/STM32F30x_StdPeriph_Driver/src/stm32f30x_spi.c ****     tmpreg &= (uint16_t)~SPI_CR2_DS;
 302:/home/user/Desktop/STM32-Projekte/FH-Vertibot/src/STM32F30x_StdPeriph_Driver/src/stm32f30x_spi.c ****     /* Configure SPIx: Data Size */
 303:/home/user/Desktop/STM32-Projekte/FH-Vertibot/src/STM32F30x_StdPeriph_Driver/src/stm32f30x_spi.c ****     tmpreg |= (uint16_t)(SPI_InitStruct->SPI_DataSize);
 197              		.loc 1 303 0
 198 00b0 8A88     		ldrh	r2, [r1, #4]
 301:/home/user/Desktop/STM32-Projekte/FH-Vertibot/src/STM32F30x_StdPeriph_Driver/src/stm32f30x_spi.c ****     tmpreg &= (uint16_t)~SPI_CR2_DS;
 199              		.loc 1 301 0
 200 00b2 23F47063 		bic	r3, r3, #3840
 201              	.LVL16:
 202 00b6 1B04     		lsls	r3, r3, #16
 203 00b8 1B0C     		lsrs	r3, r3, #16
 204              	.LVL17:
 205              		.loc 1 303 0
 206 00ba 1343     		orrs	r3, r3, r2
 207              	.LVL18:
 304:/home/user/Desktop/STM32-Projekte/FH-Vertibot/src/STM32F30x_StdPeriph_Driver/src/stm32f30x_spi.c ****     /* Write to SPIx CR2 */
 305:/home/user/Desktop/STM32-Projekte/FH-Vertibot/src/STM32F30x_StdPeriph_Driver/src/stm32f30x_spi.c ****     SPIx->CR2 = tmpreg;
 208              		.loc 1 305 0
 209 00bc 8380     		strh	r3, [r0, #4]	@ movhi
 210 00be 18E0     		b	.L11
 211              	.LVL19:
 212              	.L10:
 306:/home/user/Desktop/STM32-Projekte/FH-Vertibot/src/STM32F30x_StdPeriph_Driver/src/stm32f30x_spi.c ****   }
 307:/home/user/Desktop/STM32-Projekte/FH-Vertibot/src/STM32F30x_StdPeriph_Driver/src/stm32f30x_spi.c ****   /* Configuring the SPI in slave mode */
 308:/home/user/Desktop/STM32-Projekte/FH-Vertibot/src/STM32F30x_StdPeriph_Driver/src/stm32f30x_spi.c ****   else
 309:/home/user/Desktop/STM32-Projekte/FH-Vertibot/src/STM32F30x_StdPeriph_Driver/src/stm32f30x_spi.c ****   {
 310:/home/user/Desktop/STM32-Projekte/FH-Vertibot/src/STM32F30x_StdPeriph_Driver/src/stm32f30x_spi.c **** /*---------------------------- Data size Configuration -----------------------*/
 311:/home/user/Desktop/STM32-Projekte/FH-Vertibot/src/STM32F30x_StdPeriph_Driver/src/stm32f30x_spi.c ****     /* Get the SPIx CR2 value */
 312:/home/user/Desktop/STM32-Projekte/FH-Vertibot/src/STM32F30x_StdPeriph_Driver/src/stm32f30x_spi.c ****     tmpreg = SPIx->CR2;
 213              		.loc 1 312 0
 214 00c0 8388     		ldrh	r3, [r0, #4]
 215              	.LVL20:
 313:/home/user/Desktop/STM32-Projekte/FH-Vertibot/src/STM32F30x_StdPeriph_Driver/src/stm32f30x_spi.c ****     /* Clear DS[3:0] bits */
 314:/home/user/Desktop/STM32-Projekte/FH-Vertibot/src/STM32F30x_StdPeriph_Driver/src/stm32f30x_spi.c ****     tmpreg &= (uint16_t)~SPI_CR2_DS;
 315:/home/user/Desktop/STM32-Projekte/FH-Vertibot/src/STM32F30x_StdPeriph_Driver/src/stm32f30x_spi.c ****     /* Configure SPIx: Data Size */
 316:/home/user/Desktop/STM32-Projekte/FH-Vertibot/src/STM32F30x_StdPeriph_Driver/src/stm32f30x_spi.c ****     tmpreg |= (uint16_t)(SPI_InitStruct->SPI_DataSize);
 216              		.loc 1 316 0
 217 00c2 8C88     		ldrh	r4, [r1, #4]
 317:/home/user/Desktop/STM32-Projekte/FH-Vertibot/src/STM32F30x_StdPeriph_Driver/src/stm32f30x_spi.c ****     /* Write to SPIx CR2 */
 318:/home/user/Desktop/STM32-Projekte/FH-Vertibot/src/STM32F30x_StdPeriph_Driver/src/stm32f30x_spi.c ****     SPIx->CR2 = tmpreg;
 319:/home/user/Desktop/STM32-Projekte/FH-Vertibot/src/STM32F30x_StdPeriph_Driver/src/stm32f30x_spi.c **** /*---------------------------- SPIx CR1 Configuration ------------------------*/
 320:/home/user/Desktop/STM32-Projekte/FH-Vertibot/src/STM32F30x_StdPeriph_Driver/src/stm32f30x_spi.c ****     /* Get the SPIx CR1 value */
 321:/home/user/Desktop/STM32-Projekte/FH-Vertibot/src/STM32F30x_StdPeriph_Driver/src/stm32f30x_spi.c ****     tmpreg = SPIx->CR1;
 322:/home/user/Desktop/STM32-Projekte/FH-Vertibot/src/STM32F30x_StdPeriph_Driver/src/stm32f30x_spi.c ****     /* Clear BIDIMode, BIDIOE, RxONLY, SSM, SSI, LSBFirst, BR, MSTR, CPOL and CPHA bits */
 323:/home/user/Desktop/STM32-Projekte/FH-Vertibot/src/STM32F30x_StdPeriph_Driver/src/stm32f30x_spi.c ****     tmpreg &= CR1_CLEAR_MASK;
 324:/home/user/Desktop/STM32-Projekte/FH-Vertibot/src/STM32F30x_StdPeriph_Driver/src/stm32f30x_spi.c ****     /* Configure SPIx: direction, NSS management, first transmitted bit, BaudRate prescaler
 325:/home/user/Desktop/STM32-Projekte/FH-Vertibot/src/STM32F30x_StdPeriph_Driver/src/stm32f30x_spi.c ****        master/salve mode, CPOL and CPHA */
 326:/home/user/Desktop/STM32-Projekte/FH-Vertibot/src/STM32F30x_StdPeriph_Driver/src/stm32f30x_spi.c ****     /* Set BIDImode, BIDIOE and RxONLY bits according to SPI_Direction value */
 327:/home/user/Desktop/STM32-Projekte/FH-Vertibot/src/STM32F30x_StdPeriph_Driver/src/stm32f30x_spi.c ****     /* Set SSM, SSI and MSTR bits according to SPI_Mode and SPI_NSS values */
 328:/home/user/Desktop/STM32-Projekte/FH-Vertibot/src/STM32F30x_StdPeriph_Driver/src/stm32f30x_spi.c ****     /* Set LSBFirst bit according to SPI_FirstBit value */
 329:/home/user/Desktop/STM32-Projekte/FH-Vertibot/src/STM32F30x_StdPeriph_Driver/src/stm32f30x_spi.c ****     /* Set BR bits according to SPI_BaudRatePrescaler value */
 330:/home/user/Desktop/STM32-Projekte/FH-Vertibot/src/STM32F30x_StdPeriph_Driver/src/stm32f30x_spi.c ****     /* Set CPOL bit according to SPI_CPOL value */
 331:/home/user/Desktop/STM32-Projekte/FH-Vertibot/src/STM32F30x_StdPeriph_Driver/src/stm32f30x_spi.c ****     /* Set CPHA bit according to SPI_CPHA value */
 332:/home/user/Desktop/STM32-Projekte/FH-Vertibot/src/STM32F30x_StdPeriph_Driver/src/stm32f30x_spi.c ****     tmpreg |= (uint16_t)((uint16_t)(SPI_InitStruct->SPI_Direction | SPI_InitStruct->SPI_Mode) | 
 333:/home/user/Desktop/STM32-Projekte/FH-Vertibot/src/STM32F30x_StdPeriph_Driver/src/stm32f30x_spi.c ****                          (uint16_t)((uint16_t)(SPI_InitStruct->SPI_CPOL | SPI_InitStruct->SPI_CPHA)
 334:/home/user/Desktop/STM32-Projekte/FH-Vertibot/src/STM32F30x_StdPeriph_Driver/src/stm32f30x_spi.c ****                          (uint16_t)((uint16_t)(SPI_InitStruct->SPI_NSS | SPI_InitStruct->SPI_BaudRa
 218              		.loc 1 334 0
 219 00c4 CD88     		ldrh	r5, [r1, #6]
 314:/home/user/Desktop/STM32-Projekte/FH-Vertibot/src/STM32F30x_StdPeriph_Driver/src/stm32f30x_spi.c ****     tmpreg &= (uint16_t)~SPI_CR2_DS;
 220              		.loc 1 314 0
 221 00c6 23F47063 		bic	r3, r3, #3840
 222              	.LVL21:
 223 00ca 1B04     		lsls	r3, r3, #16
 224 00cc 1B0C     		lsrs	r3, r3, #16
 225              	.LVL22:
 316:/home/user/Desktop/STM32-Projekte/FH-Vertibot/src/STM32F30x_StdPeriph_Driver/src/stm32f30x_spi.c ****     tmpreg |= (uint16_t)(SPI_InitStruct->SPI_DataSize);
 226              		.loc 1 316 0
 227 00ce 2343     		orrs	r3, r3, r4
 228              	.LVL23:
 318:/home/user/Desktop/STM32-Projekte/FH-Vertibot/src/STM32F30x_StdPeriph_Driver/src/stm32f30x_spi.c ****     SPIx->CR2 = tmpreg;
 229              		.loc 1 318 0
 230 00d0 8380     		strh	r3, [r0, #4]	@ movhi
 332:/home/user/Desktop/STM32-Projekte/FH-Vertibot/src/STM32F30x_StdPeriph_Driver/src/stm32f30x_spi.c ****     tmpreg |= (uint16_t)((uint16_t)(SPI_InitStruct->SPI_Direction | SPI_InitStruct->SPI_Mode) | 
 231              		.loc 1 332 0
 232 00d2 0B88     		ldrh	r3, [r1, #0]
 233              	.LVL24:
 321:/home/user/Desktop/STM32-Projekte/FH-Vertibot/src/STM32F30x_StdPeriph_Driver/src/stm32f30x_spi.c ****     tmpreg = SPIx->CR1;
 234              		.loc 1 321 0
 235 00d4 0488     		ldrh	r4, [r0, #0]
 236              	.LVL25:
 332:/home/user/Desktop/STM32-Projekte/FH-Vertibot/src/STM32F30x_StdPeriph_Driver/src/stm32f30x_spi.c ****     tmpreg |= (uint16_t)((uint16_t)(SPI_InitStruct->SPI_Direction | SPI_InitStruct->SPI_Mode) | 
 237              		.loc 1 332 0
 238 00d6 1343     		orrs	r3, r3, r2
 239              		.loc 1 334 0
 240 00d8 2B43     		orrs	r3, r3, r5
 241 00da 0D89     		ldrh	r5, [r1, #8]
 332:/home/user/Desktop/STM32-Projekte/FH-Vertibot/src/STM32F30x_StdPeriph_Driver/src/stm32f30x_spi.c ****     tmpreg |= (uint16_t)((uint16_t)(SPI_InitStruct->SPI_Direction | SPI_InitStruct->SPI_Mode) | 
 242              		.loc 1 332 0
 243 00dc CA89     		ldrh	r2, [r1, #14]
 244              		.loc 1 334 0
 245 00de 2B43     		orrs	r3, r3, r5
 333:/home/user/Desktop/STM32-Projekte/FH-Vertibot/src/STM32F30x_StdPeriph_Driver/src/stm32f30x_spi.c ****                          (uint16_t)((uint16_t)(SPI_InitStruct->SPI_CPOL | SPI_InitStruct->SPI_CPHA)
 246              		.loc 1 333 0
 247 00e0 4D89     		ldrh	r5, [r1, #10]
 248 00e2 2B43     		orrs	r3, r3, r5
 249 00e4 8D89     		ldrh	r5, [r1, #12]
 250 00e6 2B43     		orrs	r3, r3, r5
 323:/home/user/Desktop/STM32-Projekte/FH-Vertibot/src/STM32F30x_StdPeriph_Driver/src/stm32f30x_spi.c ****     tmpreg &= CR1_CLEAR_MASK;
 251              		.loc 1 323 0
 252 00e8 04F44154 		and	r4, r4, #12352
 253              	.LVL26:
 332:/home/user/Desktop/STM32-Projekte/FH-Vertibot/src/STM32F30x_StdPeriph_Driver/src/stm32f30x_spi.c ****     tmpreg |= (uint16_t)((uint16_t)(SPI_InitStruct->SPI_Direction | SPI_InitStruct->SPI_Mode) | 
 254              		.loc 1 332 0
 255 00ec 1343     		orrs	r3, r3, r2
 256 00ee 2343     		orrs	r3, r3, r4
 257              	.LVL27:
 335:/home/user/Desktop/STM32-Projekte/FH-Vertibot/src/STM32F30x_StdPeriph_Driver/src/stm32f30x_spi.c ****                          SPI_InitStruct->SPI_FirstBit)));
 336:/home/user/Desktop/STM32-Projekte/FH-Vertibot/src/STM32F30x_StdPeriph_Driver/src/stm32f30x_spi.c **** 
 337:/home/user/Desktop/STM32-Projekte/FH-Vertibot/src/STM32F30x_StdPeriph_Driver/src/stm32f30x_spi.c ****     /* Write to SPIx CR1 */
 338:/home/user/Desktop/STM32-Projekte/FH-Vertibot/src/STM32F30x_StdPeriph_Driver/src/stm32f30x_spi.c ****     SPIx->CR1 = tmpreg;
 258              		.loc 1 338 0
 259 00f0 0380     		strh	r3, [r0, #0]	@ movhi
 260              	.LVL28:
 261              	.L11:
 339:/home/user/Desktop/STM32-Projekte/FH-Vertibot/src/STM32F30x_StdPeriph_Driver/src/stm32f30x_spi.c ****   }
 340:/home/user/Desktop/STM32-Projekte/FH-Vertibot/src/STM32F30x_StdPeriph_Driver/src/stm32f30x_spi.c **** 
 341:/home/user/Desktop/STM32-Projekte/FH-Vertibot/src/STM32F30x_StdPeriph_Driver/src/stm32f30x_spi.c ****   /* Activate the SPI mode (Reset I2SMOD bit in I2SCFGR register) */
 342:/home/user/Desktop/STM32-Projekte/FH-Vertibot/src/STM32F30x_StdPeriph_Driver/src/stm32f30x_spi.c ****   SPIx->I2SCFGR &= (uint16_t)~((uint16_t)SPI_I2SCFGR_I2SMOD);
 262              		.loc 1 342 0
 263 00f2 838B     		ldrh	r3, [r0, #28]
 264 00f4 23F40063 		bic	r3, r3, #2048
 265 00f8 1B04     		lsls	r3, r3, #16
 266 00fa 1B0C     		lsrs	r3, r3, #16
 267 00fc 8383     		strh	r3, [r0, #28]	@ movhi
 343:/home/user/Desktop/STM32-Projekte/FH-Vertibot/src/STM32F30x_StdPeriph_Driver/src/stm32f30x_spi.c **** 
 344:/home/user/Desktop/STM32-Projekte/FH-Vertibot/src/STM32F30x_StdPeriph_Driver/src/stm32f30x_spi.c **** /*---------------------------- SPIx CRCPOLY Configuration --------------------*/
 345:/home/user/Desktop/STM32-Projekte/FH-Vertibot/src/STM32F30x_StdPeriph_Driver/src/stm32f30x_spi.c ****   /* Write to SPIx CRCPOLY */
 346:/home/user/Desktop/STM32-Projekte/FH-Vertibot/src/STM32F30x_StdPeriph_Driver/src/stm32f30x_spi.c ****   SPIx->CRCPR = SPI_InitStruct->SPI_CRCPolynomial;
 268              		.loc 1 346 0
 269 00fe 0B8A     		ldrh	r3, [r1, #16]
 270 0100 0382     		strh	r3, [r0, #16]	@ movhi
 271 0102 30BD     		pop	{r4, r5, pc}
 272              		.cfi_endproc
 273              	.LFE113:
 275              		.align	1
 276              		.global	I2S_StructInit
 277              		.thumb
 278              		.thumb_func
 280              	I2S_StructInit:
 281              	.LFB114:
 347:/home/user/Desktop/STM32-Projekte/FH-Vertibot/src/STM32F30x_StdPeriph_Driver/src/stm32f30x_spi.c **** }
 348:/home/user/Desktop/STM32-Projekte/FH-Vertibot/src/STM32F30x_StdPeriph_Driver/src/stm32f30x_spi.c **** 
 349:/home/user/Desktop/STM32-Projekte/FH-Vertibot/src/STM32F30x_StdPeriph_Driver/src/stm32f30x_spi.c **** /**
 350:/home/user/Desktop/STM32-Projekte/FH-Vertibot/src/STM32F30x_StdPeriph_Driver/src/stm32f30x_spi.c ****   * @brief  Fills each I2S_InitStruct member with its default value.
 351:/home/user/Desktop/STM32-Projekte/FH-Vertibot/src/STM32F30x_StdPeriph_Driver/src/stm32f30x_spi.c ****   * @param  I2S_InitStruct : pointer to a I2S_InitTypeDef structure which will be initialized.
 352:/home/user/Desktop/STM32-Projekte/FH-Vertibot/src/STM32F30x_StdPeriph_Driver/src/stm32f30x_spi.c ****   * @retval None
 353:/home/user/Desktop/STM32-Projekte/FH-Vertibot/src/STM32F30x_StdPeriph_Driver/src/stm32f30x_spi.c ****   */
 354:/home/user/Desktop/STM32-Projekte/FH-Vertibot/src/STM32F30x_StdPeriph_Driver/src/stm32f30x_spi.c **** void I2S_StructInit(I2S_InitTypeDef* I2S_InitStruct)
 355:/home/user/Desktop/STM32-Projekte/FH-Vertibot/src/STM32F30x_StdPeriph_Driver/src/stm32f30x_spi.c **** {
 282              		.loc 1 355 0
 283              		.cfi_startproc
 284              		@ args = 0, pretend = 0, frame = 0
 285              		@ frame_needed = 0, uses_anonymous_args = 0
 286              		@ link register save eliminated.
 287              	.LVL29:
 356:/home/user/Desktop/STM32-Projekte/FH-Vertibot/src/STM32F30x_StdPeriph_Driver/src/stm32f30x_spi.c **** /*--------------- Reset I2S init structure parameters values -----------------*/
 357:/home/user/Desktop/STM32-Projekte/FH-Vertibot/src/STM32F30x_StdPeriph_Driver/src/stm32f30x_spi.c ****   /* Initialize the I2S_Mode member */
 358:/home/user/Desktop/STM32-Projekte/FH-Vertibot/src/STM32F30x_StdPeriph_Driver/src/stm32f30x_spi.c ****   I2S_InitStruct->I2S_Mode = I2S_Mode_SlaveTx;
 288              		.loc 1 358 0
 289 0104 0023     		movs	r3, #0
 359:/home/user/Desktop/STM32-Projekte/FH-Vertibot/src/STM32F30x_StdPeriph_Driver/src/stm32f30x_spi.c **** 
 360:/home/user/Desktop/STM32-Projekte/FH-Vertibot/src/STM32F30x_StdPeriph_Driver/src/stm32f30x_spi.c ****   /* Initialize the I2S_Standard member */
 361:/home/user/Desktop/STM32-Projekte/FH-Vertibot/src/STM32F30x_StdPeriph_Driver/src/stm32f30x_spi.c ****   I2S_InitStruct->I2S_Standard = I2S_Standard_Phillips;
 362:/home/user/Desktop/STM32-Projekte/FH-Vertibot/src/STM32F30x_StdPeriph_Driver/src/stm32f30x_spi.c **** 
 363:/home/user/Desktop/STM32-Projekte/FH-Vertibot/src/STM32F30x_StdPeriph_Driver/src/stm32f30x_spi.c ****   /* Initialize the I2S_DataFormat member */
 364:/home/user/Desktop/STM32-Projekte/FH-Vertibot/src/STM32F30x_StdPeriph_Driver/src/stm32f30x_spi.c ****   I2S_InitStruct->I2S_DataFormat = I2S_DataFormat_16b;
 365:/home/user/Desktop/STM32-Projekte/FH-Vertibot/src/STM32F30x_StdPeriph_Driver/src/stm32f30x_spi.c **** 
 366:/home/user/Desktop/STM32-Projekte/FH-Vertibot/src/STM32F30x_StdPeriph_Driver/src/stm32f30x_spi.c ****   /* Initialize the I2S_MCLKOutput member */
 367:/home/user/Desktop/STM32-Projekte/FH-Vertibot/src/STM32F30x_StdPeriph_Driver/src/stm32f30x_spi.c ****   I2S_InitStruct->I2S_MCLKOutput = I2S_MCLKOutput_Disable;
 368:/home/user/Desktop/STM32-Projekte/FH-Vertibot/src/STM32F30x_StdPeriph_Driver/src/stm32f30x_spi.c **** 
 369:/home/user/Desktop/STM32-Projekte/FH-Vertibot/src/STM32F30x_StdPeriph_Driver/src/stm32f30x_spi.c ****   /* Initialize the I2S_AudioFreq member */
 370:/home/user/Desktop/STM32-Projekte/FH-Vertibot/src/STM32F30x_StdPeriph_Driver/src/stm32f30x_spi.c ****   I2S_InitStruct->I2S_AudioFreq = I2S_AudioFreq_Default;
 290              		.loc 1 370 0
 291 0106 0222     		movs	r2, #2
 358:/home/user/Desktop/STM32-Projekte/FH-Vertibot/src/STM32F30x_StdPeriph_Driver/src/stm32f30x_spi.c ****   I2S_InitStruct->I2S_Mode = I2S_Mode_SlaveTx;
 292              		.loc 1 358 0
 293 0108 0380     		strh	r3, [r0, #0]	@ movhi
 361:/home/user/Desktop/STM32-Projekte/FH-Vertibot/src/STM32F30x_StdPeriph_Driver/src/stm32f30x_spi.c ****   I2S_InitStruct->I2S_Standard = I2S_Standard_Phillips;
 294              		.loc 1 361 0
 295 010a 4380     		strh	r3, [r0, #2]	@ movhi
 364:/home/user/Desktop/STM32-Projekte/FH-Vertibot/src/STM32F30x_StdPeriph_Driver/src/stm32f30x_spi.c ****   I2S_InitStruct->I2S_DataFormat = I2S_DataFormat_16b;
 296              		.loc 1 364 0
 297 010c 8380     		strh	r3, [r0, #4]	@ movhi
 367:/home/user/Desktop/STM32-Projekte/FH-Vertibot/src/STM32F30x_StdPeriph_Driver/src/stm32f30x_spi.c ****   I2S_InitStruct->I2S_MCLKOutput = I2S_MCLKOutput_Disable;
 298              		.loc 1 367 0
 299 010e C380     		strh	r3, [r0, #6]	@ movhi
 300              		.loc 1 370 0
 301 0110 8260     		str	r2, [r0, #8]
 371:/home/user/Desktop/STM32-Projekte/FH-Vertibot/src/STM32F30x_StdPeriph_Driver/src/stm32f30x_spi.c **** 
 372:/home/user/Desktop/STM32-Projekte/FH-Vertibot/src/STM32F30x_StdPeriph_Driver/src/stm32f30x_spi.c ****   /* Initialize the I2S_CPOL member */
 373:/home/user/Desktop/STM32-Projekte/FH-Vertibot/src/STM32F30x_StdPeriph_Driver/src/stm32f30x_spi.c ****   I2S_InitStruct->I2S_CPOL = I2S_CPOL_Low;
 302              		.loc 1 373 0
 303 0112 8381     		strh	r3, [r0, #12]	@ movhi
 304 0114 7047     		bx	lr
 305              		.cfi_endproc
 306              	.LFE114:
 308              		.align	1
 309              		.global	I2S_Init
 310              		.thumb
 311              		.thumb_func
 313              	I2S_Init:
 314              	.LFB115:
 374:/home/user/Desktop/STM32-Projekte/FH-Vertibot/src/STM32F30x_StdPeriph_Driver/src/stm32f30x_spi.c **** }
 375:/home/user/Desktop/STM32-Projekte/FH-Vertibot/src/STM32F30x_StdPeriph_Driver/src/stm32f30x_spi.c **** 
 376:/home/user/Desktop/STM32-Projekte/FH-Vertibot/src/STM32F30x_StdPeriph_Driver/src/stm32f30x_spi.c **** /**
 377:/home/user/Desktop/STM32-Projekte/FH-Vertibot/src/STM32F30x_StdPeriph_Driver/src/stm32f30x_spi.c ****   * @brief  Initializes the SPIx peripheral according to the specified 
 378:/home/user/Desktop/STM32-Projekte/FH-Vertibot/src/STM32F30x_StdPeriph_Driver/src/stm32f30x_spi.c ****   *   parameters in the I2S_InitStruct.
 379:/home/user/Desktop/STM32-Projekte/FH-Vertibot/src/STM32F30x_StdPeriph_Driver/src/stm32f30x_spi.c ****   * @param  SPIx:To select the SPIx peripheral, where x can be: 2 or 3 
 380:/home/user/Desktop/STM32-Projekte/FH-Vertibot/src/STM32F30x_StdPeriph_Driver/src/stm32f30x_spi.c ****   *         in I2S mode. 
 381:/home/user/Desktop/STM32-Projekte/FH-Vertibot/src/STM32F30x_StdPeriph_Driver/src/stm32f30x_spi.c ****   * @param  I2S_InitStruct: pointer to an I2S_InitTypeDef structure that
 382:/home/user/Desktop/STM32-Projekte/FH-Vertibot/src/STM32F30x_StdPeriph_Driver/src/stm32f30x_spi.c ****   *   contains the configuration information for the specified SPI peripheral
 383:/home/user/Desktop/STM32-Projekte/FH-Vertibot/src/STM32F30x_StdPeriph_Driver/src/stm32f30x_spi.c ****   *   configured in I2S mode.
 384:/home/user/Desktop/STM32-Projekte/FH-Vertibot/src/STM32F30x_StdPeriph_Driver/src/stm32f30x_spi.c ****   * @note
 385:/home/user/Desktop/STM32-Projekte/FH-Vertibot/src/STM32F30x_StdPeriph_Driver/src/stm32f30x_spi.c ****   *  The function calculates the optimal prescaler needed to obtain the most 
 386:/home/user/Desktop/STM32-Projekte/FH-Vertibot/src/STM32F30x_StdPeriph_Driver/src/stm32f30x_spi.c ****   *  accurate audio frequency (depending on the I2S clock source, the PLL values 
 387:/home/user/Desktop/STM32-Projekte/FH-Vertibot/src/STM32F30x_StdPeriph_Driver/src/stm32f30x_spi.c ****   *  and the product configuration). But in case the prescaler value is greater 
 388:/home/user/Desktop/STM32-Projekte/FH-Vertibot/src/STM32F30x_StdPeriph_Driver/src/stm32f30x_spi.c ****   *  than 511, the default value (0x02) will be configured instead.     
 389:/home/user/Desktop/STM32-Projekte/FH-Vertibot/src/STM32F30x_StdPeriph_Driver/src/stm32f30x_spi.c ****   * @retval None
 390:/home/user/Desktop/STM32-Projekte/FH-Vertibot/src/STM32F30x_StdPeriph_Driver/src/stm32f30x_spi.c ****   */
 391:/home/user/Desktop/STM32-Projekte/FH-Vertibot/src/STM32F30x_StdPeriph_Driver/src/stm32f30x_spi.c **** void I2S_Init(SPI_TypeDef* SPIx, I2S_InitTypeDef* I2S_InitStruct)
 392:/home/user/Desktop/STM32-Projekte/FH-Vertibot/src/STM32F30x_StdPeriph_Driver/src/stm32f30x_spi.c **** {
 315              		.loc 1 392 0
 316              		.cfi_startproc
 317              		@ args = 0, pretend = 0, frame = 64
 318              		@ frame_needed = 0, uses_anonymous_args = 0
 319              	.LVL30:
 393:/home/user/Desktop/STM32-Projekte/FH-Vertibot/src/STM32F30x_StdPeriph_Driver/src/stm32f30x_spi.c ****   uint16_t tmpreg = 0, i2sdiv = 2, i2sodd = 0, packetlength = 1;
 394:/home/user/Desktop/STM32-Projekte/FH-Vertibot/src/STM32F30x_StdPeriph_Driver/src/stm32f30x_spi.c ****   uint32_t tmp = 0;
 395:/home/user/Desktop/STM32-Projekte/FH-Vertibot/src/STM32F30x_StdPeriph_Driver/src/stm32f30x_spi.c ****   RCC_ClocksTypeDef RCC_Clocks;
 396:/home/user/Desktop/STM32-Projekte/FH-Vertibot/src/STM32F30x_StdPeriph_Driver/src/stm32f30x_spi.c ****   uint32_t sourceclock = 0;
 397:/home/user/Desktop/STM32-Projekte/FH-Vertibot/src/STM32F30x_StdPeriph_Driver/src/stm32f30x_spi.c **** 
 398:/home/user/Desktop/STM32-Projekte/FH-Vertibot/src/STM32F30x_StdPeriph_Driver/src/stm32f30x_spi.c ****   /* Check the I2S parameters */
 399:/home/user/Desktop/STM32-Projekte/FH-Vertibot/src/STM32F30x_StdPeriph_Driver/src/stm32f30x_spi.c ****   assert_param(IS_SPI_23_PERIPH(SPIx));
 400:/home/user/Desktop/STM32-Projekte/FH-Vertibot/src/STM32F30x_StdPeriph_Driver/src/stm32f30x_spi.c ****   assert_param(IS_I2S_MODE(I2S_InitStruct->I2S_Mode));
 401:/home/user/Desktop/STM32-Projekte/FH-Vertibot/src/STM32F30x_StdPeriph_Driver/src/stm32f30x_spi.c ****   assert_param(IS_I2S_STANDARD(I2S_InitStruct->I2S_Standard));
 402:/home/user/Desktop/STM32-Projekte/FH-Vertibot/src/STM32F30x_StdPeriph_Driver/src/stm32f30x_spi.c ****   assert_param(IS_I2S_DATA_FORMAT(I2S_InitStruct->I2S_DataFormat));
 403:/home/user/Desktop/STM32-Projekte/FH-Vertibot/src/STM32F30x_StdPeriph_Driver/src/stm32f30x_spi.c ****   assert_param(IS_I2S_MCLK_OUTPUT(I2S_InitStruct->I2S_MCLKOutput));
 404:/home/user/Desktop/STM32-Projekte/FH-Vertibot/src/STM32F30x_StdPeriph_Driver/src/stm32f30x_spi.c ****   assert_param(IS_I2S_AUDIO_FREQ(I2S_InitStruct->I2S_AudioFreq));
 405:/home/user/Desktop/STM32-Projekte/FH-Vertibot/src/STM32F30x_StdPeriph_Driver/src/stm32f30x_spi.c ****   assert_param(IS_I2S_CPOL(I2S_InitStruct->I2S_CPOL));  
 406:/home/user/Desktop/STM32-Projekte/FH-Vertibot/src/STM32F30x_StdPeriph_Driver/src/stm32f30x_spi.c **** 
 407:/home/user/Desktop/STM32-Projekte/FH-Vertibot/src/STM32F30x_StdPeriph_Driver/src/stm32f30x_spi.c **** /*----------------------- SPIx I2SCFGR & I2SPR Configuration -----------------*/
 408:/home/user/Desktop/STM32-Projekte/FH-Vertibot/src/STM32F30x_StdPeriph_Driver/src/stm32f30x_spi.c ****   /* Clear I2SMOD, I2SE, I2SCFG, PCMSYNC, I2SSTD, CKPOL, DATLEN and CHLEN bits */
 409:/home/user/Desktop/STM32-Projekte/FH-Vertibot/src/STM32F30x_StdPeriph_Driver/src/stm32f30x_spi.c ****   SPIx->I2SCFGR &= I2SCFGR_CLEAR_MASK; 
 320              		.loc 1 409 0
 321 0116 838B     		ldrh	r3, [r0, #28]
 322 0118 23F47B63 		bic	r3, r3, #4016
 323 011c 23F00F03 		bic	r3, r3, #15
 324 0120 1B04     		lsls	r3, r3, #16
 392:/home/user/Desktop/STM32-Projekte/FH-Vertibot/src/STM32F30x_StdPeriph_Driver/src/stm32f30x_spi.c **** {
 325              		.loc 1 392 0
 326 0122 F0B5     		push	{r4, r5, r6, r7, lr}
 327              	.LCFI2:
 328              		.cfi_def_cfa_offset 20
 329              		.cfi_offset 4, -20
 330              		.cfi_offset 5, -16
 331              		.cfi_offset 6, -12
 332              		.cfi_offset 7, -8
 333              		.cfi_offset 14, -4
 334              		.loc 1 409 0
 335 0124 1B0C     		lsrs	r3, r3, #16
 336 0126 8383     		strh	r3, [r0, #28]	@ movhi
 410:/home/user/Desktop/STM32-Projekte/FH-Vertibot/src/STM32F30x_StdPeriph_Driver/src/stm32f30x_spi.c ****   SPIx->I2SPR = 0x0002;
 337              		.loc 1 410 0
 338 0128 0223     		movs	r3, #2
 339 012a 0384     		strh	r3, [r0, #32]	@ movhi
 411:/home/user/Desktop/STM32-Projekte/FH-Vertibot/src/STM32F30x_StdPeriph_Driver/src/stm32f30x_spi.c **** 
 412:/home/user/Desktop/STM32-Projekte/FH-Vertibot/src/STM32F30x_StdPeriph_Driver/src/stm32f30x_spi.c ****   /* Get the I2SCFGR register value */
 413:/home/user/Desktop/STM32-Projekte/FH-Vertibot/src/STM32F30x_StdPeriph_Driver/src/stm32f30x_spi.c ****   tmpreg = SPIx->I2SCFGR;
 414:/home/user/Desktop/STM32-Projekte/FH-Vertibot/src/STM32F30x_StdPeriph_Driver/src/stm32f30x_spi.c **** 
 415:/home/user/Desktop/STM32-Projekte/FH-Vertibot/src/STM32F30x_StdPeriph_Driver/src/stm32f30x_spi.c ****   /* If the default value has to be written, reinitialize i2sdiv and i2sodd*/
 416:/home/user/Desktop/STM32-Projekte/FH-Vertibot/src/STM32F30x_StdPeriph_Driver/src/stm32f30x_spi.c ****   if(I2S_InitStruct->I2S_AudioFreq == I2S_AudioFreq_Default)
 340              		.loc 1 416 0
 341 012c 8B68     		ldr	r3, [r1, #8]
 413:/home/user/Desktop/STM32-Projekte/FH-Vertibot/src/STM32F30x_StdPeriph_Driver/src/stm32f30x_spi.c ****   tmpreg = SPIx->I2SCFGR;
 342              		.loc 1 413 0
 343 012e 868B     		ldrh	r6, [r0, #28]
 344              	.LVL31:
 345              		.loc 1 416 0
 346 0130 022B     		cmp	r3, #2
 392:/home/user/Desktop/STM32-Projekte/FH-Vertibot/src/STM32F30x_StdPeriph_Driver/src/stm32f30x_spi.c **** {
 347              		.loc 1 392 0
 348 0132 91B0     		sub	sp, sp, #68
 349              	.LCFI3:
 350              		.cfi_def_cfa_offset 88
 392:/home/user/Desktop/STM32-Projekte/FH-Vertibot/src/STM32F30x_StdPeriph_Driver/src/stm32f30x_spi.c **** {
 351              		.loc 1 392 0
 352 0134 0546     		mov	r5, r0
 353 0136 0C46     		mov	r4, r1
 354              		.loc 1 416 0
 355 0138 23D0     		beq	.L19
 417:/home/user/Desktop/STM32-Projekte/FH-Vertibot/src/STM32F30x_StdPeriph_Driver/src/stm32f30x_spi.c ****   {
 418:/home/user/Desktop/STM32-Projekte/FH-Vertibot/src/STM32F30x_StdPeriph_Driver/src/stm32f30x_spi.c ****     i2sodd = (uint16_t)0;
 419:/home/user/Desktop/STM32-Projekte/FH-Vertibot/src/STM32F30x_StdPeriph_Driver/src/stm32f30x_spi.c ****     i2sdiv = (uint16_t)2;   
 420:/home/user/Desktop/STM32-Projekte/FH-Vertibot/src/STM32F30x_StdPeriph_Driver/src/stm32f30x_spi.c ****   }
 421:/home/user/Desktop/STM32-Projekte/FH-Vertibot/src/STM32F30x_StdPeriph_Driver/src/stm32f30x_spi.c ****   /* If the requested audio frequency is not the default, compute the prescaler */
 422:/home/user/Desktop/STM32-Projekte/FH-Vertibot/src/STM32F30x_StdPeriph_Driver/src/stm32f30x_spi.c ****   else
 423:/home/user/Desktop/STM32-Projekte/FH-Vertibot/src/STM32F30x_StdPeriph_Driver/src/stm32f30x_spi.c ****   {
 424:/home/user/Desktop/STM32-Projekte/FH-Vertibot/src/STM32F30x_StdPeriph_Driver/src/stm32f30x_spi.c ****     /* Check the frame length (For the Prescaler computing) */
 425:/home/user/Desktop/STM32-Projekte/FH-Vertibot/src/STM32F30x_StdPeriph_Driver/src/stm32f30x_spi.c ****     if(I2S_InitStruct->I2S_DataFormat == I2S_DataFormat_16b)
 426:/home/user/Desktop/STM32-Projekte/FH-Vertibot/src/STM32F30x_StdPeriph_Driver/src/stm32f30x_spi.c ****     {
 427:/home/user/Desktop/STM32-Projekte/FH-Vertibot/src/STM32F30x_StdPeriph_Driver/src/stm32f30x_spi.c ****       /* Packet length is 16 bits */
 428:/home/user/Desktop/STM32-Projekte/FH-Vertibot/src/STM32F30x_StdPeriph_Driver/src/stm32f30x_spi.c ****       packetlength = 1;
 429:/home/user/Desktop/STM32-Projekte/FH-Vertibot/src/STM32F30x_StdPeriph_Driver/src/stm32f30x_spi.c ****     }
 430:/home/user/Desktop/STM32-Projekte/FH-Vertibot/src/STM32F30x_StdPeriph_Driver/src/stm32f30x_spi.c ****     else
 431:/home/user/Desktop/STM32-Projekte/FH-Vertibot/src/STM32F30x_StdPeriph_Driver/src/stm32f30x_spi.c ****     {
 432:/home/user/Desktop/STM32-Projekte/FH-Vertibot/src/STM32F30x_StdPeriph_Driver/src/stm32f30x_spi.c ****       /* Packet length is 32 bits */
 433:/home/user/Desktop/STM32-Projekte/FH-Vertibot/src/STM32F30x_StdPeriph_Driver/src/stm32f30x_spi.c ****       packetlength = 2;
 434:/home/user/Desktop/STM32-Projekte/FH-Vertibot/src/STM32F30x_StdPeriph_Driver/src/stm32f30x_spi.c ****     }
 435:/home/user/Desktop/STM32-Projekte/FH-Vertibot/src/STM32F30x_StdPeriph_Driver/src/stm32f30x_spi.c **** 
 436:/home/user/Desktop/STM32-Projekte/FH-Vertibot/src/STM32F30x_StdPeriph_Driver/src/stm32f30x_spi.c ****     /* I2S Clock source is System clock: Get System Clock frequency */
 437:/home/user/Desktop/STM32-Projekte/FH-Vertibot/src/STM32F30x_StdPeriph_Driver/src/stm32f30x_spi.c ****     RCC_GetClocksFreq(&RCC_Clocks);      
 356              		.loc 1 437 0
 357 013a 01A8     		add	r0, sp, #4
 358              	.LVL32:
 425:/home/user/Desktop/STM32-Projekte/FH-Vertibot/src/STM32F30x_StdPeriph_Driver/src/stm32f30x_spi.c ****     if(I2S_InitStruct->I2S_DataFormat == I2S_DataFormat_16b)
 359              		.loc 1 425 0
 360 013c 8F88     		ldrh	r7, [r1, #4]
 361              		.loc 1 437 0
 362 013e FFF7FEFF 		bl	RCC_GetClocksFreq
 363              	.LVL33:
 438:/home/user/Desktop/STM32-Projekte/FH-Vertibot/src/STM32F30x_StdPeriph_Driver/src/stm32f30x_spi.c **** 
 439:/home/user/Desktop/STM32-Projekte/FH-Vertibot/src/STM32F30x_StdPeriph_Driver/src/stm32f30x_spi.c ****     /* Get the source clock value: based on System Clock value */
 440:/home/user/Desktop/STM32-Projekte/FH-Vertibot/src/STM32F30x_StdPeriph_Driver/src/stm32f30x_spi.c ****     sourceclock = RCC_Clocks.SYSCLK_Frequency;    
 441:/home/user/Desktop/STM32-Projekte/FH-Vertibot/src/STM32F30x_StdPeriph_Driver/src/stm32f30x_spi.c **** 
 442:/home/user/Desktop/STM32-Projekte/FH-Vertibot/src/STM32F30x_StdPeriph_Driver/src/stm32f30x_spi.c ****     /* Compute the Real divider depending on the MCLK output state with a floating point */
 443:/home/user/Desktop/STM32-Projekte/FH-Vertibot/src/STM32F30x_StdPeriph_Driver/src/stm32f30x_spi.c ****     if(I2S_InitStruct->I2S_MCLKOutput == I2S_MCLKOutput_Enable)
 364              		.loc 1 443 0
 365 0142 E388     		ldrh	r3, [r4, #6]
 440:/home/user/Desktop/STM32-Projekte/FH-Vertibot/src/STM32F30x_StdPeriph_Driver/src/stm32f30x_spi.c ****     sourceclock = RCC_Clocks.SYSCLK_Frequency;    
 366              		.loc 1 440 0
 367 0144 019A     		ldr	r2, [sp, #4]
 428:/home/user/Desktop/STM32-Projekte/FH-Vertibot/src/STM32F30x_StdPeriph_Driver/src/stm32f30x_spi.c ****       packetlength = 1;
 368              		.loc 1 428 0
 369 0146 002F     		cmp	r7, #0
 370 0148 14BF     		ite	ne
 371 014a 0227     		movne	r7, #2
 372 014c 0127     		moveq	r7, #1
 373              	.LVL34:
 374              		.loc 1 443 0
 375 014e B3F5007F 		cmp	r3, #512
 376 0152 4FF00A03 		mov	r3, #10
 377 0156 01D1     		bne	.L16
 444:/home/user/Desktop/STM32-Projekte/FH-Vertibot/src/STM32F30x_StdPeriph_Driver/src/stm32f30x_spi.c ****     {
 445:/home/user/Desktop/STM32-Projekte/FH-Vertibot/src/STM32F30x_StdPeriph_Driver/src/stm32f30x_spi.c ****       /* MCLK output is enabled */
 446:/home/user/Desktop/STM32-Projekte/FH-Vertibot/src/STM32F30x_StdPeriph_Driver/src/stm32f30x_spi.c ****       tmp = (uint16_t)(((((sourceclock / 256) * 10) / I2S_InitStruct->I2S_AudioFreq)) + 5);
 378              		.loc 1 446 0
 379 0158 120A     		lsrs	r2, r2, #8
 380              	.LVL35:
 381 015a 02E0     		b	.L22
 382              	.LVL36:
 383              	.L16:
 447:/home/user/Desktop/STM32-Projekte/FH-Vertibot/src/STM32F30x_StdPeriph_Driver/src/stm32f30x_spi.c ****     }
 448:/home/user/Desktop/STM32-Projekte/FH-Vertibot/src/STM32F30x_StdPeriph_Driver/src/stm32f30x_spi.c ****     else
 449:/home/user/Desktop/STM32-Projekte/FH-Vertibot/src/STM32F30x_StdPeriph_Driver/src/stm32f30x_spi.c ****     {
 450:/home/user/Desktop/STM32-Projekte/FH-Vertibot/src/STM32F30x_StdPeriph_Driver/src/stm32f30x_spi.c ****       /* MCLK output is disabled */
 451:/home/user/Desktop/STM32-Projekte/FH-Vertibot/src/STM32F30x_StdPeriph_Driver/src/stm32f30x_spi.c ****       tmp = (uint16_t)(((((sourceclock / (32 * packetlength)) *10 ) / I2S_InitStruct->I2S_AudioFreq
 384              		.loc 1 451 0
 385 015c 7F01     		lsls	r7, r7, #5
 386              	.LVL37:
 387 015e B2FBF7F2 		udiv	r2, r2, r7
 388              	.LVL38:
 389              	.L22:
 390 0162 A168     		ldr	r1, [r4, #8]
 391 0164 5343     		muls	r3, r2, r3
 392 0166 B3FBF1F3 		udiv	r3, r3, r1
 393 016a 0533     		adds	r3, r3, #5
 452:/home/user/Desktop/STM32-Projekte/FH-Vertibot/src/STM32F30x_StdPeriph_Driver/src/stm32f30x_spi.c ****     }
 453:/home/user/Desktop/STM32-Projekte/FH-Vertibot/src/STM32F30x_StdPeriph_Driver/src/stm32f30x_spi.c ****     
 454:/home/user/Desktop/STM32-Projekte/FH-Vertibot/src/STM32F30x_StdPeriph_Driver/src/stm32f30x_spi.c ****     /* Remove the floating point */
 455:/home/user/Desktop/STM32-Projekte/FH-Vertibot/src/STM32F30x_StdPeriph_Driver/src/stm32f30x_spi.c ****     tmp = tmp / 10;
 394              		.loc 1 455 0
 395 016c 0A22     		movs	r2, #10
 451:/home/user/Desktop/STM32-Projekte/FH-Vertibot/src/STM32F30x_StdPeriph_Driver/src/stm32f30x_spi.c ****       tmp = (uint16_t)(((((sourceclock / (32 * packetlength)) *10 ) / I2S_InitStruct->I2S_AudioFreq
 396              		.loc 1 451 0
 397 016e 9BB2     		uxth	r3, r3
 398              	.LVL39:
 399              		.loc 1 455 0
 400 0170 B3FBF2F3 		udiv	r3, r3, r2
 401              	.LVL40:
 456:/home/user/Desktop/STM32-Projekte/FH-Vertibot/src/STM32F30x_StdPeriph_Driver/src/stm32f30x_spi.c **** 
 457:/home/user/Desktop/STM32-Projekte/FH-Vertibot/src/STM32F30x_StdPeriph_Driver/src/stm32f30x_spi.c ****     /* Check the parity of the divider */
 458:/home/user/Desktop/STM32-Projekte/FH-Vertibot/src/STM32F30x_StdPeriph_Driver/src/stm32f30x_spi.c ****     i2sodd = (uint16_t)(tmp & (uint16_t)0x0001);
 459:/home/user/Desktop/STM32-Projekte/FH-Vertibot/src/STM32F30x_StdPeriph_Driver/src/stm32f30x_spi.c **** 
 460:/home/user/Desktop/STM32-Projekte/FH-Vertibot/src/STM32F30x_StdPeriph_Driver/src/stm32f30x_spi.c ****     /* Compute the i2sdiv prescaler */
 461:/home/user/Desktop/STM32-Projekte/FH-Vertibot/src/STM32F30x_StdPeriph_Driver/src/stm32f30x_spi.c ****     i2sdiv = (uint16_t)((tmp - i2sodd) / 2);
 402              		.loc 1 461 0
 403 0174 03F00102 		and	r2, r3, #1
 462:/home/user/Desktop/STM32-Projekte/FH-Vertibot/src/STM32F30x_StdPeriph_Driver/src/stm32f30x_spi.c **** 
 463:/home/user/Desktop/STM32-Projekte/FH-Vertibot/src/STM32F30x_StdPeriph_Driver/src/stm32f30x_spi.c ****     /* Get the Mask for the Odd bit (SPI_I2SPR[8]) register */
 464:/home/user/Desktop/STM32-Projekte/FH-Vertibot/src/STM32F30x_StdPeriph_Driver/src/stm32f30x_spi.c ****     i2sodd = (uint16_t) (i2sodd << 8);
 404              		.loc 1 464 0
 405 0178 1202     		lsls	r2, r2, #8
 461:/home/user/Desktop/STM32-Projekte/FH-Vertibot/src/STM32F30x_StdPeriph_Driver/src/stm32f30x_spi.c ****     i2sdiv = (uint16_t)((tmp - i2sodd) / 2);
 406              		.loc 1 461 0
 407 017a C3F34F03 		ubfx	r3, r3, #1, #16
 408              	.LVL41:
 409              		.loc 1 464 0
 410 017e 92B2     		uxth	r2, r2
 411              	.LVL42:
 412 0180 00E0     		b	.L14
 413              	.LVL43:
 414              	.L19:
 418:/home/user/Desktop/STM32-Projekte/FH-Vertibot/src/STM32F30x_StdPeriph_Driver/src/stm32f30x_spi.c ****     i2sodd = (uint16_t)0;
 415              		.loc 1 418 0
 416 0182 0022     		movs	r2, #0
 417              	.LVL44:
 418              	.L14:
 465:/home/user/Desktop/STM32-Projekte/FH-Vertibot/src/STM32F30x_StdPeriph_Driver/src/stm32f30x_spi.c ****   }
 466:/home/user/Desktop/STM32-Projekte/FH-Vertibot/src/STM32F30x_StdPeriph_Driver/src/stm32f30x_spi.c **** 
 467:/home/user/Desktop/STM32-Projekte/FH-Vertibot/src/STM32F30x_StdPeriph_Driver/src/stm32f30x_spi.c ****   /* Test if the divider is 1 or 0 or greater than 0xFF */
 468:/home/user/Desktop/STM32-Projekte/FH-Vertibot/src/STM32F30x_StdPeriph_Driver/src/stm32f30x_spi.c ****   if ((i2sdiv < 2) || (i2sdiv > 0xFF))
 419              		.loc 1 468 0
 420 0184 991E     		subs	r1, r3, #2
 421 0186 89B2     		uxth	r1, r1
 469:/home/user/Desktop/STM32-Projekte/FH-Vertibot/src/STM32F30x_StdPeriph_Driver/src/stm32f30x_spi.c ****   {
 470:/home/user/Desktop/STM32-Projekte/FH-Vertibot/src/STM32F30x_StdPeriph_Driver/src/stm32f30x_spi.c ****     /* Set the default values */
 471:/home/user/Desktop/STM32-Projekte/FH-Vertibot/src/STM32F30x_StdPeriph_Driver/src/stm32f30x_spi.c ****     i2sdiv = 2;
 472:/home/user/Desktop/STM32-Projekte/FH-Vertibot/src/STM32F30x_StdPeriph_Driver/src/stm32f30x_spi.c ****     i2sodd = 0;
 422              		.loc 1 472 0
 423 0188 FE29     		cmp	r1, #254
 424 018a 28BF     		it	cs
 425 018c 0022     		movcs	r2, #0
 426              	.LVL45:
 473:/home/user/Desktop/STM32-Projekte/FH-Vertibot/src/STM32F30x_StdPeriph_Driver/src/stm32f30x_spi.c ****   }
 474:/home/user/Desktop/STM32-Projekte/FH-Vertibot/src/STM32F30x_StdPeriph_Driver/src/stm32f30x_spi.c **** 
 475:/home/user/Desktop/STM32-Projekte/FH-Vertibot/src/STM32F30x_StdPeriph_Driver/src/stm32f30x_spi.c ****   /* Write to SPIx I2SPR register the computed value */
 476:/home/user/Desktop/STM32-Projekte/FH-Vertibot/src/STM32F30x_StdPeriph_Driver/src/stm32f30x_spi.c ****   SPIx->I2SPR = (uint16_t)(i2sdiv | (uint16_t)(i2sodd | (uint16_t)I2S_InitStruct->I2S_MCLKOutput));
 427              		.loc 1 476 0
 428 018e E188     		ldrh	r1, [r4, #6]
 472:/home/user/Desktop/STM32-Projekte/FH-Vertibot/src/STM32F30x_StdPeriph_Driver/src/stm32f30x_spi.c ****     i2sodd = 0;
 429              		.loc 1 472 0
 430 0190 28BF     		it	cs
 431 0192 0223     		movcs	r3, #2
 432              	.LVL46:
 433              		.loc 1 476 0
 434 0194 1343     		orrs	r3, r3, r2
 435              	.LVL47:
 436 0196 0B43     		orrs	r3, r3, r1
 437 0198 2B84     		strh	r3, [r5, #32]	@ movhi
 477:/home/user/Desktop/STM32-Projekte/FH-Vertibot/src/STM32F30x_StdPeriph_Driver/src/stm32f30x_spi.c **** 
 478:/home/user/Desktop/STM32-Projekte/FH-Vertibot/src/STM32F30x_StdPeriph_Driver/src/stm32f30x_spi.c ****   /* Configure the I2S with the SPI_InitStruct values */
 479:/home/user/Desktop/STM32-Projekte/FH-Vertibot/src/STM32F30x_StdPeriph_Driver/src/stm32f30x_spi.c ****   tmpreg |= (uint16_t)((uint16_t)(SPI_I2SCFGR_I2SMOD | I2S_InitStruct->I2S_Mode) | \
 480:/home/user/Desktop/STM32-Projekte/FH-Vertibot/src/STM32F30x_StdPeriph_Driver/src/stm32f30x_spi.c ****                        (uint16_t)((uint16_t)((uint16_t)(I2S_InitStruct->I2S_Standard |I2S_InitStruc
 438              		.loc 1 480 0
 439 019a 2388     		ldrh	r3, [r4, #0]
 479:/home/user/Desktop/STM32-Projekte/FH-Vertibot/src/STM32F30x_StdPeriph_Driver/src/stm32f30x_spi.c ****   tmpreg |= (uint16_t)((uint16_t)(SPI_I2SCFGR_I2SMOD | I2S_InitStruct->I2S_Mode) | \
 440              		.loc 1 479 0
 441 019c 6288     		ldrh	r2, [r4, #2]
 442              	.LVL48:
 443              		.loc 1 480 0
 444 019e 3343     		orrs	r3, r3, r6
 445 01a0 43F40063 		orr	r3, r3, #2048
 479:/home/user/Desktop/STM32-Projekte/FH-Vertibot/src/STM32F30x_StdPeriph_Driver/src/stm32f30x_spi.c ****   tmpreg |= (uint16_t)((uint16_t)(SPI_I2SCFGR_I2SMOD | I2S_InitStruct->I2S_Mode) | \
 446              		.loc 1 479 0
 447 01a4 1343     		orrs	r3, r3, r2
 448 01a6 A288     		ldrh	r2, [r4, #4]
 449 01a8 1343     		orrs	r3, r3, r2
 450 01aa A289     		ldrh	r2, [r4, #12]
 451 01ac 1343     		orrs	r3, r3, r2
 452              	.LVL49:
 481:/home/user/Desktop/STM32-Projekte/FH-Vertibot/src/STM32F30x_StdPeriph_Driver/src/stm32f30x_spi.c ****                        I2S_InitStruct->I2S_CPOL)));
 482:/home/user/Desktop/STM32-Projekte/FH-Vertibot/src/STM32F30x_StdPeriph_Driver/src/stm32f30x_spi.c **** 
 483:/home/user/Desktop/STM32-Projekte/FH-Vertibot/src/STM32F30x_StdPeriph_Driver/src/stm32f30x_spi.c ****   /* Write to SPIx I2SCFGR */
 484:/home/user/Desktop/STM32-Projekte/FH-Vertibot/src/STM32F30x_StdPeriph_Driver/src/stm32f30x_spi.c ****   SPIx->I2SCFGR = tmpreg;
 453              		.loc 1 484 0
 454 01ae AB83     		strh	r3, [r5, #28]	@ movhi
 485:/home/user/Desktop/STM32-Projekte/FH-Vertibot/src/STM32F30x_StdPeriph_Driver/src/stm32f30x_spi.c **** }
 455              		.loc 1 485 0
 456 01b0 11B0     		add	sp, sp, #68
 457 01b2 F0BD     		pop	{r4, r5, r6, r7, pc}
 458              		.cfi_endproc
 459              	.LFE115:
 461              		.align	1
 462              		.global	SPI_Cmd
 463              		.thumb
 464              		.thumb_func
 466              	SPI_Cmd:
 467              	.LFB116:
 486:/home/user/Desktop/STM32-Projekte/FH-Vertibot/src/STM32F30x_StdPeriph_Driver/src/stm32f30x_spi.c **** 
 487:/home/user/Desktop/STM32-Projekte/FH-Vertibot/src/STM32F30x_StdPeriph_Driver/src/stm32f30x_spi.c **** /**
 488:/home/user/Desktop/STM32-Projekte/FH-Vertibot/src/STM32F30x_StdPeriph_Driver/src/stm32f30x_spi.c ****   * @brief  Enables or disables the specified SPI peripheral.
 489:/home/user/Desktop/STM32-Projekte/FH-Vertibot/src/STM32F30x_StdPeriph_Driver/src/stm32f30x_spi.c ****   * @param  SPIx: where x can be 1, 2 or 3 to select the SPI peripheral.
 490:/home/user/Desktop/STM32-Projekte/FH-Vertibot/src/STM32F30x_StdPeriph_Driver/src/stm32f30x_spi.c ****   * @param  NewState: new state of the SPIx peripheral. 
 491:/home/user/Desktop/STM32-Projekte/FH-Vertibot/src/STM32F30x_StdPeriph_Driver/src/stm32f30x_spi.c ****   *         This parameter can be: ENABLE or DISABLE.
 492:/home/user/Desktop/STM32-Projekte/FH-Vertibot/src/STM32F30x_StdPeriph_Driver/src/stm32f30x_spi.c ****   * @retval None
 493:/home/user/Desktop/STM32-Projekte/FH-Vertibot/src/STM32F30x_StdPeriph_Driver/src/stm32f30x_spi.c ****   */
 494:/home/user/Desktop/STM32-Projekte/FH-Vertibot/src/STM32F30x_StdPeriph_Driver/src/stm32f30x_spi.c **** void SPI_Cmd(SPI_TypeDef* SPIx, FunctionalState NewState)
 495:/home/user/Desktop/STM32-Projekte/FH-Vertibot/src/STM32F30x_StdPeriph_Driver/src/stm32f30x_spi.c **** {
 468              		.loc 1 495 0
 469              		.cfi_startproc
 470              		@ args = 0, pretend = 0, frame = 0
 471              		@ frame_needed = 0, uses_anonymous_args = 0
 472              		@ link register save eliminated.
 473              	.LVL50:
 496:/home/user/Desktop/STM32-Projekte/FH-Vertibot/src/STM32F30x_StdPeriph_Driver/src/stm32f30x_spi.c ****   /* Check the parameters */
 497:/home/user/Desktop/STM32-Projekte/FH-Vertibot/src/STM32F30x_StdPeriph_Driver/src/stm32f30x_spi.c ****   assert_param(IS_SPI_ALL_PERIPH(SPIx));
 498:/home/user/Desktop/STM32-Projekte/FH-Vertibot/src/STM32F30x_StdPeriph_Driver/src/stm32f30x_spi.c ****   assert_param(IS_FUNCTIONAL_STATE(NewState));
 499:/home/user/Desktop/STM32-Projekte/FH-Vertibot/src/STM32F30x_StdPeriph_Driver/src/stm32f30x_spi.c **** 
 500:/home/user/Desktop/STM32-Projekte/FH-Vertibot/src/STM32F30x_StdPeriph_Driver/src/stm32f30x_spi.c ****   if (NewState != DISABLE)
 501:/home/user/Desktop/STM32-Projekte/FH-Vertibot/src/STM32F30x_StdPeriph_Driver/src/stm32f30x_spi.c ****   {
 502:/home/user/Desktop/STM32-Projekte/FH-Vertibot/src/STM32F30x_StdPeriph_Driver/src/stm32f30x_spi.c ****     /* Enable the selected SPI peripheral */
 503:/home/user/Desktop/STM32-Projekte/FH-Vertibot/src/STM32F30x_StdPeriph_Driver/src/stm32f30x_spi.c ****     SPIx->CR1 |= SPI_CR1_SPE;
 474              		.loc 1 503 0
 475 01b4 0388     		ldrh	r3, [r0, #0]
 500:/home/user/Desktop/STM32-Projekte/FH-Vertibot/src/STM32F30x_StdPeriph_Driver/src/stm32f30x_spi.c ****   if (NewState != DISABLE)
 476              		.loc 1 500 0
 477 01b6 19B1     		cbz	r1, .L24
 478              		.loc 1 503 0
 479 01b8 9BB2     		uxth	r3, r3
 480 01ba 43F04003 		orr	r3, r3, #64
 481 01be 03E0     		b	.L26
 482              	.L24:
 504:/home/user/Desktop/STM32-Projekte/FH-Vertibot/src/STM32F30x_StdPeriph_Driver/src/stm32f30x_spi.c ****   }
 505:/home/user/Desktop/STM32-Projekte/FH-Vertibot/src/STM32F30x_StdPeriph_Driver/src/stm32f30x_spi.c ****   else
 506:/home/user/Desktop/STM32-Projekte/FH-Vertibot/src/STM32F30x_StdPeriph_Driver/src/stm32f30x_spi.c ****   {
 507:/home/user/Desktop/STM32-Projekte/FH-Vertibot/src/STM32F30x_StdPeriph_Driver/src/stm32f30x_spi.c ****     /* Disable the selected SPI peripheral */
 508:/home/user/Desktop/STM32-Projekte/FH-Vertibot/src/STM32F30x_StdPeriph_Driver/src/stm32f30x_spi.c ****     SPIx->CR1 &= (uint16_t)~((uint16_t)SPI_CR1_SPE);
 483              		.loc 1 508 0
 484 01c0 23F04003 		bic	r3, r3, #64
 485 01c4 1B04     		lsls	r3, r3, #16
 486 01c6 1B0C     		lsrs	r3, r3, #16
 487              	.L26:
 488 01c8 0380     		strh	r3, [r0, #0]	@ movhi
 489 01ca 7047     		bx	lr
 490              		.cfi_endproc
 491              	.LFE116:
 493              		.align	1
 494              		.global	SPI_TIModeCmd
 495              		.thumb
 496              		.thumb_func
 498              	SPI_TIModeCmd:
 499              	.LFB117:
 509:/home/user/Desktop/STM32-Projekte/FH-Vertibot/src/STM32F30x_StdPeriph_Driver/src/stm32f30x_spi.c ****   }
 510:/home/user/Desktop/STM32-Projekte/FH-Vertibot/src/STM32F30x_StdPeriph_Driver/src/stm32f30x_spi.c **** }
 511:/home/user/Desktop/STM32-Projekte/FH-Vertibot/src/STM32F30x_StdPeriph_Driver/src/stm32f30x_spi.c **** 
 512:/home/user/Desktop/STM32-Projekte/FH-Vertibot/src/STM32F30x_StdPeriph_Driver/src/stm32f30x_spi.c **** /**
 513:/home/user/Desktop/STM32-Projekte/FH-Vertibot/src/STM32F30x_StdPeriph_Driver/src/stm32f30x_spi.c ****   * @brief  Enables or disables the TI Mode.
 514:/home/user/Desktop/STM32-Projekte/FH-Vertibot/src/STM32F30x_StdPeriph_Driver/src/stm32f30x_spi.c ****   * @note    This function can be called only after the SPI_Init() function has 
 515:/home/user/Desktop/STM32-Projekte/FH-Vertibot/src/STM32F30x_StdPeriph_Driver/src/stm32f30x_spi.c ****   *          been called. 
 516:/home/user/Desktop/STM32-Projekte/FH-Vertibot/src/STM32F30x_StdPeriph_Driver/src/stm32f30x_spi.c ****   * @note    When TI mode is selected, the control bits SSM, SSI, CPOL and CPHA 
 517:/home/user/Desktop/STM32-Projekte/FH-Vertibot/src/STM32F30x_StdPeriph_Driver/src/stm32f30x_spi.c ****   *          are not taken into consideration and are configured by hardware 
 518:/home/user/Desktop/STM32-Projekte/FH-Vertibot/src/STM32F30x_StdPeriph_Driver/src/stm32f30x_spi.c ****   *          respectively to the TI mode requirements.  
 519:/home/user/Desktop/STM32-Projekte/FH-Vertibot/src/STM32F30x_StdPeriph_Driver/src/stm32f30x_spi.c ****   * @param  SPIx: where x can be 1, 2 or 3 to select the SPI peripheral.  
 520:/home/user/Desktop/STM32-Projekte/FH-Vertibot/src/STM32F30x_StdPeriph_Driver/src/stm32f30x_spi.c ****   * @param  NewState: new state of the selected SPI TI communication mode.
 521:/home/user/Desktop/STM32-Projekte/FH-Vertibot/src/STM32F30x_StdPeriph_Driver/src/stm32f30x_spi.c ****   *         This parameter can be: ENABLE or DISABLE.
 522:/home/user/Desktop/STM32-Projekte/FH-Vertibot/src/STM32F30x_StdPeriph_Driver/src/stm32f30x_spi.c ****   * @retval None
 523:/home/user/Desktop/STM32-Projekte/FH-Vertibot/src/STM32F30x_StdPeriph_Driver/src/stm32f30x_spi.c ****   */
 524:/home/user/Desktop/STM32-Projekte/FH-Vertibot/src/STM32F30x_StdPeriph_Driver/src/stm32f30x_spi.c **** void SPI_TIModeCmd(SPI_TypeDef* SPIx, FunctionalState NewState)
 525:/home/user/Desktop/STM32-Projekte/FH-Vertibot/src/STM32F30x_StdPeriph_Driver/src/stm32f30x_spi.c **** {
 500              		.loc 1 525 0
 501              		.cfi_startproc
 502              		@ args = 0, pretend = 0, frame = 0
 503              		@ frame_needed = 0, uses_anonymous_args = 0
 504              		@ link register save eliminated.
 505              	.LVL51:
 526:/home/user/Desktop/STM32-Projekte/FH-Vertibot/src/STM32F30x_StdPeriph_Driver/src/stm32f30x_spi.c ****   /* Check the parameters */
 527:/home/user/Desktop/STM32-Projekte/FH-Vertibot/src/STM32F30x_StdPeriph_Driver/src/stm32f30x_spi.c ****   assert_param(IS_SPI_ALL_PERIPH(SPIx));
 528:/home/user/Desktop/STM32-Projekte/FH-Vertibot/src/STM32F30x_StdPeriph_Driver/src/stm32f30x_spi.c ****   assert_param(IS_FUNCTIONAL_STATE(NewState));
 529:/home/user/Desktop/STM32-Projekte/FH-Vertibot/src/STM32F30x_StdPeriph_Driver/src/stm32f30x_spi.c **** 
 530:/home/user/Desktop/STM32-Projekte/FH-Vertibot/src/STM32F30x_StdPeriph_Driver/src/stm32f30x_spi.c ****   if (NewState != DISABLE)
 531:/home/user/Desktop/STM32-Projekte/FH-Vertibot/src/STM32F30x_StdPeriph_Driver/src/stm32f30x_spi.c ****   {
 532:/home/user/Desktop/STM32-Projekte/FH-Vertibot/src/STM32F30x_StdPeriph_Driver/src/stm32f30x_spi.c ****     /* Enable the TI mode for the selected SPI peripheral */
 533:/home/user/Desktop/STM32-Projekte/FH-Vertibot/src/STM32F30x_StdPeriph_Driver/src/stm32f30x_spi.c ****     SPIx->CR2 |= SPI_CR2_FRF;
 506              		.loc 1 533 0
 507 01cc 8388     		ldrh	r3, [r0, #4]
 530:/home/user/Desktop/STM32-Projekte/FH-Vertibot/src/STM32F30x_StdPeriph_Driver/src/stm32f30x_spi.c ****   if (NewState != DISABLE)
 508              		.loc 1 530 0
 509 01ce 19B1     		cbz	r1, .L28
 510              		.loc 1 533 0
 511 01d0 9BB2     		uxth	r3, r3
 512 01d2 43F01003 		orr	r3, r3, #16
 513 01d6 03E0     		b	.L30
 514              	.L28:
 534:/home/user/Desktop/STM32-Projekte/FH-Vertibot/src/STM32F30x_StdPeriph_Driver/src/stm32f30x_spi.c ****   }
 535:/home/user/Desktop/STM32-Projekte/FH-Vertibot/src/STM32F30x_StdPeriph_Driver/src/stm32f30x_spi.c ****   else
 536:/home/user/Desktop/STM32-Projekte/FH-Vertibot/src/STM32F30x_StdPeriph_Driver/src/stm32f30x_spi.c ****   {
 537:/home/user/Desktop/STM32-Projekte/FH-Vertibot/src/STM32F30x_StdPeriph_Driver/src/stm32f30x_spi.c ****     /* Disable the TI mode for the selected SPI peripheral */
 538:/home/user/Desktop/STM32-Projekte/FH-Vertibot/src/STM32F30x_StdPeriph_Driver/src/stm32f30x_spi.c ****     SPIx->CR2 &= (uint16_t)~((uint16_t)SPI_CR2_FRF);
 515              		.loc 1 538 0
 516 01d8 23F01003 		bic	r3, r3, #16
 517 01dc 1B04     		lsls	r3, r3, #16
 518 01de 1B0C     		lsrs	r3, r3, #16
 519              	.L30:
 520 01e0 8380     		strh	r3, [r0, #4]	@ movhi
 521 01e2 7047     		bx	lr
 522              		.cfi_endproc
 523              	.LFE117:
 525              		.align	1
 526              		.global	I2S_Cmd
 527              		.thumb
 528              		.thumb_func
 530              	I2S_Cmd:
 531              	.LFB118:
 539:/home/user/Desktop/STM32-Projekte/FH-Vertibot/src/STM32F30x_StdPeriph_Driver/src/stm32f30x_spi.c ****   }
 540:/home/user/Desktop/STM32-Projekte/FH-Vertibot/src/STM32F30x_StdPeriph_Driver/src/stm32f30x_spi.c **** }
 541:/home/user/Desktop/STM32-Projekte/FH-Vertibot/src/STM32F30x_StdPeriph_Driver/src/stm32f30x_spi.c **** 
 542:/home/user/Desktop/STM32-Projekte/FH-Vertibot/src/STM32F30x_StdPeriph_Driver/src/stm32f30x_spi.c **** /**
 543:/home/user/Desktop/STM32-Projekte/FH-Vertibot/src/STM32F30x_StdPeriph_Driver/src/stm32f30x_spi.c ****   * @brief  Enables or disables the specified SPI peripheral (in I2S mode).
 544:/home/user/Desktop/STM32-Projekte/FH-Vertibot/src/STM32F30x_StdPeriph_Driver/src/stm32f30x_spi.c ****   * @param  SPIx:To select the SPIx peripheral, where x can be: 2 or 3 in 
 545:/home/user/Desktop/STM32-Projekte/FH-Vertibot/src/STM32F30x_StdPeriph_Driver/src/stm32f30x_spi.c ****   *         I2S mode or I2Sxext for I2S full duplex mode. 
 546:/home/user/Desktop/STM32-Projekte/FH-Vertibot/src/STM32F30x_StdPeriph_Driver/src/stm32f30x_spi.c ****   * @param  NewState: new state of the SPIx peripheral. 
 547:/home/user/Desktop/STM32-Projekte/FH-Vertibot/src/STM32F30x_StdPeriph_Driver/src/stm32f30x_spi.c ****   *   This parameter can be: ENABLE or DISABLE.
 548:/home/user/Desktop/STM32-Projekte/FH-Vertibot/src/STM32F30x_StdPeriph_Driver/src/stm32f30x_spi.c ****   * @retval None
 549:/home/user/Desktop/STM32-Projekte/FH-Vertibot/src/STM32F30x_StdPeriph_Driver/src/stm32f30x_spi.c ****   */
 550:/home/user/Desktop/STM32-Projekte/FH-Vertibot/src/STM32F30x_StdPeriph_Driver/src/stm32f30x_spi.c **** void I2S_Cmd(SPI_TypeDef* SPIx, FunctionalState NewState)
 551:/home/user/Desktop/STM32-Projekte/FH-Vertibot/src/STM32F30x_StdPeriph_Driver/src/stm32f30x_spi.c **** {
 532              		.loc 1 551 0
 533              		.cfi_startproc
 534              		@ args = 0, pretend = 0, frame = 0
 535              		@ frame_needed = 0, uses_anonymous_args = 0
 536              		@ link register save eliminated.
 537              	.LVL52:
 552:/home/user/Desktop/STM32-Projekte/FH-Vertibot/src/STM32F30x_StdPeriph_Driver/src/stm32f30x_spi.c ****   /* Check the parameters */
 553:/home/user/Desktop/STM32-Projekte/FH-Vertibot/src/STM32F30x_StdPeriph_Driver/src/stm32f30x_spi.c ****   assert_param(IS_SPI_23_PERIPH_EXT(SPIx));
 554:/home/user/Desktop/STM32-Projekte/FH-Vertibot/src/STM32F30x_StdPeriph_Driver/src/stm32f30x_spi.c ****   assert_param(IS_FUNCTIONAL_STATE(NewState));
 555:/home/user/Desktop/STM32-Projekte/FH-Vertibot/src/STM32F30x_StdPeriph_Driver/src/stm32f30x_spi.c ****   if (NewState != DISABLE)
 556:/home/user/Desktop/STM32-Projekte/FH-Vertibot/src/STM32F30x_StdPeriph_Driver/src/stm32f30x_spi.c ****   {
 557:/home/user/Desktop/STM32-Projekte/FH-Vertibot/src/STM32F30x_StdPeriph_Driver/src/stm32f30x_spi.c ****     /* Enable the selected SPI peripheral in I2S mode */
 558:/home/user/Desktop/STM32-Projekte/FH-Vertibot/src/STM32F30x_StdPeriph_Driver/src/stm32f30x_spi.c ****     SPIx->I2SCFGR |= SPI_I2SCFGR_I2SE;
 538              		.loc 1 558 0
 539 01e4 838B     		ldrh	r3, [r0, #28]
 555:/home/user/Desktop/STM32-Projekte/FH-Vertibot/src/STM32F30x_StdPeriph_Driver/src/stm32f30x_spi.c ****   if (NewState != DISABLE)
 540              		.loc 1 555 0
 541 01e6 19B1     		cbz	r1, .L32
 542              		.loc 1 558 0
 543 01e8 9BB2     		uxth	r3, r3
 544 01ea 43F48063 		orr	r3, r3, #1024
 545 01ee 03E0     		b	.L34
 546              	.L32:
 559:/home/user/Desktop/STM32-Projekte/FH-Vertibot/src/STM32F30x_StdPeriph_Driver/src/stm32f30x_spi.c ****   }
 560:/home/user/Desktop/STM32-Projekte/FH-Vertibot/src/STM32F30x_StdPeriph_Driver/src/stm32f30x_spi.c ****   else
 561:/home/user/Desktop/STM32-Projekte/FH-Vertibot/src/STM32F30x_StdPeriph_Driver/src/stm32f30x_spi.c ****   {
 562:/home/user/Desktop/STM32-Projekte/FH-Vertibot/src/STM32F30x_StdPeriph_Driver/src/stm32f30x_spi.c ****     /* Disable the selected SPI peripheral in I2S mode */
 563:/home/user/Desktop/STM32-Projekte/FH-Vertibot/src/STM32F30x_StdPeriph_Driver/src/stm32f30x_spi.c ****     SPIx->I2SCFGR &= (uint16_t)~((uint16_t)SPI_I2SCFGR_I2SE);
 547              		.loc 1 563 0
 548 01f0 23F48063 		bic	r3, r3, #1024
 549 01f4 1B04     		lsls	r3, r3, #16
 550 01f6 1B0C     		lsrs	r3, r3, #16
 551              	.L34:
 552 01f8 8383     		strh	r3, [r0, #28]	@ movhi
 553 01fa 7047     		bx	lr
 554              		.cfi_endproc
 555              	.LFE118:
 557              		.align	1
 558              		.global	SPI_DataSizeConfig
 559              		.thumb
 560              		.thumb_func
 562              	SPI_DataSizeConfig:
 563              	.LFB119:
 564:/home/user/Desktop/STM32-Projekte/FH-Vertibot/src/STM32F30x_StdPeriph_Driver/src/stm32f30x_spi.c ****   }
 565:/home/user/Desktop/STM32-Projekte/FH-Vertibot/src/STM32F30x_StdPeriph_Driver/src/stm32f30x_spi.c **** }
 566:/home/user/Desktop/STM32-Projekte/FH-Vertibot/src/STM32F30x_StdPeriph_Driver/src/stm32f30x_spi.c **** 
 567:/home/user/Desktop/STM32-Projekte/FH-Vertibot/src/STM32F30x_StdPeriph_Driver/src/stm32f30x_spi.c **** /**
 568:/home/user/Desktop/STM32-Projekte/FH-Vertibot/src/STM32F30x_StdPeriph_Driver/src/stm32f30x_spi.c ****   * @brief  Configures the data size for the selected SPI.
 569:/home/user/Desktop/STM32-Projekte/FH-Vertibot/src/STM32F30x_StdPeriph_Driver/src/stm32f30x_spi.c ****   * @param  SPIx: where x can be 1, 2 or 3 to select the SPI peripheral. 
 570:/home/user/Desktop/STM32-Projekte/FH-Vertibot/src/STM32F30x_StdPeriph_Driver/src/stm32f30x_spi.c ****   * @param  SPI_DataSize: specifies the SPI data size.
 571:/home/user/Desktop/STM32-Projekte/FH-Vertibot/src/STM32F30x_StdPeriph_Driver/src/stm32f30x_spi.c ****   *   For the SPIx peripheral this parameter can be one of the following values:
 572:/home/user/Desktop/STM32-Projekte/FH-Vertibot/src/STM32F30x_StdPeriph_Driver/src/stm32f30x_spi.c ****   *     @arg SPI_DataSize_4b: Set data size to 4 bits
 573:/home/user/Desktop/STM32-Projekte/FH-Vertibot/src/STM32F30x_StdPeriph_Driver/src/stm32f30x_spi.c ****   *     @arg SPI_DataSize_5b: Set data size to 5 bits
 574:/home/user/Desktop/STM32-Projekte/FH-Vertibot/src/STM32F30x_StdPeriph_Driver/src/stm32f30x_spi.c ****   *     @arg SPI_DataSize_6b: Set data size to 6 bits
 575:/home/user/Desktop/STM32-Projekte/FH-Vertibot/src/STM32F30x_StdPeriph_Driver/src/stm32f30x_spi.c ****   *     @arg SPI_DataSize_7b: Set data size to 7 bits
 576:/home/user/Desktop/STM32-Projekte/FH-Vertibot/src/STM32F30x_StdPeriph_Driver/src/stm32f30x_spi.c ****   *     @arg SPI_DataSize_8b: Set data size to 8 bits
 577:/home/user/Desktop/STM32-Projekte/FH-Vertibot/src/STM32F30x_StdPeriph_Driver/src/stm32f30x_spi.c ****   *     @arg SPI_DataSize_9b: Set data size to 9 bits
 578:/home/user/Desktop/STM32-Projekte/FH-Vertibot/src/STM32F30x_StdPeriph_Driver/src/stm32f30x_spi.c ****   *     @arg SPI_DataSize_10b: Set data size to 10 bits
 579:/home/user/Desktop/STM32-Projekte/FH-Vertibot/src/STM32F30x_StdPeriph_Driver/src/stm32f30x_spi.c ****   *     @arg SPI_DataSize_11b: Set data size to 11 bits
 580:/home/user/Desktop/STM32-Projekte/FH-Vertibot/src/STM32F30x_StdPeriph_Driver/src/stm32f30x_spi.c ****   *     @arg SPI_DataSize_12b: Set data size to 12 bits
 581:/home/user/Desktop/STM32-Projekte/FH-Vertibot/src/STM32F30x_StdPeriph_Driver/src/stm32f30x_spi.c ****   *     @arg SPI_DataSize_13b: Set data size to 13 bits
 582:/home/user/Desktop/STM32-Projekte/FH-Vertibot/src/STM32F30x_StdPeriph_Driver/src/stm32f30x_spi.c ****   *     @arg SPI_DataSize_14b: Set data size to 14 bits
 583:/home/user/Desktop/STM32-Projekte/FH-Vertibot/src/STM32F30x_StdPeriph_Driver/src/stm32f30x_spi.c ****   *     @arg SPI_DataSize_15b: Set data size to 15 bits
 584:/home/user/Desktop/STM32-Projekte/FH-Vertibot/src/STM32F30x_StdPeriph_Driver/src/stm32f30x_spi.c ****   *     @arg SPI_DataSize_16b: Set data size to 16 bits
 585:/home/user/Desktop/STM32-Projekte/FH-Vertibot/src/STM32F30x_StdPeriph_Driver/src/stm32f30x_spi.c ****   * @retval None
 586:/home/user/Desktop/STM32-Projekte/FH-Vertibot/src/STM32F30x_StdPeriph_Driver/src/stm32f30x_spi.c ****   */
 587:/home/user/Desktop/STM32-Projekte/FH-Vertibot/src/STM32F30x_StdPeriph_Driver/src/stm32f30x_spi.c **** void SPI_DataSizeConfig(SPI_TypeDef* SPIx, uint16_t SPI_DataSize)
 588:/home/user/Desktop/STM32-Projekte/FH-Vertibot/src/STM32F30x_StdPeriph_Driver/src/stm32f30x_spi.c **** {
 564              		.loc 1 588 0
 565              		.cfi_startproc
 566              		@ args = 0, pretend = 0, frame = 0
 567              		@ frame_needed = 0, uses_anonymous_args = 0
 568              		@ link register save eliminated.
 569              	.LVL53:
 589:/home/user/Desktop/STM32-Projekte/FH-Vertibot/src/STM32F30x_StdPeriph_Driver/src/stm32f30x_spi.c ****   uint16_t tmpreg = 0;
 590:/home/user/Desktop/STM32-Projekte/FH-Vertibot/src/STM32F30x_StdPeriph_Driver/src/stm32f30x_spi.c ****   
 591:/home/user/Desktop/STM32-Projekte/FH-Vertibot/src/STM32F30x_StdPeriph_Driver/src/stm32f30x_spi.c ****   /* Check the parameters */
 592:/home/user/Desktop/STM32-Projekte/FH-Vertibot/src/STM32F30x_StdPeriph_Driver/src/stm32f30x_spi.c ****   assert_param(IS_SPI_ALL_PERIPH(SPIx));
 593:/home/user/Desktop/STM32-Projekte/FH-Vertibot/src/STM32F30x_StdPeriph_Driver/src/stm32f30x_spi.c ****   assert_param(IS_SPI_DATA_SIZE(SPI_DataSize));
 594:/home/user/Desktop/STM32-Projekte/FH-Vertibot/src/STM32F30x_StdPeriph_Driver/src/stm32f30x_spi.c ****   /* Read the CR2 register */
 595:/home/user/Desktop/STM32-Projekte/FH-Vertibot/src/STM32F30x_StdPeriph_Driver/src/stm32f30x_spi.c ****   tmpreg = SPIx->CR2;
 570              		.loc 1 595 0
 571 01fc 8388     		ldrh	r3, [r0, #4]
 572              	.LVL54:
 596:/home/user/Desktop/STM32-Projekte/FH-Vertibot/src/STM32F30x_StdPeriph_Driver/src/stm32f30x_spi.c ****   /* Clear DS[3:0] bits */
 597:/home/user/Desktop/STM32-Projekte/FH-Vertibot/src/STM32F30x_StdPeriph_Driver/src/stm32f30x_spi.c ****   tmpreg &= (uint16_t)~SPI_CR2_DS;
 573              		.loc 1 597 0
 574 01fe 23F47063 		bic	r3, r3, #3840
 575              	.LVL55:
 576 0202 1B04     		lsls	r3, r3, #16
 577 0204 1B0C     		lsrs	r3, r3, #16
 578              	.LVL56:
 598:/home/user/Desktop/STM32-Projekte/FH-Vertibot/src/STM32F30x_StdPeriph_Driver/src/stm32f30x_spi.c ****   /* Set new DS[3:0] bits value */
 599:/home/user/Desktop/STM32-Projekte/FH-Vertibot/src/STM32F30x_StdPeriph_Driver/src/stm32f30x_spi.c ****   tmpreg |= SPI_DataSize;
 579              		.loc 1 599 0
 580 0206 1943     		orrs	r1, r1, r3
 581              	.LVL57:
 600:/home/user/Desktop/STM32-Projekte/FH-Vertibot/src/STM32F30x_StdPeriph_Driver/src/stm32f30x_spi.c ****   SPIx->CR2 = tmpreg;
 582              		.loc 1 600 0
 583 0208 8180     		strh	r1, [r0, #4]	@ movhi
 584 020a 7047     		bx	lr
 585              		.cfi_endproc
 586              	.LFE119:
 588              		.align	1
 589              		.global	SPI_RxFIFOThresholdConfig
 590              		.thumb
 591              		.thumb_func
 593              	SPI_RxFIFOThresholdConfig:
 594              	.LFB120:
 601:/home/user/Desktop/STM32-Projekte/FH-Vertibot/src/STM32F30x_StdPeriph_Driver/src/stm32f30x_spi.c **** }
 602:/home/user/Desktop/STM32-Projekte/FH-Vertibot/src/STM32F30x_StdPeriph_Driver/src/stm32f30x_spi.c **** 
 603:/home/user/Desktop/STM32-Projekte/FH-Vertibot/src/STM32F30x_StdPeriph_Driver/src/stm32f30x_spi.c **** /**
 604:/home/user/Desktop/STM32-Projekte/FH-Vertibot/src/STM32F30x_StdPeriph_Driver/src/stm32f30x_spi.c ****   * @brief  Configures the FIFO reception threshold for the selected SPI.
 605:/home/user/Desktop/STM32-Projekte/FH-Vertibot/src/STM32F30x_StdPeriph_Driver/src/stm32f30x_spi.c ****   * @param  SPIx: where x can be 1, 2 or 3 to select the SPI peripheral. 
 606:/home/user/Desktop/STM32-Projekte/FH-Vertibot/src/STM32F30x_StdPeriph_Driver/src/stm32f30x_spi.c ****   * @param  SPI_RxFIFOThreshold: specifies the FIFO reception threshold.
 607:/home/user/Desktop/STM32-Projekte/FH-Vertibot/src/STM32F30x_StdPeriph_Driver/src/stm32f30x_spi.c ****   *   This parameter can be one of the following values:
 608:/home/user/Desktop/STM32-Projekte/FH-Vertibot/src/STM32F30x_StdPeriph_Driver/src/stm32f30x_spi.c ****   *     @arg SPI_RxFIFOThreshold_HF: RXNE event is generated if the FIFO 
 609:/home/user/Desktop/STM32-Projekte/FH-Vertibot/src/STM32F30x_StdPeriph_Driver/src/stm32f30x_spi.c ****   *          level is greater or equal to 1/2. 
 610:/home/user/Desktop/STM32-Projekte/FH-Vertibot/src/STM32F30x_StdPeriph_Driver/src/stm32f30x_spi.c ****   *     @arg SPI_RxFIFOThreshold_QF: RXNE event is generated if the FIFO 
 611:/home/user/Desktop/STM32-Projekte/FH-Vertibot/src/STM32F30x_StdPeriph_Driver/src/stm32f30x_spi.c ****   *          level is greater or equal to 1/4. 
 612:/home/user/Desktop/STM32-Projekte/FH-Vertibot/src/STM32F30x_StdPeriph_Driver/src/stm32f30x_spi.c ****   * @retval None
 613:/home/user/Desktop/STM32-Projekte/FH-Vertibot/src/STM32F30x_StdPeriph_Driver/src/stm32f30x_spi.c ****   */
 614:/home/user/Desktop/STM32-Projekte/FH-Vertibot/src/STM32F30x_StdPeriph_Driver/src/stm32f30x_spi.c **** void SPI_RxFIFOThresholdConfig(SPI_TypeDef* SPIx, uint16_t SPI_RxFIFOThreshold)
 615:/home/user/Desktop/STM32-Projekte/FH-Vertibot/src/STM32F30x_StdPeriph_Driver/src/stm32f30x_spi.c **** {
 595              		.loc 1 615 0
 596              		.cfi_startproc
 597              		@ args = 0, pretend = 0, frame = 0
 598              		@ frame_needed = 0, uses_anonymous_args = 0
 599              		@ link register save eliminated.
 600              	.LVL58:
 616:/home/user/Desktop/STM32-Projekte/FH-Vertibot/src/STM32F30x_StdPeriph_Driver/src/stm32f30x_spi.c ****   /* Check the parameters */
 617:/home/user/Desktop/STM32-Projekte/FH-Vertibot/src/STM32F30x_StdPeriph_Driver/src/stm32f30x_spi.c ****   assert_param(IS_SPI_ALL_PERIPH(SPIx));
 618:/home/user/Desktop/STM32-Projekte/FH-Vertibot/src/STM32F30x_StdPeriph_Driver/src/stm32f30x_spi.c ****   assert_param(IS_SPI_RX_FIFO_THRESHOLD(SPI_RxFIFOThreshold));
 619:/home/user/Desktop/STM32-Projekte/FH-Vertibot/src/STM32F30x_StdPeriph_Driver/src/stm32f30x_spi.c **** 
 620:/home/user/Desktop/STM32-Projekte/FH-Vertibot/src/STM32F30x_StdPeriph_Driver/src/stm32f30x_spi.c ****   /* Clear FRXTH bit */
 621:/home/user/Desktop/STM32-Projekte/FH-Vertibot/src/STM32F30x_StdPeriph_Driver/src/stm32f30x_spi.c ****   SPIx->CR2 &= (uint16_t)~((uint16_t)SPI_CR2_FRXTH);
 601              		.loc 1 621 0
 602 020c 8388     		ldrh	r3, [r0, #4]
 603 020e 23F48053 		bic	r3, r3, #4096
 604 0212 1B04     		lsls	r3, r3, #16
 605 0214 1B0C     		lsrs	r3, r3, #16
 606 0216 8380     		strh	r3, [r0, #4]	@ movhi
 622:/home/user/Desktop/STM32-Projekte/FH-Vertibot/src/STM32F30x_StdPeriph_Driver/src/stm32f30x_spi.c **** 
 623:/home/user/Desktop/STM32-Projekte/FH-Vertibot/src/STM32F30x_StdPeriph_Driver/src/stm32f30x_spi.c ****   /* Set new FRXTH bit value */
 624:/home/user/Desktop/STM32-Projekte/FH-Vertibot/src/STM32F30x_StdPeriph_Driver/src/stm32f30x_spi.c ****   SPIx->CR2 |= SPI_RxFIFOThreshold;
 607              		.loc 1 624 0
 608 0218 8388     		ldrh	r3, [r0, #4]
 609 021a 9BB2     		uxth	r3, r3
 610 021c 1943     		orrs	r1, r1, r3
 611              	.LVL59:
 612 021e 8180     		strh	r1, [r0, #4]	@ movhi
 613 0220 7047     		bx	lr
 614              		.cfi_endproc
 615              	.LFE120:
 617              		.align	1
 618              		.global	SPI_BiDirectionalLineConfig
 619              		.thumb
 620              		.thumb_func
 622              	SPI_BiDirectionalLineConfig:
 623              	.LFB121:
 625:/home/user/Desktop/STM32-Projekte/FH-Vertibot/src/STM32F30x_StdPeriph_Driver/src/stm32f30x_spi.c **** }
 626:/home/user/Desktop/STM32-Projekte/FH-Vertibot/src/STM32F30x_StdPeriph_Driver/src/stm32f30x_spi.c **** 
 627:/home/user/Desktop/STM32-Projekte/FH-Vertibot/src/STM32F30x_StdPeriph_Driver/src/stm32f30x_spi.c **** /**
 628:/home/user/Desktop/STM32-Projekte/FH-Vertibot/src/STM32F30x_StdPeriph_Driver/src/stm32f30x_spi.c ****   * @brief  Selects the data transfer direction in bidirectional mode for the specified SPI.
 629:/home/user/Desktop/STM32-Projekte/FH-Vertibot/src/STM32F30x_StdPeriph_Driver/src/stm32f30x_spi.c ****   * @param  SPIx: where x can be 1, 2 or 3 to select the SPI peripheral. 
 630:/home/user/Desktop/STM32-Projekte/FH-Vertibot/src/STM32F30x_StdPeriph_Driver/src/stm32f30x_spi.c ****   * @param  SPI_Direction: specifies the data transfer direction in bidirectional mode. 
 631:/home/user/Desktop/STM32-Projekte/FH-Vertibot/src/STM32F30x_StdPeriph_Driver/src/stm32f30x_spi.c ****   *   This parameter can be one of the following values:
 632:/home/user/Desktop/STM32-Projekte/FH-Vertibot/src/STM32F30x_StdPeriph_Driver/src/stm32f30x_spi.c ****   *     @arg SPI_Direction_Tx: Selects Tx transmission direction
 633:/home/user/Desktop/STM32-Projekte/FH-Vertibot/src/STM32F30x_StdPeriph_Driver/src/stm32f30x_spi.c ****   *     @arg SPI_Direction_Rx: Selects Rx receive direction
 634:/home/user/Desktop/STM32-Projekte/FH-Vertibot/src/STM32F30x_StdPeriph_Driver/src/stm32f30x_spi.c ****   * @retval None
 635:/home/user/Desktop/STM32-Projekte/FH-Vertibot/src/STM32F30x_StdPeriph_Driver/src/stm32f30x_spi.c ****   */
 636:/home/user/Desktop/STM32-Projekte/FH-Vertibot/src/STM32F30x_StdPeriph_Driver/src/stm32f30x_spi.c **** void SPI_BiDirectionalLineConfig(SPI_TypeDef* SPIx, uint16_t SPI_Direction)
 637:/home/user/Desktop/STM32-Projekte/FH-Vertibot/src/STM32F30x_StdPeriph_Driver/src/stm32f30x_spi.c **** {
 624              		.loc 1 637 0
 625              		.cfi_startproc
 626              		@ args = 0, pretend = 0, frame = 0
 627              		@ frame_needed = 0, uses_anonymous_args = 0
 628              		@ link register save eliminated.
 629              	.LVL60:
 638:/home/user/Desktop/STM32-Projekte/FH-Vertibot/src/STM32F30x_StdPeriph_Driver/src/stm32f30x_spi.c ****   /* Check the parameters */
 639:/home/user/Desktop/STM32-Projekte/FH-Vertibot/src/STM32F30x_StdPeriph_Driver/src/stm32f30x_spi.c ****   assert_param(IS_SPI_ALL_PERIPH(SPIx));
 640:/home/user/Desktop/STM32-Projekte/FH-Vertibot/src/STM32F30x_StdPeriph_Driver/src/stm32f30x_spi.c ****   assert_param(IS_SPI_DIRECTION(SPI_Direction));
 641:/home/user/Desktop/STM32-Projekte/FH-Vertibot/src/STM32F30x_StdPeriph_Driver/src/stm32f30x_spi.c ****   if (SPI_Direction == SPI_Direction_Tx)
 630              		.loc 1 641 0
 631 0222 B1F5804F 		cmp	r1, #16384
 642:/home/user/Desktop/STM32-Projekte/FH-Vertibot/src/STM32F30x_StdPeriph_Driver/src/stm32f30x_spi.c ****   {
 643:/home/user/Desktop/STM32-Projekte/FH-Vertibot/src/STM32F30x_StdPeriph_Driver/src/stm32f30x_spi.c ****     /* Set the Tx only mode */
 644:/home/user/Desktop/STM32-Projekte/FH-Vertibot/src/STM32F30x_StdPeriph_Driver/src/stm32f30x_spi.c ****     SPIx->CR1 |= SPI_Direction_Tx;
 632              		.loc 1 644 0
 633 0226 0388     		ldrh	r3, [r0, #0]
 641:/home/user/Desktop/STM32-Projekte/FH-Vertibot/src/STM32F30x_StdPeriph_Driver/src/stm32f30x_spi.c ****   if (SPI_Direction == SPI_Direction_Tx)
 634              		.loc 1 641 0
 635 0228 03D1     		bne	.L38
 636              		.loc 1 644 0
 637 022a 9BB2     		uxth	r3, r3
 638 022c 43F48043 		orr	r3, r3, #16384
 639 0230 03E0     		b	.L40
 640              	.L38:
 645:/home/user/Desktop/STM32-Projekte/FH-Vertibot/src/STM32F30x_StdPeriph_Driver/src/stm32f30x_spi.c ****   }
 646:/home/user/Desktop/STM32-Projekte/FH-Vertibot/src/STM32F30x_StdPeriph_Driver/src/stm32f30x_spi.c ****   else
 647:/home/user/Desktop/STM32-Projekte/FH-Vertibot/src/STM32F30x_StdPeriph_Driver/src/stm32f30x_spi.c ****   {
 648:/home/user/Desktop/STM32-Projekte/FH-Vertibot/src/STM32F30x_StdPeriph_Driver/src/stm32f30x_spi.c ****     /* Set the Rx only mode */
 649:/home/user/Desktop/STM32-Projekte/FH-Vertibot/src/STM32F30x_StdPeriph_Driver/src/stm32f30x_spi.c ****     SPIx->CR1 &= SPI_Direction_Rx;
 641              		.loc 1 649 0
 642 0232 23F48043 		bic	r3, r3, #16384
 643 0236 1B04     		lsls	r3, r3, #16
 644 0238 1B0C     		lsrs	r3, r3, #16
 645              	.L40:
 646 023a 0380     		strh	r3, [r0, #0]	@ movhi
 647 023c 7047     		bx	lr
 648              		.cfi_endproc
 649              	.LFE121:
 651              		.align	1
 652              		.global	SPI_NSSInternalSoftwareConfig
 653              		.thumb
 654              		.thumb_func
 656              	SPI_NSSInternalSoftwareConfig:
 657              	.LFB122:
 650:/home/user/Desktop/STM32-Projekte/FH-Vertibot/src/STM32F30x_StdPeriph_Driver/src/stm32f30x_spi.c ****   }
 651:/home/user/Desktop/STM32-Projekte/FH-Vertibot/src/STM32F30x_StdPeriph_Driver/src/stm32f30x_spi.c **** }
 652:/home/user/Desktop/STM32-Projekte/FH-Vertibot/src/STM32F30x_StdPeriph_Driver/src/stm32f30x_spi.c **** 
 653:/home/user/Desktop/STM32-Projekte/FH-Vertibot/src/STM32F30x_StdPeriph_Driver/src/stm32f30x_spi.c **** /**
 654:/home/user/Desktop/STM32-Projekte/FH-Vertibot/src/STM32F30x_StdPeriph_Driver/src/stm32f30x_spi.c ****   * @brief  Configures internally by software the NSS pin for the selected SPI.
 655:/home/user/Desktop/STM32-Projekte/FH-Vertibot/src/STM32F30x_StdPeriph_Driver/src/stm32f30x_spi.c ****   * @note    This function can be called only after the SPI_Init() function has 
 656:/home/user/Desktop/STM32-Projekte/FH-Vertibot/src/STM32F30x_StdPeriph_Driver/src/stm32f30x_spi.c ****   *          been called.  
 657:/home/user/Desktop/STM32-Projekte/FH-Vertibot/src/STM32F30x_StdPeriph_Driver/src/stm32f30x_spi.c ****   * @param  SPIx: where x can be 1, 2 or 3 to select the SPI peripheral.
 658:/home/user/Desktop/STM32-Projekte/FH-Vertibot/src/STM32F30x_StdPeriph_Driver/src/stm32f30x_spi.c ****   * @param  SPI_NSSInternalSoft: specifies the SPI NSS internal state.
 659:/home/user/Desktop/STM32-Projekte/FH-Vertibot/src/STM32F30x_StdPeriph_Driver/src/stm32f30x_spi.c ****   *   This parameter can be one of the following values:
 660:/home/user/Desktop/STM32-Projekte/FH-Vertibot/src/STM32F30x_StdPeriph_Driver/src/stm32f30x_spi.c ****   *     @arg SPI_NSSInternalSoft_Set: Set NSS pin internally
 661:/home/user/Desktop/STM32-Projekte/FH-Vertibot/src/STM32F30x_StdPeriph_Driver/src/stm32f30x_spi.c ****   *     @arg SPI_NSSInternalSoft_Reset: Reset NSS pin internally
 662:/home/user/Desktop/STM32-Projekte/FH-Vertibot/src/STM32F30x_StdPeriph_Driver/src/stm32f30x_spi.c ****   * @retval None
 663:/home/user/Desktop/STM32-Projekte/FH-Vertibot/src/STM32F30x_StdPeriph_Driver/src/stm32f30x_spi.c ****   */
 664:/home/user/Desktop/STM32-Projekte/FH-Vertibot/src/STM32F30x_StdPeriph_Driver/src/stm32f30x_spi.c **** void SPI_NSSInternalSoftwareConfig(SPI_TypeDef* SPIx, uint16_t SPI_NSSInternalSoft)
 665:/home/user/Desktop/STM32-Projekte/FH-Vertibot/src/STM32F30x_StdPeriph_Driver/src/stm32f30x_spi.c **** {
 658              		.loc 1 665 0
 659              		.cfi_startproc
 660              		@ args = 0, pretend = 0, frame = 0
 661              		@ frame_needed = 0, uses_anonymous_args = 0
 662              		@ link register save eliminated.
 663              	.LVL61:
 666:/home/user/Desktop/STM32-Projekte/FH-Vertibot/src/STM32F30x_StdPeriph_Driver/src/stm32f30x_spi.c ****   /* Check the parameters */
 667:/home/user/Desktop/STM32-Projekte/FH-Vertibot/src/STM32F30x_StdPeriph_Driver/src/stm32f30x_spi.c ****   assert_param(IS_SPI_ALL_PERIPH(SPIx));
 668:/home/user/Desktop/STM32-Projekte/FH-Vertibot/src/STM32F30x_StdPeriph_Driver/src/stm32f30x_spi.c ****   assert_param(IS_SPI_NSS_INTERNAL(SPI_NSSInternalSoft));
 669:/home/user/Desktop/STM32-Projekte/FH-Vertibot/src/STM32F30x_StdPeriph_Driver/src/stm32f30x_spi.c **** 
 670:/home/user/Desktop/STM32-Projekte/FH-Vertibot/src/STM32F30x_StdPeriph_Driver/src/stm32f30x_spi.c ****   if (SPI_NSSInternalSoft != SPI_NSSInternalSoft_Reset)
 664              		.loc 1 670 0
 665 023e 4FF6FF63 		movw	r3, #65279
 666 0242 9942     		cmp	r1, r3
 671:/home/user/Desktop/STM32-Projekte/FH-Vertibot/src/STM32F30x_StdPeriph_Driver/src/stm32f30x_spi.c ****   {
 672:/home/user/Desktop/STM32-Projekte/FH-Vertibot/src/STM32F30x_StdPeriph_Driver/src/stm32f30x_spi.c ****     /* Set NSS pin internally by software */
 673:/home/user/Desktop/STM32-Projekte/FH-Vertibot/src/STM32F30x_StdPeriph_Driver/src/stm32f30x_spi.c ****     SPIx->CR1 |= SPI_NSSInternalSoft_Set;
 667              		.loc 1 673 0
 668 0244 0388     		ldrh	r3, [r0, #0]
 670:/home/user/Desktop/STM32-Projekte/FH-Vertibot/src/STM32F30x_StdPeriph_Driver/src/stm32f30x_spi.c ****   if (SPI_NSSInternalSoft != SPI_NSSInternalSoft_Reset)
 669              		.loc 1 670 0
 670 0246 03D0     		beq	.L42
 671              		.loc 1 673 0
 672 0248 9BB2     		uxth	r3, r3
 673 024a 43F48073 		orr	r3, r3, #256
 674 024e 03E0     		b	.L44
 675              	.L42:
 674:/home/user/Desktop/STM32-Projekte/FH-Vertibot/src/STM32F30x_StdPeriph_Driver/src/stm32f30x_spi.c ****   }
 675:/home/user/Desktop/STM32-Projekte/FH-Vertibot/src/STM32F30x_StdPeriph_Driver/src/stm32f30x_spi.c ****   else
 676:/home/user/Desktop/STM32-Projekte/FH-Vertibot/src/STM32F30x_StdPeriph_Driver/src/stm32f30x_spi.c ****   {
 677:/home/user/Desktop/STM32-Projekte/FH-Vertibot/src/STM32F30x_StdPeriph_Driver/src/stm32f30x_spi.c ****     /* Reset NSS pin internally by software */
 678:/home/user/Desktop/STM32-Projekte/FH-Vertibot/src/STM32F30x_StdPeriph_Driver/src/stm32f30x_spi.c ****     SPIx->CR1 &= SPI_NSSInternalSoft_Reset;
 676              		.loc 1 678 0
 677 0250 23F48073 		bic	r3, r3, #256
 678 0254 1B04     		lsls	r3, r3, #16
 679 0256 1B0C     		lsrs	r3, r3, #16
 680              	.L44:
 681 0258 0380     		strh	r3, [r0, #0]	@ movhi
 682 025a 7047     		bx	lr
 683              		.cfi_endproc
 684              	.LFE122:
 686              		.align	1
 687              		.global	I2S_FullDuplexConfig
 688              		.thumb
 689              		.thumb_func
 691              	I2S_FullDuplexConfig:
 692              	.LFB123:
 679:/home/user/Desktop/STM32-Projekte/FH-Vertibot/src/STM32F30x_StdPeriph_Driver/src/stm32f30x_spi.c ****   }
 680:/home/user/Desktop/STM32-Projekte/FH-Vertibot/src/STM32F30x_StdPeriph_Driver/src/stm32f30x_spi.c **** }
 681:/home/user/Desktop/STM32-Projekte/FH-Vertibot/src/STM32F30x_StdPeriph_Driver/src/stm32f30x_spi.c **** 
 682:/home/user/Desktop/STM32-Projekte/FH-Vertibot/src/STM32F30x_StdPeriph_Driver/src/stm32f30x_spi.c **** /**
 683:/home/user/Desktop/STM32-Projekte/FH-Vertibot/src/STM32F30x_StdPeriph_Driver/src/stm32f30x_spi.c ****   * @brief  Configures the full duplex mode for the I2Sx peripheral using its
 684:/home/user/Desktop/STM32-Projekte/FH-Vertibot/src/STM32F30x_StdPeriph_Driver/src/stm32f30x_spi.c ****   *         extension I2Sxext according to the specified parameters in the 
 685:/home/user/Desktop/STM32-Projekte/FH-Vertibot/src/STM32F30x_StdPeriph_Driver/src/stm32f30x_spi.c ****   *         I2S_InitStruct.
 686:/home/user/Desktop/STM32-Projekte/FH-Vertibot/src/STM32F30x_StdPeriph_Driver/src/stm32f30x_spi.c ****   * @param  I2Sxext: where x can be  2 or 3 to select the I2S peripheral extension block.
 687:/home/user/Desktop/STM32-Projekte/FH-Vertibot/src/STM32F30x_StdPeriph_Driver/src/stm32f30x_spi.c ****   * @param  I2S_InitStruct: pointer to an I2S_InitTypeDef structure that
 688:/home/user/Desktop/STM32-Projekte/FH-Vertibot/src/STM32F30x_StdPeriph_Driver/src/stm32f30x_spi.c ****   *         contains the configuration information for the specified I2S peripheral
 689:/home/user/Desktop/STM32-Projekte/FH-Vertibot/src/STM32F30x_StdPeriph_Driver/src/stm32f30x_spi.c ****   *         extension.
 690:/home/user/Desktop/STM32-Projekte/FH-Vertibot/src/STM32F30x_StdPeriph_Driver/src/stm32f30x_spi.c ****   * 
 691:/home/user/Desktop/STM32-Projekte/FH-Vertibot/src/STM32F30x_StdPeriph_Driver/src/stm32f30x_spi.c ****   * @note   The structure pointed by I2S_InitStruct parameter should be the same
 692:/home/user/Desktop/STM32-Projekte/FH-Vertibot/src/STM32F30x_StdPeriph_Driver/src/stm32f30x_spi.c ****   *         used for the master I2S peripheral. In this case, if the master is 
 693:/home/user/Desktop/STM32-Projekte/FH-Vertibot/src/STM32F30x_StdPeriph_Driver/src/stm32f30x_spi.c ****   *         configured as transmitter, the slave will be receiver and vice versa.
 694:/home/user/Desktop/STM32-Projekte/FH-Vertibot/src/STM32F30x_StdPeriph_Driver/src/stm32f30x_spi.c ****   *         Or you can force a different mode by modifying the field I2S_Mode to the
 695:/home/user/Desktop/STM32-Projekte/FH-Vertibot/src/STM32F30x_StdPeriph_Driver/src/stm32f30x_spi.c ****   *         value I2S_SlaveRx or I2S_SlaveTx indepedently of the master configuration.    
 696:/home/user/Desktop/STM32-Projekte/FH-Vertibot/src/STM32F30x_StdPeriph_Driver/src/stm32f30x_spi.c ****   *         
 697:/home/user/Desktop/STM32-Projekte/FH-Vertibot/src/STM32F30x_StdPeriph_Driver/src/stm32f30x_spi.c ****   * @note   The I2S full duplex extension can be configured in slave mode only.    
 698:/home/user/Desktop/STM32-Projekte/FH-Vertibot/src/STM32F30x_StdPeriph_Driver/src/stm32f30x_spi.c ****   *  
 699:/home/user/Desktop/STM32-Projekte/FH-Vertibot/src/STM32F30x_StdPeriph_Driver/src/stm32f30x_spi.c ****   * @retval None
 700:/home/user/Desktop/STM32-Projekte/FH-Vertibot/src/STM32F30x_StdPeriph_Driver/src/stm32f30x_spi.c ****   */
 701:/home/user/Desktop/STM32-Projekte/FH-Vertibot/src/STM32F30x_StdPeriph_Driver/src/stm32f30x_spi.c **** void I2S_FullDuplexConfig(SPI_TypeDef* I2Sxext, I2S_InitTypeDef* I2S_InitStruct)
 702:/home/user/Desktop/STM32-Projekte/FH-Vertibot/src/STM32F30x_StdPeriph_Driver/src/stm32f30x_spi.c **** {
 693              		.loc 1 702 0
 694              		.cfi_startproc
 695              		@ args = 0, pretend = 0, frame = 0
 696              		@ frame_needed = 0, uses_anonymous_args = 0
 697              	.LVL62:
 703:/home/user/Desktop/STM32-Projekte/FH-Vertibot/src/STM32F30x_StdPeriph_Driver/src/stm32f30x_spi.c ****   uint16_t tmpreg = 0, tmp = 0;
 704:/home/user/Desktop/STM32-Projekte/FH-Vertibot/src/STM32F30x_StdPeriph_Driver/src/stm32f30x_spi.c ****   
 705:/home/user/Desktop/STM32-Projekte/FH-Vertibot/src/STM32F30x_StdPeriph_Driver/src/stm32f30x_spi.c ****   /* Check the I2S parameters */
 706:/home/user/Desktop/STM32-Projekte/FH-Vertibot/src/STM32F30x_StdPeriph_Driver/src/stm32f30x_spi.c ****   assert_param(IS_I2S_EXT_PERIPH(I2Sxext));
 707:/home/user/Desktop/STM32-Projekte/FH-Vertibot/src/STM32F30x_StdPeriph_Driver/src/stm32f30x_spi.c ****   assert_param(IS_I2S_MODE(I2S_InitStruct->I2S_Mode));
 708:/home/user/Desktop/STM32-Projekte/FH-Vertibot/src/STM32F30x_StdPeriph_Driver/src/stm32f30x_spi.c ****   assert_param(IS_I2S_STANDARD(I2S_InitStruct->I2S_Standard));
 709:/home/user/Desktop/STM32-Projekte/FH-Vertibot/src/STM32F30x_StdPeriph_Driver/src/stm32f30x_spi.c ****   assert_param(IS_I2S_DATA_FORMAT(I2S_InitStruct->I2S_DataFormat));
 710:/home/user/Desktop/STM32-Projekte/FH-Vertibot/src/STM32F30x_StdPeriph_Driver/src/stm32f30x_spi.c ****   assert_param(IS_I2S_CPOL(I2S_InitStruct->I2S_CPOL));  
 711:/home/user/Desktop/STM32-Projekte/FH-Vertibot/src/STM32F30x_StdPeriph_Driver/src/stm32f30x_spi.c **** 
 712:/home/user/Desktop/STM32-Projekte/FH-Vertibot/src/STM32F30x_StdPeriph_Driver/src/stm32f30x_spi.c **** /*----------------------- SPIx I2SCFGR & I2SPR Configuration -----------------*/
 713:/home/user/Desktop/STM32-Projekte/FH-Vertibot/src/STM32F30x_StdPeriph_Driver/src/stm32f30x_spi.c ****   /* Clear I2SMOD, I2SE, I2SCFG, PCMSYNC, I2SSTD, CKPOL, DATLEN and CHLEN bits */
 714:/home/user/Desktop/STM32-Projekte/FH-Vertibot/src/STM32F30x_StdPeriph_Driver/src/stm32f30x_spi.c ****   I2Sxext->I2SCFGR &= I2SCFGR_CLEAR_MASK; 
 698              		.loc 1 714 0
 699 025c 838B     		ldrh	r3, [r0, #28]
 700 025e 23F47B63 		bic	r3, r3, #4016
 701 0262 23F00F03 		bic	r3, r3, #15
 702 0266 1B04     		lsls	r3, r3, #16
 703 0268 1B0C     		lsrs	r3, r3, #16
 704 026a 8383     		strh	r3, [r0, #28]	@ movhi
 715:/home/user/Desktop/STM32-Projekte/FH-Vertibot/src/STM32F30x_StdPeriph_Driver/src/stm32f30x_spi.c ****   I2Sxext->I2SPR = 0x0002;
 705              		.loc 1 715 0
 706 026c 0223     		movs	r3, #2
 707 026e 0384     		strh	r3, [r0, #32]	@ movhi
 716:/home/user/Desktop/STM32-Projekte/FH-Vertibot/src/STM32F30x_StdPeriph_Driver/src/stm32f30x_spi.c ****   
 717:/home/user/Desktop/STM32-Projekte/FH-Vertibot/src/STM32F30x_StdPeriph_Driver/src/stm32f30x_spi.c ****   /* Get the I2SCFGR register value */
 718:/home/user/Desktop/STM32-Projekte/FH-Vertibot/src/STM32F30x_StdPeriph_Driver/src/stm32f30x_spi.c ****   tmpreg = I2Sxext->I2SCFGR;
 719:/home/user/Desktop/STM32-Projekte/FH-Vertibot/src/STM32F30x_StdPeriph_Driver/src/stm32f30x_spi.c ****   
 720:/home/user/Desktop/STM32-Projekte/FH-Vertibot/src/STM32F30x_StdPeriph_Driver/src/stm32f30x_spi.c ****   /* Get the mode to be configured for the extended I2S */
 721:/home/user/Desktop/STM32-Projekte/FH-Vertibot/src/STM32F30x_StdPeriph_Driver/src/stm32f30x_spi.c ****   if ((I2S_InitStruct->I2S_Mode == I2S_Mode_MasterTx) || (I2S_InitStruct->I2S_Mode == I2S_Mode_Slav
 708              		.loc 1 721 0
 709 0270 0B88     		ldrh	r3, [r1, #0]
 718:/home/user/Desktop/STM32-Projekte/FH-Vertibot/src/STM32F30x_StdPeriph_Driver/src/stm32f30x_spi.c ****   tmpreg = I2Sxext->I2SCFGR;
 710              		.loc 1 718 0
 711 0272 828B     		ldrh	r2, [r0, #28]
 712              	.LVL63:
 713              		.loc 1 721 0
 714 0274 B3F5007F 		cmp	r3, #512
 702:/home/user/Desktop/STM32-Projekte/FH-Vertibot/src/STM32F30x_StdPeriph_Driver/src/stm32f30x_spi.c **** {
 715              		.loc 1 702 0
 716 0278 10B5     		push	{r4, lr}
 717              	.LCFI4:
 718              		.cfi_def_cfa_offset 8
 719              		.cfi_offset 4, -8
 720              		.cfi_offset 14, -4
 721              		.loc 1 721 0
 722 027a 02D1     		bne	.L46
 723              	.L48:
 722:/home/user/Desktop/STM32-Projekte/FH-Vertibot/src/STM32F30x_StdPeriph_Driver/src/stm32f30x_spi.c ****   {
 723:/home/user/Desktop/STM32-Projekte/FH-Vertibot/src/STM32F30x_StdPeriph_Driver/src/stm32f30x_spi.c ****     tmp = I2S_Mode_SlaveRx;
 724              		.loc 1 723 0
 725 027c 4FF48073 		mov	r3, #256
 726 0280 02E0     		b	.L47
 727              	.L46:
 721:/home/user/Desktop/STM32-Projekte/FH-Vertibot/src/STM32F30x_StdPeriph_Driver/src/stm32f30x_spi.c ****   if ((I2S_InitStruct->I2S_Mode == I2S_Mode_MasterTx) || (I2S_InitStruct->I2S_Mode == I2S_Mode_Slav
 728              		.loc 1 721 0 discriminator 1
 729 0282 002B     		cmp	r3, #0
 730 0284 FAD0     		beq	.L48
 724:/home/user/Desktop/STM32-Projekte/FH-Vertibot/src/STM32F30x_StdPeriph_Driver/src/stm32f30x_spi.c ****   }
 725:/home/user/Desktop/STM32-Projekte/FH-Vertibot/src/STM32F30x_StdPeriph_Driver/src/stm32f30x_spi.c ****   else
 726:/home/user/Desktop/STM32-Projekte/FH-Vertibot/src/STM32F30x_StdPeriph_Driver/src/stm32f30x_spi.c ****   {
 727:/home/user/Desktop/STM32-Projekte/FH-Vertibot/src/STM32F30x_StdPeriph_Driver/src/stm32f30x_spi.c ****     if ((I2S_InitStruct->I2S_Mode == I2S_Mode_MasterRx) || (I2S_InitStruct->I2S_Mode == I2S_Mode_Sl
 728:/home/user/Desktop/STM32-Projekte/FH-Vertibot/src/STM32F30x_StdPeriph_Driver/src/stm32f30x_spi.c ****     {
 729:/home/user/Desktop/STM32-Projekte/FH-Vertibot/src/STM32F30x_StdPeriph_Driver/src/stm32f30x_spi.c ****       tmp = I2S_Mode_SlaveTx;
 731              		.loc 1 729 0
 732 0286 0023     		movs	r3, #0
 733              	.L47:
 734              	.LVL64:
 730:/home/user/Desktop/STM32-Projekte/FH-Vertibot/src/STM32F30x_StdPeriph_Driver/src/stm32f30x_spi.c ****     }
 731:/home/user/Desktop/STM32-Projekte/FH-Vertibot/src/STM32F30x_StdPeriph_Driver/src/stm32f30x_spi.c ****   }
 732:/home/user/Desktop/STM32-Projekte/FH-Vertibot/src/STM32F30x_StdPeriph_Driver/src/stm32f30x_spi.c **** 
 733:/home/user/Desktop/STM32-Projekte/FH-Vertibot/src/STM32F30x_StdPeriph_Driver/src/stm32f30x_spi.c ****  
 734:/home/user/Desktop/STM32-Projekte/FH-Vertibot/src/STM32F30x_StdPeriph_Driver/src/stm32f30x_spi.c ****   /* Configure the I2S with the SPI_InitStruct values */
 735:/home/user/Desktop/STM32-Projekte/FH-Vertibot/src/STM32F30x_StdPeriph_Driver/src/stm32f30x_spi.c ****   tmpreg |= (uint16_t)((uint16_t)SPI_I2SCFGR_I2SMOD | (uint16_t)(tmp | \
 736:/home/user/Desktop/STM32-Projekte/FH-Vertibot/src/STM32F30x_StdPeriph_Driver/src/stm32f30x_spi.c ****                   (uint16_t)(I2S_InitStruct->I2S_Standard | (uint16_t)(I2S_InitStruct->I2S_DataForm
 735              		.loc 1 736 0
 736 0288 4C88     		ldrh	r4, [r1, #2]
 737 028a 2243     		orrs	r2, r2, r4
 738              	.LVL65:
 735:/home/user/Desktop/STM32-Projekte/FH-Vertibot/src/STM32F30x_StdPeriph_Driver/src/stm32f30x_spi.c ****   tmpreg |= (uint16_t)((uint16_t)SPI_I2SCFGR_I2SMOD | (uint16_t)(tmp | \
 739              		.loc 1 735 0
 740 028c 8C88     		ldrh	r4, [r1, #4]
 741 028e 8989     		ldrh	r1, [r1, #12]
 742              	.LVL66:
 743              		.loc 1 736 0
 744 0290 42F40062 		orr	r2, r2, #2048
 735:/home/user/Desktop/STM32-Projekte/FH-Vertibot/src/STM32F30x_StdPeriph_Driver/src/stm32f30x_spi.c ****   tmpreg |= (uint16_t)((uint16_t)SPI_I2SCFGR_I2SMOD | (uint16_t)(tmp | \
 745              		.loc 1 735 0
 746 0294 2243     		orrs	r2, r2, r4
 747 0296 0A43     		orrs	r2, r2, r1
 748 0298 92B2     		uxth	r2, r2
 749 029a 1343     		orrs	r3, r3, r2
 750              	.LVL67:
 737:/home/user/Desktop/STM32-Projekte/FH-Vertibot/src/STM32F30x_StdPeriph_Driver/src/stm32f30x_spi.c ****                   (uint16_t)I2S_InitStruct->I2S_CPOL))));
 738:/home/user/Desktop/STM32-Projekte/FH-Vertibot/src/STM32F30x_StdPeriph_Driver/src/stm32f30x_spi.c ****  
 739:/home/user/Desktop/STM32-Projekte/FH-Vertibot/src/STM32F30x_StdPeriph_Driver/src/stm32f30x_spi.c ****   /* Write to SPIx I2SCFGR */  
 740:/home/user/Desktop/STM32-Projekte/FH-Vertibot/src/STM32F30x_StdPeriph_Driver/src/stm32f30x_spi.c ****   I2Sxext->I2SCFGR = tmpreg;
 751              		.loc 1 740 0
 752 029c 8383     		strh	r3, [r0, #28]	@ movhi
 753 029e 10BD     		pop	{r4, pc}
 754              		.cfi_endproc
 755              	.LFE123:
 757              		.align	1
 758              		.global	SPI_SSOutputCmd
 759              		.thumb
 760              		.thumb_func
 762              	SPI_SSOutputCmd:
 763              	.LFB124:
 741:/home/user/Desktop/STM32-Projekte/FH-Vertibot/src/STM32F30x_StdPeriph_Driver/src/stm32f30x_spi.c **** }
 742:/home/user/Desktop/STM32-Projekte/FH-Vertibot/src/STM32F30x_StdPeriph_Driver/src/stm32f30x_spi.c **** 
 743:/home/user/Desktop/STM32-Projekte/FH-Vertibot/src/STM32F30x_StdPeriph_Driver/src/stm32f30x_spi.c **** /**
 744:/home/user/Desktop/STM32-Projekte/FH-Vertibot/src/STM32F30x_StdPeriph_Driver/src/stm32f30x_spi.c ****   * @brief  Enables or disables the SS output for the selected SPI.
 745:/home/user/Desktop/STM32-Projekte/FH-Vertibot/src/STM32F30x_StdPeriph_Driver/src/stm32f30x_spi.c ****   * @note    This function can be called only after the SPI_Init() function has 
 746:/home/user/Desktop/STM32-Projekte/FH-Vertibot/src/STM32F30x_StdPeriph_Driver/src/stm32f30x_spi.c ****   *          been called and the NSS hardware management mode is selected. 
 747:/home/user/Desktop/STM32-Projekte/FH-Vertibot/src/STM32F30x_StdPeriph_Driver/src/stm32f30x_spi.c ****   * @param  SPIx: where x can be 1, 2 or 3 to select the SPI peripheral.
 748:/home/user/Desktop/STM32-Projekte/FH-Vertibot/src/STM32F30x_StdPeriph_Driver/src/stm32f30x_spi.c ****   * @param  NewState: new state of the SPIx SS output. 
 749:/home/user/Desktop/STM32-Projekte/FH-Vertibot/src/STM32F30x_StdPeriph_Driver/src/stm32f30x_spi.c ****   *         This parameter can be: ENABLE or DISABLE.
 750:/home/user/Desktop/STM32-Projekte/FH-Vertibot/src/STM32F30x_StdPeriph_Driver/src/stm32f30x_spi.c ****   * @retval None
 751:/home/user/Desktop/STM32-Projekte/FH-Vertibot/src/STM32F30x_StdPeriph_Driver/src/stm32f30x_spi.c ****   */
 752:/home/user/Desktop/STM32-Projekte/FH-Vertibot/src/STM32F30x_StdPeriph_Driver/src/stm32f30x_spi.c **** void SPI_SSOutputCmd(SPI_TypeDef* SPIx, FunctionalState NewState)
 753:/home/user/Desktop/STM32-Projekte/FH-Vertibot/src/STM32F30x_StdPeriph_Driver/src/stm32f30x_spi.c **** {
 764              		.loc 1 753 0
 765              		.cfi_startproc
 766              		@ args = 0, pretend = 0, frame = 0
 767              		@ frame_needed = 0, uses_anonymous_args = 0
 768              		@ link register save eliminated.
 769              	.LVL68:
 754:/home/user/Desktop/STM32-Projekte/FH-Vertibot/src/STM32F30x_StdPeriph_Driver/src/stm32f30x_spi.c ****   /* Check the parameters */
 755:/home/user/Desktop/STM32-Projekte/FH-Vertibot/src/STM32F30x_StdPeriph_Driver/src/stm32f30x_spi.c ****   assert_param(IS_SPI_ALL_PERIPH(SPIx));
 756:/home/user/Desktop/STM32-Projekte/FH-Vertibot/src/STM32F30x_StdPeriph_Driver/src/stm32f30x_spi.c ****   assert_param(IS_FUNCTIONAL_STATE(NewState));
 757:/home/user/Desktop/STM32-Projekte/FH-Vertibot/src/STM32F30x_StdPeriph_Driver/src/stm32f30x_spi.c ****   if (NewState != DISABLE)
 758:/home/user/Desktop/STM32-Projekte/FH-Vertibot/src/STM32F30x_StdPeriph_Driver/src/stm32f30x_spi.c ****   {
 759:/home/user/Desktop/STM32-Projekte/FH-Vertibot/src/STM32F30x_StdPeriph_Driver/src/stm32f30x_spi.c ****     /* Enable the selected SPI SS output */
 760:/home/user/Desktop/STM32-Projekte/FH-Vertibot/src/STM32F30x_StdPeriph_Driver/src/stm32f30x_spi.c ****     SPIx->CR2 |= (uint16_t)SPI_CR2_SSOE;
 770              		.loc 1 760 0
 771 02a0 8388     		ldrh	r3, [r0, #4]
 757:/home/user/Desktop/STM32-Projekte/FH-Vertibot/src/STM32F30x_StdPeriph_Driver/src/stm32f30x_spi.c ****   if (NewState != DISABLE)
 772              		.loc 1 757 0
 773 02a2 19B1     		cbz	r1, .L53
 774              		.loc 1 760 0
 775 02a4 9BB2     		uxth	r3, r3
 776 02a6 43F00403 		orr	r3, r3, #4
 777 02aa 03E0     		b	.L55
 778              	.L53:
 761:/home/user/Desktop/STM32-Projekte/FH-Vertibot/src/STM32F30x_StdPeriph_Driver/src/stm32f30x_spi.c ****   }
 762:/home/user/Desktop/STM32-Projekte/FH-Vertibot/src/STM32F30x_StdPeriph_Driver/src/stm32f30x_spi.c ****   else
 763:/home/user/Desktop/STM32-Projekte/FH-Vertibot/src/STM32F30x_StdPeriph_Driver/src/stm32f30x_spi.c ****   {
 764:/home/user/Desktop/STM32-Projekte/FH-Vertibot/src/STM32F30x_StdPeriph_Driver/src/stm32f30x_spi.c ****     /* Disable the selected SPI SS output */
 765:/home/user/Desktop/STM32-Projekte/FH-Vertibot/src/STM32F30x_StdPeriph_Driver/src/stm32f30x_spi.c ****     SPIx->CR2 &= (uint16_t)~((uint16_t)SPI_CR2_SSOE);
 779              		.loc 1 765 0
 780 02ac 23F00403 		bic	r3, r3, #4
 781 02b0 1B04     		lsls	r3, r3, #16
 782 02b2 1B0C     		lsrs	r3, r3, #16
 783              	.L55:
 784 02b4 8380     		strh	r3, [r0, #4]	@ movhi
 785 02b6 7047     		bx	lr
 786              		.cfi_endproc
 787              	.LFE124:
 789              		.align	1
 790              		.global	SPI_NSSPulseModeCmd
 791              		.thumb
 792              		.thumb_func
 794              	SPI_NSSPulseModeCmd:
 795              	.LFB125:
 766:/home/user/Desktop/STM32-Projekte/FH-Vertibot/src/STM32F30x_StdPeriph_Driver/src/stm32f30x_spi.c ****   }
 767:/home/user/Desktop/STM32-Projekte/FH-Vertibot/src/STM32F30x_StdPeriph_Driver/src/stm32f30x_spi.c **** }
 768:/home/user/Desktop/STM32-Projekte/FH-Vertibot/src/STM32F30x_StdPeriph_Driver/src/stm32f30x_spi.c **** 
 769:/home/user/Desktop/STM32-Projekte/FH-Vertibot/src/STM32F30x_StdPeriph_Driver/src/stm32f30x_spi.c **** /**
 770:/home/user/Desktop/STM32-Projekte/FH-Vertibot/src/STM32F30x_StdPeriph_Driver/src/stm32f30x_spi.c ****   * @brief  Enables or disables the NSS pulse management mode.
 771:/home/user/Desktop/STM32-Projekte/FH-Vertibot/src/STM32F30x_StdPeriph_Driver/src/stm32f30x_spi.c ****   * @note    This function can be called only after the SPI_Init() function has 
 772:/home/user/Desktop/STM32-Projekte/FH-Vertibot/src/STM32F30x_StdPeriph_Driver/src/stm32f30x_spi.c ****   *          been called. 
 773:/home/user/Desktop/STM32-Projekte/FH-Vertibot/src/STM32F30x_StdPeriph_Driver/src/stm32f30x_spi.c ****   * @note    When TI mode is selected, the control bits NSSP is not taken into 
 774:/home/user/Desktop/STM32-Projekte/FH-Vertibot/src/STM32F30x_StdPeriph_Driver/src/stm32f30x_spi.c ****   *          consideration and are configured by hardware respectively to the 
 775:/home/user/Desktop/STM32-Projekte/FH-Vertibot/src/STM32F30x_StdPeriph_Driver/src/stm32f30x_spi.c ****   *          TI mode requirements. 
 776:/home/user/Desktop/STM32-Projekte/FH-Vertibot/src/STM32F30x_StdPeriph_Driver/src/stm32f30x_spi.c ****   * @param  SPIx: where x can be 1, 2 or 3 to select the SPI peripheral. 
 777:/home/user/Desktop/STM32-Projekte/FH-Vertibot/src/STM32F30x_StdPeriph_Driver/src/stm32f30x_spi.c ****   * @param  NewState: new state of the NSS pulse management mode.
 778:/home/user/Desktop/STM32-Projekte/FH-Vertibot/src/STM32F30x_StdPeriph_Driver/src/stm32f30x_spi.c ****   *         This parameter can be: ENABLE or DISABLE.
 779:/home/user/Desktop/STM32-Projekte/FH-Vertibot/src/STM32F30x_StdPeriph_Driver/src/stm32f30x_spi.c ****   * @retval None
 780:/home/user/Desktop/STM32-Projekte/FH-Vertibot/src/STM32F30x_StdPeriph_Driver/src/stm32f30x_spi.c ****   */
 781:/home/user/Desktop/STM32-Projekte/FH-Vertibot/src/STM32F30x_StdPeriph_Driver/src/stm32f30x_spi.c **** void SPI_NSSPulseModeCmd(SPI_TypeDef* SPIx, FunctionalState NewState)
 782:/home/user/Desktop/STM32-Projekte/FH-Vertibot/src/STM32F30x_StdPeriph_Driver/src/stm32f30x_spi.c **** {
 796              		.loc 1 782 0
 797              		.cfi_startproc
 798              		@ args = 0, pretend = 0, frame = 0
 799              		@ frame_needed = 0, uses_anonymous_args = 0
 800              		@ link register save eliminated.
 801              	.LVL69:
 783:/home/user/Desktop/STM32-Projekte/FH-Vertibot/src/STM32F30x_StdPeriph_Driver/src/stm32f30x_spi.c ****   /* Check the parameters */
 784:/home/user/Desktop/STM32-Projekte/FH-Vertibot/src/STM32F30x_StdPeriph_Driver/src/stm32f30x_spi.c ****   assert_param(IS_SPI_ALL_PERIPH(SPIx));
 785:/home/user/Desktop/STM32-Projekte/FH-Vertibot/src/STM32F30x_StdPeriph_Driver/src/stm32f30x_spi.c ****   assert_param(IS_FUNCTIONAL_STATE(NewState));
 786:/home/user/Desktop/STM32-Projekte/FH-Vertibot/src/STM32F30x_StdPeriph_Driver/src/stm32f30x_spi.c **** 
 787:/home/user/Desktop/STM32-Projekte/FH-Vertibot/src/STM32F30x_StdPeriph_Driver/src/stm32f30x_spi.c ****   if (NewState != DISABLE)
 788:/home/user/Desktop/STM32-Projekte/FH-Vertibot/src/STM32F30x_StdPeriph_Driver/src/stm32f30x_spi.c ****   {
 789:/home/user/Desktop/STM32-Projekte/FH-Vertibot/src/STM32F30x_StdPeriph_Driver/src/stm32f30x_spi.c ****     /* Enable the NSS pulse management mode */
 790:/home/user/Desktop/STM32-Projekte/FH-Vertibot/src/STM32F30x_StdPeriph_Driver/src/stm32f30x_spi.c ****     SPIx->CR2 |= SPI_CR2_NSSP;
 802              		.loc 1 790 0
 803 02b8 8388     		ldrh	r3, [r0, #4]
 787:/home/user/Desktop/STM32-Projekte/FH-Vertibot/src/STM32F30x_StdPeriph_Driver/src/stm32f30x_spi.c ****   if (NewState != DISABLE)
 804              		.loc 1 787 0
 805 02ba 19B1     		cbz	r1, .L57
 806              		.loc 1 790 0
 807 02bc 9BB2     		uxth	r3, r3
 808 02be 43F00803 		orr	r3, r3, #8
 809 02c2 03E0     		b	.L59
 810              	.L57:
 791:/home/user/Desktop/STM32-Projekte/FH-Vertibot/src/STM32F30x_StdPeriph_Driver/src/stm32f30x_spi.c ****   }
 792:/home/user/Desktop/STM32-Projekte/FH-Vertibot/src/STM32F30x_StdPeriph_Driver/src/stm32f30x_spi.c ****   else
 793:/home/user/Desktop/STM32-Projekte/FH-Vertibot/src/STM32F30x_StdPeriph_Driver/src/stm32f30x_spi.c ****   {
 794:/home/user/Desktop/STM32-Projekte/FH-Vertibot/src/STM32F30x_StdPeriph_Driver/src/stm32f30x_spi.c ****     /* Disable the NSS pulse management mode */
 795:/home/user/Desktop/STM32-Projekte/FH-Vertibot/src/STM32F30x_StdPeriph_Driver/src/stm32f30x_spi.c ****     SPIx->CR2 &= (uint16_t)~((uint16_t)SPI_CR2_NSSP);    
 811              		.loc 1 795 0
 812 02c4 23F00803 		bic	r3, r3, #8
 813 02c8 1B04     		lsls	r3, r3, #16
 814 02ca 1B0C     		lsrs	r3, r3, #16
 815              	.L59:
 816 02cc 8380     		strh	r3, [r0, #4]	@ movhi
 817 02ce 7047     		bx	lr
 818              		.cfi_endproc
 819              	.LFE125:
 821              		.align	1
 822              		.global	SPI_SendData8
 823              		.thumb
 824              		.thumb_func
 826              	SPI_SendData8:
 827              	.LFB126:
 796:/home/user/Desktop/STM32-Projekte/FH-Vertibot/src/STM32F30x_StdPeriph_Driver/src/stm32f30x_spi.c ****   }
 797:/home/user/Desktop/STM32-Projekte/FH-Vertibot/src/STM32F30x_StdPeriph_Driver/src/stm32f30x_spi.c **** }
 798:/home/user/Desktop/STM32-Projekte/FH-Vertibot/src/STM32F30x_StdPeriph_Driver/src/stm32f30x_spi.c **** 
 799:/home/user/Desktop/STM32-Projekte/FH-Vertibot/src/STM32F30x_StdPeriph_Driver/src/stm32f30x_spi.c **** /**
 800:/home/user/Desktop/STM32-Projekte/FH-Vertibot/src/STM32F30x_StdPeriph_Driver/src/stm32f30x_spi.c ****   * @}
 801:/home/user/Desktop/STM32-Projekte/FH-Vertibot/src/STM32F30x_StdPeriph_Driver/src/stm32f30x_spi.c ****   */
 802:/home/user/Desktop/STM32-Projekte/FH-Vertibot/src/STM32F30x_StdPeriph_Driver/src/stm32f30x_spi.c **** 
 803:/home/user/Desktop/STM32-Projekte/FH-Vertibot/src/STM32F30x_StdPeriph_Driver/src/stm32f30x_spi.c **** /** @defgroup SPI_Group2 Data transfers functions
 804:/home/user/Desktop/STM32-Projekte/FH-Vertibot/src/STM32F30x_StdPeriph_Driver/src/stm32f30x_spi.c ****  *  @brief   Data transfers functions
 805:/home/user/Desktop/STM32-Projekte/FH-Vertibot/src/STM32F30x_StdPeriph_Driver/src/stm32f30x_spi.c ****  *
 806:/home/user/Desktop/STM32-Projekte/FH-Vertibot/src/STM32F30x_StdPeriph_Driver/src/stm32f30x_spi.c **** @verbatim
 807:/home/user/Desktop/STM32-Projekte/FH-Vertibot/src/STM32F30x_StdPeriph_Driver/src/stm32f30x_spi.c ****  ===============================================================================
 808:/home/user/Desktop/STM32-Projekte/FH-Vertibot/src/STM32F30x_StdPeriph_Driver/src/stm32f30x_spi.c ****                     ##### Data transfers functions #####
 809:/home/user/Desktop/STM32-Projekte/FH-Vertibot/src/STM32F30x_StdPeriph_Driver/src/stm32f30x_spi.c ****  ===============================================================================  
 810:/home/user/Desktop/STM32-Projekte/FH-Vertibot/src/STM32F30x_StdPeriph_Driver/src/stm32f30x_spi.c ****     [..] This section provides a set of functions allowing to manage the SPI or I2S 
 811:/home/user/Desktop/STM32-Projekte/FH-Vertibot/src/STM32F30x_StdPeriph_Driver/src/stm32f30x_spi.c ****          data transfers.
 812:/home/user/Desktop/STM32-Projekte/FH-Vertibot/src/STM32F30x_StdPeriph_Driver/src/stm32f30x_spi.c ****     [..] In reception, data are received and then stored into an internal Rx buffer while 
 813:/home/user/Desktop/STM32-Projekte/FH-Vertibot/src/STM32F30x_StdPeriph_Driver/src/stm32f30x_spi.c ****          In transmission, data are first stored into an internal Tx buffer before being 
 814:/home/user/Desktop/STM32-Projekte/FH-Vertibot/src/STM32F30x_StdPeriph_Driver/src/stm32f30x_spi.c ****          transmitted.
 815:/home/user/Desktop/STM32-Projekte/FH-Vertibot/src/STM32F30x_StdPeriph_Driver/src/stm32f30x_spi.c ****     [..] The read access of the SPI_DR register can be done using the SPI_I2S_ReceiveData()
 816:/home/user/Desktop/STM32-Projekte/FH-Vertibot/src/STM32F30x_StdPeriph_Driver/src/stm32f30x_spi.c ****          function and returns the Rx buffered value. Whereas a write access to the SPI_DR 
 817:/home/user/Desktop/STM32-Projekte/FH-Vertibot/src/STM32F30x_StdPeriph_Driver/src/stm32f30x_spi.c ****          can be done using SPI_I2S_SendData() function and stores the written data into 
 818:/home/user/Desktop/STM32-Projekte/FH-Vertibot/src/STM32F30x_StdPeriph_Driver/src/stm32f30x_spi.c ****          Tx buffer.
 819:/home/user/Desktop/STM32-Projekte/FH-Vertibot/src/STM32F30x_StdPeriph_Driver/src/stm32f30x_spi.c **** 
 820:/home/user/Desktop/STM32-Projekte/FH-Vertibot/src/STM32F30x_StdPeriph_Driver/src/stm32f30x_spi.c **** @endverbatim
 821:/home/user/Desktop/STM32-Projekte/FH-Vertibot/src/STM32F30x_StdPeriph_Driver/src/stm32f30x_spi.c ****   * @{
 822:/home/user/Desktop/STM32-Projekte/FH-Vertibot/src/STM32F30x_StdPeriph_Driver/src/stm32f30x_spi.c ****   */
 823:/home/user/Desktop/STM32-Projekte/FH-Vertibot/src/STM32F30x_StdPeriph_Driver/src/stm32f30x_spi.c **** 
 824:/home/user/Desktop/STM32-Projekte/FH-Vertibot/src/STM32F30x_StdPeriph_Driver/src/stm32f30x_spi.c **** /**
 825:/home/user/Desktop/STM32-Projekte/FH-Vertibot/src/STM32F30x_StdPeriph_Driver/src/stm32f30x_spi.c ****   * @brief  Transmits a Data through the SPIx peripheral.
 826:/home/user/Desktop/STM32-Projekte/FH-Vertibot/src/STM32F30x_StdPeriph_Driver/src/stm32f30x_spi.c ****   * @param  SPIx: where x can be 1, 2 or 3 to select the SPI peripheral.
 827:/home/user/Desktop/STM32-Projekte/FH-Vertibot/src/STM32F30x_StdPeriph_Driver/src/stm32f30x_spi.c ****   * @param  Data: Data to be transmitted.
 828:/home/user/Desktop/STM32-Projekte/FH-Vertibot/src/STM32F30x_StdPeriph_Driver/src/stm32f30x_spi.c ****   * @retval None
 829:/home/user/Desktop/STM32-Projekte/FH-Vertibot/src/STM32F30x_StdPeriph_Driver/src/stm32f30x_spi.c ****   */
 830:/home/user/Desktop/STM32-Projekte/FH-Vertibot/src/STM32F30x_StdPeriph_Driver/src/stm32f30x_spi.c **** void SPI_SendData8(SPI_TypeDef* SPIx, uint8_t Data)
 831:/home/user/Desktop/STM32-Projekte/FH-Vertibot/src/STM32F30x_StdPeriph_Driver/src/stm32f30x_spi.c **** {
 828              		.loc 1 831 0
 829              		.cfi_startproc
 830              		@ args = 0, pretend = 0, frame = 0
 831              		@ frame_needed = 0, uses_anonymous_args = 0
 832              		@ link register save eliminated.
 833              	.LVL70:
 832:/home/user/Desktop/STM32-Projekte/FH-Vertibot/src/STM32F30x_StdPeriph_Driver/src/stm32f30x_spi.c ****   uint32_t spixbase = 0x00;
 833:/home/user/Desktop/STM32-Projekte/FH-Vertibot/src/STM32F30x_StdPeriph_Driver/src/stm32f30x_spi.c **** 
 834:/home/user/Desktop/STM32-Projekte/FH-Vertibot/src/STM32F30x_StdPeriph_Driver/src/stm32f30x_spi.c ****   /* Check the parameters */
 835:/home/user/Desktop/STM32-Projekte/FH-Vertibot/src/STM32F30x_StdPeriph_Driver/src/stm32f30x_spi.c ****   assert_param(IS_SPI_ALL_PERIPH(SPIx));
 836:/home/user/Desktop/STM32-Projekte/FH-Vertibot/src/STM32F30x_StdPeriph_Driver/src/stm32f30x_spi.c **** 
 837:/home/user/Desktop/STM32-Projekte/FH-Vertibot/src/STM32F30x_StdPeriph_Driver/src/stm32f30x_spi.c ****   spixbase = (uint32_t)SPIx; 
 838:/home/user/Desktop/STM32-Projekte/FH-Vertibot/src/STM32F30x_StdPeriph_Driver/src/stm32f30x_spi.c ****   spixbase += 0x0C;
 839:/home/user/Desktop/STM32-Projekte/FH-Vertibot/src/STM32F30x_StdPeriph_Driver/src/stm32f30x_spi.c ****   
 840:/home/user/Desktop/STM32-Projekte/FH-Vertibot/src/STM32F30x_StdPeriph_Driver/src/stm32f30x_spi.c ****   *(__IO uint8_t *) spixbase = Data;
 834              		.loc 1 840 0
 835 02d0 0173     		strb	r1, [r0, #12]
 836 02d2 7047     		bx	lr
 837              		.cfi_endproc
 838              	.LFE126:
 840              		.align	1
 841              		.global	SPI_I2S_SendData16
 842              		.thumb
 843              		.thumb_func
 845              	SPI_I2S_SendData16:
 846              	.LFB127:
 841:/home/user/Desktop/STM32-Projekte/FH-Vertibot/src/STM32F30x_StdPeriph_Driver/src/stm32f30x_spi.c **** }
 842:/home/user/Desktop/STM32-Projekte/FH-Vertibot/src/STM32F30x_StdPeriph_Driver/src/stm32f30x_spi.c **** 
 843:/home/user/Desktop/STM32-Projekte/FH-Vertibot/src/STM32F30x_StdPeriph_Driver/src/stm32f30x_spi.c **** /**
 844:/home/user/Desktop/STM32-Projekte/FH-Vertibot/src/STM32F30x_StdPeriph_Driver/src/stm32f30x_spi.c ****   * @brief  Transmits a Data through the SPIx/I2Sx peripheral.
 845:/home/user/Desktop/STM32-Projekte/FH-Vertibot/src/STM32F30x_StdPeriph_Driver/src/stm32f30x_spi.c ****   * @param  SPIx: To select the SPIx/I2Sx peripheral, where x can be: 1, 2 or 3 
 846:/home/user/Desktop/STM32-Projekte/FH-Vertibot/src/STM32F30x_StdPeriph_Driver/src/stm32f30x_spi.c ****   *         in SPI mode or 2 or 3 in I2S mode or I2Sxext for I2S full duplex mode.  
 847:/home/user/Desktop/STM32-Projekte/FH-Vertibot/src/STM32F30x_StdPeriph_Driver/src/stm32f30x_spi.c ****   * @param  Data: Data to be transmitted.
 848:/home/user/Desktop/STM32-Projekte/FH-Vertibot/src/STM32F30x_StdPeriph_Driver/src/stm32f30x_spi.c ****   * @retval None
 849:/home/user/Desktop/STM32-Projekte/FH-Vertibot/src/STM32F30x_StdPeriph_Driver/src/stm32f30x_spi.c ****   */
 850:/home/user/Desktop/STM32-Projekte/FH-Vertibot/src/STM32F30x_StdPeriph_Driver/src/stm32f30x_spi.c **** void SPI_I2S_SendData16(SPI_TypeDef* SPIx, uint16_t Data)
 851:/home/user/Desktop/STM32-Projekte/FH-Vertibot/src/STM32F30x_StdPeriph_Driver/src/stm32f30x_spi.c **** {
 847              		.loc 1 851 0
 848              		.cfi_startproc
 849              		@ args = 0, pretend = 0, frame = 0
 850              		@ frame_needed = 0, uses_anonymous_args = 0
 851              		@ link register save eliminated.
 852              	.LVL71:
 852:/home/user/Desktop/STM32-Projekte/FH-Vertibot/src/STM32F30x_StdPeriph_Driver/src/stm32f30x_spi.c ****   /* Check the parameters */
 853:/home/user/Desktop/STM32-Projekte/FH-Vertibot/src/STM32F30x_StdPeriph_Driver/src/stm32f30x_spi.c ****   assert_param(IS_SPI_ALL_PERIPH_EXT(SPIx));
 854:/home/user/Desktop/STM32-Projekte/FH-Vertibot/src/STM32F30x_StdPeriph_Driver/src/stm32f30x_spi.c ****   
 855:/home/user/Desktop/STM32-Projekte/FH-Vertibot/src/STM32F30x_StdPeriph_Driver/src/stm32f30x_spi.c ****   SPIx->DR = (uint16_t)Data;
 853              		.loc 1 855 0
 854 02d4 8181     		strh	r1, [r0, #12]	@ movhi
 855 02d6 7047     		bx	lr
 856              		.cfi_endproc
 857              	.LFE127:
 859              		.align	1
 860              		.global	SPI_ReceiveData8
 861              		.thumb
 862              		.thumb_func
 864              	SPI_ReceiveData8:
 865              	.LFB128:
 856:/home/user/Desktop/STM32-Projekte/FH-Vertibot/src/STM32F30x_StdPeriph_Driver/src/stm32f30x_spi.c **** }
 857:/home/user/Desktop/STM32-Projekte/FH-Vertibot/src/STM32F30x_StdPeriph_Driver/src/stm32f30x_spi.c **** 
 858:/home/user/Desktop/STM32-Projekte/FH-Vertibot/src/STM32F30x_StdPeriph_Driver/src/stm32f30x_spi.c **** /**
 859:/home/user/Desktop/STM32-Projekte/FH-Vertibot/src/STM32F30x_StdPeriph_Driver/src/stm32f30x_spi.c ****   * @brief  Returns the most recent received data by the SPIx peripheral. 
 860:/home/user/Desktop/STM32-Projekte/FH-Vertibot/src/STM32F30x_StdPeriph_Driver/src/stm32f30x_spi.c ****   * @param  SPIx: where x can be 1, 2 or 3 to select the SPI peripheral.
 861:/home/user/Desktop/STM32-Projekte/FH-Vertibot/src/STM32F30x_StdPeriph_Driver/src/stm32f30x_spi.c ****   * @retval The value of the received data.
 862:/home/user/Desktop/STM32-Projekte/FH-Vertibot/src/STM32F30x_StdPeriph_Driver/src/stm32f30x_spi.c ****   */
 863:/home/user/Desktop/STM32-Projekte/FH-Vertibot/src/STM32F30x_StdPeriph_Driver/src/stm32f30x_spi.c **** uint8_t SPI_ReceiveData8(SPI_TypeDef* SPIx)
 864:/home/user/Desktop/STM32-Projekte/FH-Vertibot/src/STM32F30x_StdPeriph_Driver/src/stm32f30x_spi.c **** {
 866              		.loc 1 864 0
 867              		.cfi_startproc
 868              		@ args = 0, pretend = 0, frame = 0
 869              		@ frame_needed = 0, uses_anonymous_args = 0
 870              		@ link register save eliminated.
 871              	.LVL72:
 865:/home/user/Desktop/STM32-Projekte/FH-Vertibot/src/STM32F30x_StdPeriph_Driver/src/stm32f30x_spi.c ****   uint32_t spixbase = 0x00;
 866:/home/user/Desktop/STM32-Projekte/FH-Vertibot/src/STM32F30x_StdPeriph_Driver/src/stm32f30x_spi.c ****   
 867:/home/user/Desktop/STM32-Projekte/FH-Vertibot/src/STM32F30x_StdPeriph_Driver/src/stm32f30x_spi.c ****   /* Check the parameters */
 868:/home/user/Desktop/STM32-Projekte/FH-Vertibot/src/STM32F30x_StdPeriph_Driver/src/stm32f30x_spi.c ****   assert_param(IS_SPI_ALL_PERIPH_EXT(SPIx));
 869:/home/user/Desktop/STM32-Projekte/FH-Vertibot/src/STM32F30x_StdPeriph_Driver/src/stm32f30x_spi.c ****   
 870:/home/user/Desktop/STM32-Projekte/FH-Vertibot/src/STM32F30x_StdPeriph_Driver/src/stm32f30x_spi.c ****   spixbase = (uint32_t)SPIx; 
 871:/home/user/Desktop/STM32-Projekte/FH-Vertibot/src/STM32F30x_StdPeriph_Driver/src/stm32f30x_spi.c ****   spixbase += 0x0C;
 872:/home/user/Desktop/STM32-Projekte/FH-Vertibot/src/STM32F30x_StdPeriph_Driver/src/stm32f30x_spi.c ****   
 873:/home/user/Desktop/STM32-Projekte/FH-Vertibot/src/STM32F30x_StdPeriph_Driver/src/stm32f30x_spi.c ****   return *(__IO uint8_t *) spixbase;
 872              		.loc 1 873 0
 873 02d8 007B     		ldrb	r0, [r0, #12]	@ zero_extendqisi2
 874              	.LVL73:
 874:/home/user/Desktop/STM32-Projekte/FH-Vertibot/src/STM32F30x_StdPeriph_Driver/src/stm32f30x_spi.c **** }
 875              		.loc 1 874 0
 876 02da 7047     		bx	lr
 877              		.cfi_endproc
 878              	.LFE128:
 880              		.align	1
 881              		.global	SPI_I2S_ReceiveData16
 882              		.thumb
 883              		.thumb_func
 885              	SPI_I2S_ReceiveData16:
 886              	.LFB129:
 875:/home/user/Desktop/STM32-Projekte/FH-Vertibot/src/STM32F30x_StdPeriph_Driver/src/stm32f30x_spi.c **** 
 876:/home/user/Desktop/STM32-Projekte/FH-Vertibot/src/STM32F30x_StdPeriph_Driver/src/stm32f30x_spi.c **** /**
 877:/home/user/Desktop/STM32-Projekte/FH-Vertibot/src/STM32F30x_StdPeriph_Driver/src/stm32f30x_spi.c ****   * @brief  Returns the most recent received data by the SPIx peripheral. 
 878:/home/user/Desktop/STM32-Projekte/FH-Vertibot/src/STM32F30x_StdPeriph_Driver/src/stm32f30x_spi.c ****   * @param  SPIx: To select the SPIx/I2Sx peripheral, where x can be: 1, 2 or 3 
 879:/home/user/Desktop/STM32-Projekte/FH-Vertibot/src/STM32F30x_StdPeriph_Driver/src/stm32f30x_spi.c ****   *         in SPI mode or 2 or 3 in I2S mode or I2Sxext for I2S full duplex mode.
 880:/home/user/Desktop/STM32-Projekte/FH-Vertibot/src/STM32F30x_StdPeriph_Driver/src/stm32f30x_spi.c ****   * @retval The value of the received data.
 881:/home/user/Desktop/STM32-Projekte/FH-Vertibot/src/STM32F30x_StdPeriph_Driver/src/stm32f30x_spi.c ****   */
 882:/home/user/Desktop/STM32-Projekte/FH-Vertibot/src/STM32F30x_StdPeriph_Driver/src/stm32f30x_spi.c **** uint16_t SPI_I2S_ReceiveData16(SPI_TypeDef* SPIx)
 883:/home/user/Desktop/STM32-Projekte/FH-Vertibot/src/STM32F30x_StdPeriph_Driver/src/stm32f30x_spi.c **** {  
 887              		.loc 1 883 0
 888              		.cfi_startproc
 889              		@ args = 0, pretend = 0, frame = 0
 890              		@ frame_needed = 0, uses_anonymous_args = 0
 891              		@ link register save eliminated.
 892              	.LVL74:
 884:/home/user/Desktop/STM32-Projekte/FH-Vertibot/src/STM32F30x_StdPeriph_Driver/src/stm32f30x_spi.c ****   /* Check the parameters */
 885:/home/user/Desktop/STM32-Projekte/FH-Vertibot/src/STM32F30x_StdPeriph_Driver/src/stm32f30x_spi.c ****   assert_param(IS_SPI_ALL_PERIPH_EXT(SPIx));
 886:/home/user/Desktop/STM32-Projekte/FH-Vertibot/src/STM32F30x_StdPeriph_Driver/src/stm32f30x_spi.c ****   
 887:/home/user/Desktop/STM32-Projekte/FH-Vertibot/src/STM32F30x_StdPeriph_Driver/src/stm32f30x_spi.c ****   return SPIx->DR;
 893              		.loc 1 887 0
 894 02dc 8089     		ldrh	r0, [r0, #12]
 895              	.LVL75:
 888:/home/user/Desktop/STM32-Projekte/FH-Vertibot/src/STM32F30x_StdPeriph_Driver/src/stm32f30x_spi.c **** }
 896              		.loc 1 888 0
 897 02de 80B2     		uxth	r0, r0
 898 02e0 7047     		bx	lr
 899              		.cfi_endproc
 900              	.LFE129:
 902              		.align	1
 903              		.global	SPI_CRCLengthConfig
 904              		.thumb
 905              		.thumb_func
 907              	SPI_CRCLengthConfig:
 908              	.LFB130:
 889:/home/user/Desktop/STM32-Projekte/FH-Vertibot/src/STM32F30x_StdPeriph_Driver/src/stm32f30x_spi.c **** /**
 890:/home/user/Desktop/STM32-Projekte/FH-Vertibot/src/STM32F30x_StdPeriph_Driver/src/stm32f30x_spi.c ****   * @}
 891:/home/user/Desktop/STM32-Projekte/FH-Vertibot/src/STM32F30x_StdPeriph_Driver/src/stm32f30x_spi.c ****   */
 892:/home/user/Desktop/STM32-Projekte/FH-Vertibot/src/STM32F30x_StdPeriph_Driver/src/stm32f30x_spi.c **** 
 893:/home/user/Desktop/STM32-Projekte/FH-Vertibot/src/STM32F30x_StdPeriph_Driver/src/stm32f30x_spi.c **** /** @defgroup SPI_Group3 Hardware CRC Calculation functions
 894:/home/user/Desktop/STM32-Projekte/FH-Vertibot/src/STM32F30x_StdPeriph_Driver/src/stm32f30x_spi.c ****  *  @brief   Hardware CRC Calculation functions
 895:/home/user/Desktop/STM32-Projekte/FH-Vertibot/src/STM32F30x_StdPeriph_Driver/src/stm32f30x_spi.c ****  *
 896:/home/user/Desktop/STM32-Projekte/FH-Vertibot/src/STM32F30x_StdPeriph_Driver/src/stm32f30x_spi.c **** @verbatim   
 897:/home/user/Desktop/STM32-Projekte/FH-Vertibot/src/STM32F30x_StdPeriph_Driver/src/stm32f30x_spi.c ****  ===============================================================================
 898:/home/user/Desktop/STM32-Projekte/FH-Vertibot/src/STM32F30x_StdPeriph_Driver/src/stm32f30x_spi.c ****                   ##### Hardware CRC Calculation functions #####
 899:/home/user/Desktop/STM32-Projekte/FH-Vertibot/src/STM32F30x_StdPeriph_Driver/src/stm32f30x_spi.c ****  ===============================================================================  
 900:/home/user/Desktop/STM32-Projekte/FH-Vertibot/src/STM32F30x_StdPeriph_Driver/src/stm32f30x_spi.c ****     [..] This section provides a set of functions allowing to manage the SPI CRC hardware 
 901:/home/user/Desktop/STM32-Projekte/FH-Vertibot/src/STM32F30x_StdPeriph_Driver/src/stm32f30x_spi.c ****          calculation.
 902:/home/user/Desktop/STM32-Projekte/FH-Vertibot/src/STM32F30x_StdPeriph_Driver/src/stm32f30x_spi.c ****     [..] SPI communication using CRC is possible through the following procedure:
 903:/home/user/Desktop/STM32-Projekte/FH-Vertibot/src/STM32F30x_StdPeriph_Driver/src/stm32f30x_spi.c ****          (#) Program the Data direction, Polarity, Phase, First Data, Baud Rate Prescaler, 
 904:/home/user/Desktop/STM32-Projekte/FH-Vertibot/src/STM32F30x_StdPeriph_Driver/src/stm32f30x_spi.c ****              Slave Management, Peripheral Mode and CRC Polynomial values using the SPI_Init()
 905:/home/user/Desktop/STM32-Projekte/FH-Vertibot/src/STM32F30x_StdPeriph_Driver/src/stm32f30x_spi.c ****              function.
 906:/home/user/Desktop/STM32-Projekte/FH-Vertibot/src/STM32F30x_StdPeriph_Driver/src/stm32f30x_spi.c ****          (#) Enable the CRC calculation using the SPI_CalculateCRC() function.
 907:/home/user/Desktop/STM32-Projekte/FH-Vertibot/src/STM32F30x_StdPeriph_Driver/src/stm32f30x_spi.c ****          (#) Enable the SPI using the SPI_Cmd() function
 908:/home/user/Desktop/STM32-Projekte/FH-Vertibot/src/STM32F30x_StdPeriph_Driver/src/stm32f30x_spi.c ****          (#) Before writing the last data to the TX buffer, set the CRCNext bit using the 
 909:/home/user/Desktop/STM32-Projekte/FH-Vertibot/src/STM32F30x_StdPeriph_Driver/src/stm32f30x_spi.c ****              SPI_TransmitCRC() function to indicate that after transmission of the last 
 910:/home/user/Desktop/STM32-Projekte/FH-Vertibot/src/STM32F30x_StdPeriph_Driver/src/stm32f30x_spi.c ****              data, the CRC should be transmitted.
 911:/home/user/Desktop/STM32-Projekte/FH-Vertibot/src/STM32F30x_StdPeriph_Driver/src/stm32f30x_spi.c ****          (#) After transmitting the last data, the SPI transmits the CRC. The SPI_CR1_CRCNEXT
 912:/home/user/Desktop/STM32-Projekte/FH-Vertibot/src/STM32F30x_StdPeriph_Driver/src/stm32f30x_spi.c ****              bit is reset. The CRC is also received and compared against the SPI_RXCRCR 
 913:/home/user/Desktop/STM32-Projekte/FH-Vertibot/src/STM32F30x_StdPeriph_Driver/src/stm32f30x_spi.c ****              value. 
 914:/home/user/Desktop/STM32-Projekte/FH-Vertibot/src/STM32F30x_StdPeriph_Driver/src/stm32f30x_spi.c ****              If the value does not match, the SPI_FLAG_CRCERR flag is set and an interrupt
 915:/home/user/Desktop/STM32-Projekte/FH-Vertibot/src/STM32F30x_StdPeriph_Driver/src/stm32f30x_spi.c ****              can be generated when the SPI_I2S_IT_ERR interrupt is enabled.
 916:/home/user/Desktop/STM32-Projekte/FH-Vertibot/src/STM32F30x_StdPeriph_Driver/src/stm32f30x_spi.c ****     [..]
 917:/home/user/Desktop/STM32-Projekte/FH-Vertibot/src/STM32F30x_StdPeriph_Driver/src/stm32f30x_spi.c ****     (@)
 918:/home/user/Desktop/STM32-Projekte/FH-Vertibot/src/STM32F30x_StdPeriph_Driver/src/stm32f30x_spi.c ****          (+@) It is advised to don't read the calculate CRC values during the communication.
 919:/home/user/Desktop/STM32-Projekte/FH-Vertibot/src/STM32F30x_StdPeriph_Driver/src/stm32f30x_spi.c ****          (+@) When the SPI is in slave mode, be careful to enable CRC calculation only 
 920:/home/user/Desktop/STM32-Projekte/FH-Vertibot/src/STM32F30x_StdPeriph_Driver/src/stm32f30x_spi.c ****               when the clock is stable, that is, when the clock is in the steady state. 
 921:/home/user/Desktop/STM32-Projekte/FH-Vertibot/src/STM32F30x_StdPeriph_Driver/src/stm32f30x_spi.c ****               If not, a wrong CRC calculation may be done. In fact, the CRC is sensitive 
 922:/home/user/Desktop/STM32-Projekte/FH-Vertibot/src/STM32F30x_StdPeriph_Driver/src/stm32f30x_spi.c ****               to the SCK slave input clock as soon as CRCEN is set, and this, whatever 
 923:/home/user/Desktop/STM32-Projekte/FH-Vertibot/src/STM32F30x_StdPeriph_Driver/src/stm32f30x_spi.c ****               the value of the SPE bit.
 924:/home/user/Desktop/STM32-Projekte/FH-Vertibot/src/STM32F30x_StdPeriph_Driver/src/stm32f30x_spi.c ****          (+@) With high bitrate frequencies, be careful when transmitting the CRC.
 925:/home/user/Desktop/STM32-Projekte/FH-Vertibot/src/STM32F30x_StdPeriph_Driver/src/stm32f30x_spi.c ****               As the number of used CPU cycles has to be as low as possible in the CRC 
 926:/home/user/Desktop/STM32-Projekte/FH-Vertibot/src/STM32F30x_StdPeriph_Driver/src/stm32f30x_spi.c ****               transfer phase, it is forbidden to call software functions in the CRC 
 927:/home/user/Desktop/STM32-Projekte/FH-Vertibot/src/STM32F30x_StdPeriph_Driver/src/stm32f30x_spi.c ****               transmission sequence to avoid errors in the last data and CRC reception. 
 928:/home/user/Desktop/STM32-Projekte/FH-Vertibot/src/STM32F30x_StdPeriph_Driver/src/stm32f30x_spi.c ****               In fact, CRCNEXT bit has to be written before the end of the transmission/reception 
 929:/home/user/Desktop/STM32-Projekte/FH-Vertibot/src/STM32F30x_StdPeriph_Driver/src/stm32f30x_spi.c ****               of the last data.
 930:/home/user/Desktop/STM32-Projekte/FH-Vertibot/src/STM32F30x_StdPeriph_Driver/src/stm32f30x_spi.c ****          (+@) For high bit rate frequencies, it is advised to use the DMA mode to avoid the
 931:/home/user/Desktop/STM32-Projekte/FH-Vertibot/src/STM32F30x_StdPeriph_Driver/src/stm32f30x_spi.c ****               degradation of the SPI speed performance due to CPU accesses impacting the 
 932:/home/user/Desktop/STM32-Projekte/FH-Vertibot/src/STM32F30x_StdPeriph_Driver/src/stm32f30x_spi.c ****               SPI bandwidth.
 933:/home/user/Desktop/STM32-Projekte/FH-Vertibot/src/STM32F30x_StdPeriph_Driver/src/stm32f30x_spi.c ****          (+@) When the STM32F30x are configured as slaves and the NSS hardware mode is 
 934:/home/user/Desktop/STM32-Projekte/FH-Vertibot/src/STM32F30x_StdPeriph_Driver/src/stm32f30x_spi.c ****               used, the NSS pin needs to be kept low between the data phase and the CRC 
 935:/home/user/Desktop/STM32-Projekte/FH-Vertibot/src/STM32F30x_StdPeriph_Driver/src/stm32f30x_spi.c ****               phase.
 936:/home/user/Desktop/STM32-Projekte/FH-Vertibot/src/STM32F30x_StdPeriph_Driver/src/stm32f30x_spi.c ****          (+@) When the SPI is configured in slave mode with the CRC feature enabled, CRC
 937:/home/user/Desktop/STM32-Projekte/FH-Vertibot/src/STM32F30x_StdPeriph_Driver/src/stm32f30x_spi.c ****               calculation takes place even if a high level is applied on the NSS pin. 
 938:/home/user/Desktop/STM32-Projekte/FH-Vertibot/src/STM32F30x_StdPeriph_Driver/src/stm32f30x_spi.c ****               This may happen for example in case of a multislave environment where the 
 939:/home/user/Desktop/STM32-Projekte/FH-Vertibot/src/STM32F30x_StdPeriph_Driver/src/stm32f30x_spi.c ****               communication master addresses slaves alternately.
 940:/home/user/Desktop/STM32-Projekte/FH-Vertibot/src/STM32F30x_StdPeriph_Driver/src/stm32f30x_spi.c ****          (+@) Between a slave deselection (high level on NSS) and a new slave selection 
 941:/home/user/Desktop/STM32-Projekte/FH-Vertibot/src/STM32F30x_StdPeriph_Driver/src/stm32f30x_spi.c ****               (low level on NSS), the CRC value should be cleared on both master and slave
 942:/home/user/Desktop/STM32-Projekte/FH-Vertibot/src/STM32F30x_StdPeriph_Driver/src/stm32f30x_spi.c ****               sides in order to resynchronize the master and slave for their respective 
 943:/home/user/Desktop/STM32-Projekte/FH-Vertibot/src/STM32F30x_StdPeriph_Driver/src/stm32f30x_spi.c ****               CRC calculation.
 944:/home/user/Desktop/STM32-Projekte/FH-Vertibot/src/STM32F30x_StdPeriph_Driver/src/stm32f30x_spi.c ****     [..]          
 945:/home/user/Desktop/STM32-Projekte/FH-Vertibot/src/STM32F30x_StdPeriph_Driver/src/stm32f30x_spi.c ****     (@) To clear the CRC, follow the procedure below:
 946:/home/user/Desktop/STM32-Projekte/FH-Vertibot/src/STM32F30x_StdPeriph_Driver/src/stm32f30x_spi.c ****          (#@) Disable SPI using the SPI_Cmd() function.
 947:/home/user/Desktop/STM32-Projekte/FH-Vertibot/src/STM32F30x_StdPeriph_Driver/src/stm32f30x_spi.c ****          (#@) Disable the CRC calculation using the SPI_CalculateCRC() function.
 948:/home/user/Desktop/STM32-Projekte/FH-Vertibot/src/STM32F30x_StdPeriph_Driver/src/stm32f30x_spi.c ****          (#@) Enable the CRC calculation using the SPI_CalculateCRC() function.
 949:/home/user/Desktop/STM32-Projekte/FH-Vertibot/src/STM32F30x_StdPeriph_Driver/src/stm32f30x_spi.c ****          (#@) Enable SPI using the SPI_Cmd() function.
 950:/home/user/Desktop/STM32-Projekte/FH-Vertibot/src/STM32F30x_StdPeriph_Driver/src/stm32f30x_spi.c **** 
 951:/home/user/Desktop/STM32-Projekte/FH-Vertibot/src/STM32F30x_StdPeriph_Driver/src/stm32f30x_spi.c **** @endverbatim
 952:/home/user/Desktop/STM32-Projekte/FH-Vertibot/src/STM32F30x_StdPeriph_Driver/src/stm32f30x_spi.c ****   * @{
 953:/home/user/Desktop/STM32-Projekte/FH-Vertibot/src/STM32F30x_StdPeriph_Driver/src/stm32f30x_spi.c ****   */
 954:/home/user/Desktop/STM32-Projekte/FH-Vertibot/src/STM32F30x_StdPeriph_Driver/src/stm32f30x_spi.c **** 
 955:/home/user/Desktop/STM32-Projekte/FH-Vertibot/src/STM32F30x_StdPeriph_Driver/src/stm32f30x_spi.c **** /**
 956:/home/user/Desktop/STM32-Projekte/FH-Vertibot/src/STM32F30x_StdPeriph_Driver/src/stm32f30x_spi.c ****   * @brief  Configures the CRC calculation length for the selected SPI.
 957:/home/user/Desktop/STM32-Projekte/FH-Vertibot/src/STM32F30x_StdPeriph_Driver/src/stm32f30x_spi.c ****   * @param  SPIx: where x can be 1, 2 or 3 to select the SPI peripheral.
 958:/home/user/Desktop/STM32-Projekte/FH-Vertibot/src/STM32F30x_StdPeriph_Driver/src/stm32f30x_spi.c ****   * @param  SPI_CRCLength: specifies the SPI CRC calculation length.
 959:/home/user/Desktop/STM32-Projekte/FH-Vertibot/src/STM32F30x_StdPeriph_Driver/src/stm32f30x_spi.c ****   *   This parameter can be one of the following values:
 960:/home/user/Desktop/STM32-Projekte/FH-Vertibot/src/STM32F30x_StdPeriph_Driver/src/stm32f30x_spi.c ****   *     @arg SPI_CRCLength_8b: Set CRC Calculation to 8 bits
 961:/home/user/Desktop/STM32-Projekte/FH-Vertibot/src/STM32F30x_StdPeriph_Driver/src/stm32f30x_spi.c ****   *     @arg SPI_CRCLength_16b: Set CRC Calculation to 16 bits
 962:/home/user/Desktop/STM32-Projekte/FH-Vertibot/src/STM32F30x_StdPeriph_Driver/src/stm32f30x_spi.c ****   * @retval None
 963:/home/user/Desktop/STM32-Projekte/FH-Vertibot/src/STM32F30x_StdPeriph_Driver/src/stm32f30x_spi.c ****   */
 964:/home/user/Desktop/STM32-Projekte/FH-Vertibot/src/STM32F30x_StdPeriph_Driver/src/stm32f30x_spi.c **** void SPI_CRCLengthConfig(SPI_TypeDef* SPIx, uint16_t SPI_CRCLength)
 965:/home/user/Desktop/STM32-Projekte/FH-Vertibot/src/STM32F30x_StdPeriph_Driver/src/stm32f30x_spi.c **** {
 909              		.loc 1 965 0
 910              		.cfi_startproc
 911              		@ args = 0, pretend = 0, frame = 0
 912              		@ frame_needed = 0, uses_anonymous_args = 0
 913              		@ link register save eliminated.
 914              	.LVL76:
 966:/home/user/Desktop/STM32-Projekte/FH-Vertibot/src/STM32F30x_StdPeriph_Driver/src/stm32f30x_spi.c ****   /* Check the parameters */
 967:/home/user/Desktop/STM32-Projekte/FH-Vertibot/src/STM32F30x_StdPeriph_Driver/src/stm32f30x_spi.c ****   assert_param(IS_SPI_ALL_PERIPH(SPIx));
 968:/home/user/Desktop/STM32-Projekte/FH-Vertibot/src/STM32F30x_StdPeriph_Driver/src/stm32f30x_spi.c ****   assert_param(IS_SPI_CRC_LENGTH(SPI_CRCLength));
 969:/home/user/Desktop/STM32-Projekte/FH-Vertibot/src/STM32F30x_StdPeriph_Driver/src/stm32f30x_spi.c **** 
 970:/home/user/Desktop/STM32-Projekte/FH-Vertibot/src/STM32F30x_StdPeriph_Driver/src/stm32f30x_spi.c ****   /* Clear CRCL bit */
 971:/home/user/Desktop/STM32-Projekte/FH-Vertibot/src/STM32F30x_StdPeriph_Driver/src/stm32f30x_spi.c ****   SPIx->CR1 &= (uint16_t)~((uint16_t)SPI_CR1_CRCL);
 915              		.loc 1 971 0
 916 02e2 0388     		ldrh	r3, [r0, #0]
 917 02e4 23F40063 		bic	r3, r3, #2048
 918 02e8 1B04     		lsls	r3, r3, #16
 919 02ea 1B0C     		lsrs	r3, r3, #16
 920 02ec 0380     		strh	r3, [r0, #0]	@ movhi
 972:/home/user/Desktop/STM32-Projekte/FH-Vertibot/src/STM32F30x_StdPeriph_Driver/src/stm32f30x_spi.c **** 
 973:/home/user/Desktop/STM32-Projekte/FH-Vertibot/src/STM32F30x_StdPeriph_Driver/src/stm32f30x_spi.c ****   /* Set new CRCL bit value */
 974:/home/user/Desktop/STM32-Projekte/FH-Vertibot/src/STM32F30x_StdPeriph_Driver/src/stm32f30x_spi.c ****   SPIx->CR1 |= SPI_CRCLength;
 921              		.loc 1 974 0
 922 02ee 0388     		ldrh	r3, [r0, #0]
 923 02f0 9BB2     		uxth	r3, r3
 924 02f2 1943     		orrs	r1, r1, r3
 925              	.LVL77:
 926 02f4 0180     		strh	r1, [r0, #0]	@ movhi
 927 02f6 7047     		bx	lr
 928              		.cfi_endproc
 929              	.LFE130:
 931              		.align	1
 932              		.global	SPI_CalculateCRC
 933              		.thumb
 934              		.thumb_func
 936              	SPI_CalculateCRC:
 937              	.LFB131:
 975:/home/user/Desktop/STM32-Projekte/FH-Vertibot/src/STM32F30x_StdPeriph_Driver/src/stm32f30x_spi.c **** }
 976:/home/user/Desktop/STM32-Projekte/FH-Vertibot/src/STM32F30x_StdPeriph_Driver/src/stm32f30x_spi.c **** 
 977:/home/user/Desktop/STM32-Projekte/FH-Vertibot/src/STM32F30x_StdPeriph_Driver/src/stm32f30x_spi.c **** /**
 978:/home/user/Desktop/STM32-Projekte/FH-Vertibot/src/STM32F30x_StdPeriph_Driver/src/stm32f30x_spi.c ****   * @brief  Enables or disables the CRC value calculation of the transferred bytes.
 979:/home/user/Desktop/STM32-Projekte/FH-Vertibot/src/STM32F30x_StdPeriph_Driver/src/stm32f30x_spi.c ****   * @param  SPIx: where x can be 1, 2 or 3 to select the SPI peripheral.
 980:/home/user/Desktop/STM32-Projekte/FH-Vertibot/src/STM32F30x_StdPeriph_Driver/src/stm32f30x_spi.c ****   * @param  NewState: new state of the SPIx CRC value calculation.
 981:/home/user/Desktop/STM32-Projekte/FH-Vertibot/src/STM32F30x_StdPeriph_Driver/src/stm32f30x_spi.c ****   *   This parameter can be: ENABLE or DISABLE.
 982:/home/user/Desktop/STM32-Projekte/FH-Vertibot/src/STM32F30x_StdPeriph_Driver/src/stm32f30x_spi.c ****   * @retval None
 983:/home/user/Desktop/STM32-Projekte/FH-Vertibot/src/STM32F30x_StdPeriph_Driver/src/stm32f30x_spi.c ****   */
 984:/home/user/Desktop/STM32-Projekte/FH-Vertibot/src/STM32F30x_StdPeriph_Driver/src/stm32f30x_spi.c **** void SPI_CalculateCRC(SPI_TypeDef* SPIx, FunctionalState NewState)
 985:/home/user/Desktop/STM32-Projekte/FH-Vertibot/src/STM32F30x_StdPeriph_Driver/src/stm32f30x_spi.c **** {
 938              		.loc 1 985 0
 939              		.cfi_startproc
 940              		@ args = 0, pretend = 0, frame = 0
 941              		@ frame_needed = 0, uses_anonymous_args = 0
 942              		@ link register save eliminated.
 943              	.LVL78:
 986:/home/user/Desktop/STM32-Projekte/FH-Vertibot/src/STM32F30x_StdPeriph_Driver/src/stm32f30x_spi.c ****   /* Check the parameters */
 987:/home/user/Desktop/STM32-Projekte/FH-Vertibot/src/STM32F30x_StdPeriph_Driver/src/stm32f30x_spi.c ****   assert_param(IS_SPI_ALL_PERIPH(SPIx));
 988:/home/user/Desktop/STM32-Projekte/FH-Vertibot/src/STM32F30x_StdPeriph_Driver/src/stm32f30x_spi.c ****   assert_param(IS_FUNCTIONAL_STATE(NewState));
 989:/home/user/Desktop/STM32-Projekte/FH-Vertibot/src/STM32F30x_StdPeriph_Driver/src/stm32f30x_spi.c **** 
 990:/home/user/Desktop/STM32-Projekte/FH-Vertibot/src/STM32F30x_StdPeriph_Driver/src/stm32f30x_spi.c ****   if (NewState != DISABLE)
 991:/home/user/Desktop/STM32-Projekte/FH-Vertibot/src/STM32F30x_StdPeriph_Driver/src/stm32f30x_spi.c ****   {
 992:/home/user/Desktop/STM32-Projekte/FH-Vertibot/src/STM32F30x_StdPeriph_Driver/src/stm32f30x_spi.c ****     /* Enable the selected SPI CRC calculation */
 993:/home/user/Desktop/STM32-Projekte/FH-Vertibot/src/STM32F30x_StdPeriph_Driver/src/stm32f30x_spi.c ****     SPIx->CR1 |= SPI_CR1_CRCEN;
 944              		.loc 1 993 0
 945 02f8 0388     		ldrh	r3, [r0, #0]
 990:/home/user/Desktop/STM32-Projekte/FH-Vertibot/src/STM32F30x_StdPeriph_Driver/src/stm32f30x_spi.c ****   if (NewState != DISABLE)
 946              		.loc 1 990 0
 947 02fa 19B1     		cbz	r1, .L66
 948              		.loc 1 993 0
 949 02fc 9BB2     		uxth	r3, r3
 950 02fe 43F40053 		orr	r3, r3, #8192
 951 0302 03E0     		b	.L68
 952              	.L66:
 994:/home/user/Desktop/STM32-Projekte/FH-Vertibot/src/STM32F30x_StdPeriph_Driver/src/stm32f30x_spi.c ****   }
 995:/home/user/Desktop/STM32-Projekte/FH-Vertibot/src/STM32F30x_StdPeriph_Driver/src/stm32f30x_spi.c ****   else
 996:/home/user/Desktop/STM32-Projekte/FH-Vertibot/src/STM32F30x_StdPeriph_Driver/src/stm32f30x_spi.c ****   {
 997:/home/user/Desktop/STM32-Projekte/FH-Vertibot/src/STM32F30x_StdPeriph_Driver/src/stm32f30x_spi.c ****     /* Disable the selected SPI CRC calculation */
 998:/home/user/Desktop/STM32-Projekte/FH-Vertibot/src/STM32F30x_StdPeriph_Driver/src/stm32f30x_spi.c ****     SPIx->CR1 &= (uint16_t)~((uint16_t)SPI_CR1_CRCEN);
 953              		.loc 1 998 0
 954 0304 23F40053 		bic	r3, r3, #8192
 955 0308 1B04     		lsls	r3, r3, #16
 956 030a 1B0C     		lsrs	r3, r3, #16
 957              	.L68:
 958 030c 0380     		strh	r3, [r0, #0]	@ movhi
 959 030e 7047     		bx	lr
 960              		.cfi_endproc
 961              	.LFE131:
 963              		.align	1
 964              		.global	SPI_TransmitCRC
 965              		.thumb
 966              		.thumb_func
 968              	SPI_TransmitCRC:
 969              	.LFB132:
 999:/home/user/Desktop/STM32-Projekte/FH-Vertibot/src/STM32F30x_StdPeriph_Driver/src/stm32f30x_spi.c ****   }
1000:/home/user/Desktop/STM32-Projekte/FH-Vertibot/src/STM32F30x_StdPeriph_Driver/src/stm32f30x_spi.c **** }
1001:/home/user/Desktop/STM32-Projekte/FH-Vertibot/src/STM32F30x_StdPeriph_Driver/src/stm32f30x_spi.c **** 
1002:/home/user/Desktop/STM32-Projekte/FH-Vertibot/src/STM32F30x_StdPeriph_Driver/src/stm32f30x_spi.c **** /**
1003:/home/user/Desktop/STM32-Projekte/FH-Vertibot/src/STM32F30x_StdPeriph_Driver/src/stm32f30x_spi.c ****   * @brief  Transmits the SPIx CRC value.
1004:/home/user/Desktop/STM32-Projekte/FH-Vertibot/src/STM32F30x_StdPeriph_Driver/src/stm32f30x_spi.c ****   * @param  SPIx: where x can be 1, 2 or 3 to select the SPI peripheral.
1005:/home/user/Desktop/STM32-Projekte/FH-Vertibot/src/STM32F30x_StdPeriph_Driver/src/stm32f30x_spi.c ****   * @retval None
1006:/home/user/Desktop/STM32-Projekte/FH-Vertibot/src/STM32F30x_StdPeriph_Driver/src/stm32f30x_spi.c ****   */
1007:/home/user/Desktop/STM32-Projekte/FH-Vertibot/src/STM32F30x_StdPeriph_Driver/src/stm32f30x_spi.c **** void SPI_TransmitCRC(SPI_TypeDef* SPIx)
1008:/home/user/Desktop/STM32-Projekte/FH-Vertibot/src/STM32F30x_StdPeriph_Driver/src/stm32f30x_spi.c **** {
 970              		.loc 1 1008 0
 971              		.cfi_startproc
 972              		@ args = 0, pretend = 0, frame = 0
 973              		@ frame_needed = 0, uses_anonymous_args = 0
 974              		@ link register save eliminated.
 975              	.LVL79:
1009:/home/user/Desktop/STM32-Projekte/FH-Vertibot/src/STM32F30x_StdPeriph_Driver/src/stm32f30x_spi.c ****   /* Check the parameters */
1010:/home/user/Desktop/STM32-Projekte/FH-Vertibot/src/STM32F30x_StdPeriph_Driver/src/stm32f30x_spi.c ****   assert_param(IS_SPI_ALL_PERIPH(SPIx));
1011:/home/user/Desktop/STM32-Projekte/FH-Vertibot/src/STM32F30x_StdPeriph_Driver/src/stm32f30x_spi.c **** 
1012:/home/user/Desktop/STM32-Projekte/FH-Vertibot/src/STM32F30x_StdPeriph_Driver/src/stm32f30x_spi.c ****   /* Enable the selected SPI CRC transmission */
1013:/home/user/Desktop/STM32-Projekte/FH-Vertibot/src/STM32F30x_StdPeriph_Driver/src/stm32f30x_spi.c ****   SPIx->CR1 |= SPI_CR1_CRCNEXT;
 976              		.loc 1 1013 0
 977 0310 0388     		ldrh	r3, [r0, #0]
 978 0312 9BB2     		uxth	r3, r3
 979 0314 43F48053 		orr	r3, r3, #4096
 980 0318 0380     		strh	r3, [r0, #0]	@ movhi
 981 031a 7047     		bx	lr
 982              		.cfi_endproc
 983              	.LFE132:
 985              		.align	1
 986              		.global	SPI_GetCRC
 987              		.thumb
 988              		.thumb_func
 990              	SPI_GetCRC:
 991              	.LFB133:
1014:/home/user/Desktop/STM32-Projekte/FH-Vertibot/src/STM32F30x_StdPeriph_Driver/src/stm32f30x_spi.c **** }
1015:/home/user/Desktop/STM32-Projekte/FH-Vertibot/src/STM32F30x_StdPeriph_Driver/src/stm32f30x_spi.c **** 
1016:/home/user/Desktop/STM32-Projekte/FH-Vertibot/src/STM32F30x_StdPeriph_Driver/src/stm32f30x_spi.c **** /**
1017:/home/user/Desktop/STM32-Projekte/FH-Vertibot/src/STM32F30x_StdPeriph_Driver/src/stm32f30x_spi.c ****   * @brief  Returns the transmit or the receive CRC register value for the specified SPI.
1018:/home/user/Desktop/STM32-Projekte/FH-Vertibot/src/STM32F30x_StdPeriph_Driver/src/stm32f30x_spi.c ****   * @param  SPIx: where x can be 1, 2 or 3 to select the SPI peripheral.
1019:/home/user/Desktop/STM32-Projekte/FH-Vertibot/src/STM32F30x_StdPeriph_Driver/src/stm32f30x_spi.c ****   * @param  SPI_CRC: specifies the CRC register to be read.
1020:/home/user/Desktop/STM32-Projekte/FH-Vertibot/src/STM32F30x_StdPeriph_Driver/src/stm32f30x_spi.c ****   *   This parameter can be one of the following values:
1021:/home/user/Desktop/STM32-Projekte/FH-Vertibot/src/STM32F30x_StdPeriph_Driver/src/stm32f30x_spi.c ****   *     @arg SPI_CRC_Tx: Selects Tx CRC register
1022:/home/user/Desktop/STM32-Projekte/FH-Vertibot/src/STM32F30x_StdPeriph_Driver/src/stm32f30x_spi.c ****   *     @arg SPI_CRC_Rx: Selects Rx CRC register
1023:/home/user/Desktop/STM32-Projekte/FH-Vertibot/src/STM32F30x_StdPeriph_Driver/src/stm32f30x_spi.c ****   * @retval The selected CRC register value..
1024:/home/user/Desktop/STM32-Projekte/FH-Vertibot/src/STM32F30x_StdPeriph_Driver/src/stm32f30x_spi.c ****   */
1025:/home/user/Desktop/STM32-Projekte/FH-Vertibot/src/STM32F30x_StdPeriph_Driver/src/stm32f30x_spi.c **** uint16_t SPI_GetCRC(SPI_TypeDef* SPIx, uint8_t SPI_CRC)
1026:/home/user/Desktop/STM32-Projekte/FH-Vertibot/src/STM32F30x_StdPeriph_Driver/src/stm32f30x_spi.c **** {
 992              		.loc 1 1026 0
 993              		.cfi_startproc
 994              		@ args = 0, pretend = 0, frame = 0
 995              		@ frame_needed = 0, uses_anonymous_args = 0
 996              		@ link register save eliminated.
 997              	.LVL80:
1027:/home/user/Desktop/STM32-Projekte/FH-Vertibot/src/STM32F30x_StdPeriph_Driver/src/stm32f30x_spi.c ****   uint16_t crcreg = 0;
1028:/home/user/Desktop/STM32-Projekte/FH-Vertibot/src/STM32F30x_StdPeriph_Driver/src/stm32f30x_spi.c ****   /* Check the parameters */
1029:/home/user/Desktop/STM32-Projekte/FH-Vertibot/src/STM32F30x_StdPeriph_Driver/src/stm32f30x_spi.c ****   assert_param(IS_SPI_ALL_PERIPH(SPIx));
1030:/home/user/Desktop/STM32-Projekte/FH-Vertibot/src/STM32F30x_StdPeriph_Driver/src/stm32f30x_spi.c ****   assert_param(IS_SPI_CRC(SPI_CRC));
1031:/home/user/Desktop/STM32-Projekte/FH-Vertibot/src/STM32F30x_StdPeriph_Driver/src/stm32f30x_spi.c **** 
1032:/home/user/Desktop/STM32-Projekte/FH-Vertibot/src/STM32F30x_StdPeriph_Driver/src/stm32f30x_spi.c ****   if (SPI_CRC != SPI_CRC_Rx)
 998              		.loc 1 1032 0
 999 031c 0129     		cmp	r1, #1
1033:/home/user/Desktop/STM32-Projekte/FH-Vertibot/src/STM32F30x_StdPeriph_Driver/src/stm32f30x_spi.c ****   {
1034:/home/user/Desktop/STM32-Projekte/FH-Vertibot/src/STM32F30x_StdPeriph_Driver/src/stm32f30x_spi.c ****     /* Get the Tx CRC register */
1035:/home/user/Desktop/STM32-Projekte/FH-Vertibot/src/STM32F30x_StdPeriph_Driver/src/stm32f30x_spi.c ****     crcreg = SPIx->TXCRCR;
 1000              		.loc 1 1035 0
 1001 031e 14BF     		ite	ne
 1002 0320 008B     		ldrhne	r0, [r0, #24]
 1003              	.LVL81:
1036:/home/user/Desktop/STM32-Projekte/FH-Vertibot/src/STM32F30x_StdPeriph_Driver/src/stm32f30x_spi.c ****   }
1037:/home/user/Desktop/STM32-Projekte/FH-Vertibot/src/STM32F30x_StdPeriph_Driver/src/stm32f30x_spi.c ****   else
1038:/home/user/Desktop/STM32-Projekte/FH-Vertibot/src/STM32F30x_StdPeriph_Driver/src/stm32f30x_spi.c ****   {
1039:/home/user/Desktop/STM32-Projekte/FH-Vertibot/src/STM32F30x_StdPeriph_Driver/src/stm32f30x_spi.c ****     /* Get the Rx CRC register */
1040:/home/user/Desktop/STM32-Projekte/FH-Vertibot/src/STM32F30x_StdPeriph_Driver/src/stm32f30x_spi.c ****     crcreg = SPIx->RXCRCR;
 1004              		.loc 1 1040 0
 1005 0322 808A     		ldrheq	r0, [r0, #20]
 1006 0324 80B2     		uxth	r0, r0
 1007              	.LVL82:
1041:/home/user/Desktop/STM32-Projekte/FH-Vertibot/src/STM32F30x_StdPeriph_Driver/src/stm32f30x_spi.c ****   }
1042:/home/user/Desktop/STM32-Projekte/FH-Vertibot/src/STM32F30x_StdPeriph_Driver/src/stm32f30x_spi.c ****   /* Return the selected CRC register */
1043:/home/user/Desktop/STM32-Projekte/FH-Vertibot/src/STM32F30x_StdPeriph_Driver/src/stm32f30x_spi.c ****   return crcreg;
1044:/home/user/Desktop/STM32-Projekte/FH-Vertibot/src/STM32F30x_StdPeriph_Driver/src/stm32f30x_spi.c **** }
 1008              		.loc 1 1044 0
 1009 0326 7047     		bx	lr
 1010              		.cfi_endproc
 1011              	.LFE133:
 1013              		.align	1
 1014              		.global	SPI_GetCRCPolynomial
 1015              		.thumb
 1016              		.thumb_func
 1018              	SPI_GetCRCPolynomial:
 1019              	.LFB134:
1045:/home/user/Desktop/STM32-Projekte/FH-Vertibot/src/STM32F30x_StdPeriph_Driver/src/stm32f30x_spi.c **** 
1046:/home/user/Desktop/STM32-Projekte/FH-Vertibot/src/STM32F30x_StdPeriph_Driver/src/stm32f30x_spi.c **** /**
1047:/home/user/Desktop/STM32-Projekte/FH-Vertibot/src/STM32F30x_StdPeriph_Driver/src/stm32f30x_spi.c ****   * @brief  Returns the CRC Polynomial register value for the specified SPI.
1048:/home/user/Desktop/STM32-Projekte/FH-Vertibot/src/STM32F30x_StdPeriph_Driver/src/stm32f30x_spi.c ****   * @param  SPIx: where x can be 1, 2 or 3 to select the SPI peripheral.
1049:/home/user/Desktop/STM32-Projekte/FH-Vertibot/src/STM32F30x_StdPeriph_Driver/src/stm32f30x_spi.c ****   * @retval The CRC Polynomial register value.
1050:/home/user/Desktop/STM32-Projekte/FH-Vertibot/src/STM32F30x_StdPeriph_Driver/src/stm32f30x_spi.c ****   */
1051:/home/user/Desktop/STM32-Projekte/FH-Vertibot/src/STM32F30x_StdPeriph_Driver/src/stm32f30x_spi.c **** uint16_t SPI_GetCRCPolynomial(SPI_TypeDef* SPIx)
1052:/home/user/Desktop/STM32-Projekte/FH-Vertibot/src/STM32F30x_StdPeriph_Driver/src/stm32f30x_spi.c **** {
 1020              		.loc 1 1052 0
 1021              		.cfi_startproc
 1022              		@ args = 0, pretend = 0, frame = 0
 1023              		@ frame_needed = 0, uses_anonymous_args = 0
 1024              		@ link register save eliminated.
 1025              	.LVL83:
1053:/home/user/Desktop/STM32-Projekte/FH-Vertibot/src/STM32F30x_StdPeriph_Driver/src/stm32f30x_spi.c ****   /* Check the parameters */
1054:/home/user/Desktop/STM32-Projekte/FH-Vertibot/src/STM32F30x_StdPeriph_Driver/src/stm32f30x_spi.c ****   assert_param(IS_SPI_ALL_PERIPH(SPIx));
1055:/home/user/Desktop/STM32-Projekte/FH-Vertibot/src/STM32F30x_StdPeriph_Driver/src/stm32f30x_spi.c **** 
1056:/home/user/Desktop/STM32-Projekte/FH-Vertibot/src/STM32F30x_StdPeriph_Driver/src/stm32f30x_spi.c ****   /* Return the CRC polynomial register */
1057:/home/user/Desktop/STM32-Projekte/FH-Vertibot/src/STM32F30x_StdPeriph_Driver/src/stm32f30x_spi.c ****   return SPIx->CRCPR;
 1026              		.loc 1 1057 0
 1027 0328 008A     		ldrh	r0, [r0, #16]
 1028              	.LVL84:
1058:/home/user/Desktop/STM32-Projekte/FH-Vertibot/src/STM32F30x_StdPeriph_Driver/src/stm32f30x_spi.c **** }
 1029              		.loc 1 1058 0
 1030 032a 80B2     		uxth	r0, r0
 1031 032c 7047     		bx	lr
 1032              		.cfi_endproc
 1033              	.LFE134:
 1035              		.align	1
 1036              		.global	SPI_I2S_DMACmd
 1037              		.thumb
 1038              		.thumb_func
 1040              	SPI_I2S_DMACmd:
 1041              	.LFB135:
1059:/home/user/Desktop/STM32-Projekte/FH-Vertibot/src/STM32F30x_StdPeriph_Driver/src/stm32f30x_spi.c **** 
1060:/home/user/Desktop/STM32-Projekte/FH-Vertibot/src/STM32F30x_StdPeriph_Driver/src/stm32f30x_spi.c **** /**
1061:/home/user/Desktop/STM32-Projekte/FH-Vertibot/src/STM32F30x_StdPeriph_Driver/src/stm32f30x_spi.c ****   * @}
1062:/home/user/Desktop/STM32-Projekte/FH-Vertibot/src/STM32F30x_StdPeriph_Driver/src/stm32f30x_spi.c ****   */
1063:/home/user/Desktop/STM32-Projekte/FH-Vertibot/src/STM32F30x_StdPeriph_Driver/src/stm32f30x_spi.c **** 
1064:/home/user/Desktop/STM32-Projekte/FH-Vertibot/src/STM32F30x_StdPeriph_Driver/src/stm32f30x_spi.c **** /** @defgroup SPI_Group4 DMA transfers management functions
1065:/home/user/Desktop/STM32-Projekte/FH-Vertibot/src/STM32F30x_StdPeriph_Driver/src/stm32f30x_spi.c ****  *  @brief   DMA transfers management functions
1066:/home/user/Desktop/STM32-Projekte/FH-Vertibot/src/STM32F30x_StdPeriph_Driver/src/stm32f30x_spi.c ****   *
1067:/home/user/Desktop/STM32-Projekte/FH-Vertibot/src/STM32F30x_StdPeriph_Driver/src/stm32f30x_spi.c **** @verbatim   
1068:/home/user/Desktop/STM32-Projekte/FH-Vertibot/src/STM32F30x_StdPeriph_Driver/src/stm32f30x_spi.c ****  ===============================================================================
1069:/home/user/Desktop/STM32-Projekte/FH-Vertibot/src/STM32F30x_StdPeriph_Driver/src/stm32f30x_spi.c ****                   ##### DMA transfers management functions #####
1070:/home/user/Desktop/STM32-Projekte/FH-Vertibot/src/STM32F30x_StdPeriph_Driver/src/stm32f30x_spi.c ****  ===============================================================================
1071:/home/user/Desktop/STM32-Projekte/FH-Vertibot/src/STM32F30x_StdPeriph_Driver/src/stm32f30x_spi.c **** 
1072:/home/user/Desktop/STM32-Projekte/FH-Vertibot/src/STM32F30x_StdPeriph_Driver/src/stm32f30x_spi.c **** @endverbatim
1073:/home/user/Desktop/STM32-Projekte/FH-Vertibot/src/STM32F30x_StdPeriph_Driver/src/stm32f30x_spi.c ****   * @{
1074:/home/user/Desktop/STM32-Projekte/FH-Vertibot/src/STM32F30x_StdPeriph_Driver/src/stm32f30x_spi.c ****   */
1075:/home/user/Desktop/STM32-Projekte/FH-Vertibot/src/STM32F30x_StdPeriph_Driver/src/stm32f30x_spi.c **** 
1076:/home/user/Desktop/STM32-Projekte/FH-Vertibot/src/STM32F30x_StdPeriph_Driver/src/stm32f30x_spi.c **** /**
1077:/home/user/Desktop/STM32-Projekte/FH-Vertibot/src/STM32F30x_StdPeriph_Driver/src/stm32f30x_spi.c ****   * @brief  Enables or disables the SPIx/I2Sx DMA interface.
1078:/home/user/Desktop/STM32-Projekte/FH-Vertibot/src/STM32F30x_StdPeriph_Driver/src/stm32f30x_spi.c ****   * @param  SPIx:To select the SPIx/I2Sx peripheral, where x can be: 1, 2 or 3 
1079:/home/user/Desktop/STM32-Projekte/FH-Vertibot/src/STM32F30x_StdPeriph_Driver/src/stm32f30x_spi.c ****   *         in SPI mode or 2 or 3 in I2S mode or I2Sxext for I2S full duplex mode. 
1080:/home/user/Desktop/STM32-Projekte/FH-Vertibot/src/STM32F30x_StdPeriph_Driver/src/stm32f30x_spi.c ****   * @param  SPI_I2S_DMAReq: specifies the SPI DMA transfer request to be enabled or disabled. 
1081:/home/user/Desktop/STM32-Projekte/FH-Vertibot/src/STM32F30x_StdPeriph_Driver/src/stm32f30x_spi.c ****   *   This parameter can be any combination of the following values:
1082:/home/user/Desktop/STM32-Projekte/FH-Vertibot/src/STM32F30x_StdPeriph_Driver/src/stm32f30x_spi.c ****   *     @arg SPI_I2S_DMAReq_Tx: Tx buffer DMA transfer request
1083:/home/user/Desktop/STM32-Projekte/FH-Vertibot/src/STM32F30x_StdPeriph_Driver/src/stm32f30x_spi.c ****   *     @arg SPI_I2S_DMAReq_Rx: Rx buffer DMA transfer request
1084:/home/user/Desktop/STM32-Projekte/FH-Vertibot/src/STM32F30x_StdPeriph_Driver/src/stm32f30x_spi.c ****   * @param  NewState: new state of the selected SPI DMA transfer request.
1085:/home/user/Desktop/STM32-Projekte/FH-Vertibot/src/STM32F30x_StdPeriph_Driver/src/stm32f30x_spi.c ****   *         This parameter can be: ENABLE or DISABLE.
1086:/home/user/Desktop/STM32-Projekte/FH-Vertibot/src/STM32F30x_StdPeriph_Driver/src/stm32f30x_spi.c ****   * @retval None
1087:/home/user/Desktop/STM32-Projekte/FH-Vertibot/src/STM32F30x_StdPeriph_Driver/src/stm32f30x_spi.c ****   */
1088:/home/user/Desktop/STM32-Projekte/FH-Vertibot/src/STM32F30x_StdPeriph_Driver/src/stm32f30x_spi.c **** void SPI_I2S_DMACmd(SPI_TypeDef* SPIx, uint16_t SPI_I2S_DMAReq, FunctionalState NewState)
1089:/home/user/Desktop/STM32-Projekte/FH-Vertibot/src/STM32F30x_StdPeriph_Driver/src/stm32f30x_spi.c **** {
 1042              		.loc 1 1089 0
 1043              		.cfi_startproc
 1044              		@ args = 0, pretend = 0, frame = 0
 1045              		@ frame_needed = 0, uses_anonymous_args = 0
 1046              		@ link register save eliminated.
 1047              	.LVL85:
1090:/home/user/Desktop/STM32-Projekte/FH-Vertibot/src/STM32F30x_StdPeriph_Driver/src/stm32f30x_spi.c ****   /* Check the parameters */
1091:/home/user/Desktop/STM32-Projekte/FH-Vertibot/src/STM32F30x_StdPeriph_Driver/src/stm32f30x_spi.c ****   assert_param(IS_SPI_ALL_PERIPH_EXT(SPIx));
1092:/home/user/Desktop/STM32-Projekte/FH-Vertibot/src/STM32F30x_StdPeriph_Driver/src/stm32f30x_spi.c ****   assert_param(IS_FUNCTIONAL_STATE(NewState));
1093:/home/user/Desktop/STM32-Projekte/FH-Vertibot/src/STM32F30x_StdPeriph_Driver/src/stm32f30x_spi.c ****   assert_param(IS_SPI_I2S_DMA_REQ(SPI_I2S_DMAReq));
1094:/home/user/Desktop/STM32-Projekte/FH-Vertibot/src/STM32F30x_StdPeriph_Driver/src/stm32f30x_spi.c **** 
1095:/home/user/Desktop/STM32-Projekte/FH-Vertibot/src/STM32F30x_StdPeriph_Driver/src/stm32f30x_spi.c ****   if (NewState != DISABLE)
1096:/home/user/Desktop/STM32-Projekte/FH-Vertibot/src/STM32F30x_StdPeriph_Driver/src/stm32f30x_spi.c ****   {
1097:/home/user/Desktop/STM32-Projekte/FH-Vertibot/src/STM32F30x_StdPeriph_Driver/src/stm32f30x_spi.c ****     /* Enable the selected SPI DMA requests */
1098:/home/user/Desktop/STM32-Projekte/FH-Vertibot/src/STM32F30x_StdPeriph_Driver/src/stm32f30x_spi.c ****     SPIx->CR2 |= SPI_I2S_DMAReq;
 1048              		.loc 1 1098 0
 1049 032e 8388     		ldrh	r3, [r0, #4]
 1050 0330 9BB2     		uxth	r3, r3
1095:/home/user/Desktop/STM32-Projekte/FH-Vertibot/src/STM32F30x_StdPeriph_Driver/src/stm32f30x_spi.c ****   if (NewState != DISABLE)
 1051              		.loc 1 1095 0
 1052 0332 0AB1     		cbz	r2, .L76
 1053              		.loc 1 1098 0
 1054 0334 1943     		orrs	r1, r1, r3
 1055              	.LVL86:
 1056 0336 01E0     		b	.L78
 1057              	.LVL87:
 1058              	.L76:
1099:/home/user/Desktop/STM32-Projekte/FH-Vertibot/src/STM32F30x_StdPeriph_Driver/src/stm32f30x_spi.c ****   }
1100:/home/user/Desktop/STM32-Projekte/FH-Vertibot/src/STM32F30x_StdPeriph_Driver/src/stm32f30x_spi.c ****   else
1101:/home/user/Desktop/STM32-Projekte/FH-Vertibot/src/STM32F30x_StdPeriph_Driver/src/stm32f30x_spi.c ****   {
1102:/home/user/Desktop/STM32-Projekte/FH-Vertibot/src/STM32F30x_StdPeriph_Driver/src/stm32f30x_spi.c ****     /* Disable the selected SPI DMA requests */
1103:/home/user/Desktop/STM32-Projekte/FH-Vertibot/src/STM32F30x_StdPeriph_Driver/src/stm32f30x_spi.c ****     SPIx->CR2 &= (uint16_t)~SPI_I2S_DMAReq;
 1059              		.loc 1 1103 0
 1060 0338 23EA0101 		bic	r1, r3, r1
 1061              	.LVL88:
 1062              	.L78:
 1063 033c 8180     		strh	r1, [r0, #4]	@ movhi
 1064 033e 7047     		bx	lr
 1065              		.cfi_endproc
 1066              	.LFE135:
 1068              		.align	1
 1069              		.global	SPI_LastDMATransferCmd
 1070              		.thumb
 1071              		.thumb_func
 1073              	SPI_LastDMATransferCmd:
 1074              	.LFB136:
1104:/home/user/Desktop/STM32-Projekte/FH-Vertibot/src/STM32F30x_StdPeriph_Driver/src/stm32f30x_spi.c ****   }
1105:/home/user/Desktop/STM32-Projekte/FH-Vertibot/src/STM32F30x_StdPeriph_Driver/src/stm32f30x_spi.c **** }
1106:/home/user/Desktop/STM32-Projekte/FH-Vertibot/src/STM32F30x_StdPeriph_Driver/src/stm32f30x_spi.c **** 
1107:/home/user/Desktop/STM32-Projekte/FH-Vertibot/src/STM32F30x_StdPeriph_Driver/src/stm32f30x_spi.c **** /**
1108:/home/user/Desktop/STM32-Projekte/FH-Vertibot/src/STM32F30x_StdPeriph_Driver/src/stm32f30x_spi.c ****   * @brief  Configures the number of data to transfer type(Even/Odd) for the DMA
1109:/home/user/Desktop/STM32-Projekte/FH-Vertibot/src/STM32F30x_StdPeriph_Driver/src/stm32f30x_spi.c ****   *         last transfers and for the selected SPI.
1110:/home/user/Desktop/STM32-Projekte/FH-Vertibot/src/STM32F30x_StdPeriph_Driver/src/stm32f30x_spi.c ****   * @note   This function have a meaning only if DMA mode is selected and if 
1111:/home/user/Desktop/STM32-Projekte/FH-Vertibot/src/STM32F30x_StdPeriph_Driver/src/stm32f30x_spi.c ****   *         the packing mode is used (data length <= 8 and DMA transfer size halfword)  
1112:/home/user/Desktop/STM32-Projekte/FH-Vertibot/src/STM32F30x_StdPeriph_Driver/src/stm32f30x_spi.c ****   * @param  SPIx: where x can be 1, 2 or 3 to select the SPI peripheral.
1113:/home/user/Desktop/STM32-Projekte/FH-Vertibot/src/STM32F30x_StdPeriph_Driver/src/stm32f30x_spi.c ****   * @param  SPI_LastDMATransfer: specifies the SPI last DMA transfers state.
1114:/home/user/Desktop/STM32-Projekte/FH-Vertibot/src/STM32F30x_StdPeriph_Driver/src/stm32f30x_spi.c ****   *   This parameter can be one of the following values:
1115:/home/user/Desktop/STM32-Projekte/FH-Vertibot/src/STM32F30x_StdPeriph_Driver/src/stm32f30x_spi.c ****   *     @arg SPI_LastDMATransfer_TxEvenRxEven: Number of data for transmission Even
1116:/home/user/Desktop/STM32-Projekte/FH-Vertibot/src/STM32F30x_StdPeriph_Driver/src/stm32f30x_spi.c ****   *          and number of data for reception Even.
1117:/home/user/Desktop/STM32-Projekte/FH-Vertibot/src/STM32F30x_StdPeriph_Driver/src/stm32f30x_spi.c ****   *     @arg SPI_LastDMATransfer_TxOddRxEven: Number of data for transmission Odd
1118:/home/user/Desktop/STM32-Projekte/FH-Vertibot/src/STM32F30x_StdPeriph_Driver/src/stm32f30x_spi.c ****   *          and number of data for reception Even.
1119:/home/user/Desktop/STM32-Projekte/FH-Vertibot/src/STM32F30x_StdPeriph_Driver/src/stm32f30x_spi.c ****   *     @arg SPI_LastDMATransfer_TxEvenRxOdd: Number of data for transmission Even
1120:/home/user/Desktop/STM32-Projekte/FH-Vertibot/src/STM32F30x_StdPeriph_Driver/src/stm32f30x_spi.c ****   *          and number of data for reception Odd.
1121:/home/user/Desktop/STM32-Projekte/FH-Vertibot/src/STM32F30x_StdPeriph_Driver/src/stm32f30x_spi.c ****   *     @arg SPI_LastDMATransfer_TxOddRxOdd: RNumber of data for transmission Odd
1122:/home/user/Desktop/STM32-Projekte/FH-Vertibot/src/STM32F30x_StdPeriph_Driver/src/stm32f30x_spi.c ****   *          and number of data for reception Odd.
1123:/home/user/Desktop/STM32-Projekte/FH-Vertibot/src/STM32F30x_StdPeriph_Driver/src/stm32f30x_spi.c ****   * @retval None
1124:/home/user/Desktop/STM32-Projekte/FH-Vertibot/src/STM32F30x_StdPeriph_Driver/src/stm32f30x_spi.c ****   */
1125:/home/user/Desktop/STM32-Projekte/FH-Vertibot/src/STM32F30x_StdPeriph_Driver/src/stm32f30x_spi.c **** void SPI_LastDMATransferCmd(SPI_TypeDef* SPIx, uint16_t SPI_LastDMATransfer)
1126:/home/user/Desktop/STM32-Projekte/FH-Vertibot/src/STM32F30x_StdPeriph_Driver/src/stm32f30x_spi.c **** {
 1075              		.loc 1 1126 0
 1076              		.cfi_startproc
 1077              		@ args = 0, pretend = 0, frame = 0
 1078              		@ frame_needed = 0, uses_anonymous_args = 0
 1079              		@ link register save eliminated.
 1080              	.LVL89:
1127:/home/user/Desktop/STM32-Projekte/FH-Vertibot/src/STM32F30x_StdPeriph_Driver/src/stm32f30x_spi.c ****   /* Check the parameters */
1128:/home/user/Desktop/STM32-Projekte/FH-Vertibot/src/STM32F30x_StdPeriph_Driver/src/stm32f30x_spi.c ****   assert_param(IS_SPI_ALL_PERIPH(SPIx));
1129:/home/user/Desktop/STM32-Projekte/FH-Vertibot/src/STM32F30x_StdPeriph_Driver/src/stm32f30x_spi.c ****   assert_param(IS_SPI_LAST_DMA_TRANSFER(SPI_LastDMATransfer));
1130:/home/user/Desktop/STM32-Projekte/FH-Vertibot/src/STM32F30x_StdPeriph_Driver/src/stm32f30x_spi.c **** 
1131:/home/user/Desktop/STM32-Projekte/FH-Vertibot/src/STM32F30x_StdPeriph_Driver/src/stm32f30x_spi.c ****   /* Clear LDMA_TX and LDMA_RX bits */
1132:/home/user/Desktop/STM32-Projekte/FH-Vertibot/src/STM32F30x_StdPeriph_Driver/src/stm32f30x_spi.c ****   SPIx->CR2 &= CR2_LDMA_MASK;
 1081              		.loc 1 1132 0
 1082 0340 8388     		ldrh	r3, [r0, #4]
 1083 0342 23F4C043 		bic	r3, r3, #24576
 1084 0346 1B04     		lsls	r3, r3, #16
 1085 0348 1B0C     		lsrs	r3, r3, #16
 1086 034a 8380     		strh	r3, [r0, #4]	@ movhi
1133:/home/user/Desktop/STM32-Projekte/FH-Vertibot/src/STM32F30x_StdPeriph_Driver/src/stm32f30x_spi.c **** 
1134:/home/user/Desktop/STM32-Projekte/FH-Vertibot/src/STM32F30x_StdPeriph_Driver/src/stm32f30x_spi.c ****   /* Set new LDMA_TX and LDMA_RX bits value */
1135:/home/user/Desktop/STM32-Projekte/FH-Vertibot/src/STM32F30x_StdPeriph_Driver/src/stm32f30x_spi.c ****   SPIx->CR2 |= SPI_LastDMATransfer; 
 1087              		.loc 1 1135 0
 1088 034c 8388     		ldrh	r3, [r0, #4]
 1089 034e 9BB2     		uxth	r3, r3
 1090 0350 1943     		orrs	r1, r1, r3
 1091              	.LVL90:
 1092 0352 8180     		strh	r1, [r0, #4]	@ movhi
 1093 0354 7047     		bx	lr
 1094              		.cfi_endproc
 1095              	.LFE136:
 1097              		.align	1
 1098              		.global	SPI_I2S_ITConfig
 1099              		.thumb
 1100              		.thumb_func
 1102              	SPI_I2S_ITConfig:
 1103              	.LFB137:
1136:/home/user/Desktop/STM32-Projekte/FH-Vertibot/src/STM32F30x_StdPeriph_Driver/src/stm32f30x_spi.c **** }
1137:/home/user/Desktop/STM32-Projekte/FH-Vertibot/src/STM32F30x_StdPeriph_Driver/src/stm32f30x_spi.c **** 
1138:/home/user/Desktop/STM32-Projekte/FH-Vertibot/src/STM32F30x_StdPeriph_Driver/src/stm32f30x_spi.c **** /**
1139:/home/user/Desktop/STM32-Projekte/FH-Vertibot/src/STM32F30x_StdPeriph_Driver/src/stm32f30x_spi.c ****   * @}
1140:/home/user/Desktop/STM32-Projekte/FH-Vertibot/src/STM32F30x_StdPeriph_Driver/src/stm32f30x_spi.c ****   */
1141:/home/user/Desktop/STM32-Projekte/FH-Vertibot/src/STM32F30x_StdPeriph_Driver/src/stm32f30x_spi.c **** 
1142:/home/user/Desktop/STM32-Projekte/FH-Vertibot/src/STM32F30x_StdPeriph_Driver/src/stm32f30x_spi.c **** /** @defgroup SPI_Group5 Interrupts and flags management functions
1143:/home/user/Desktop/STM32-Projekte/FH-Vertibot/src/STM32F30x_StdPeriph_Driver/src/stm32f30x_spi.c ****  *  @brief   Interrupts and flags management functions
1144:/home/user/Desktop/STM32-Projekte/FH-Vertibot/src/STM32F30x_StdPeriph_Driver/src/stm32f30x_spi.c ****   *
1145:/home/user/Desktop/STM32-Projekte/FH-Vertibot/src/STM32F30x_StdPeriph_Driver/src/stm32f30x_spi.c **** @verbatim   
1146:/home/user/Desktop/STM32-Projekte/FH-Vertibot/src/STM32F30x_StdPeriph_Driver/src/stm32f30x_spi.c ****  ===============================================================================
1147:/home/user/Desktop/STM32-Projekte/FH-Vertibot/src/STM32F30x_StdPeriph_Driver/src/stm32f30x_spi.c ****               ##### Interrupts and flags management functions #####
1148:/home/user/Desktop/STM32-Projekte/FH-Vertibot/src/STM32F30x_StdPeriph_Driver/src/stm32f30x_spi.c ****  ===============================================================================  
1149:/home/user/Desktop/STM32-Projekte/FH-Vertibot/src/STM32F30x_StdPeriph_Driver/src/stm32f30x_spi.c ****     [..] This section provides a set of functions allowing to configure the SPI/I2S 
1150:/home/user/Desktop/STM32-Projekte/FH-Vertibot/src/STM32F30x_StdPeriph_Driver/src/stm32f30x_spi.c ****          Interrupts sources and check or clear the flags or pending bits status.
1151:/home/user/Desktop/STM32-Projekte/FH-Vertibot/src/STM32F30x_StdPeriph_Driver/src/stm32f30x_spi.c ****          The user should identify which mode will be used in his application to manage 
1152:/home/user/Desktop/STM32-Projekte/FH-Vertibot/src/STM32F30x_StdPeriph_Driver/src/stm32f30x_spi.c ****          the communication: Polling mode, Interrupt mode or DMA mode. 
1153:/home/user/Desktop/STM32-Projekte/FH-Vertibot/src/STM32F30x_StdPeriph_Driver/src/stm32f30x_spi.c ****     
1154:/home/user/Desktop/STM32-Projekte/FH-Vertibot/src/STM32F30x_StdPeriph_Driver/src/stm32f30x_spi.c ****   *** Polling Mode ***
1155:/home/user/Desktop/STM32-Projekte/FH-Vertibot/src/STM32F30x_StdPeriph_Driver/src/stm32f30x_spi.c ****   ====================
1156:/home/user/Desktop/STM32-Projekte/FH-Vertibot/src/STM32F30x_StdPeriph_Driver/src/stm32f30x_spi.c ****     [..] In Polling Mode, the SPI/I2S communication can be managed by 9 flags:
1157:/home/user/Desktop/STM32-Projekte/FH-Vertibot/src/STM32F30x_StdPeriph_Driver/src/stm32f30x_spi.c ****          (#) SPI_I2S_FLAG_TXE : to indicate the status of the transmit buffer register.
1158:/home/user/Desktop/STM32-Projekte/FH-Vertibot/src/STM32F30x_StdPeriph_Driver/src/stm32f30x_spi.c ****          (#) SPI_I2S_FLAG_RXNE : to indicate the status of the receive buffer register.
1159:/home/user/Desktop/STM32-Projekte/FH-Vertibot/src/STM32F30x_StdPeriph_Driver/src/stm32f30x_spi.c ****          (#) SPI_I2S_FLAG_BSY : to indicate the state of the communication layer of the SPI.
1160:/home/user/Desktop/STM32-Projekte/FH-Vertibot/src/STM32F30x_StdPeriph_Driver/src/stm32f30x_spi.c ****          (#) SPI_FLAG_CRCERR : to indicate if a CRC Calculation error occur.              
1161:/home/user/Desktop/STM32-Projekte/FH-Vertibot/src/STM32F30x_StdPeriph_Driver/src/stm32f30x_spi.c ****          (#) SPI_FLAG_MODF : to indicate if a Mode Fault error occur.
1162:/home/user/Desktop/STM32-Projekte/FH-Vertibot/src/STM32F30x_StdPeriph_Driver/src/stm32f30x_spi.c ****          (#) SPI_I2S_FLAG_OVR : to indicate if an Overrun error occur.
1163:/home/user/Desktop/STM32-Projekte/FH-Vertibot/src/STM32F30x_StdPeriph_Driver/src/stm32f30x_spi.c ****          (#) SPI_I2S_FLAG_FRE: to indicate a Frame Format error occurs.
1164:/home/user/Desktop/STM32-Projekte/FH-Vertibot/src/STM32F30x_StdPeriph_Driver/src/stm32f30x_spi.c ****          (#) I2S_FLAG_UDR: to indicate an Underrun error occurs.
1165:/home/user/Desktop/STM32-Projekte/FH-Vertibot/src/STM32F30x_StdPeriph_Driver/src/stm32f30x_spi.c ****          (#) I2S_FLAG_CHSIDE: to indicate Channel Side.
1166:/home/user/Desktop/STM32-Projekte/FH-Vertibot/src/STM32F30x_StdPeriph_Driver/src/stm32f30x_spi.c ****     [..]
1167:/home/user/Desktop/STM32-Projekte/FH-Vertibot/src/STM32F30x_StdPeriph_Driver/src/stm32f30x_spi.c ****          (@) Do not use the BSY flag to handle each data transmission or reception.
1168:/home/user/Desktop/STM32-Projekte/FH-Vertibot/src/STM32F30x_StdPeriph_Driver/src/stm32f30x_spi.c ****              It is better to use the TXE and RXNE flags instead.
1169:/home/user/Desktop/STM32-Projekte/FH-Vertibot/src/STM32F30x_StdPeriph_Driver/src/stm32f30x_spi.c ****     [..] In this Mode it is advised to use the following functions:
1170:/home/user/Desktop/STM32-Projekte/FH-Vertibot/src/STM32F30x_StdPeriph_Driver/src/stm32f30x_spi.c ****          (+) FlagStatus SPI_I2S_GetFlagStatus(SPI_TypeDef* SPIx, uint16_t SPI_I2S_FLAG);
1171:/home/user/Desktop/STM32-Projekte/FH-Vertibot/src/STM32F30x_StdPeriph_Driver/src/stm32f30x_spi.c ****          (+) void SPI_I2S_ClearFlag(SPI_TypeDef* SPIx, uint16_t SPI_I2S_FLAG);
1172:/home/user/Desktop/STM32-Projekte/FH-Vertibot/src/STM32F30x_StdPeriph_Driver/src/stm32f30x_spi.c **** 
1173:/home/user/Desktop/STM32-Projekte/FH-Vertibot/src/STM32F30x_StdPeriph_Driver/src/stm32f30x_spi.c ****   *** Interrupt Mode ***
1174:/home/user/Desktop/STM32-Projekte/FH-Vertibot/src/STM32F30x_StdPeriph_Driver/src/stm32f30x_spi.c ****   ======================
1175:/home/user/Desktop/STM32-Projekte/FH-Vertibot/src/STM32F30x_StdPeriph_Driver/src/stm32f30x_spi.c ****     [..] In Interrupt Mode, the SPI/I2S communication can be managed by 3 interrupt sources
1176:/home/user/Desktop/STM32-Projekte/FH-Vertibot/src/STM32F30x_StdPeriph_Driver/src/stm32f30x_spi.c ****          and 5 pending bits: 
1177:/home/user/Desktop/STM32-Projekte/FH-Vertibot/src/STM32F30x_StdPeriph_Driver/src/stm32f30x_spi.c ****     [..] Pending Bits:
1178:/home/user/Desktop/STM32-Projekte/FH-Vertibot/src/STM32F30x_StdPeriph_Driver/src/stm32f30x_spi.c ****          (#) SPI_I2S_IT_TXE : to indicate the status of the transmit buffer register.
1179:/home/user/Desktop/STM32-Projekte/FH-Vertibot/src/STM32F30x_StdPeriph_Driver/src/stm32f30x_spi.c ****          (#) SPI_I2S_IT_RXNE : to indicate the status of the receive buffer register.
1180:/home/user/Desktop/STM32-Projekte/FH-Vertibot/src/STM32F30x_StdPeriph_Driver/src/stm32f30x_spi.c ****          (#) SPI_I2S_IT_OVR : to indicate if an Overrun error occur.
1181:/home/user/Desktop/STM32-Projekte/FH-Vertibot/src/STM32F30x_StdPeriph_Driver/src/stm32f30x_spi.c ****          (#) I2S_IT_UDR : to indicate an Underrun Error occurs.
1182:/home/user/Desktop/STM32-Projekte/FH-Vertibot/src/STM32F30x_StdPeriph_Driver/src/stm32f30x_spi.c ****          (#) SPI_I2S_FLAG_FRE : to indicate a Frame Format error occurs.
1183:/home/user/Desktop/STM32-Projekte/FH-Vertibot/src/STM32F30x_StdPeriph_Driver/src/stm32f30x_spi.c ****     [..] Interrupt Source:
1184:/home/user/Desktop/STM32-Projekte/FH-Vertibot/src/STM32F30x_StdPeriph_Driver/src/stm32f30x_spi.c ****          (#) SPI_I2S_IT_TXE: specifies the interrupt source for the Tx buffer empty 
1185:/home/user/Desktop/STM32-Projekte/FH-Vertibot/src/STM32F30x_StdPeriph_Driver/src/stm32f30x_spi.c ****              interrupt.  
1186:/home/user/Desktop/STM32-Projekte/FH-Vertibot/src/STM32F30x_StdPeriph_Driver/src/stm32f30x_spi.c ****          (#) SPI_I2S_IT_RXNE : specifies the interrupt source for the Rx buffer not 
1187:/home/user/Desktop/STM32-Projekte/FH-Vertibot/src/STM32F30x_StdPeriph_Driver/src/stm32f30x_spi.c ****              empty interrupt.
1188:/home/user/Desktop/STM32-Projekte/FH-Vertibot/src/STM32F30x_StdPeriph_Driver/src/stm32f30x_spi.c ****          (#) SPI_I2S_IT_ERR : specifies the interrupt source for the errors interrupt.
1189:/home/user/Desktop/STM32-Projekte/FH-Vertibot/src/STM32F30x_StdPeriph_Driver/src/stm32f30x_spi.c ****     [..] In this Mode it is advised to use the following functions:
1190:/home/user/Desktop/STM32-Projekte/FH-Vertibot/src/STM32F30x_StdPeriph_Driver/src/stm32f30x_spi.c ****          (+) void SPI_I2S_ITConfig(SPI_TypeDef* SPIx, uint8_t SPI_I2S_IT, FunctionalState NewState)
1191:/home/user/Desktop/STM32-Projekte/FH-Vertibot/src/STM32F30x_StdPeriph_Driver/src/stm32f30x_spi.c ****          (+) ITStatus SPI_I2S_GetITStatus(SPI_TypeDef* SPIx, uint8_t SPI_I2S_IT);
1192:/home/user/Desktop/STM32-Projekte/FH-Vertibot/src/STM32F30x_StdPeriph_Driver/src/stm32f30x_spi.c **** 
1193:/home/user/Desktop/STM32-Projekte/FH-Vertibot/src/STM32F30x_StdPeriph_Driver/src/stm32f30x_spi.c ****   *** FIFO Status ***
1194:/home/user/Desktop/STM32-Projekte/FH-Vertibot/src/STM32F30x_StdPeriph_Driver/src/stm32f30x_spi.c ****   ===================
1195:/home/user/Desktop/STM32-Projekte/FH-Vertibot/src/STM32F30x_StdPeriph_Driver/src/stm32f30x_spi.c ****     [..] It is possible to monitor the FIFO status when a transfer is ongoing using the
1196:/home/user/Desktop/STM32-Projekte/FH-Vertibot/src/STM32F30x_StdPeriph_Driver/src/stm32f30x_spi.c ****          following function:
1197:/home/user/Desktop/STM32-Projekte/FH-Vertibot/src/STM32F30x_StdPeriph_Driver/src/stm32f30x_spi.c ****          (+) uint32_t SPI_GetFIFOStatus(uint8_t SPI_FIFO_Direction); 
1198:/home/user/Desktop/STM32-Projekte/FH-Vertibot/src/STM32F30x_StdPeriph_Driver/src/stm32f30x_spi.c **** 
1199:/home/user/Desktop/STM32-Projekte/FH-Vertibot/src/STM32F30x_StdPeriph_Driver/src/stm32f30x_spi.c ****   *** DMA Mode ***
1200:/home/user/Desktop/STM32-Projekte/FH-Vertibot/src/STM32F30x_StdPeriph_Driver/src/stm32f30x_spi.c ****   ================
1201:/home/user/Desktop/STM32-Projekte/FH-Vertibot/src/STM32F30x_StdPeriph_Driver/src/stm32f30x_spi.c ****     [..] In DMA Mode, the SPI communication can be managed by 2 DMA Channel requests:
1202:/home/user/Desktop/STM32-Projekte/FH-Vertibot/src/STM32F30x_StdPeriph_Driver/src/stm32f30x_spi.c ****          (#) SPI_I2S_DMAReq_Tx: specifies the Tx buffer DMA transfer request.
1203:/home/user/Desktop/STM32-Projekte/FH-Vertibot/src/STM32F30x_StdPeriph_Driver/src/stm32f30x_spi.c ****          (#) SPI_I2S_DMAReq_Rx: specifies the Rx buffer DMA transfer request.
1204:/home/user/Desktop/STM32-Projekte/FH-Vertibot/src/STM32F30x_StdPeriph_Driver/src/stm32f30x_spi.c ****     [..] In this Mode it is advised to use the following function:
1205:/home/user/Desktop/STM32-Projekte/FH-Vertibot/src/STM32F30x_StdPeriph_Driver/src/stm32f30x_spi.c ****          (+) void SPI_I2S_DMACmd(SPI_TypeDef* SPIx, uint16_t SPI_I2S_DMAReq, FunctionalState NewSta
1206:/home/user/Desktop/STM32-Projekte/FH-Vertibot/src/STM32F30x_StdPeriph_Driver/src/stm32f30x_spi.c **** 
1207:/home/user/Desktop/STM32-Projekte/FH-Vertibot/src/STM32F30x_StdPeriph_Driver/src/stm32f30x_spi.c **** @endverbatim
1208:/home/user/Desktop/STM32-Projekte/FH-Vertibot/src/STM32F30x_StdPeriph_Driver/src/stm32f30x_spi.c ****   * @{
1209:/home/user/Desktop/STM32-Projekte/FH-Vertibot/src/STM32F30x_StdPeriph_Driver/src/stm32f30x_spi.c ****   */
1210:/home/user/Desktop/STM32-Projekte/FH-Vertibot/src/STM32F30x_StdPeriph_Driver/src/stm32f30x_spi.c **** 
1211:/home/user/Desktop/STM32-Projekte/FH-Vertibot/src/STM32F30x_StdPeriph_Driver/src/stm32f30x_spi.c **** /**
1212:/home/user/Desktop/STM32-Projekte/FH-Vertibot/src/STM32F30x_StdPeriph_Driver/src/stm32f30x_spi.c ****   * @brief  Enables or disables the specified SPI/I2S interrupts.
1213:/home/user/Desktop/STM32-Projekte/FH-Vertibot/src/STM32F30x_StdPeriph_Driver/src/stm32f30x_spi.c ****   * @param  SPIx: To select the SPIx/I2Sx peripheral, where x can be: 1, 2 or 3 
1214:/home/user/Desktop/STM32-Projekte/FH-Vertibot/src/STM32F30x_StdPeriph_Driver/src/stm32f30x_spi.c ****   *         in SPI mode or 2 or 3 in I2S mode or I2Sxext for I2S full duplex mode.  
1215:/home/user/Desktop/STM32-Projekte/FH-Vertibot/src/STM32F30x_StdPeriph_Driver/src/stm32f30x_spi.c ****   * @param  SPI_I2S_IT: specifies the SPI interrupt source to be enabled or disabled. 
1216:/home/user/Desktop/STM32-Projekte/FH-Vertibot/src/STM32F30x_StdPeriph_Driver/src/stm32f30x_spi.c ****   *   This parameter can be one of the following values:
1217:/home/user/Desktop/STM32-Projekte/FH-Vertibot/src/STM32F30x_StdPeriph_Driver/src/stm32f30x_spi.c ****   *     @arg SPI_I2S_IT_TXE: Tx buffer empty interrupt mask
1218:/home/user/Desktop/STM32-Projekte/FH-Vertibot/src/STM32F30x_StdPeriph_Driver/src/stm32f30x_spi.c ****   *     @arg SPI_I2S_IT_RXNE: Rx buffer not empty interrupt mask
1219:/home/user/Desktop/STM32-Projekte/FH-Vertibot/src/STM32F30x_StdPeriph_Driver/src/stm32f30x_spi.c ****   *     @arg SPI_I2S_IT_ERR: Error interrupt mask
1220:/home/user/Desktop/STM32-Projekte/FH-Vertibot/src/STM32F30x_StdPeriph_Driver/src/stm32f30x_spi.c ****   * @param  NewState: new state of the specified SPI interrupt.
1221:/home/user/Desktop/STM32-Projekte/FH-Vertibot/src/STM32F30x_StdPeriph_Driver/src/stm32f30x_spi.c ****   *         This parameter can be: ENABLE or DISABLE.
1222:/home/user/Desktop/STM32-Projekte/FH-Vertibot/src/STM32F30x_StdPeriph_Driver/src/stm32f30x_spi.c ****   * @retval None
1223:/home/user/Desktop/STM32-Projekte/FH-Vertibot/src/STM32F30x_StdPeriph_Driver/src/stm32f30x_spi.c ****   */
1224:/home/user/Desktop/STM32-Projekte/FH-Vertibot/src/STM32F30x_StdPeriph_Driver/src/stm32f30x_spi.c **** void SPI_I2S_ITConfig(SPI_TypeDef* SPIx, uint8_t SPI_I2S_IT, FunctionalState NewState)
1225:/home/user/Desktop/STM32-Projekte/FH-Vertibot/src/STM32F30x_StdPeriph_Driver/src/stm32f30x_spi.c **** {
 1104              		.loc 1 1225 0
 1105              		.cfi_startproc
 1106              		@ args = 0, pretend = 0, frame = 0
 1107              		@ frame_needed = 0, uses_anonymous_args = 0
 1108              		@ link register save eliminated.
 1109              	.LVL91:
1226:/home/user/Desktop/STM32-Projekte/FH-Vertibot/src/STM32F30x_StdPeriph_Driver/src/stm32f30x_spi.c ****   uint16_t itpos = 0, itmask = 0 ;
1227:/home/user/Desktop/STM32-Projekte/FH-Vertibot/src/STM32F30x_StdPeriph_Driver/src/stm32f30x_spi.c **** 
1228:/home/user/Desktop/STM32-Projekte/FH-Vertibot/src/STM32F30x_StdPeriph_Driver/src/stm32f30x_spi.c ****   /* Check the parameters */
1229:/home/user/Desktop/STM32-Projekte/FH-Vertibot/src/STM32F30x_StdPeriph_Driver/src/stm32f30x_spi.c ****   assert_param(IS_SPI_ALL_PERIPH_EXT(SPIx));
1230:/home/user/Desktop/STM32-Projekte/FH-Vertibot/src/STM32F30x_StdPeriph_Driver/src/stm32f30x_spi.c ****   assert_param(IS_FUNCTIONAL_STATE(NewState));
1231:/home/user/Desktop/STM32-Projekte/FH-Vertibot/src/STM32F30x_StdPeriph_Driver/src/stm32f30x_spi.c ****   assert_param(IS_SPI_I2S_CONFIG_IT(SPI_I2S_IT));
1232:/home/user/Desktop/STM32-Projekte/FH-Vertibot/src/STM32F30x_StdPeriph_Driver/src/stm32f30x_spi.c **** 
1233:/home/user/Desktop/STM32-Projekte/FH-Vertibot/src/STM32F30x_StdPeriph_Driver/src/stm32f30x_spi.c ****   /* Get the SPI IT index */
1234:/home/user/Desktop/STM32-Projekte/FH-Vertibot/src/STM32F30x_StdPeriph_Driver/src/stm32f30x_spi.c ****   itpos = SPI_I2S_IT >> 4;
1235:/home/user/Desktop/STM32-Projekte/FH-Vertibot/src/STM32F30x_StdPeriph_Driver/src/stm32f30x_spi.c **** 
1236:/home/user/Desktop/STM32-Projekte/FH-Vertibot/src/STM32F30x_StdPeriph_Driver/src/stm32f30x_spi.c ****   /* Set the IT mask */
1237:/home/user/Desktop/STM32-Projekte/FH-Vertibot/src/STM32F30x_StdPeriph_Driver/src/stm32f30x_spi.c ****   itmask = (uint16_t)1 << (uint16_t)itpos;
 1110              		.loc 1 1237 0
 1111 0356 0909     		lsrs	r1, r1, #4
 1112              	.LVL92:
 1113 0358 0123     		movs	r3, #1
 1114 035a 03FA01F3 		lsl	r3, r3, r1
 1115 035e 9BB2     		uxth	r3, r3
 1116              	.LVL93:
1238:/home/user/Desktop/STM32-Projekte/FH-Vertibot/src/STM32F30x_StdPeriph_Driver/src/stm32f30x_spi.c **** 
1239:/home/user/Desktop/STM32-Projekte/FH-Vertibot/src/STM32F30x_StdPeriph_Driver/src/stm32f30x_spi.c ****   if (NewState != DISABLE)
 1117              		.loc 1 1239 0
 1118 0360 1AB1     		cbz	r2, .L81
1240:/home/user/Desktop/STM32-Projekte/FH-Vertibot/src/STM32F30x_StdPeriph_Driver/src/stm32f30x_spi.c ****   {
1241:/home/user/Desktop/STM32-Projekte/FH-Vertibot/src/STM32F30x_StdPeriph_Driver/src/stm32f30x_spi.c ****     /* Enable the selected SPI interrupt */
1242:/home/user/Desktop/STM32-Projekte/FH-Vertibot/src/STM32F30x_StdPeriph_Driver/src/stm32f30x_spi.c ****     SPIx->CR2 |= itmask;
 1119              		.loc 1 1242 0
 1120 0362 8288     		ldrh	r2, [r0, #4]
 1121              	.LVL94:
 1122 0364 92B2     		uxth	r2, r2
 1123 0366 1343     		orrs	r3, r3, r2
 1124              	.LVL95:
 1125 0368 03E0     		b	.L83
 1126              	.LVL96:
 1127              	.L81:
1243:/home/user/Desktop/STM32-Projekte/FH-Vertibot/src/STM32F30x_StdPeriph_Driver/src/stm32f30x_spi.c ****   }
1244:/home/user/Desktop/STM32-Projekte/FH-Vertibot/src/STM32F30x_StdPeriph_Driver/src/stm32f30x_spi.c ****   else
1245:/home/user/Desktop/STM32-Projekte/FH-Vertibot/src/STM32F30x_StdPeriph_Driver/src/stm32f30x_spi.c ****   {
1246:/home/user/Desktop/STM32-Projekte/FH-Vertibot/src/STM32F30x_StdPeriph_Driver/src/stm32f30x_spi.c ****     /* Disable the selected SPI interrupt */
1247:/home/user/Desktop/STM32-Projekte/FH-Vertibot/src/STM32F30x_StdPeriph_Driver/src/stm32f30x_spi.c ****     SPIx->CR2 &= (uint16_t)~itmask;
 1128              		.loc 1 1247 0
 1129 036a 8288     		ldrh	r2, [r0, #4]
 1130              	.LVL97:
 1131 036c 92B2     		uxth	r2, r2
 1132 036e 22EA0303 		bic	r3, r2, r3
 1133              	.L83:
 1134 0372 8380     		strh	r3, [r0, #4]	@ movhi
 1135 0374 7047     		bx	lr
 1136              		.cfi_endproc
 1137              	.LFE137:
 1139              		.align	1
 1140              		.global	SPI_GetTransmissionFIFOStatus
 1141              		.thumb
 1142              		.thumb_func
 1144              	SPI_GetTransmissionFIFOStatus:
 1145              	.LFB138:
1248:/home/user/Desktop/STM32-Projekte/FH-Vertibot/src/STM32F30x_StdPeriph_Driver/src/stm32f30x_spi.c ****   }
1249:/home/user/Desktop/STM32-Projekte/FH-Vertibot/src/STM32F30x_StdPeriph_Driver/src/stm32f30x_spi.c **** }
1250:/home/user/Desktop/STM32-Projekte/FH-Vertibot/src/STM32F30x_StdPeriph_Driver/src/stm32f30x_spi.c **** 
1251:/home/user/Desktop/STM32-Projekte/FH-Vertibot/src/STM32F30x_StdPeriph_Driver/src/stm32f30x_spi.c **** /**
1252:/home/user/Desktop/STM32-Projekte/FH-Vertibot/src/STM32F30x_StdPeriph_Driver/src/stm32f30x_spi.c ****   * @brief  Returns the current SPIx Transmission FIFO filled level.
1253:/home/user/Desktop/STM32-Projekte/FH-Vertibot/src/STM32F30x_StdPeriph_Driver/src/stm32f30x_spi.c ****   * @param  SPIx: where x can be 1, 2 or 3 to select the SPI peripheral.
1254:/home/user/Desktop/STM32-Projekte/FH-Vertibot/src/STM32F30x_StdPeriph_Driver/src/stm32f30x_spi.c ****   * @retval The Transmission FIFO filling state.
1255:/home/user/Desktop/STM32-Projekte/FH-Vertibot/src/STM32F30x_StdPeriph_Driver/src/stm32f30x_spi.c ****   *   - SPI_TransmissionFIFOStatus_Empty: when FIFO is empty
1256:/home/user/Desktop/STM32-Projekte/FH-Vertibot/src/STM32F30x_StdPeriph_Driver/src/stm32f30x_spi.c ****   *   - SPI_TransmissionFIFOStatus_1QuarterFull: if more than 1 quarter-full.
1257:/home/user/Desktop/STM32-Projekte/FH-Vertibot/src/STM32F30x_StdPeriph_Driver/src/stm32f30x_spi.c ****   *   - SPI_TransmissionFIFOStatus_HalfFull: if more than 1 half-full.
1258:/home/user/Desktop/STM32-Projekte/FH-Vertibot/src/STM32F30x_StdPeriph_Driver/src/stm32f30x_spi.c ****   *   - SPI_TransmissionFIFOStatus_Full: when FIFO is full.
1259:/home/user/Desktop/STM32-Projekte/FH-Vertibot/src/STM32F30x_StdPeriph_Driver/src/stm32f30x_spi.c ****   */
1260:/home/user/Desktop/STM32-Projekte/FH-Vertibot/src/STM32F30x_StdPeriph_Driver/src/stm32f30x_spi.c **** uint16_t SPI_GetTransmissionFIFOStatus(SPI_TypeDef* SPIx)
1261:/home/user/Desktop/STM32-Projekte/FH-Vertibot/src/STM32F30x_StdPeriph_Driver/src/stm32f30x_spi.c **** {
 1146              		.loc 1 1261 0
 1147              		.cfi_startproc
 1148              		@ args = 0, pretend = 0, frame = 0
 1149              		@ frame_needed = 0, uses_anonymous_args = 0
 1150              		@ link register save eliminated.
 1151              	.LVL98:
1262:/home/user/Desktop/STM32-Projekte/FH-Vertibot/src/STM32F30x_StdPeriph_Driver/src/stm32f30x_spi.c ****   /* Get the SPIx Transmission FIFO level bits */
1263:/home/user/Desktop/STM32-Projekte/FH-Vertibot/src/STM32F30x_StdPeriph_Driver/src/stm32f30x_spi.c ****   return (uint16_t)((SPIx->SR & SPI_SR_FTLVL));
 1152              		.loc 1 1263 0
 1153 0376 0089     		ldrh	r0, [r0, #8]
 1154              	.LVL99:
1264:/home/user/Desktop/STM32-Projekte/FH-Vertibot/src/STM32F30x_StdPeriph_Driver/src/stm32f30x_spi.c **** }
 1155              		.loc 1 1264 0
 1156 0378 00F4C050 		and	r0, r0, #6144
 1157 037c 7047     		bx	lr
 1158              		.cfi_endproc
 1159              	.LFE138:
 1161              		.align	1
 1162              		.global	SPI_GetReceptionFIFOStatus
 1163              		.thumb
 1164              		.thumb_func
 1166              	SPI_GetReceptionFIFOStatus:
 1167              	.LFB139:
1265:/home/user/Desktop/STM32-Projekte/FH-Vertibot/src/STM32F30x_StdPeriph_Driver/src/stm32f30x_spi.c **** 
1266:/home/user/Desktop/STM32-Projekte/FH-Vertibot/src/STM32F30x_StdPeriph_Driver/src/stm32f30x_spi.c **** /**
1267:/home/user/Desktop/STM32-Projekte/FH-Vertibot/src/STM32F30x_StdPeriph_Driver/src/stm32f30x_spi.c ****   * @brief  Returns the current SPIx Reception FIFO filled level.
1268:/home/user/Desktop/STM32-Projekte/FH-Vertibot/src/STM32F30x_StdPeriph_Driver/src/stm32f30x_spi.c ****   * @param  SPIx: where x can be 1, 2 or 3 to select the SPI peripheral.
1269:/home/user/Desktop/STM32-Projekte/FH-Vertibot/src/STM32F30x_StdPeriph_Driver/src/stm32f30x_spi.c ****   * @retval The Reception FIFO filling state.
1270:/home/user/Desktop/STM32-Projekte/FH-Vertibot/src/STM32F30x_StdPeriph_Driver/src/stm32f30x_spi.c ****   *   - SPI_ReceptionFIFOStatus_Empty: when FIFO is empty
1271:/home/user/Desktop/STM32-Projekte/FH-Vertibot/src/STM32F30x_StdPeriph_Driver/src/stm32f30x_spi.c ****   *   - SPI_ReceptionFIFOStatus_1QuarterFull: if more than 1 quarter-full.
1272:/home/user/Desktop/STM32-Projekte/FH-Vertibot/src/STM32F30x_StdPeriph_Driver/src/stm32f30x_spi.c ****   *   - SPI_ReceptionFIFOStatus_HalfFull: if more than 1 half-full.
1273:/home/user/Desktop/STM32-Projekte/FH-Vertibot/src/STM32F30x_StdPeriph_Driver/src/stm32f30x_spi.c ****   *   - SPI_ReceptionFIFOStatus_Full: when FIFO is full.
1274:/home/user/Desktop/STM32-Projekte/FH-Vertibot/src/STM32F30x_StdPeriph_Driver/src/stm32f30x_spi.c ****   */
1275:/home/user/Desktop/STM32-Projekte/FH-Vertibot/src/STM32F30x_StdPeriph_Driver/src/stm32f30x_spi.c **** uint16_t SPI_GetReceptionFIFOStatus(SPI_TypeDef* SPIx)
1276:/home/user/Desktop/STM32-Projekte/FH-Vertibot/src/STM32F30x_StdPeriph_Driver/src/stm32f30x_spi.c **** {
 1168              		.loc 1 1276 0
 1169              		.cfi_startproc
 1170              		@ args = 0, pretend = 0, frame = 0
 1171              		@ frame_needed = 0, uses_anonymous_args = 0
 1172              		@ link register save eliminated.
 1173              	.LVL100:
1277:/home/user/Desktop/STM32-Projekte/FH-Vertibot/src/STM32F30x_StdPeriph_Driver/src/stm32f30x_spi.c ****   /* Get the SPIx Reception FIFO level bits */
1278:/home/user/Desktop/STM32-Projekte/FH-Vertibot/src/STM32F30x_StdPeriph_Driver/src/stm32f30x_spi.c ****   return (uint16_t)((SPIx->SR & SPI_SR_FRLVL));
 1174              		.loc 1 1278 0
 1175 037e 0089     		ldrh	r0, [r0, #8]
 1176              	.LVL101:
1279:/home/user/Desktop/STM32-Projekte/FH-Vertibot/src/STM32F30x_StdPeriph_Driver/src/stm32f30x_spi.c **** }
 1177              		.loc 1 1279 0
 1178 0380 00F4C060 		and	r0, r0, #1536
 1179 0384 7047     		bx	lr
 1180              		.cfi_endproc
 1181              	.LFE139:
 1183              		.align	1
 1184              		.global	SPI_I2S_GetFlagStatus
 1185              		.thumb
 1186              		.thumb_func
 1188              	SPI_I2S_GetFlagStatus:
 1189              	.LFB140:
1280:/home/user/Desktop/STM32-Projekte/FH-Vertibot/src/STM32F30x_StdPeriph_Driver/src/stm32f30x_spi.c **** 
1281:/home/user/Desktop/STM32-Projekte/FH-Vertibot/src/STM32F30x_StdPeriph_Driver/src/stm32f30x_spi.c **** /**
1282:/home/user/Desktop/STM32-Projekte/FH-Vertibot/src/STM32F30x_StdPeriph_Driver/src/stm32f30x_spi.c ****   * @brief  Checks whether the specified SPI flag is set or not.
1283:/home/user/Desktop/STM32-Projekte/FH-Vertibot/src/STM32F30x_StdPeriph_Driver/src/stm32f30x_spi.c ****   * @param  SPIx: To select the SPIx/I2Sx peripheral, where x can be: 1, 2 or 3 
1284:/home/user/Desktop/STM32-Projekte/FH-Vertibot/src/STM32F30x_StdPeriph_Driver/src/stm32f30x_spi.c ****   *         in SPI mode or 2 or 3 in I2S mode or I2Sxext for I2S full duplex mode.  
1285:/home/user/Desktop/STM32-Projekte/FH-Vertibot/src/STM32F30x_StdPeriph_Driver/src/stm32f30x_spi.c ****   * @param  SPI_I2S_FLAG: specifies the SPI flag to check. 
1286:/home/user/Desktop/STM32-Projekte/FH-Vertibot/src/STM32F30x_StdPeriph_Driver/src/stm32f30x_spi.c ****   *   This parameter can be one of the following values:
1287:/home/user/Desktop/STM32-Projekte/FH-Vertibot/src/STM32F30x_StdPeriph_Driver/src/stm32f30x_spi.c ****   *     @arg SPI_I2S_FLAG_TXE: Transmit buffer empty flag.
1288:/home/user/Desktop/STM32-Projekte/FH-Vertibot/src/STM32F30x_StdPeriph_Driver/src/stm32f30x_spi.c ****   *     @arg SPI_I2S_FLAG_RXNE: Receive buffer not empty flag.
1289:/home/user/Desktop/STM32-Projekte/FH-Vertibot/src/STM32F30x_StdPeriph_Driver/src/stm32f30x_spi.c ****   *     @arg SPI_I2S_FLAG_BSY: Busy flag.
1290:/home/user/Desktop/STM32-Projekte/FH-Vertibot/src/STM32F30x_StdPeriph_Driver/src/stm32f30x_spi.c ****   *     @arg SPI_I2S_FLAG_OVR: Overrun flag.
1291:/home/user/Desktop/STM32-Projekte/FH-Vertibot/src/STM32F30x_StdPeriph_Driver/src/stm32f30x_spi.c ****   *     @arg SPI_I2S_FLAG_MODF: Mode Fault flag.
1292:/home/user/Desktop/STM32-Projekte/FH-Vertibot/src/STM32F30x_StdPeriph_Driver/src/stm32f30x_spi.c ****   *     @arg SPI_I2S_FLAG_CRCERR: CRC Error flag.
1293:/home/user/Desktop/STM32-Projekte/FH-Vertibot/src/STM32F30x_StdPeriph_Driver/src/stm32f30x_spi.c ****   *     @arg SPI_I2S_FLAG_FRE: TI frame format error flag.
1294:/home/user/Desktop/STM32-Projekte/FH-Vertibot/src/STM32F30x_StdPeriph_Driver/src/stm32f30x_spi.c ****   *     @arg I2S_FLAG_UDR: Underrun Error flag.
1295:/home/user/Desktop/STM32-Projekte/FH-Vertibot/src/STM32F30x_StdPeriph_Driver/src/stm32f30x_spi.c ****   *     @arg I2S_FLAG_CHSIDE: Channel Side flag.   
1296:/home/user/Desktop/STM32-Projekte/FH-Vertibot/src/STM32F30x_StdPeriph_Driver/src/stm32f30x_spi.c ****   * @retval The new state of SPI_I2S_FLAG (SET or RESET).
1297:/home/user/Desktop/STM32-Projekte/FH-Vertibot/src/STM32F30x_StdPeriph_Driver/src/stm32f30x_spi.c ****   */
1298:/home/user/Desktop/STM32-Projekte/FH-Vertibot/src/STM32F30x_StdPeriph_Driver/src/stm32f30x_spi.c **** FlagStatus SPI_I2S_GetFlagStatus(SPI_TypeDef* SPIx, uint16_t SPI_I2S_FLAG)
1299:/home/user/Desktop/STM32-Projekte/FH-Vertibot/src/STM32F30x_StdPeriph_Driver/src/stm32f30x_spi.c **** {
 1190              		.loc 1 1299 0
 1191              		.cfi_startproc
 1192              		@ args = 0, pretend = 0, frame = 0
 1193              		@ frame_needed = 0, uses_anonymous_args = 0
 1194              		@ link register save eliminated.
 1195              	.LVL102:
1300:/home/user/Desktop/STM32-Projekte/FH-Vertibot/src/STM32F30x_StdPeriph_Driver/src/stm32f30x_spi.c ****   FlagStatus bitstatus = RESET;
1301:/home/user/Desktop/STM32-Projekte/FH-Vertibot/src/STM32F30x_StdPeriph_Driver/src/stm32f30x_spi.c ****   /* Check the parameters */
1302:/home/user/Desktop/STM32-Projekte/FH-Vertibot/src/STM32F30x_StdPeriph_Driver/src/stm32f30x_spi.c ****   assert_param(IS_SPI_ALL_PERIPH_EXT(SPIx));
1303:/home/user/Desktop/STM32-Projekte/FH-Vertibot/src/STM32F30x_StdPeriph_Driver/src/stm32f30x_spi.c ****   assert_param(IS_SPI_I2S_GET_FLAG(SPI_I2S_FLAG));
1304:/home/user/Desktop/STM32-Projekte/FH-Vertibot/src/STM32F30x_StdPeriph_Driver/src/stm32f30x_spi.c **** 
1305:/home/user/Desktop/STM32-Projekte/FH-Vertibot/src/STM32F30x_StdPeriph_Driver/src/stm32f30x_spi.c ****   /* Check the status of the specified SPI flag */
1306:/home/user/Desktop/STM32-Projekte/FH-Vertibot/src/STM32F30x_StdPeriph_Driver/src/stm32f30x_spi.c ****   if ((SPIx->SR & SPI_I2S_FLAG) != (uint16_t)RESET)
 1196              		.loc 1 1306 0
 1197 0386 0389     		ldrh	r3, [r0, #8]
 1198              	.LVL103:
 1199 0388 1942     		tst	r1, r3
1307:/home/user/Desktop/STM32-Projekte/FH-Vertibot/src/STM32F30x_StdPeriph_Driver/src/stm32f30x_spi.c ****   {
1308:/home/user/Desktop/STM32-Projekte/FH-Vertibot/src/STM32F30x_StdPeriph_Driver/src/stm32f30x_spi.c ****     /* SPI_I2S_FLAG is set */
1309:/home/user/Desktop/STM32-Projekte/FH-Vertibot/src/STM32F30x_StdPeriph_Driver/src/stm32f30x_spi.c ****     bitstatus = SET;
1310:/home/user/Desktop/STM32-Projekte/FH-Vertibot/src/STM32F30x_StdPeriph_Driver/src/stm32f30x_spi.c ****   }
1311:/home/user/Desktop/STM32-Projekte/FH-Vertibot/src/STM32F30x_StdPeriph_Driver/src/stm32f30x_spi.c ****   else
1312:/home/user/Desktop/STM32-Projekte/FH-Vertibot/src/STM32F30x_StdPeriph_Driver/src/stm32f30x_spi.c ****   {
1313:/home/user/Desktop/STM32-Projekte/FH-Vertibot/src/STM32F30x_StdPeriph_Driver/src/stm32f30x_spi.c ****     /* SPI_I2S_FLAG is reset */
1314:/home/user/Desktop/STM32-Projekte/FH-Vertibot/src/STM32F30x_StdPeriph_Driver/src/stm32f30x_spi.c ****     bitstatus = RESET;
1315:/home/user/Desktop/STM32-Projekte/FH-Vertibot/src/STM32F30x_StdPeriph_Driver/src/stm32f30x_spi.c ****   }
1316:/home/user/Desktop/STM32-Projekte/FH-Vertibot/src/STM32F30x_StdPeriph_Driver/src/stm32f30x_spi.c ****   /* Return the SPI_I2S_FLAG status */
1317:/home/user/Desktop/STM32-Projekte/FH-Vertibot/src/STM32F30x_StdPeriph_Driver/src/stm32f30x_spi.c ****   return  bitstatus;
1318:/home/user/Desktop/STM32-Projekte/FH-Vertibot/src/STM32F30x_StdPeriph_Driver/src/stm32f30x_spi.c **** }
 1200              		.loc 1 1318 0
 1201 038a 0CBF     		ite	eq
 1202 038c 0020     		moveq	r0, #0
 1203 038e 0120     		movne	r0, #1
 1204              	.LVL104:
 1205 0390 7047     		bx	lr
 1206              		.cfi_endproc
 1207              	.LFE140:
 1209              		.align	1
 1210              		.global	SPI_I2S_ClearFlag
 1211              		.thumb
 1212              		.thumb_func
 1214              	SPI_I2S_ClearFlag:
 1215              	.LFB141:
1319:/home/user/Desktop/STM32-Projekte/FH-Vertibot/src/STM32F30x_StdPeriph_Driver/src/stm32f30x_spi.c **** 
1320:/home/user/Desktop/STM32-Projekte/FH-Vertibot/src/STM32F30x_StdPeriph_Driver/src/stm32f30x_spi.c **** /**
1321:/home/user/Desktop/STM32-Projekte/FH-Vertibot/src/STM32F30x_StdPeriph_Driver/src/stm32f30x_spi.c ****   * @brief  Clears the SPIx CRC Error (CRCERR) flag.
1322:/home/user/Desktop/STM32-Projekte/FH-Vertibot/src/STM32F30x_StdPeriph_Driver/src/stm32f30x_spi.c ****   * @param  SPIx: To select the SPIx/I2Sx peripheral, where x can be: 1, 2 or 3 
1323:/home/user/Desktop/STM32-Projekte/FH-Vertibot/src/STM32F30x_StdPeriph_Driver/src/stm32f30x_spi.c ****   *         in SPI mode or 2 or 3 in I2S mode or I2Sxext for I2S full duplex mode. 
1324:/home/user/Desktop/STM32-Projekte/FH-Vertibot/src/STM32F30x_StdPeriph_Driver/src/stm32f30x_spi.c ****   * @param  SPI_I2S_FLAG: specifies the SPI flag to clear. 
1325:/home/user/Desktop/STM32-Projekte/FH-Vertibot/src/STM32F30x_StdPeriph_Driver/src/stm32f30x_spi.c ****   *   This function clears only CRCERR flag.
1326:/home/user/Desktop/STM32-Projekte/FH-Vertibot/src/STM32F30x_StdPeriph_Driver/src/stm32f30x_spi.c ****   * @note OVR (OverRun error) flag is cleared by software sequence: a read 
1327:/home/user/Desktop/STM32-Projekte/FH-Vertibot/src/STM32F30x_StdPeriph_Driver/src/stm32f30x_spi.c ****   *       operation to SPI_DR register (SPI_I2S_ReceiveData()) followed by a read 
1328:/home/user/Desktop/STM32-Projekte/FH-Vertibot/src/STM32F30x_StdPeriph_Driver/src/stm32f30x_spi.c ****   *       operation to SPI_SR register (SPI_I2S_GetFlagStatus()).
1329:/home/user/Desktop/STM32-Projekte/FH-Vertibot/src/STM32F30x_StdPeriph_Driver/src/stm32f30x_spi.c ****   * @note MODF (Mode Fault) flag is cleared by software sequence: a read/write 
1330:/home/user/Desktop/STM32-Projekte/FH-Vertibot/src/STM32F30x_StdPeriph_Driver/src/stm32f30x_spi.c ****   *       operation to SPI_SR register (SPI_I2S_GetFlagStatus()) followed by a 
1331:/home/user/Desktop/STM32-Projekte/FH-Vertibot/src/STM32F30x_StdPeriph_Driver/src/stm32f30x_spi.c ****   *       write operation to SPI_CR1 register (SPI_Cmd() to enable the SPI).
1332:/home/user/Desktop/STM32-Projekte/FH-Vertibot/src/STM32F30x_StdPeriph_Driver/src/stm32f30x_spi.c ****   * @retval None
1333:/home/user/Desktop/STM32-Projekte/FH-Vertibot/src/STM32F30x_StdPeriph_Driver/src/stm32f30x_spi.c ****   */
1334:/home/user/Desktop/STM32-Projekte/FH-Vertibot/src/STM32F30x_StdPeriph_Driver/src/stm32f30x_spi.c **** void SPI_I2S_ClearFlag(SPI_TypeDef* SPIx, uint16_t SPI_I2S_FLAG)
1335:/home/user/Desktop/STM32-Projekte/FH-Vertibot/src/STM32F30x_StdPeriph_Driver/src/stm32f30x_spi.c **** {
 1216              		.loc 1 1335 0
 1217              		.cfi_startproc
 1218              		@ args = 0, pretend = 0, frame = 0
 1219              		@ frame_needed = 0, uses_anonymous_args = 0
 1220              		@ link register save eliminated.
 1221              	.LVL105:
1336:/home/user/Desktop/STM32-Projekte/FH-Vertibot/src/STM32F30x_StdPeriph_Driver/src/stm32f30x_spi.c ****   /* Check the parameters */
1337:/home/user/Desktop/STM32-Projekte/FH-Vertibot/src/STM32F30x_StdPeriph_Driver/src/stm32f30x_spi.c ****   assert_param(IS_SPI_ALL_PERIPH_EXT(SPIx));
1338:/home/user/Desktop/STM32-Projekte/FH-Vertibot/src/STM32F30x_StdPeriph_Driver/src/stm32f30x_spi.c ****   assert_param(IS_SPI_CLEAR_FLAG(SPI_I2S_FLAG));
1339:/home/user/Desktop/STM32-Projekte/FH-Vertibot/src/STM32F30x_StdPeriph_Driver/src/stm32f30x_spi.c **** 
1340:/home/user/Desktop/STM32-Projekte/FH-Vertibot/src/STM32F30x_StdPeriph_Driver/src/stm32f30x_spi.c ****   /* Clear the selected SPI CRC Error (CRCERR) flag */
1341:/home/user/Desktop/STM32-Projekte/FH-Vertibot/src/STM32F30x_StdPeriph_Driver/src/stm32f30x_spi.c ****   SPIx->SR = (uint16_t)~SPI_I2S_FLAG;
 1222              		.loc 1 1341 0
 1223 0392 C943     		mvns	r1, r1
 1224              	.LVL106:
 1225 0394 0181     		strh	r1, [r0, #8]	@ movhi
 1226 0396 7047     		bx	lr
 1227              		.cfi_endproc
 1228              	.LFE141:
 1230              		.align	1
 1231              		.global	SPI_I2S_GetITStatus
 1232              		.thumb
 1233              		.thumb_func
 1235              	SPI_I2S_GetITStatus:
 1236              	.LFB142:
1342:/home/user/Desktop/STM32-Projekte/FH-Vertibot/src/STM32F30x_StdPeriph_Driver/src/stm32f30x_spi.c **** }
1343:/home/user/Desktop/STM32-Projekte/FH-Vertibot/src/STM32F30x_StdPeriph_Driver/src/stm32f30x_spi.c **** 
1344:/home/user/Desktop/STM32-Projekte/FH-Vertibot/src/STM32F30x_StdPeriph_Driver/src/stm32f30x_spi.c **** /**
1345:/home/user/Desktop/STM32-Projekte/FH-Vertibot/src/STM32F30x_StdPeriph_Driver/src/stm32f30x_spi.c ****   * @brief  Checks whether the specified SPI/I2S interrupt has occurred or not.
1346:/home/user/Desktop/STM32-Projekte/FH-Vertibot/src/STM32F30x_StdPeriph_Driver/src/stm32f30x_spi.c ****   * @param  SPIx: To select the SPIx/I2Sx peripheral, where x can be: 1, 2 or 3 
1347:/home/user/Desktop/STM32-Projekte/FH-Vertibot/src/STM32F30x_StdPeriph_Driver/src/stm32f30x_spi.c ****   *         in SPI mode or 2 or 3 in I2S mode or I2Sxext for I2S full duplex mode.  
1348:/home/user/Desktop/STM32-Projekte/FH-Vertibot/src/STM32F30x_StdPeriph_Driver/src/stm32f30x_spi.c ****   * @param  SPI_I2S_IT: specifies the SPI interrupt source to check. 
1349:/home/user/Desktop/STM32-Projekte/FH-Vertibot/src/STM32F30x_StdPeriph_Driver/src/stm32f30x_spi.c ****   *   This parameter can be one of the following values:
1350:/home/user/Desktop/STM32-Projekte/FH-Vertibot/src/STM32F30x_StdPeriph_Driver/src/stm32f30x_spi.c ****   *     @arg SPI_I2S_IT_TXE: Transmit buffer empty interrupt.
