   1              		.syntax unified
   2              		.cpu cortex-m3
   3              		.fpu softvfp
   4              		.eabi_attribute 20, 1
   5              		.eabi_attribute 21, 1
   6              		.eabi_attribute 23, 3
   7              		.eabi_attribute 24, 1
   8              		.eabi_attribute 25, 1
   9              		.eabi_attribute 26, 1
  10              		.eabi_attribute 30, 4
  11              		.eabi_attribute 34, 1
  12              		.eabi_attribute 18, 4
  13              		.thumb
  14              		.file	"stm32f30x_usart.c"
  15              		.text
  16              	.Ltext0:
  17              		.cfi_sections	.debug_frame
  18              		.align	1
  19              		.global	USART_DeInit
  20              		.thumb
  21              		.thumb_func
  23              	USART_DeInit:
  24              	.LFB111:
  25              		.file 1 "/home/user/Desktop/STM32-Projekte/FH-Vertibot/src/STM32F30x_StdPeriph_Driver/src/stm32f30
   1:/home/user/Desktop/STM32-Projekte/FH-Vertibot/src/STM32F30x_StdPeriph_Driver/src/stm32f30x_usart.c **** /**
   2:/home/user/Desktop/STM32-Projekte/FH-Vertibot/src/STM32F30x_StdPeriph_Driver/src/stm32f30x_usart.c ****   ******************************************************************************
   3:/home/user/Desktop/STM32-Projekte/FH-Vertibot/src/STM32F30x_StdPeriph_Driver/src/stm32f30x_usart.c ****   * @file    stm32f30x_usart.c
   4:/home/user/Desktop/STM32-Projekte/FH-Vertibot/src/STM32F30x_StdPeriph_Driver/src/stm32f30x_usart.c ****   * @author  MCD Application Team
   5:/home/user/Desktop/STM32-Projekte/FH-Vertibot/src/STM32F30x_StdPeriph_Driver/src/stm32f30x_usart.c ****   * @version V1.0.1
   6:/home/user/Desktop/STM32-Projekte/FH-Vertibot/src/STM32F30x_StdPeriph_Driver/src/stm32f30x_usart.c ****   * @date    23-October-2012
   7:/home/user/Desktop/STM32-Projekte/FH-Vertibot/src/STM32F30x_StdPeriph_Driver/src/stm32f30x_usart.c ****   * @brief   This file provides firmware functions to manage the following
   8:/home/user/Desktop/STM32-Projekte/FH-Vertibot/src/STM32F30x_StdPeriph_Driver/src/stm32f30x_usart.c ****   *          functionalities of the Universal synchronous asynchronous receiver
   9:/home/user/Desktop/STM32-Projekte/FH-Vertibot/src/STM32F30x_StdPeriph_Driver/src/stm32f30x_usart.c ****   *          transmitter (USART):
  10:/home/user/Desktop/STM32-Projekte/FH-Vertibot/src/STM32F30x_StdPeriph_Driver/src/stm32f30x_usart.c ****   *           + Initialization and Configuration
  11:/home/user/Desktop/STM32-Projekte/FH-Vertibot/src/STM32F30x_StdPeriph_Driver/src/stm32f30x_usart.c ****   *           + STOP Mode
  12:/home/user/Desktop/STM32-Projekte/FH-Vertibot/src/STM32F30x_StdPeriph_Driver/src/stm32f30x_usart.c ****   *           + AutoBaudRate
  13:/home/user/Desktop/STM32-Projekte/FH-Vertibot/src/STM32F30x_StdPeriph_Driver/src/stm32f30x_usart.c ****   *           + Data transfers
  14:/home/user/Desktop/STM32-Projekte/FH-Vertibot/src/STM32F30x_StdPeriph_Driver/src/stm32f30x_usart.c ****   *           + Multi-Processor Communication
  15:/home/user/Desktop/STM32-Projekte/FH-Vertibot/src/STM32F30x_StdPeriph_Driver/src/stm32f30x_usart.c ****   *           + LIN mode
  16:/home/user/Desktop/STM32-Projekte/FH-Vertibot/src/STM32F30x_StdPeriph_Driver/src/stm32f30x_usart.c ****   *           + Half-duplex mode
  17:/home/user/Desktop/STM32-Projekte/FH-Vertibot/src/STM32F30x_StdPeriph_Driver/src/stm32f30x_usart.c ****   *           + Smartcard mode
  18:/home/user/Desktop/STM32-Projekte/FH-Vertibot/src/STM32F30x_StdPeriph_Driver/src/stm32f30x_usart.c ****   *           + IrDA mode
  19:/home/user/Desktop/STM32-Projekte/FH-Vertibot/src/STM32F30x_StdPeriph_Driver/src/stm32f30x_usart.c ****   *           + RS485 mode  
  20:/home/user/Desktop/STM32-Projekte/FH-Vertibot/src/STM32F30x_StdPeriph_Driver/src/stm32f30x_usart.c ****   *           + DMA transfers management
  21:/home/user/Desktop/STM32-Projekte/FH-Vertibot/src/STM32F30x_StdPeriph_Driver/src/stm32f30x_usart.c ****   *           + Interrupts and flags management
  22:/home/user/Desktop/STM32-Projekte/FH-Vertibot/src/STM32F30x_StdPeriph_Driver/src/stm32f30x_usart.c ****   *           
  23:/home/user/Desktop/STM32-Projekte/FH-Vertibot/src/STM32F30x_StdPeriph_Driver/src/stm32f30x_usart.c ****   *  @verbatim  
  24:/home/user/Desktop/STM32-Projekte/FH-Vertibot/src/STM32F30x_StdPeriph_Driver/src/stm32f30x_usart.c ****  ===============================================================================
  25:/home/user/Desktop/STM32-Projekte/FH-Vertibot/src/STM32F30x_StdPeriph_Driver/src/stm32f30x_usart.c ****                       ##### How to use this driver #####
  26:/home/user/Desktop/STM32-Projekte/FH-Vertibot/src/STM32F30x_StdPeriph_Driver/src/stm32f30x_usart.c ****  ===============================================================================
  27:/home/user/Desktop/STM32-Projekte/FH-Vertibot/src/STM32F30x_StdPeriph_Driver/src/stm32f30x_usart.c ****       [..]
  28:/home/user/Desktop/STM32-Projekte/FH-Vertibot/src/STM32F30x_StdPeriph_Driver/src/stm32f30x_usart.c ****           (#) Enable peripheral clock using RCC_APB2PeriphClockCmd(RCC_APB2Periph_USART1, ENABLE)
  29:/home/user/Desktop/STM32-Projekte/FH-Vertibot/src/STM32F30x_StdPeriph_Driver/src/stm32f30x_usart.c ****              function for USART1 or using RCC_APB1PeriphClockCmd(RCC_APB1Periph_USARTx, ENABLE)
  30:/home/user/Desktop/STM32-Projekte/FH-Vertibot/src/STM32F30x_StdPeriph_Driver/src/stm32f30x_usart.c ****              function for USART2, USART3, UART4 and UART5.
  31:/home/user/Desktop/STM32-Projekte/FH-Vertibot/src/STM32F30x_StdPeriph_Driver/src/stm32f30x_usart.c ****           (#)  According to the USART mode, enable the GPIO clocks using
  32:/home/user/Desktop/STM32-Projekte/FH-Vertibot/src/STM32F30x_StdPeriph_Driver/src/stm32f30x_usart.c ****               RCC_AHBPeriphClockCmd() function. (The I/O can be TX, RX, CTS,
  33:/home/user/Desktop/STM32-Projekte/FH-Vertibot/src/STM32F30x_StdPeriph_Driver/src/stm32f30x_usart.c ****               or and SCLK).
  34:/home/user/Desktop/STM32-Projekte/FH-Vertibot/src/STM32F30x_StdPeriph_Driver/src/stm32f30x_usart.c ****           (#) Peripheral's alternate function:
  35:/home/user/Desktop/STM32-Projekte/FH-Vertibot/src/STM32F30x_StdPeriph_Driver/src/stm32f30x_usart.c ****               (++) Connect the pin to the desired peripherals' Alternate
  36:/home/user/Desktop/STM32-Projekte/FH-Vertibot/src/STM32F30x_StdPeriph_Driver/src/stm32f30x_usart.c ****                    Function (AF) using GPIO_PinAFConfig() function.
  37:/home/user/Desktop/STM32-Projekte/FH-Vertibot/src/STM32F30x_StdPeriph_Driver/src/stm32f30x_usart.c ****               (++) Configure the desired pin in alternate function by:
  38:/home/user/Desktop/STM32-Projekte/FH-Vertibot/src/STM32F30x_StdPeriph_Driver/src/stm32f30x_usart.c ****                    GPIO_InitStruct->GPIO_Mode = GPIO_Mode_AF.
  39:/home/user/Desktop/STM32-Projekte/FH-Vertibot/src/STM32F30x_StdPeriph_Driver/src/stm32f30x_usart.c ****               (++) Select the type, pull-up/pull-down and output speed via
  40:/home/user/Desktop/STM32-Projekte/FH-Vertibot/src/STM32F30x_StdPeriph_Driver/src/stm32f30x_usart.c ****                    GPIO_PuPd, GPIO_OType and GPIO_Speed members.
  41:/home/user/Desktop/STM32-Projekte/FH-Vertibot/src/STM32F30x_StdPeriph_Driver/src/stm32f30x_usart.c ****               (++) Call GPIO_Init() function.
  42:/home/user/Desktop/STM32-Projekte/FH-Vertibot/src/STM32F30x_StdPeriph_Driver/src/stm32f30x_usart.c ****           (#) Program the Baud Rate, Word Length , Stop Bit, Parity, Hardware
  43:/home/user/Desktop/STM32-Projekte/FH-Vertibot/src/STM32F30x_StdPeriph_Driver/src/stm32f30x_usart.c ****              flow control and Mode(Receiver/Transmitter) using the SPI_Init()
  44:/home/user/Desktop/STM32-Projekte/FH-Vertibot/src/STM32F30x_StdPeriph_Driver/src/stm32f30x_usart.c ****              function.
  45:/home/user/Desktop/STM32-Projekte/FH-Vertibot/src/STM32F30x_StdPeriph_Driver/src/stm32f30x_usart.c ****           (#) For synchronous mode, enable the clock and program the polarity,
  46:/home/user/Desktop/STM32-Projekte/FH-Vertibot/src/STM32F30x_StdPeriph_Driver/src/stm32f30x_usart.c ****              phase and last bit using the USART_ClockInit() function.
  47:/home/user/Desktop/STM32-Projekte/FH-Vertibot/src/STM32F30x_StdPeriph_Driver/src/stm32f30x_usart.c ****           (#) Enable the NVIC and the corresponding interrupt using the function
  48:/home/user/Desktop/STM32-Projekte/FH-Vertibot/src/STM32F30x_StdPeriph_Driver/src/stm32f30x_usart.c ****              USART_ITConfig() if you need to use interrupt mode.
  49:/home/user/Desktop/STM32-Projekte/FH-Vertibot/src/STM32F30x_StdPeriph_Driver/src/stm32f30x_usart.c ****           (#) When using the DMA mode:
  50:/home/user/Desktop/STM32-Projekte/FH-Vertibot/src/STM32F30x_StdPeriph_Driver/src/stm32f30x_usart.c ****               (++) Configure the DMA using DMA_Init() function.
  51:/home/user/Desktop/STM32-Projekte/FH-Vertibot/src/STM32F30x_StdPeriph_Driver/src/stm32f30x_usart.c ****               (++) Active the needed channel Request using USART_DMACmd() function.
  52:/home/user/Desktop/STM32-Projekte/FH-Vertibot/src/STM32F30x_StdPeriph_Driver/src/stm32f30x_usart.c ****           (#) Enable the USART using the USART_Cmd() function.
  53:/home/user/Desktop/STM32-Projekte/FH-Vertibot/src/STM32F30x_StdPeriph_Driver/src/stm32f30x_usart.c ****           (#) Enable the DMA using the DMA_Cmd() function, when using DMA mode.
  54:/home/user/Desktop/STM32-Projekte/FH-Vertibot/src/STM32F30x_StdPeriph_Driver/src/stm32f30x_usart.c ****       [..]
  55:/home/user/Desktop/STM32-Projekte/FH-Vertibot/src/STM32F30x_StdPeriph_Driver/src/stm32f30x_usart.c ****               Refer to Multi-Processor, LIN, half-duplex, Smartcard, IrDA sub-sections
  56:/home/user/Desktop/STM32-Projekte/FH-Vertibot/src/STM32F30x_StdPeriph_Driver/src/stm32f30x_usart.c ****               for more details.
  57:/home/user/Desktop/STM32-Projekte/FH-Vertibot/src/STM32F30x_StdPeriph_Driver/src/stm32f30x_usart.c **** 
  58:/home/user/Desktop/STM32-Projekte/FH-Vertibot/src/STM32F30x_StdPeriph_Driver/src/stm32f30x_usart.c ****    @endverbatim
  59:/home/user/Desktop/STM32-Projekte/FH-Vertibot/src/STM32F30x_StdPeriph_Driver/src/stm32f30x_usart.c **** 
  60:/home/user/Desktop/STM32-Projekte/FH-Vertibot/src/STM32F30x_StdPeriph_Driver/src/stm32f30x_usart.c ****   ******************************************************************************
  61:/home/user/Desktop/STM32-Projekte/FH-Vertibot/src/STM32F30x_StdPeriph_Driver/src/stm32f30x_usart.c ****   * @attention
  62:/home/user/Desktop/STM32-Projekte/FH-Vertibot/src/STM32F30x_StdPeriph_Driver/src/stm32f30x_usart.c ****   *
  63:/home/user/Desktop/STM32-Projekte/FH-Vertibot/src/STM32F30x_StdPeriph_Driver/src/stm32f30x_usart.c ****   * <h2><center>&copy; COPYRIGHT 2012 STMicroelectronics</center></h2>
  64:/home/user/Desktop/STM32-Projekte/FH-Vertibot/src/STM32F30x_StdPeriph_Driver/src/stm32f30x_usart.c ****   *
  65:/home/user/Desktop/STM32-Projekte/FH-Vertibot/src/STM32F30x_StdPeriph_Driver/src/stm32f30x_usart.c ****   * Licensed under MCD-ST Liberty SW License Agreement V2, (the "License");
  66:/home/user/Desktop/STM32-Projekte/FH-Vertibot/src/STM32F30x_StdPeriph_Driver/src/stm32f30x_usart.c ****   * You may not use this file except in compliance with the License.
  67:/home/user/Desktop/STM32-Projekte/FH-Vertibot/src/STM32F30x_StdPeriph_Driver/src/stm32f30x_usart.c ****   * You may obtain a copy of the License at:
  68:/home/user/Desktop/STM32-Projekte/FH-Vertibot/src/STM32F30x_StdPeriph_Driver/src/stm32f30x_usart.c ****   *
  69:/home/user/Desktop/STM32-Projekte/FH-Vertibot/src/STM32F30x_StdPeriph_Driver/src/stm32f30x_usart.c ****   *        http://www.st.com/software_license_agreement_liberty_v2
  70:/home/user/Desktop/STM32-Projekte/FH-Vertibot/src/STM32F30x_StdPeriph_Driver/src/stm32f30x_usart.c ****   *
  71:/home/user/Desktop/STM32-Projekte/FH-Vertibot/src/STM32F30x_StdPeriph_Driver/src/stm32f30x_usart.c ****   * Unless required by applicable law or agreed to in writing, software 
  72:/home/user/Desktop/STM32-Projekte/FH-Vertibot/src/STM32F30x_StdPeriph_Driver/src/stm32f30x_usart.c ****   * distributed under the License is distributed on an "AS IS" BASIS, 
  73:/home/user/Desktop/STM32-Projekte/FH-Vertibot/src/STM32F30x_StdPeriph_Driver/src/stm32f30x_usart.c ****   * WITHOUT WARRANTIES OR CONDITIONS OF ANY KIND, either express or implied.
  74:/home/user/Desktop/STM32-Projekte/FH-Vertibot/src/STM32F30x_StdPeriph_Driver/src/stm32f30x_usart.c ****   * See the License for the specific language governing permissions and
  75:/home/user/Desktop/STM32-Projekte/FH-Vertibot/src/STM32F30x_StdPeriph_Driver/src/stm32f30x_usart.c ****   * limitations under the License.
  76:/home/user/Desktop/STM32-Projekte/FH-Vertibot/src/STM32F30x_StdPeriph_Driver/src/stm32f30x_usart.c ****   *
  77:/home/user/Desktop/STM32-Projekte/FH-Vertibot/src/STM32F30x_StdPeriph_Driver/src/stm32f30x_usart.c ****   ******************************************************************************
  78:/home/user/Desktop/STM32-Projekte/FH-Vertibot/src/STM32F30x_StdPeriph_Driver/src/stm32f30x_usart.c ****   */
  79:/home/user/Desktop/STM32-Projekte/FH-Vertibot/src/STM32F30x_StdPeriph_Driver/src/stm32f30x_usart.c **** 
  80:/home/user/Desktop/STM32-Projekte/FH-Vertibot/src/STM32F30x_StdPeriph_Driver/src/stm32f30x_usart.c **** /* Includes ------------------------------------------------------------------*/
  81:/home/user/Desktop/STM32-Projekte/FH-Vertibot/src/STM32F30x_StdPeriph_Driver/src/stm32f30x_usart.c **** #include "stm32f30x_usart.h"
  82:/home/user/Desktop/STM32-Projekte/FH-Vertibot/src/STM32F30x_StdPeriph_Driver/src/stm32f30x_usart.c **** #include "stm32f30x_rcc.h"
  83:/home/user/Desktop/STM32-Projekte/FH-Vertibot/src/STM32F30x_StdPeriph_Driver/src/stm32f30x_usart.c **** 
  84:/home/user/Desktop/STM32-Projekte/FH-Vertibot/src/STM32F30x_StdPeriph_Driver/src/stm32f30x_usart.c **** /** @addtogroup STM32F30x_StdPeriph_Driver
  85:/home/user/Desktop/STM32-Projekte/FH-Vertibot/src/STM32F30x_StdPeriph_Driver/src/stm32f30x_usart.c ****   * @{
  86:/home/user/Desktop/STM32-Projekte/FH-Vertibot/src/STM32F30x_StdPeriph_Driver/src/stm32f30x_usart.c ****   */
  87:/home/user/Desktop/STM32-Projekte/FH-Vertibot/src/STM32F30x_StdPeriph_Driver/src/stm32f30x_usart.c **** 
  88:/home/user/Desktop/STM32-Projekte/FH-Vertibot/src/STM32F30x_StdPeriph_Driver/src/stm32f30x_usart.c **** /** @defgroup USART 
  89:/home/user/Desktop/STM32-Projekte/FH-Vertibot/src/STM32F30x_StdPeriph_Driver/src/stm32f30x_usart.c ****   * @brief USART driver modules
  90:/home/user/Desktop/STM32-Projekte/FH-Vertibot/src/STM32F30x_StdPeriph_Driver/src/stm32f30x_usart.c ****   * @{
  91:/home/user/Desktop/STM32-Projekte/FH-Vertibot/src/STM32F30x_StdPeriph_Driver/src/stm32f30x_usart.c ****   */
  92:/home/user/Desktop/STM32-Projekte/FH-Vertibot/src/STM32F30x_StdPeriph_Driver/src/stm32f30x_usart.c **** 
  93:/home/user/Desktop/STM32-Projekte/FH-Vertibot/src/STM32F30x_StdPeriph_Driver/src/stm32f30x_usart.c **** /* Private typedef -----------------------------------------------------------*/
  94:/home/user/Desktop/STM32-Projekte/FH-Vertibot/src/STM32F30x_StdPeriph_Driver/src/stm32f30x_usart.c **** /* Private define ------------------------------------------------------------*/
  95:/home/user/Desktop/STM32-Projekte/FH-Vertibot/src/STM32F30x_StdPeriph_Driver/src/stm32f30x_usart.c **** 
  96:/home/user/Desktop/STM32-Projekte/FH-Vertibot/src/STM32F30x_StdPeriph_Driver/src/stm32f30x_usart.c **** /*!< USART CR1 register clear Mask ((~(uint32_t)0xFFFFE6F3)) */
  97:/home/user/Desktop/STM32-Projekte/FH-Vertibot/src/STM32F30x_StdPeriph_Driver/src/stm32f30x_usart.c **** #define CR1_CLEAR_MASK            ((uint32_t)(USART_CR1_M | USART_CR1_PCE | \
  98:/home/user/Desktop/STM32-Projekte/FH-Vertibot/src/STM32F30x_StdPeriph_Driver/src/stm32f30x_usart.c ****                                               USART_CR1_PS | USART_CR1_TE | \
  99:/home/user/Desktop/STM32-Projekte/FH-Vertibot/src/STM32F30x_StdPeriph_Driver/src/stm32f30x_usart.c ****                                               USART_CR1_RE))
 100:/home/user/Desktop/STM32-Projekte/FH-Vertibot/src/STM32F30x_StdPeriph_Driver/src/stm32f30x_usart.c **** 
 101:/home/user/Desktop/STM32-Projekte/FH-Vertibot/src/STM32F30x_StdPeriph_Driver/src/stm32f30x_usart.c **** /*!< USART CR2 register clock bits clear Mask ((~(uint32_t)0xFFFFF0FF)) */
 102:/home/user/Desktop/STM32-Projekte/FH-Vertibot/src/STM32F30x_StdPeriph_Driver/src/stm32f30x_usart.c **** #define CR2_CLOCK_CLEAR_MASK      ((uint32_t)(USART_CR2_CLKEN | USART_CR2_CPOL | \
 103:/home/user/Desktop/STM32-Projekte/FH-Vertibot/src/STM32F30x_StdPeriph_Driver/src/stm32f30x_usart.c ****                                               USART_CR2_CPHA | USART_CR2_LBCL))
 104:/home/user/Desktop/STM32-Projekte/FH-Vertibot/src/STM32F30x_StdPeriph_Driver/src/stm32f30x_usart.c **** 
 105:/home/user/Desktop/STM32-Projekte/FH-Vertibot/src/STM32F30x_StdPeriph_Driver/src/stm32f30x_usart.c **** /*!< USART CR3 register clear Mask ((~(uint32_t)0xFFFFFCFF)) */
 106:/home/user/Desktop/STM32-Projekte/FH-Vertibot/src/STM32F30x_StdPeriph_Driver/src/stm32f30x_usart.c **** #define CR3_CLEAR_MASK            ((uint32_t)(USART_CR3_RTSE | USART_CR3_CTSE))
 107:/home/user/Desktop/STM32-Projekte/FH-Vertibot/src/STM32F30x_StdPeriph_Driver/src/stm32f30x_usart.c **** 
 108:/home/user/Desktop/STM32-Projekte/FH-Vertibot/src/STM32F30x_StdPeriph_Driver/src/stm32f30x_usart.c **** /*!< USART Interrupts mask */
 109:/home/user/Desktop/STM32-Projekte/FH-Vertibot/src/STM32F30x_StdPeriph_Driver/src/stm32f30x_usart.c **** #define IT_MASK                   ((uint32_t)0x000000FF)
 110:/home/user/Desktop/STM32-Projekte/FH-Vertibot/src/STM32F30x_StdPeriph_Driver/src/stm32f30x_usart.c **** 
 111:/home/user/Desktop/STM32-Projekte/FH-Vertibot/src/STM32F30x_StdPeriph_Driver/src/stm32f30x_usart.c **** /* Private macro -------------------------------------------------------------*/
 112:/home/user/Desktop/STM32-Projekte/FH-Vertibot/src/STM32F30x_StdPeriph_Driver/src/stm32f30x_usart.c **** /* Private variables ---------------------------------------------------------*/
 113:/home/user/Desktop/STM32-Projekte/FH-Vertibot/src/STM32F30x_StdPeriph_Driver/src/stm32f30x_usart.c **** /* Private function prototypes -----------------------------------------------*/
 114:/home/user/Desktop/STM32-Projekte/FH-Vertibot/src/STM32F30x_StdPeriph_Driver/src/stm32f30x_usart.c **** /* Private functions ---------------------------------------------------------*/
 115:/home/user/Desktop/STM32-Projekte/FH-Vertibot/src/STM32F30x_StdPeriph_Driver/src/stm32f30x_usart.c **** 
 116:/home/user/Desktop/STM32-Projekte/FH-Vertibot/src/STM32F30x_StdPeriph_Driver/src/stm32f30x_usart.c **** /** @defgroup USART_Private_Functions
 117:/home/user/Desktop/STM32-Projekte/FH-Vertibot/src/STM32F30x_StdPeriph_Driver/src/stm32f30x_usart.c ****   * @{
 118:/home/user/Desktop/STM32-Projekte/FH-Vertibot/src/STM32F30x_StdPeriph_Driver/src/stm32f30x_usart.c ****   */
 119:/home/user/Desktop/STM32-Projekte/FH-Vertibot/src/STM32F30x_StdPeriph_Driver/src/stm32f30x_usart.c **** 
 120:/home/user/Desktop/STM32-Projekte/FH-Vertibot/src/STM32F30x_StdPeriph_Driver/src/stm32f30x_usart.c **** /** @defgroup USART_Group1 Initialization and Configuration functions
 121:/home/user/Desktop/STM32-Projekte/FH-Vertibot/src/STM32F30x_StdPeriph_Driver/src/stm32f30x_usart.c ****  *  @brief   Initialization and Configuration functions 
 122:/home/user/Desktop/STM32-Projekte/FH-Vertibot/src/STM32F30x_StdPeriph_Driver/src/stm32f30x_usart.c ****  *
 123:/home/user/Desktop/STM32-Projekte/FH-Vertibot/src/STM32F30x_StdPeriph_Driver/src/stm32f30x_usart.c **** @verbatim 
 124:/home/user/Desktop/STM32-Projekte/FH-Vertibot/src/STM32F30x_StdPeriph_Driver/src/stm32f30x_usart.c ****  ===============================================================================
 125:/home/user/Desktop/STM32-Projekte/FH-Vertibot/src/STM32F30x_StdPeriph_Driver/src/stm32f30x_usart.c ****            ##### Initialization and Configuration functions #####
 126:/home/user/Desktop/STM32-Projekte/FH-Vertibot/src/STM32F30x_StdPeriph_Driver/src/stm32f30x_usart.c ****  ===============================================================================  
 127:/home/user/Desktop/STM32-Projekte/FH-Vertibot/src/STM32F30x_StdPeriph_Driver/src/stm32f30x_usart.c ****   [..]
 128:/home/user/Desktop/STM32-Projekte/FH-Vertibot/src/STM32F30x_StdPeriph_Driver/src/stm32f30x_usart.c ****       This subsection provides a set of functions allowing to initialize the USART 
 129:/home/user/Desktop/STM32-Projekte/FH-Vertibot/src/STM32F30x_StdPeriph_Driver/src/stm32f30x_usart.c ****       in asynchronous and in synchronous modes.
 130:/home/user/Desktop/STM32-Projekte/FH-Vertibot/src/STM32F30x_StdPeriph_Driver/src/stm32f30x_usart.c ****        (+) For the asynchronous mode only these parameters can be configured: 
 131:/home/user/Desktop/STM32-Projekte/FH-Vertibot/src/STM32F30x_StdPeriph_Driver/src/stm32f30x_usart.c ****             (++) Baud Rate.
 132:/home/user/Desktop/STM32-Projekte/FH-Vertibot/src/STM32F30x_StdPeriph_Driver/src/stm32f30x_usart.c ****             (++) Word Length. 
 133:/home/user/Desktop/STM32-Projekte/FH-Vertibot/src/STM32F30x_StdPeriph_Driver/src/stm32f30x_usart.c ****             (++) Stop Bit.
 134:/home/user/Desktop/STM32-Projekte/FH-Vertibot/src/STM32F30x_StdPeriph_Driver/src/stm32f30x_usart.c ****             (++) Parity: If the parity is enabled, then the MSB bit of the data written
 135:/home/user/Desktop/STM32-Projekte/FH-Vertibot/src/STM32F30x_StdPeriph_Driver/src/stm32f30x_usart.c ****                  in the data register is transmitted but is changed by the parity bit.
 136:/home/user/Desktop/STM32-Projekte/FH-Vertibot/src/STM32F30x_StdPeriph_Driver/src/stm32f30x_usart.c ****                  Depending on the frame length defined by the M bit (8-bits or 9-bits),
 137:/home/user/Desktop/STM32-Projekte/FH-Vertibot/src/STM32F30x_StdPeriph_Driver/src/stm32f30x_usart.c ****                  the possible USART frame formats are as listed in the following table:
 138:/home/user/Desktop/STM32-Projekte/FH-Vertibot/src/STM32F30x_StdPeriph_Driver/src/stm32f30x_usart.c ****     [..]
 139:/home/user/Desktop/STM32-Projekte/FH-Vertibot/src/STM32F30x_StdPeriph_Driver/src/stm32f30x_usart.c ****    +-------------------------------------------------------------+     
 140:/home/user/Desktop/STM32-Projekte/FH-Vertibot/src/STM32F30x_StdPeriph_Driver/src/stm32f30x_usart.c ****    |   M bit |  PCE bit  |            USART frame                |
 141:/home/user/Desktop/STM32-Projekte/FH-Vertibot/src/STM32F30x_StdPeriph_Driver/src/stm32f30x_usart.c ****    |---------------------|---------------------------------------|             
 142:/home/user/Desktop/STM32-Projekte/FH-Vertibot/src/STM32F30x_StdPeriph_Driver/src/stm32f30x_usart.c ****    |    0    |    0      |    | SB | 8 bit data | STB |          |
 143:/home/user/Desktop/STM32-Projekte/FH-Vertibot/src/STM32F30x_StdPeriph_Driver/src/stm32f30x_usart.c ****    |---------|-----------|---------------------------------------|  
 144:/home/user/Desktop/STM32-Projekte/FH-Vertibot/src/STM32F30x_StdPeriph_Driver/src/stm32f30x_usart.c ****    |    0    |    1      |    | SB | 7 bit data | PB | STB |     |
 145:/home/user/Desktop/STM32-Projekte/FH-Vertibot/src/STM32F30x_StdPeriph_Driver/src/stm32f30x_usart.c ****    |---------|-----------|---------------------------------------|  
 146:/home/user/Desktop/STM32-Projekte/FH-Vertibot/src/STM32F30x_StdPeriph_Driver/src/stm32f30x_usart.c ****    |    1    |    0      |    | SB | 9 bit data | STB |          |
 147:/home/user/Desktop/STM32-Projekte/FH-Vertibot/src/STM32F30x_StdPeriph_Driver/src/stm32f30x_usart.c ****    |---------|-----------|---------------------------------------|  
 148:/home/user/Desktop/STM32-Projekte/FH-Vertibot/src/STM32F30x_StdPeriph_Driver/src/stm32f30x_usart.c ****    |    1    |    1      |    | SB | 8 bit data | PB | STB |     |
 149:/home/user/Desktop/STM32-Projekte/FH-Vertibot/src/STM32F30x_StdPeriph_Driver/src/stm32f30x_usart.c ****    +-------------------------------------------------------------+            
 150:/home/user/Desktop/STM32-Projekte/FH-Vertibot/src/STM32F30x_StdPeriph_Driver/src/stm32f30x_usart.c ****     [..]
 151:/home/user/Desktop/STM32-Projekte/FH-Vertibot/src/STM32F30x_StdPeriph_Driver/src/stm32f30x_usart.c ****            (++) Hardware flow control.
 152:/home/user/Desktop/STM32-Projekte/FH-Vertibot/src/STM32F30x_StdPeriph_Driver/src/stm32f30x_usart.c ****            (++) Receiver/transmitter modes.
 153:/home/user/Desktop/STM32-Projekte/FH-Vertibot/src/STM32F30x_StdPeriph_Driver/src/stm32f30x_usart.c ****     [..] The USART_Init() function follows the USART  asynchronous configuration 
 154:/home/user/Desktop/STM32-Projekte/FH-Vertibot/src/STM32F30x_StdPeriph_Driver/src/stm32f30x_usart.c ****          procedure(details for the procedure are available in reference manual.
 155:/home/user/Desktop/STM32-Projekte/FH-Vertibot/src/STM32F30x_StdPeriph_Driver/src/stm32f30x_usart.c ****         (+) For the synchronous mode in addition to the asynchronous mode parameters
 156:/home/user/Desktop/STM32-Projekte/FH-Vertibot/src/STM32F30x_StdPeriph_Driver/src/stm32f30x_usart.c ****             these parameters should be also configured:
 157:/home/user/Desktop/STM32-Projekte/FH-Vertibot/src/STM32F30x_StdPeriph_Driver/src/stm32f30x_usart.c ****             (++) USART Clock Enabled.
 158:/home/user/Desktop/STM32-Projekte/FH-Vertibot/src/STM32F30x_StdPeriph_Driver/src/stm32f30x_usart.c ****             (++) USART polarity.
 159:/home/user/Desktop/STM32-Projekte/FH-Vertibot/src/STM32F30x_StdPeriph_Driver/src/stm32f30x_usart.c ****             (++) USART phase.
 160:/home/user/Desktop/STM32-Projekte/FH-Vertibot/src/STM32F30x_StdPeriph_Driver/src/stm32f30x_usart.c ****             (++) USART LastBit.
 161:/home/user/Desktop/STM32-Projekte/FH-Vertibot/src/STM32F30x_StdPeriph_Driver/src/stm32f30x_usart.c ****     [..] These parameters can be configured using the USART_ClockInit() function.
 162:/home/user/Desktop/STM32-Projekte/FH-Vertibot/src/STM32F30x_StdPeriph_Driver/src/stm32f30x_usart.c **** 
 163:/home/user/Desktop/STM32-Projekte/FH-Vertibot/src/STM32F30x_StdPeriph_Driver/src/stm32f30x_usart.c **** @endverbatim
 164:/home/user/Desktop/STM32-Projekte/FH-Vertibot/src/STM32F30x_StdPeriph_Driver/src/stm32f30x_usart.c ****   * @{
 165:/home/user/Desktop/STM32-Projekte/FH-Vertibot/src/STM32F30x_StdPeriph_Driver/src/stm32f30x_usart.c ****   */
 166:/home/user/Desktop/STM32-Projekte/FH-Vertibot/src/STM32F30x_StdPeriph_Driver/src/stm32f30x_usart.c ****   
 167:/home/user/Desktop/STM32-Projekte/FH-Vertibot/src/STM32F30x_StdPeriph_Driver/src/stm32f30x_usart.c **** /**
 168:/home/user/Desktop/STM32-Projekte/FH-Vertibot/src/STM32F30x_StdPeriph_Driver/src/stm32f30x_usart.c ****   * @brief  Deinitializes the USARTx peripheral registers to their default reset values.
 169:/home/user/Desktop/STM32-Projekte/FH-Vertibot/src/STM32F30x_StdPeriph_Driver/src/stm32f30x_usart.c ****   * @param  USARTx: Select the USART peripheral. This parameter can be one of the 
 170:/home/user/Desktop/STM32-Projekte/FH-Vertibot/src/STM32F30x_StdPeriph_Driver/src/stm32f30x_usart.c ****   *         following values: USART1 or USART2 or USART3 or UART4 or UART5.
 171:/home/user/Desktop/STM32-Projekte/FH-Vertibot/src/STM32F30x_StdPeriph_Driver/src/stm32f30x_usart.c ****   * @retval None
 172:/home/user/Desktop/STM32-Projekte/FH-Vertibot/src/STM32F30x_StdPeriph_Driver/src/stm32f30x_usart.c ****   */
 173:/home/user/Desktop/STM32-Projekte/FH-Vertibot/src/STM32F30x_StdPeriph_Driver/src/stm32f30x_usart.c **** void USART_DeInit(USART_TypeDef* USARTx)
 174:/home/user/Desktop/STM32-Projekte/FH-Vertibot/src/STM32F30x_StdPeriph_Driver/src/stm32f30x_usart.c **** {
  26              		.loc 1 174 0
  27              		.cfi_startproc
  28              		@ args = 0, pretend = 0, frame = 0
  29              		@ frame_needed = 0, uses_anonymous_args = 0
  30              	.LVL0:
  31 0000 08B5     		push	{r3, lr}
  32              	.LCFI0:
  33              		.cfi_def_cfa_offset 8
  34              		.cfi_offset 3, -8
  35              		.cfi_offset 14, -4
 175:/home/user/Desktop/STM32-Projekte/FH-Vertibot/src/STM32F30x_StdPeriph_Driver/src/stm32f30x_usart.c ****   /* Check the parameters */
 176:/home/user/Desktop/STM32-Projekte/FH-Vertibot/src/STM32F30x_StdPeriph_Driver/src/stm32f30x_usart.c ****   assert_param(IS_USART_ALL_PERIPH(USARTx));
 177:/home/user/Desktop/STM32-Projekte/FH-Vertibot/src/STM32F30x_StdPeriph_Driver/src/stm32f30x_usart.c **** 
 178:/home/user/Desktop/STM32-Projekte/FH-Vertibot/src/STM32F30x_StdPeriph_Driver/src/stm32f30x_usart.c ****   if (USARTx == USART1)
  36              		.loc 1 178 0
  37 0002 204B     		ldr	r3, .L8
  38 0004 9842     		cmp	r0, r3
  39 0006 0BD1     		bne	.L2
 179:/home/user/Desktop/STM32-Projekte/FH-Vertibot/src/STM32F30x_StdPeriph_Driver/src/stm32f30x_usart.c ****   {
 180:/home/user/Desktop/STM32-Projekte/FH-Vertibot/src/STM32F30x_StdPeriph_Driver/src/stm32f30x_usart.c ****     RCC_APB2PeriphResetCmd(RCC_APB2Periph_USART1, ENABLE);
  40              		.loc 1 180 0
  41 0008 0121     		movs	r1, #1
  42 000a 4FF48040 		mov	r0, #16384
  43              	.LVL1:
  44 000e FFF7FEFF 		bl	RCC_APB2PeriphResetCmd
  45              	.LVL2:
 181:/home/user/Desktop/STM32-Projekte/FH-Vertibot/src/STM32F30x_StdPeriph_Driver/src/stm32f30x_usart.c ****     RCC_APB2PeriphResetCmd(RCC_APB2Periph_USART1, DISABLE);
  46              		.loc 1 181 0
  47 0012 4FF48040 		mov	r0, #16384
  48 0016 0021     		movs	r1, #0
 182:/home/user/Desktop/STM32-Projekte/FH-Vertibot/src/STM32F30x_StdPeriph_Driver/src/stm32f30x_usart.c ****   }
 183:/home/user/Desktop/STM32-Projekte/FH-Vertibot/src/STM32F30x_StdPeriph_Driver/src/stm32f30x_usart.c ****   else if (USARTx == USART2)
 184:/home/user/Desktop/STM32-Projekte/FH-Vertibot/src/STM32F30x_StdPeriph_Driver/src/stm32f30x_usart.c ****   {
 185:/home/user/Desktop/STM32-Projekte/FH-Vertibot/src/STM32F30x_StdPeriph_Driver/src/stm32f30x_usart.c ****     RCC_APB1PeriphResetCmd(RCC_APB1Periph_USART2, ENABLE);
 186:/home/user/Desktop/STM32-Projekte/FH-Vertibot/src/STM32F30x_StdPeriph_Driver/src/stm32f30x_usart.c ****     RCC_APB1PeriphResetCmd(RCC_APB1Periph_USART2, DISABLE);
 187:/home/user/Desktop/STM32-Projekte/FH-Vertibot/src/STM32F30x_StdPeriph_Driver/src/stm32f30x_usart.c ****   }
 188:/home/user/Desktop/STM32-Projekte/FH-Vertibot/src/STM32F30x_StdPeriph_Driver/src/stm32f30x_usart.c ****   else if (USARTx == USART3)
 189:/home/user/Desktop/STM32-Projekte/FH-Vertibot/src/STM32F30x_StdPeriph_Driver/src/stm32f30x_usart.c ****   {
 190:/home/user/Desktop/STM32-Projekte/FH-Vertibot/src/STM32F30x_StdPeriph_Driver/src/stm32f30x_usart.c ****     RCC_APB1PeriphResetCmd(RCC_APB1Periph_USART3, ENABLE);
 191:/home/user/Desktop/STM32-Projekte/FH-Vertibot/src/STM32F30x_StdPeriph_Driver/src/stm32f30x_usart.c ****     RCC_APB1PeriphResetCmd(RCC_APB1Periph_USART3, DISABLE);
 192:/home/user/Desktop/STM32-Projekte/FH-Vertibot/src/STM32F30x_StdPeriph_Driver/src/stm32f30x_usart.c ****   }
 193:/home/user/Desktop/STM32-Projekte/FH-Vertibot/src/STM32F30x_StdPeriph_Driver/src/stm32f30x_usart.c ****   else if (USARTx == UART4)
 194:/home/user/Desktop/STM32-Projekte/FH-Vertibot/src/STM32F30x_StdPeriph_Driver/src/stm32f30x_usart.c ****   {
 195:/home/user/Desktop/STM32-Projekte/FH-Vertibot/src/STM32F30x_StdPeriph_Driver/src/stm32f30x_usart.c ****     RCC_APB1PeriphResetCmd(RCC_APB1Periph_UART4, ENABLE);
 196:/home/user/Desktop/STM32-Projekte/FH-Vertibot/src/STM32F30x_StdPeriph_Driver/src/stm32f30x_usart.c ****     RCC_APB1PeriphResetCmd(RCC_APB1Periph_UART4, DISABLE);
 197:/home/user/Desktop/STM32-Projekte/FH-Vertibot/src/STM32F30x_StdPeriph_Driver/src/stm32f30x_usart.c ****   }
 198:/home/user/Desktop/STM32-Projekte/FH-Vertibot/src/STM32F30x_StdPeriph_Driver/src/stm32f30x_usart.c ****   else
 199:/home/user/Desktop/STM32-Projekte/FH-Vertibot/src/STM32F30x_StdPeriph_Driver/src/stm32f30x_usart.c ****   {
 200:/home/user/Desktop/STM32-Projekte/FH-Vertibot/src/STM32F30x_StdPeriph_Driver/src/stm32f30x_usart.c ****     if  (USARTx == UART5)
 201:/home/user/Desktop/STM32-Projekte/FH-Vertibot/src/STM32F30x_StdPeriph_Driver/src/stm32f30x_usart.c ****     {
 202:/home/user/Desktop/STM32-Projekte/FH-Vertibot/src/STM32F30x_StdPeriph_Driver/src/stm32f30x_usart.c ****       RCC_APB1PeriphResetCmd(RCC_APB1Periph_UART5, ENABLE);
 203:/home/user/Desktop/STM32-Projekte/FH-Vertibot/src/STM32F30x_StdPeriph_Driver/src/stm32f30x_usart.c ****       RCC_APB1PeriphResetCmd(RCC_APB1Periph_UART5, DISABLE);
 204:/home/user/Desktop/STM32-Projekte/FH-Vertibot/src/STM32F30x_StdPeriph_Driver/src/stm32f30x_usart.c ****     }
 205:/home/user/Desktop/STM32-Projekte/FH-Vertibot/src/STM32F30x_StdPeriph_Driver/src/stm32f30x_usart.c ****   }
 206:/home/user/Desktop/STM32-Projekte/FH-Vertibot/src/STM32F30x_StdPeriph_Driver/src/stm32f30x_usart.c **** }
  49              		.loc 1 206 0
  50 0018 BDE80840 		pop	{r3, lr}
 181:/home/user/Desktop/STM32-Projekte/FH-Vertibot/src/STM32F30x_StdPeriph_Driver/src/stm32f30x_usart.c ****     RCC_APB2PeriphResetCmd(RCC_APB2Periph_USART1, DISABLE);
  51              		.loc 1 181 0
  52 001c FFF7FEBF 		b	RCC_APB2PeriphResetCmd
  53              	.LVL3:
  54              	.L2:
 183:/home/user/Desktop/STM32-Projekte/FH-Vertibot/src/STM32F30x_StdPeriph_Driver/src/stm32f30x_usart.c ****   else if (USARTx == USART2)
  55              		.loc 1 183 0
  56 0020 194B     		ldr	r3, .L8+4
  57 0022 9842     		cmp	r0, r3
  58 0024 07D1     		bne	.L3
 185:/home/user/Desktop/STM32-Projekte/FH-Vertibot/src/STM32F30x_StdPeriph_Driver/src/stm32f30x_usart.c ****     RCC_APB1PeriphResetCmd(RCC_APB1Periph_USART2, ENABLE);
  59              		.loc 1 185 0
  60 0026 4FF40030 		mov	r0, #131072
  61              	.LVL4:
  62 002a 0121     		movs	r1, #1
  63 002c FFF7FEFF 		bl	RCC_APB1PeriphResetCmd
  64              	.LVL5:
 186:/home/user/Desktop/STM32-Projekte/FH-Vertibot/src/STM32F30x_StdPeriph_Driver/src/stm32f30x_usart.c ****     RCC_APB1PeriphResetCmd(RCC_APB1Periph_USART2, DISABLE);
  65              		.loc 1 186 0
  66 0030 4FF40030 		mov	r0, #131072
  67 0034 1FE0     		b	.L7
  68              	.LVL6:
  69              	.L3:
 188:/home/user/Desktop/STM32-Projekte/FH-Vertibot/src/STM32F30x_StdPeriph_Driver/src/stm32f30x_usart.c ****   else if (USARTx == USART3)
  70              		.loc 1 188 0
  71 0036 154B     		ldr	r3, .L8+8
  72 0038 9842     		cmp	r0, r3
  73 003a 07D1     		bne	.L4
 190:/home/user/Desktop/STM32-Projekte/FH-Vertibot/src/STM32F30x_StdPeriph_Driver/src/stm32f30x_usart.c ****     RCC_APB1PeriphResetCmd(RCC_APB1Periph_USART3, ENABLE);
  74              		.loc 1 190 0
  75 003c 4FF48020 		mov	r0, #262144
  76              	.LVL7:
  77 0040 0121     		movs	r1, #1
  78 0042 FFF7FEFF 		bl	RCC_APB1PeriphResetCmd
  79              	.LVL8:
 191:/home/user/Desktop/STM32-Projekte/FH-Vertibot/src/STM32F30x_StdPeriph_Driver/src/stm32f30x_usart.c ****     RCC_APB1PeriphResetCmd(RCC_APB1Periph_USART3, DISABLE);
  80              		.loc 1 191 0
  81 0046 4FF48020 		mov	r0, #262144
  82 004a 14E0     		b	.L7
  83              	.LVL9:
  84              	.L4:
 193:/home/user/Desktop/STM32-Projekte/FH-Vertibot/src/STM32F30x_StdPeriph_Driver/src/stm32f30x_usart.c ****   else if (USARTx == UART4)
  85              		.loc 1 193 0
  86 004c 104B     		ldr	r3, .L8+12
  87 004e 9842     		cmp	r0, r3
  88 0050 07D1     		bne	.L5
 195:/home/user/Desktop/STM32-Projekte/FH-Vertibot/src/STM32F30x_StdPeriph_Driver/src/stm32f30x_usart.c ****     RCC_APB1PeriphResetCmd(RCC_APB1Periph_UART4, ENABLE);
  89              		.loc 1 195 0
  90 0052 4FF40020 		mov	r0, #524288
  91              	.LVL10:
  92 0056 0121     		movs	r1, #1
  93 0058 FFF7FEFF 		bl	RCC_APB1PeriphResetCmd
  94              	.LVL11:
 196:/home/user/Desktop/STM32-Projekte/FH-Vertibot/src/STM32F30x_StdPeriph_Driver/src/stm32f30x_usart.c ****     RCC_APB1PeriphResetCmd(RCC_APB1Periph_UART4, DISABLE);
  95              		.loc 1 196 0
  96 005c 4FF40020 		mov	r0, #524288
  97 0060 09E0     		b	.L7
  98              	.LVL12:
  99              	.L5:
 200:/home/user/Desktop/STM32-Projekte/FH-Vertibot/src/STM32F30x_StdPeriph_Driver/src/stm32f30x_usart.c ****     if  (USARTx == UART5)
 100              		.loc 1 200 0
 101 0062 0C4B     		ldr	r3, .L8+16
 102 0064 9842     		cmp	r0, r3
 103 0066 0BD1     		bne	.L1
 202:/home/user/Desktop/STM32-Projekte/FH-Vertibot/src/STM32F30x_StdPeriph_Driver/src/stm32f30x_usart.c ****       RCC_APB1PeriphResetCmd(RCC_APB1Periph_UART5, ENABLE);
 104              		.loc 1 202 0
 105 0068 4FF48010 		mov	r0, #1048576
 106              	.LVL13:
 107 006c 0121     		movs	r1, #1
 108 006e FFF7FEFF 		bl	RCC_APB1PeriphResetCmd
 109              	.LVL14:
 203:/home/user/Desktop/STM32-Projekte/FH-Vertibot/src/STM32F30x_StdPeriph_Driver/src/stm32f30x_usart.c ****       RCC_APB1PeriphResetCmd(RCC_APB1Periph_UART5, DISABLE);
 110              		.loc 1 203 0
 111 0072 4FF48010 		mov	r0, #1048576
 112              	.L7:
 113 0076 0021     		movs	r1, #0
 114              		.loc 1 206 0
 115 0078 BDE80840 		pop	{r3, lr}
 203:/home/user/Desktop/STM32-Projekte/FH-Vertibot/src/STM32F30x_StdPeriph_Driver/src/stm32f30x_usart.c ****       RCC_APB1PeriphResetCmd(RCC_APB1Periph_UART5, DISABLE);
 116              		.loc 1 203 0
 117 007c FFF7FEBF 		b	RCC_APB1PeriphResetCmd
 118              	.LVL15:
 119              	.L1:
 120 0080 08BD     		pop	{r3, pc}
 121              	.L9:
 122 0082 00BF     		.align	2
 123              	.L8:
 124 0084 00380140 		.word	1073821696
 125 0088 00440040 		.word	1073759232
 126 008c 00480040 		.word	1073760256
 127 0090 004C0040 		.word	1073761280
 128 0094 00500040 		.word	1073762304
 129              		.cfi_endproc
 130              	.LFE111:
 132              		.align	1
 133              		.global	USART_Init
 134              		.thumb
 135              		.thumb_func
 137              	USART_Init:
 138              	.LFB112:
 207:/home/user/Desktop/STM32-Projekte/FH-Vertibot/src/STM32F30x_StdPeriph_Driver/src/stm32f30x_usart.c **** 
 208:/home/user/Desktop/STM32-Projekte/FH-Vertibot/src/STM32F30x_StdPeriph_Driver/src/stm32f30x_usart.c **** /**
 209:/home/user/Desktop/STM32-Projekte/FH-Vertibot/src/STM32F30x_StdPeriph_Driver/src/stm32f30x_usart.c ****   * @brief  Initializes the USARTx peripheral according to the specified
 210:/home/user/Desktop/STM32-Projekte/FH-Vertibot/src/STM32F30x_StdPeriph_Driver/src/stm32f30x_usart.c ****   *         parameters in the USART_InitStruct .
 211:/home/user/Desktop/STM32-Projekte/FH-Vertibot/src/STM32F30x_StdPeriph_Driver/src/stm32f30x_usart.c ****   * @param  USARTx: Select the USART peripheral. This parameter can be one of the 
 212:/home/user/Desktop/STM32-Projekte/FH-Vertibot/src/STM32F30x_StdPeriph_Driver/src/stm32f30x_usart.c ****   *         following values: USART1 or USART2 or USART3 or UART4 or UART5.
 213:/home/user/Desktop/STM32-Projekte/FH-Vertibot/src/STM32F30x_StdPeriph_Driver/src/stm32f30x_usart.c ****   * @param  USART_InitStruct: pointer to a USART_InitTypeDef structure
 214:/home/user/Desktop/STM32-Projekte/FH-Vertibot/src/STM32F30x_StdPeriph_Driver/src/stm32f30x_usart.c ****   *         that contains the configuration information for the specified USART peripheral.
 215:/home/user/Desktop/STM32-Projekte/FH-Vertibot/src/STM32F30x_StdPeriph_Driver/src/stm32f30x_usart.c ****   * @retval None
 216:/home/user/Desktop/STM32-Projekte/FH-Vertibot/src/STM32F30x_StdPeriph_Driver/src/stm32f30x_usart.c ****   */
 217:/home/user/Desktop/STM32-Projekte/FH-Vertibot/src/STM32F30x_StdPeriph_Driver/src/stm32f30x_usart.c **** void USART_Init(USART_TypeDef* USARTx, USART_InitTypeDef* USART_InitStruct)
 218:/home/user/Desktop/STM32-Projekte/FH-Vertibot/src/STM32F30x_StdPeriph_Driver/src/stm32f30x_usart.c **** {
 139              		.loc 1 218 0
 140              		.cfi_startproc
 141              		@ args = 0, pretend = 0, frame = 64
 142              		@ frame_needed = 0, uses_anonymous_args = 0
 143              	.LVL16:
 219:/home/user/Desktop/STM32-Projekte/FH-Vertibot/src/STM32F30x_StdPeriph_Driver/src/stm32f30x_usart.c ****   uint32_t divider = 0, apbclock = 0, tmpreg = 0;
 220:/home/user/Desktop/STM32-Projekte/FH-Vertibot/src/STM32F30x_StdPeriph_Driver/src/stm32f30x_usart.c ****   RCC_ClocksTypeDef RCC_ClocksStatus;
 221:/home/user/Desktop/STM32-Projekte/FH-Vertibot/src/STM32F30x_StdPeriph_Driver/src/stm32f30x_usart.c ****   
 222:/home/user/Desktop/STM32-Projekte/FH-Vertibot/src/STM32F30x_StdPeriph_Driver/src/stm32f30x_usart.c ****   /* Check the parameters */
 223:/home/user/Desktop/STM32-Projekte/FH-Vertibot/src/STM32F30x_StdPeriph_Driver/src/stm32f30x_usart.c ****   assert_param(IS_USART_ALL_PERIPH(USARTx));
 224:/home/user/Desktop/STM32-Projekte/FH-Vertibot/src/STM32F30x_StdPeriph_Driver/src/stm32f30x_usart.c ****   assert_param(IS_USART_BAUDRATE(USART_InitStruct->USART_BaudRate));
 225:/home/user/Desktop/STM32-Projekte/FH-Vertibot/src/STM32F30x_StdPeriph_Driver/src/stm32f30x_usart.c ****   assert_param(IS_USART_WORD_LENGTH(USART_InitStruct->USART_WordLength));
 226:/home/user/Desktop/STM32-Projekte/FH-Vertibot/src/STM32F30x_StdPeriph_Driver/src/stm32f30x_usart.c ****   assert_param(IS_USART_STOPBITS(USART_InitStruct->USART_StopBits));
 227:/home/user/Desktop/STM32-Projekte/FH-Vertibot/src/STM32F30x_StdPeriph_Driver/src/stm32f30x_usart.c ****   assert_param(IS_USART_PARITY(USART_InitStruct->USART_Parity));
 228:/home/user/Desktop/STM32-Projekte/FH-Vertibot/src/STM32F30x_StdPeriph_Driver/src/stm32f30x_usart.c ****   assert_param(IS_USART_MODE(USART_InitStruct->USART_Mode));
 229:/home/user/Desktop/STM32-Projekte/FH-Vertibot/src/STM32F30x_StdPeriph_Driver/src/stm32f30x_usart.c ****   assert_param(IS_USART_HARDWARE_FLOW_CONTROL(USART_InitStruct->USART_HardwareFlowControl));
 230:/home/user/Desktop/STM32-Projekte/FH-Vertibot/src/STM32F30x_StdPeriph_Driver/src/stm32f30x_usart.c ****   
 231:/home/user/Desktop/STM32-Projekte/FH-Vertibot/src/STM32F30x_StdPeriph_Driver/src/stm32f30x_usart.c ****   /* Disable USART */
 232:/home/user/Desktop/STM32-Projekte/FH-Vertibot/src/STM32F30x_StdPeriph_Driver/src/stm32f30x_usart.c ****   USARTx->CR1 &= (uint32_t)~((uint32_t)USART_CR1_UE);
 144              		.loc 1 232 0
 145 0098 0368     		ldr	r3, [r0, #0]
 218:/home/user/Desktop/STM32-Projekte/FH-Vertibot/src/STM32F30x_StdPeriph_Driver/src/stm32f30x_usart.c **** {
 146              		.loc 1 218 0
 147 009a 30B5     		push	{r4, r5, lr}
 148              	.LCFI1:
 149              		.cfi_def_cfa_offset 12
 150              		.cfi_offset 4, -12
 151              		.cfi_offset 5, -8
 152              		.cfi_offset 14, -4
 153              		.loc 1 232 0
 154 009c 23F00103 		bic	r3, r3, #1
 155 00a0 0360     		str	r3, [r0, #0]
 233:/home/user/Desktop/STM32-Projekte/FH-Vertibot/src/STM32F30x_StdPeriph_Driver/src/stm32f30x_usart.c ****   
 234:/home/user/Desktop/STM32-Projekte/FH-Vertibot/src/STM32F30x_StdPeriph_Driver/src/stm32f30x_usart.c ****   /*---------------------------- USART CR2 Configuration -----------------------*/
 235:/home/user/Desktop/STM32-Projekte/FH-Vertibot/src/STM32F30x_StdPeriph_Driver/src/stm32f30x_usart.c ****   tmpreg = USARTx->CR2;
 156              		.loc 1 235 0
 157 00a2 4268     		ldr	r2, [r0, #4]
 158              	.LVL17:
 236:/home/user/Desktop/STM32-Projekte/FH-Vertibot/src/STM32F30x_StdPeriph_Driver/src/stm32f30x_usart.c ****   /* Clear STOP[13:12] bits */
 237:/home/user/Desktop/STM32-Projekte/FH-Vertibot/src/STM32F30x_StdPeriph_Driver/src/stm32f30x_usart.c ****   tmpreg &= (uint32_t)~((uint32_t)USART_CR2_STOP);
 238:/home/user/Desktop/STM32-Projekte/FH-Vertibot/src/STM32F30x_StdPeriph_Driver/src/stm32f30x_usart.c ****   
 239:/home/user/Desktop/STM32-Projekte/FH-Vertibot/src/STM32F30x_StdPeriph_Driver/src/stm32f30x_usart.c ****   /* Configure the USART Stop Bits, Clock, CPOL, CPHA and LastBit ------------*/
 240:/home/user/Desktop/STM32-Projekte/FH-Vertibot/src/STM32F30x_StdPeriph_Driver/src/stm32f30x_usart.c ****   /* Set STOP[13:12] bits according to USART_StopBits value */
 241:/home/user/Desktop/STM32-Projekte/FH-Vertibot/src/STM32F30x_StdPeriph_Driver/src/stm32f30x_usart.c ****   tmpreg |= (uint32_t)USART_InitStruct->USART_StopBits;
 159              		.loc 1 241 0
 160 00a4 8B68     		ldr	r3, [r1, #8]
 237:/home/user/Desktop/STM32-Projekte/FH-Vertibot/src/STM32F30x_StdPeriph_Driver/src/stm32f30x_usart.c ****   tmpreg &= (uint32_t)~((uint32_t)USART_CR2_STOP);
 161              		.loc 1 237 0
 162 00a6 22F44052 		bic	r2, r2, #12288
 163              	.LVL18:
 218:/home/user/Desktop/STM32-Projekte/FH-Vertibot/src/STM32F30x_StdPeriph_Driver/src/stm32f30x_usart.c **** {
 164              		.loc 1 218 0
 165 00aa 0D46     		mov	r5, r1
 166              		.loc 1 241 0
 167 00ac 1343     		orrs	r3, r3, r2
 168              	.LVL19:
 242:/home/user/Desktop/STM32-Projekte/FH-Vertibot/src/STM32F30x_StdPeriph_Driver/src/stm32f30x_usart.c ****   
 243:/home/user/Desktop/STM32-Projekte/FH-Vertibot/src/STM32F30x_StdPeriph_Driver/src/stm32f30x_usart.c ****   /* Write to USART CR2 */
 244:/home/user/Desktop/STM32-Projekte/FH-Vertibot/src/STM32F30x_StdPeriph_Driver/src/stm32f30x_usart.c ****   USARTx->CR2 = tmpreg;
 169              		.loc 1 244 0
 170 00ae 4360     		str	r3, [r0, #4]
 245:/home/user/Desktop/STM32-Projekte/FH-Vertibot/src/STM32F30x_StdPeriph_Driver/src/stm32f30x_usart.c ****   
 246:/home/user/Desktop/STM32-Projekte/FH-Vertibot/src/STM32F30x_StdPeriph_Driver/src/stm32f30x_usart.c ****   /*---------------------------- USART CR1 Configuration -----------------------*/
 247:/home/user/Desktop/STM32-Projekte/FH-Vertibot/src/STM32F30x_StdPeriph_Driver/src/stm32f30x_usart.c ****   tmpreg = USARTx->CR1;
 248:/home/user/Desktop/STM32-Projekte/FH-Vertibot/src/STM32F30x_StdPeriph_Driver/src/stm32f30x_usart.c ****   /* Clear M, PCE, PS, TE and RE bits */
 249:/home/user/Desktop/STM32-Projekte/FH-Vertibot/src/STM32F30x_StdPeriph_Driver/src/stm32f30x_usart.c ****   tmpreg &= (uint32_t)~((uint32_t)CR1_CLEAR_MASK);
 250:/home/user/Desktop/STM32-Projekte/FH-Vertibot/src/STM32F30x_StdPeriph_Driver/src/stm32f30x_usart.c ****   
 251:/home/user/Desktop/STM32-Projekte/FH-Vertibot/src/STM32F30x_StdPeriph_Driver/src/stm32f30x_usart.c ****   /* Configure the USART Word Length, Parity and mode ----------------------- */
 252:/home/user/Desktop/STM32-Projekte/FH-Vertibot/src/STM32F30x_StdPeriph_Driver/src/stm32f30x_usart.c ****   /* Set the M bits according to USART_WordLength value */
 253:/home/user/Desktop/STM32-Projekte/FH-Vertibot/src/STM32F30x_StdPeriph_Driver/src/stm32f30x_usart.c ****   /* Set PCE and PS bits according to USART_Parity value */
 254:/home/user/Desktop/STM32-Projekte/FH-Vertibot/src/STM32F30x_StdPeriph_Driver/src/stm32f30x_usart.c ****   /* Set TE and RE bits according to USART_Mode value */
 255:/home/user/Desktop/STM32-Projekte/FH-Vertibot/src/STM32F30x_StdPeriph_Driver/src/stm32f30x_usart.c ****   tmpreg |= (uint32_t)USART_InitStruct->USART_WordLength | USART_InitStruct->USART_Parity |
 171              		.loc 1 255 0
 172 00b0 6A68     		ldr	r2, [r5, #4]
 173 00b2 EB68     		ldr	r3, [r5, #12]
 174              	.LVL20:
 247:/home/user/Desktop/STM32-Projekte/FH-Vertibot/src/STM32F30x_StdPeriph_Driver/src/stm32f30x_usart.c ****   tmpreg = USARTx->CR1;
 175              		.loc 1 247 0
 176 00b4 0168     		ldr	r1, [r0, #0]
 177              	.LVL21:
 178              		.loc 1 255 0
 179 00b6 1A43     		orrs	r2, r2, r3
 180 00b8 2B69     		ldr	r3, [r5, #16]
 249:/home/user/Desktop/STM32-Projekte/FH-Vertibot/src/STM32F30x_StdPeriph_Driver/src/stm32f30x_usart.c ****   tmpreg &= (uint32_t)~((uint32_t)CR1_CLEAR_MASK);
 181              		.loc 1 249 0
 182 00ba 21F4B051 		bic	r1, r1, #5632
 183              	.LVL22:
 184 00be 21F00C01 		bic	r1, r1, #12
 185              	.LVL23:
 186              		.loc 1 255 0
 187 00c2 1343     		orrs	r3, r3, r2
 188 00c4 0B43     		orrs	r3, r3, r1
 189              	.LVL24:
 256:/home/user/Desktop/STM32-Projekte/FH-Vertibot/src/STM32F30x_StdPeriph_Driver/src/stm32f30x_usart.c ****     USART_InitStruct->USART_Mode;
 257:/home/user/Desktop/STM32-Projekte/FH-Vertibot/src/STM32F30x_StdPeriph_Driver/src/stm32f30x_usart.c ****   
 258:/home/user/Desktop/STM32-Projekte/FH-Vertibot/src/STM32F30x_StdPeriph_Driver/src/stm32f30x_usart.c ****   /* Write to USART CR1 */
 259:/home/user/Desktop/STM32-Projekte/FH-Vertibot/src/STM32F30x_StdPeriph_Driver/src/stm32f30x_usart.c ****   USARTx->CR1 = tmpreg;
 190              		.loc 1 259 0
 191 00c6 0360     		str	r3, [r0, #0]
 260:/home/user/Desktop/STM32-Projekte/FH-Vertibot/src/STM32F30x_StdPeriph_Driver/src/stm32f30x_usart.c ****   
 261:/home/user/Desktop/STM32-Projekte/FH-Vertibot/src/STM32F30x_StdPeriph_Driver/src/stm32f30x_usart.c ****   /*---------------------------- USART CR3 Configuration -----------------------*/
 262:/home/user/Desktop/STM32-Projekte/FH-Vertibot/src/STM32F30x_StdPeriph_Driver/src/stm32f30x_usart.c ****   tmpreg = USARTx->CR3;
 192              		.loc 1 262 0
 193 00c8 8268     		ldr	r2, [r0, #8]
 194              	.LVL25:
 263:/home/user/Desktop/STM32-Projekte/FH-Vertibot/src/STM32F30x_StdPeriph_Driver/src/stm32f30x_usart.c ****   /* Clear CTSE and RTSE bits */
 264:/home/user/Desktop/STM32-Projekte/FH-Vertibot/src/STM32F30x_StdPeriph_Driver/src/stm32f30x_usart.c ****   tmpreg &= (uint32_t)~((uint32_t)CR3_CLEAR_MASK);
 265:/home/user/Desktop/STM32-Projekte/FH-Vertibot/src/STM32F30x_StdPeriph_Driver/src/stm32f30x_usart.c ****   
 266:/home/user/Desktop/STM32-Projekte/FH-Vertibot/src/STM32F30x_StdPeriph_Driver/src/stm32f30x_usart.c ****   /* Configure the USART HFC -------------------------------------------------*/
 267:/home/user/Desktop/STM32-Projekte/FH-Vertibot/src/STM32F30x_StdPeriph_Driver/src/stm32f30x_usart.c ****   /* Set CTSE and RTSE bits according to USART_HardwareFlowControl value */
 268:/home/user/Desktop/STM32-Projekte/FH-Vertibot/src/STM32F30x_StdPeriph_Driver/src/stm32f30x_usart.c ****   tmpreg |= USART_InitStruct->USART_HardwareFlowControl;
 195              		.loc 1 268 0
 196 00ca 6B69     		ldr	r3, [r5, #20]
 264:/home/user/Desktop/STM32-Projekte/FH-Vertibot/src/STM32F30x_StdPeriph_Driver/src/stm32f30x_usart.c ****   tmpreg &= (uint32_t)~((uint32_t)CR3_CLEAR_MASK);
 197              		.loc 1 264 0
 198 00cc 22F44072 		bic	r2, r2, #768
 199              	.LVL26:
 200              		.loc 1 268 0
 201 00d0 1343     		orrs	r3, r3, r2
 202              	.LVL27:
 218:/home/user/Desktop/STM32-Projekte/FH-Vertibot/src/STM32F30x_StdPeriph_Driver/src/stm32f30x_usart.c **** {
 203              		.loc 1 218 0
 204 00d2 91B0     		sub	sp, sp, #68
 205              	.LCFI2:
 206              		.cfi_def_cfa_offset 80
 269:/home/user/Desktop/STM32-Projekte/FH-Vertibot/src/STM32F30x_StdPeriph_Driver/src/stm32f30x_usart.c ****   
 270:/home/user/Desktop/STM32-Projekte/FH-Vertibot/src/STM32F30x_StdPeriph_Driver/src/stm32f30x_usart.c ****   /* Write to USART CR3 */
 271:/home/user/Desktop/STM32-Projekte/FH-Vertibot/src/STM32F30x_StdPeriph_Driver/src/stm32f30x_usart.c ****   USARTx->CR3 = tmpreg;
 207              		.loc 1 271 0
 208 00d4 8360     		str	r3, [r0, #8]
 218:/home/user/Desktop/STM32-Projekte/FH-Vertibot/src/STM32F30x_StdPeriph_Driver/src/stm32f30x_usart.c **** {
 209              		.loc 1 218 0
 210 00d6 0446     		mov	r4, r0
 272:/home/user/Desktop/STM32-Projekte/FH-Vertibot/src/STM32F30x_StdPeriph_Driver/src/stm32f30x_usart.c ****   
 273:/home/user/Desktop/STM32-Projekte/FH-Vertibot/src/STM32F30x_StdPeriph_Driver/src/stm32f30x_usart.c ****   /*---------------------------- USART BRR Configuration -----------------------*/
 274:/home/user/Desktop/STM32-Projekte/FH-Vertibot/src/STM32F30x_StdPeriph_Driver/src/stm32f30x_usart.c ****   /* Configure the USART Baud Rate -------------------------------------------*/
 275:/home/user/Desktop/STM32-Projekte/FH-Vertibot/src/STM32F30x_StdPeriph_Driver/src/stm32f30x_usart.c ****   RCC_GetClocksFreq(&RCC_ClocksStatus);
 211              		.loc 1 275 0
 212 00d8 01A8     		add	r0, sp, #4
 213              	.LVL28:
 214 00da FFF7FEFF 		bl	RCC_GetClocksFreq
 215              	.LVL29:
 276:/home/user/Desktop/STM32-Projekte/FH-Vertibot/src/STM32F30x_StdPeriph_Driver/src/stm32f30x_usart.c ****   
 277:/home/user/Desktop/STM32-Projekte/FH-Vertibot/src/STM32F30x_StdPeriph_Driver/src/stm32f30x_usart.c ****   if (USARTx == USART1)
 216              		.loc 1 277 0
 217 00de 184B     		ldr	r3, .L23
 218 00e0 9C42     		cmp	r4, r3
 219 00e2 01D1     		bne	.L11
 278:/home/user/Desktop/STM32-Projekte/FH-Vertibot/src/STM32F30x_StdPeriph_Driver/src/stm32f30x_usart.c ****   {
 279:/home/user/Desktop/STM32-Projekte/FH-Vertibot/src/STM32F30x_StdPeriph_Driver/src/stm32f30x_usart.c ****     apbclock = RCC_ClocksStatus.USART1CLK_Frequency;
 220              		.loc 1 279 0
 221 00e4 0B9A     		ldr	r2, [sp, #44]
 222              	.LVL30:
 223 00e6 0EE0     		b	.L12
 224              	.LVL31:
 225              	.L11:
 280:/home/user/Desktop/STM32-Projekte/FH-Vertibot/src/STM32F30x_StdPeriph_Driver/src/stm32f30x_usart.c ****   }
 281:/home/user/Desktop/STM32-Projekte/FH-Vertibot/src/STM32F30x_StdPeriph_Driver/src/stm32f30x_usart.c ****   else if (USARTx == USART2)
 226              		.loc 1 281 0
 227 00e8 164B     		ldr	r3, .L23+4
 228 00ea 9C42     		cmp	r4, r3
 229 00ec 01D1     		bne	.L13
 282:/home/user/Desktop/STM32-Projekte/FH-Vertibot/src/STM32F30x_StdPeriph_Driver/src/stm32f30x_usart.c ****   {
 283:/home/user/Desktop/STM32-Projekte/FH-Vertibot/src/STM32F30x_StdPeriph_Driver/src/stm32f30x_usart.c ****     apbclock = RCC_ClocksStatus.USART2CLK_Frequency;
 230              		.loc 1 283 0
 231 00ee 0C9A     		ldr	r2, [sp, #48]
 232              	.LVL32:
 233 00f0 09E0     		b	.L12
 234              	.LVL33:
 235              	.L13:
 284:/home/user/Desktop/STM32-Projekte/FH-Vertibot/src/STM32F30x_StdPeriph_Driver/src/stm32f30x_usart.c ****   }
 285:/home/user/Desktop/STM32-Projekte/FH-Vertibot/src/STM32F30x_StdPeriph_Driver/src/stm32f30x_usart.c ****   else if (USARTx == USART3)
 236              		.loc 1 285 0
 237 00f2 154B     		ldr	r3, .L23+8
 238 00f4 9C42     		cmp	r4, r3
 239 00f6 01D1     		bne	.L14
 286:/home/user/Desktop/STM32-Projekte/FH-Vertibot/src/STM32F30x_StdPeriph_Driver/src/stm32f30x_usart.c ****   {
 287:/home/user/Desktop/STM32-Projekte/FH-Vertibot/src/STM32F30x_StdPeriph_Driver/src/stm32f30x_usart.c ****     apbclock = RCC_ClocksStatus.USART3CLK_Frequency;
 240              		.loc 1 287 0
 241 00f8 0D9A     		ldr	r2, [sp, #52]
 242              	.LVL34:
 243 00fa 04E0     		b	.L12
 244              	.LVL35:
 245              	.L14:
 288:/home/user/Desktop/STM32-Projekte/FH-Vertibot/src/STM32F30x_StdPeriph_Driver/src/stm32f30x_usart.c ****   }
 289:/home/user/Desktop/STM32-Projekte/FH-Vertibot/src/STM32F30x_StdPeriph_Driver/src/stm32f30x_usart.c ****   else if (USARTx == UART4)
 246              		.loc 1 289 0
 247 00fc 134B     		ldr	r3, .L23+12
 248 00fe 9C42     		cmp	r4, r3
 290:/home/user/Desktop/STM32-Projekte/FH-Vertibot/src/STM32F30x_StdPeriph_Driver/src/stm32f30x_usart.c ****   {
 291:/home/user/Desktop/STM32-Projekte/FH-Vertibot/src/STM32F30x_StdPeriph_Driver/src/stm32f30x_usart.c ****     apbclock = RCC_ClocksStatus.UART4CLK_Frequency;
 249              		.loc 1 291 0
 250 0100 0CBF     		ite	eq
 251 0102 0E9A     		ldreq	r2, [sp, #56]
 252              	.LVL36:
 292:/home/user/Desktop/STM32-Projekte/FH-Vertibot/src/STM32F30x_StdPeriph_Driver/src/stm32f30x_usart.c ****   }
 293:/home/user/Desktop/STM32-Projekte/FH-Vertibot/src/STM32F30x_StdPeriph_Driver/src/stm32f30x_usart.c ****   else 
 294:/home/user/Desktop/STM32-Projekte/FH-Vertibot/src/STM32F30x_StdPeriph_Driver/src/stm32f30x_usart.c ****   {
 295:/home/user/Desktop/STM32-Projekte/FH-Vertibot/src/STM32F30x_StdPeriph_Driver/src/stm32f30x_usart.c ****     apbclock = RCC_ClocksStatus.UART5CLK_Frequency;
 253              		.loc 1 295 0
 254 0104 0F9A     		ldrne	r2, [sp, #60]
 255              	.LVL37:
 256              	.L12:
 296:/home/user/Desktop/STM32-Projekte/FH-Vertibot/src/STM32F30x_StdPeriph_Driver/src/stm32f30x_usart.c ****   }  
 297:/home/user/Desktop/STM32-Projekte/FH-Vertibot/src/STM32F30x_StdPeriph_Driver/src/stm32f30x_usart.c ****   
 298:/home/user/Desktop/STM32-Projekte/FH-Vertibot/src/STM32F30x_StdPeriph_Driver/src/stm32f30x_usart.c ****   /* Determine the integer part */
 299:/home/user/Desktop/STM32-Projekte/FH-Vertibot/src/STM32F30x_StdPeriph_Driver/src/stm32f30x_usart.c ****   if ((USARTx->CR1 & USART_CR1_OVER8) != 0)
 257              		.loc 1 299 0
 258 0106 2368     		ldr	r3, [r4, #0]
 259 0108 2968     		ldr	r1, [r5, #0]
 260 010a 13F4004F 		tst	r3, #32768
 300:/home/user/Desktop/STM32-Projekte/FH-Vertibot/src/STM32F30x_StdPeriph_Driver/src/stm32f30x_usart.c ****   {
 301:/home/user/Desktop/STM32-Projekte/FH-Vertibot/src/STM32F30x_StdPeriph_Driver/src/stm32f30x_usart.c ****     /* (divider * 10) computing in case Oversampling mode is 8 Samples */
 302:/home/user/Desktop/STM32-Projekte/FH-Vertibot/src/STM32F30x_StdPeriph_Driver/src/stm32f30x_usart.c ****     divider = (uint32_t)((2 * apbclock) / (USART_InitStruct->USART_BaudRate));
 261              		.loc 1 302 0
 262 010e 18BF     		it	ne
 263 0110 5200     		lslne	r2, r2, #1
 264              	.LVL38:
 303:/home/user/Desktop/STM32-Projekte/FH-Vertibot/src/STM32F30x_StdPeriph_Driver/src/stm32f30x_usart.c ****     tmpreg  = (uint32_t)((2 * apbclock) % (USART_InitStruct->USART_BaudRate));
 304:/home/user/Desktop/STM32-Projekte/FH-Vertibot/src/STM32F30x_StdPeriph_Driver/src/stm32f30x_usart.c ****   }
 305:/home/user/Desktop/STM32-Projekte/FH-Vertibot/src/STM32F30x_StdPeriph_Driver/src/stm32f30x_usart.c ****   else /* if ((USARTx->CR1 & CR1_OVER8_Set) == 0) */
 306:/home/user/Desktop/STM32-Projekte/FH-Vertibot/src/STM32F30x_StdPeriph_Driver/src/stm32f30x_usart.c ****   {
 307:/home/user/Desktop/STM32-Projekte/FH-Vertibot/src/STM32F30x_StdPeriph_Driver/src/stm32f30x_usart.c ****     /* (divider * 10) computing in case Oversampling mode is 16 Samples */
 308:/home/user/Desktop/STM32-Projekte/FH-Vertibot/src/STM32F30x_StdPeriph_Driver/src/stm32f30x_usart.c ****     divider = (uint32_t)((apbclock) / (USART_InitStruct->USART_BaudRate));
 265              		.loc 1 308 0
 266 0112 B2FBF1F3 		udiv	r3, r2, r1
 267              	.LVL39:
 309:/home/user/Desktop/STM32-Projekte/FH-Vertibot/src/STM32F30x_StdPeriph_Driver/src/stm32f30x_usart.c ****     tmpreg  = (uint32_t)((apbclock) % (USART_InitStruct->USART_BaudRate));
 268              		.loc 1 309 0
 269 0116 01FB1321 		mls	r1, r1, r3, r2
 270              	.LVL40:
 310:/home/user/Desktop/STM32-Projekte/FH-Vertibot/src/STM32F30x_StdPeriph_Driver/src/stm32f30x_usart.c ****   }
 311:/home/user/Desktop/STM32-Projekte/FH-Vertibot/src/STM32F30x_StdPeriph_Driver/src/stm32f30x_usart.c ****   
 312:/home/user/Desktop/STM32-Projekte/FH-Vertibot/src/STM32F30x_StdPeriph_Driver/src/stm32f30x_usart.c ****   /* round the divider : if fractional part i greater than 0.5 increment divider */
 313:/home/user/Desktop/STM32-Projekte/FH-Vertibot/src/STM32F30x_StdPeriph_Driver/src/stm32f30x_usart.c ****   if (tmpreg >=  (USART_InitStruct->USART_BaudRate) / 2)
 271              		.loc 1 313 0
 272 011a 2A68     		ldr	r2, [r5, #0]
 273 011c B1EB520F 		cmp	r1, r2, lsr #1
 314:/home/user/Desktop/STM32-Projekte/FH-Vertibot/src/STM32F30x_StdPeriph_Driver/src/stm32f30x_usart.c ****   {
 315:/home/user/Desktop/STM32-Projekte/FH-Vertibot/src/STM32F30x_StdPeriph_Driver/src/stm32f30x_usart.c ****     divider++;
 316:/home/user/Desktop/STM32-Projekte/FH-Vertibot/src/STM32F30x_StdPeriph_Driver/src/stm32f30x_usart.c ****   } 
 317:/home/user/Desktop/STM32-Projekte/FH-Vertibot/src/STM32F30x_StdPeriph_Driver/src/stm32f30x_usart.c ****   
 318:/home/user/Desktop/STM32-Projekte/FH-Vertibot/src/STM32F30x_StdPeriph_Driver/src/stm32f30x_usart.c ****   /* Implement the divider in case Oversampling mode is 8 Samples */
 319:/home/user/Desktop/STM32-Projekte/FH-Vertibot/src/STM32F30x_StdPeriph_Driver/src/stm32f30x_usart.c ****   if ((USARTx->CR1 & USART_CR1_OVER8) != 0)
 274              		.loc 1 319 0
 275 0120 2268     		ldr	r2, [r4, #0]
 315:/home/user/Desktop/STM32-Projekte/FH-Vertibot/src/STM32F30x_StdPeriph_Driver/src/stm32f30x_usart.c ****     divider++;
 276              		.loc 1 315 0
 277 0122 28BF     		it	cs
 278 0124 0133     		addcs	r3, r3, #1
 279              	.LVL41:
 280              		.loc 1 319 0
 281 0126 1204     		lsls	r2, r2, #16
 282 0128 06D5     		bpl	.L19
 320:/home/user/Desktop/STM32-Projekte/FH-Vertibot/src/STM32F30x_StdPeriph_Driver/src/stm32f30x_usart.c ****   {
 321:/home/user/Desktop/STM32-Projekte/FH-Vertibot/src/STM32F30x_StdPeriph_Driver/src/stm32f30x_usart.c ****     /* get the LSB of divider and shift it to the right by 1 bit */
 322:/home/user/Desktop/STM32-Projekte/FH-Vertibot/src/STM32F30x_StdPeriph_Driver/src/stm32f30x_usart.c ****     tmpreg = (divider & (uint16_t)0x000F) >> 1;
 323:/home/user/Desktop/STM32-Projekte/FH-Vertibot/src/STM32F30x_StdPeriph_Driver/src/stm32f30x_usart.c ****     
 324:/home/user/Desktop/STM32-Projekte/FH-Vertibot/src/STM32F30x_StdPeriph_Driver/src/stm32f30x_usart.c ****     /* update the divider value */
 325:/home/user/Desktop/STM32-Projekte/FH-Vertibot/src/STM32F30x_StdPeriph_Driver/src/stm32f30x_usart.c ****     divider = (divider & (uint16_t)0xFFF0) | tmpreg;
 283              		.loc 1 325 0
 284 012a 4FF6F072 		movw	r2, #65520
 322:/home/user/Desktop/STM32-Projekte/FH-Vertibot/src/STM32F30x_StdPeriph_Driver/src/stm32f30x_usart.c ****     tmpreg = (divider & (uint16_t)0x000F) >> 1;
 285              		.loc 1 322 0
 286 012e C3F34201 		ubfx	r1, r3, #1, #3
 287              	.LVL42:
 288              		.loc 1 325 0
 289 0132 1A40     		ands	r2, r2, r3
 290 0134 41EA0203 		orr	r3, r1, r2
 291              	.LVL43:
 292              	.L19:
 326:/home/user/Desktop/STM32-Projekte/FH-Vertibot/src/STM32F30x_StdPeriph_Driver/src/stm32f30x_usart.c ****   }
 327:/home/user/Desktop/STM32-Projekte/FH-Vertibot/src/STM32F30x_StdPeriph_Driver/src/stm32f30x_usart.c ****   
 328:/home/user/Desktop/STM32-Projekte/FH-Vertibot/src/STM32F30x_StdPeriph_Driver/src/stm32f30x_usart.c ****   /* Write to USART BRR */
 329:/home/user/Desktop/STM32-Projekte/FH-Vertibot/src/STM32F30x_StdPeriph_Driver/src/stm32f30x_usart.c ****   USARTx->BRR = (uint16_t)divider;
 293              		.loc 1 329 0
 294 0138 A381     		strh	r3, [r4, #12]	@ movhi
 330:/home/user/Desktop/STM32-Projekte/FH-Vertibot/src/STM32F30x_StdPeriph_Driver/src/stm32f30x_usart.c **** }
 295              		.loc 1 330 0
 296 013a 11B0     		add	sp, sp, #68
 297 013c 30BD     		pop	{r4, r5, pc}
 298              	.L24:
 299 013e 00BF     		.align	2
 300              	.L23:
 301 0140 00380140 		.word	1073821696
 302 0144 00440040 		.word	1073759232
 303 0148 00480040 		.word	1073760256
 304 014c 004C0040 		.word	1073761280
 305              		.cfi_endproc
 306              	.LFE112:
 308              		.align	1
 309              		.global	USART_StructInit
 310              		.thumb
 311              		.thumb_func
 313              	USART_StructInit:
 314              	.LFB113:
 331:/home/user/Desktop/STM32-Projekte/FH-Vertibot/src/STM32F30x_StdPeriph_Driver/src/stm32f30x_usart.c **** 
 332:/home/user/Desktop/STM32-Projekte/FH-Vertibot/src/STM32F30x_StdPeriph_Driver/src/stm32f30x_usart.c **** /**
 333:/home/user/Desktop/STM32-Projekte/FH-Vertibot/src/STM32F30x_StdPeriph_Driver/src/stm32f30x_usart.c ****   * @brief  Fills each USART_InitStruct member with its default value.
 334:/home/user/Desktop/STM32-Projekte/FH-Vertibot/src/STM32F30x_StdPeriph_Driver/src/stm32f30x_usart.c ****   * @param  USART_InitStruct: pointer to a USART_InitTypeDef structure
 335:/home/user/Desktop/STM32-Projekte/FH-Vertibot/src/STM32F30x_StdPeriph_Driver/src/stm32f30x_usart.c ****   *         which will be initialized.
 336:/home/user/Desktop/STM32-Projekte/FH-Vertibot/src/STM32F30x_StdPeriph_Driver/src/stm32f30x_usart.c ****   * @retval None
 337:/home/user/Desktop/STM32-Projekte/FH-Vertibot/src/STM32F30x_StdPeriph_Driver/src/stm32f30x_usart.c ****   */
 338:/home/user/Desktop/STM32-Projekte/FH-Vertibot/src/STM32F30x_StdPeriph_Driver/src/stm32f30x_usart.c **** void USART_StructInit(USART_InitTypeDef* USART_InitStruct)
 339:/home/user/Desktop/STM32-Projekte/FH-Vertibot/src/STM32F30x_StdPeriph_Driver/src/stm32f30x_usart.c **** {
 315              		.loc 1 339 0
 316              		.cfi_startproc
 317              		@ args = 0, pretend = 0, frame = 0
 318              		@ frame_needed = 0, uses_anonymous_args = 0
 319              		@ link register save eliminated.
 320              	.LVL44:
 340:/home/user/Desktop/STM32-Projekte/FH-Vertibot/src/STM32F30x_StdPeriph_Driver/src/stm32f30x_usart.c ****   /* USART_InitStruct members default value */
 341:/home/user/Desktop/STM32-Projekte/FH-Vertibot/src/STM32F30x_StdPeriph_Driver/src/stm32f30x_usart.c ****   USART_InitStruct->USART_BaudRate = 9600;
 321              		.loc 1 341 0
 322 0150 4FF41653 		mov	r3, #9600
 323 0154 0360     		str	r3, [r0, #0]
 342:/home/user/Desktop/STM32-Projekte/FH-Vertibot/src/STM32F30x_StdPeriph_Driver/src/stm32f30x_usart.c ****   USART_InitStruct->USART_WordLength = USART_WordLength_8b;
 343:/home/user/Desktop/STM32-Projekte/FH-Vertibot/src/STM32F30x_StdPeriph_Driver/src/stm32f30x_usart.c ****   USART_InitStruct->USART_StopBits = USART_StopBits_1;
 344:/home/user/Desktop/STM32-Projekte/FH-Vertibot/src/STM32F30x_StdPeriph_Driver/src/stm32f30x_usart.c ****   USART_InitStruct->USART_Parity = USART_Parity_No ;
 345:/home/user/Desktop/STM32-Projekte/FH-Vertibot/src/STM32F30x_StdPeriph_Driver/src/stm32f30x_usart.c ****   USART_InitStruct->USART_Mode = USART_Mode_Rx | USART_Mode_Tx;
 324              		.loc 1 345 0
 325 0156 0C22     		movs	r2, #12
 342:/home/user/Desktop/STM32-Projekte/FH-Vertibot/src/STM32F30x_StdPeriph_Driver/src/stm32f30x_usart.c ****   USART_InitStruct->USART_WordLength = USART_WordLength_8b;
 326              		.loc 1 342 0
 327 0158 0023     		movs	r3, #0
 328 015a 4360     		str	r3, [r0, #4]
 343:/home/user/Desktop/STM32-Projekte/FH-Vertibot/src/STM32F30x_StdPeriph_Driver/src/stm32f30x_usart.c ****   USART_InitStruct->USART_StopBits = USART_StopBits_1;
 329              		.loc 1 343 0
 330 015c 8360     		str	r3, [r0, #8]
 344:/home/user/Desktop/STM32-Projekte/FH-Vertibot/src/STM32F30x_StdPeriph_Driver/src/stm32f30x_usart.c ****   USART_InitStruct->USART_Parity = USART_Parity_No ;
 331              		.loc 1 344 0
 332 015e C360     		str	r3, [r0, #12]
 333              		.loc 1 345 0
 334 0160 0261     		str	r2, [r0, #16]
 346:/home/user/Desktop/STM32-Projekte/FH-Vertibot/src/STM32F30x_StdPeriph_Driver/src/stm32f30x_usart.c ****   USART_InitStruct->USART_HardwareFlowControl = USART_HardwareFlowControl_None;
 335              		.loc 1 346 0
 336 0162 4361     		str	r3, [r0, #20]
 337 0164 7047     		bx	lr
 338              		.cfi_endproc
 339              	.LFE113:
 341              		.align	1
 342              		.global	USART_ClockInit
 343              		.thumb
 344              		.thumb_func
 346              	USART_ClockInit:
 347              	.LFB114:
 347:/home/user/Desktop/STM32-Projekte/FH-Vertibot/src/STM32F30x_StdPeriph_Driver/src/stm32f30x_usart.c **** }
 348:/home/user/Desktop/STM32-Projekte/FH-Vertibot/src/STM32F30x_StdPeriph_Driver/src/stm32f30x_usart.c **** 
 349:/home/user/Desktop/STM32-Projekte/FH-Vertibot/src/STM32F30x_StdPeriph_Driver/src/stm32f30x_usart.c **** /**
 350:/home/user/Desktop/STM32-Projekte/FH-Vertibot/src/STM32F30x_StdPeriph_Driver/src/stm32f30x_usart.c ****   * @brief  Initializes the USARTx peripheral Clock according to the
 351:/home/user/Desktop/STM32-Projekte/FH-Vertibot/src/STM32F30x_StdPeriph_Driver/src/stm32f30x_usart.c ****   *         specified parameters in the USART_ClockInitStruct.
 352:/home/user/Desktop/STM32-Projekte/FH-Vertibot/src/STM32F30x_StdPeriph_Driver/src/stm32f30x_usart.c ****   * @param  USARTx: Select the USART peripheral. This parameter can be one of the
 353:/home/user/Desktop/STM32-Projekte/FH-Vertibot/src/STM32F30x_StdPeriph_Driver/src/stm32f30x_usart.c ****   *         following values: USART1 or USART2 or USART3.
 354:/home/user/Desktop/STM32-Projekte/FH-Vertibot/src/STM32F30x_StdPeriph_Driver/src/stm32f30x_usart.c ****   * @param  USART_ClockInitStruct: pointer to a USART_ClockInitTypeDef
 355:/home/user/Desktop/STM32-Projekte/FH-Vertibot/src/STM32F30x_StdPeriph_Driver/src/stm32f30x_usart.c ****   *         structure that contains the configuration information for the specified
 356:/home/user/Desktop/STM32-Projekte/FH-Vertibot/src/STM32F30x_StdPeriph_Driver/src/stm32f30x_usart.c ****   *         USART peripheral.
 357:/home/user/Desktop/STM32-Projekte/FH-Vertibot/src/STM32F30x_StdPeriph_Driver/src/stm32f30x_usart.c ****   * @retval None
 358:/home/user/Desktop/STM32-Projekte/FH-Vertibot/src/STM32F30x_StdPeriph_Driver/src/stm32f30x_usart.c ****   */
 359:/home/user/Desktop/STM32-Projekte/FH-Vertibot/src/STM32F30x_StdPeriph_Driver/src/stm32f30x_usart.c **** void USART_ClockInit(USART_TypeDef* USARTx, USART_ClockInitTypeDef* USART_ClockInitStruct)
 360:/home/user/Desktop/STM32-Projekte/FH-Vertibot/src/STM32F30x_StdPeriph_Driver/src/stm32f30x_usart.c **** {
 348              		.loc 1 360 0
 349              		.cfi_startproc
 350              		@ args = 0, pretend = 0, frame = 0
 351              		@ frame_needed = 0, uses_anonymous_args = 0
 352              	.LVL45:
 361:/home/user/Desktop/STM32-Projekte/FH-Vertibot/src/STM32F30x_StdPeriph_Driver/src/stm32f30x_usart.c ****   uint32_t tmpreg = 0;
 362:/home/user/Desktop/STM32-Projekte/FH-Vertibot/src/STM32F30x_StdPeriph_Driver/src/stm32f30x_usart.c ****   /* Check the parameters */
 363:/home/user/Desktop/STM32-Projekte/FH-Vertibot/src/STM32F30x_StdPeriph_Driver/src/stm32f30x_usart.c ****   assert_param(IS_USART_123_PERIPH(USARTx));
 364:/home/user/Desktop/STM32-Projekte/FH-Vertibot/src/STM32F30x_StdPeriph_Driver/src/stm32f30x_usart.c ****   assert_param(IS_USART_CLOCK(USART_ClockInitStruct->USART_Clock));
 365:/home/user/Desktop/STM32-Projekte/FH-Vertibot/src/STM32F30x_StdPeriph_Driver/src/stm32f30x_usart.c ****   assert_param(IS_USART_CPOL(USART_ClockInitStruct->USART_CPOL));
 366:/home/user/Desktop/STM32-Projekte/FH-Vertibot/src/STM32F30x_StdPeriph_Driver/src/stm32f30x_usart.c ****   assert_param(IS_USART_CPHA(USART_ClockInitStruct->USART_CPHA));
 367:/home/user/Desktop/STM32-Projekte/FH-Vertibot/src/STM32F30x_StdPeriph_Driver/src/stm32f30x_usart.c ****   assert_param(IS_USART_LASTBIT(USART_ClockInitStruct->USART_LastBit));
 368:/home/user/Desktop/STM32-Projekte/FH-Vertibot/src/STM32F30x_StdPeriph_Driver/src/stm32f30x_usart.c **** /*---------------------------- USART CR2 Configuration -----------------------*/
 369:/home/user/Desktop/STM32-Projekte/FH-Vertibot/src/STM32F30x_StdPeriph_Driver/src/stm32f30x_usart.c ****   tmpreg = USARTx->CR2;
 370:/home/user/Desktop/STM32-Projekte/FH-Vertibot/src/STM32F30x_StdPeriph_Driver/src/stm32f30x_usart.c ****   /* Clear CLKEN, CPOL, CPHA, LBCL and SSM bits */
 371:/home/user/Desktop/STM32-Projekte/FH-Vertibot/src/STM32F30x_StdPeriph_Driver/src/stm32f30x_usart.c ****   tmpreg &= (uint32_t)~((uint32_t)CR2_CLOCK_CLEAR_MASK);
 372:/home/user/Desktop/STM32-Projekte/FH-Vertibot/src/STM32F30x_StdPeriph_Driver/src/stm32f30x_usart.c ****   /* Configure the USART Clock, CPOL, CPHA, LastBit and SSM ------------*/
 373:/home/user/Desktop/STM32-Projekte/FH-Vertibot/src/STM32F30x_StdPeriph_Driver/src/stm32f30x_usart.c ****   /* Set CLKEN bit according to USART_Clock value */
 374:/home/user/Desktop/STM32-Projekte/FH-Vertibot/src/STM32F30x_StdPeriph_Driver/src/stm32f30x_usart.c ****   /* Set CPOL bit according to USART_CPOL value */
 375:/home/user/Desktop/STM32-Projekte/FH-Vertibot/src/STM32F30x_StdPeriph_Driver/src/stm32f30x_usart.c ****   /* Set CPHA bit according to USART_CPHA value */
 376:/home/user/Desktop/STM32-Projekte/FH-Vertibot/src/STM32F30x_StdPeriph_Driver/src/stm32f30x_usart.c ****   /* Set LBCL bit according to USART_LastBit value */
 377:/home/user/Desktop/STM32-Projekte/FH-Vertibot/src/STM32F30x_StdPeriph_Driver/src/stm32f30x_usart.c ****   tmpreg |= (uint32_t)(USART_ClockInitStruct->USART_Clock | USART_ClockInitStruct->USART_CPOL | 
 353              		.loc 1 377 0
 354 0166 91E80C00 		ldmia	r1, {r2, r3}
 355 016a 1A43     		orrs	r2, r2, r3
 356 016c 8B68     		ldr	r3, [r1, #8]
 360:/home/user/Desktop/STM32-Projekte/FH-Vertibot/src/STM32F30x_StdPeriph_Driver/src/stm32f30x_usart.c **** {
 357              		.loc 1 360 0
 358 016e 10B5     		push	{r4, lr}
 359              	.LCFI3:
 360              		.cfi_def_cfa_offset 8
 361              		.cfi_offset 4, -8
 362              		.cfi_offset 14, -4
 363              		.loc 1 377 0
 364 0170 C968     		ldr	r1, [r1, #12]
 365              	.LVL46:
 369:/home/user/Desktop/STM32-Projekte/FH-Vertibot/src/STM32F30x_StdPeriph_Driver/src/stm32f30x_usart.c ****   tmpreg = USARTx->CR2;
 366              		.loc 1 369 0
 367 0172 4468     		ldr	r4, [r0, #4]
 368              	.LVL47:
 369              		.loc 1 377 0
 370 0174 1343     		orrs	r3, r3, r2
 371:/home/user/Desktop/STM32-Projekte/FH-Vertibot/src/STM32F30x_StdPeriph_Driver/src/stm32f30x_usart.c ****   tmpreg &= (uint32_t)~((uint32_t)CR2_CLOCK_CLEAR_MASK);
 371              		.loc 1 371 0
 372 0176 24F47064 		bic	r4, r4, #3840
 373              	.LVL48:
 374              		.loc 1 377 0
 375 017a 0B43     		orrs	r3, r3, r1
 376 017c 2343     		orrs	r3, r3, r4
 377              	.LVL49:
 378:/home/user/Desktop/STM32-Projekte/FH-Vertibot/src/STM32F30x_StdPeriph_Driver/src/stm32f30x_usart.c ****                        USART_ClockInitStruct->USART_CPHA | USART_ClockInitStruct->USART_LastBit);
 379:/home/user/Desktop/STM32-Projekte/FH-Vertibot/src/STM32F30x_StdPeriph_Driver/src/stm32f30x_usart.c ****   /* Write to USART CR2 */
 380:/home/user/Desktop/STM32-Projekte/FH-Vertibot/src/STM32F30x_StdPeriph_Driver/src/stm32f30x_usart.c ****   USARTx->CR2 = tmpreg;
 378              		.loc 1 380 0
 379 017e 4360     		str	r3, [r0, #4]
 380 0180 10BD     		pop	{r4, pc}
 381              		.cfi_endproc
 382              	.LFE114:
 384              		.align	1
 385              		.global	USART_ClockStructInit
 386              		.thumb
 387              		.thumb_func
 389              	USART_ClockStructInit:
 390              	.LFB115:
 381:/home/user/Desktop/STM32-Projekte/FH-Vertibot/src/STM32F30x_StdPeriph_Driver/src/stm32f30x_usart.c **** }
 382:/home/user/Desktop/STM32-Projekte/FH-Vertibot/src/STM32F30x_StdPeriph_Driver/src/stm32f30x_usart.c **** 
 383:/home/user/Desktop/STM32-Projekte/FH-Vertibot/src/STM32F30x_StdPeriph_Driver/src/stm32f30x_usart.c **** /**
 384:/home/user/Desktop/STM32-Projekte/FH-Vertibot/src/STM32F30x_StdPeriph_Driver/src/stm32f30x_usart.c ****   * @brief  Fills each USART_ClockInitStruct member with its default value.
 385:/home/user/Desktop/STM32-Projekte/FH-Vertibot/src/STM32F30x_StdPeriph_Driver/src/stm32f30x_usart.c ****   * @param  USART_ClockInitStruct: pointer to a USART_ClockInitTypeDef
 386:/home/user/Desktop/STM32-Projekte/FH-Vertibot/src/STM32F30x_StdPeriph_Driver/src/stm32f30x_usart.c ****   *         structure which will be initialized.
 387:/home/user/Desktop/STM32-Projekte/FH-Vertibot/src/STM32F30x_StdPeriph_Driver/src/stm32f30x_usart.c ****   * @retval None
 388:/home/user/Desktop/STM32-Projekte/FH-Vertibot/src/STM32F30x_StdPeriph_Driver/src/stm32f30x_usart.c ****   */
 389:/home/user/Desktop/STM32-Projekte/FH-Vertibot/src/STM32F30x_StdPeriph_Driver/src/stm32f30x_usart.c **** void USART_ClockStructInit(USART_ClockInitTypeDef* USART_ClockInitStruct)
 390:/home/user/Desktop/STM32-Projekte/FH-Vertibot/src/STM32F30x_StdPeriph_Driver/src/stm32f30x_usart.c **** {
 391              		.loc 1 390 0
 392              		.cfi_startproc
 393              		@ args = 0, pretend = 0, frame = 0
 394              		@ frame_needed = 0, uses_anonymous_args = 0
 395              		@ link register save eliminated.
 396              	.LVL50:
 391:/home/user/Desktop/STM32-Projekte/FH-Vertibot/src/STM32F30x_StdPeriph_Driver/src/stm32f30x_usart.c ****   /* USART_ClockInitStruct members default value */
 392:/home/user/Desktop/STM32-Projekte/FH-Vertibot/src/STM32F30x_StdPeriph_Driver/src/stm32f30x_usart.c ****   USART_ClockInitStruct->USART_Clock = USART_Clock_Disable;
 397              		.loc 1 392 0
 398 0182 0023     		movs	r3, #0
 399 0184 0360     		str	r3, [r0, #0]
 393:/home/user/Desktop/STM32-Projekte/FH-Vertibot/src/STM32F30x_StdPeriph_Driver/src/stm32f30x_usart.c ****   USART_ClockInitStruct->USART_CPOL = USART_CPOL_Low;
 400              		.loc 1 393 0
 401 0186 4360     		str	r3, [r0, #4]
 394:/home/user/Desktop/STM32-Projekte/FH-Vertibot/src/STM32F30x_StdPeriph_Driver/src/stm32f30x_usart.c ****   USART_ClockInitStruct->USART_CPHA = USART_CPHA_1Edge;
 402              		.loc 1 394 0
 403 0188 8360     		str	r3, [r0, #8]
 395:/home/user/Desktop/STM32-Projekte/FH-Vertibot/src/STM32F30x_StdPeriph_Driver/src/stm32f30x_usart.c ****   USART_ClockInitStruct->USART_LastBit = USART_LastBit_Disable;
 404              		.loc 1 395 0
 405 018a C360     		str	r3, [r0, #12]
 406 018c 7047     		bx	lr
 407              		.cfi_endproc
 408              	.LFE115:
 410              		.align	1
 411              		.global	USART_Cmd
 412              		.thumb
 413              		.thumb_func
 415              	USART_Cmd:
 416              	.LFB116:
 396:/home/user/Desktop/STM32-Projekte/FH-Vertibot/src/STM32F30x_StdPeriph_Driver/src/stm32f30x_usart.c **** }
 397:/home/user/Desktop/STM32-Projekte/FH-Vertibot/src/STM32F30x_StdPeriph_Driver/src/stm32f30x_usart.c **** 
 398:/home/user/Desktop/STM32-Projekte/FH-Vertibot/src/STM32F30x_StdPeriph_Driver/src/stm32f30x_usart.c **** /**
 399:/home/user/Desktop/STM32-Projekte/FH-Vertibot/src/STM32F30x_StdPeriph_Driver/src/stm32f30x_usart.c ****   * @brief  Enables or disables the specified USART peripheral.
 400:/home/user/Desktop/STM32-Projekte/FH-Vertibot/src/STM32F30x_StdPeriph_Driver/src/stm32f30x_usart.c ****   * @param  USARTx: Select the USART peripheral. This parameter can be one of the
 401:/home/user/Desktop/STM32-Projekte/FH-Vertibot/src/STM32F30x_StdPeriph_Driver/src/stm32f30x_usart.c ****   *         following values: USART1 or USART2 or USART3 or UART4 or UART5.
 402:/home/user/Desktop/STM32-Projekte/FH-Vertibot/src/STM32F30x_StdPeriph_Driver/src/stm32f30x_usart.c ****   * @param  NewState: new state of the USARTx peripheral.
 403:/home/user/Desktop/STM32-Projekte/FH-Vertibot/src/STM32F30x_StdPeriph_Driver/src/stm32f30x_usart.c ****   *         This parameter can be: ENABLE or DISABLE.
 404:/home/user/Desktop/STM32-Projekte/FH-Vertibot/src/STM32F30x_StdPeriph_Driver/src/stm32f30x_usart.c ****   * @retval None
 405:/home/user/Desktop/STM32-Projekte/FH-Vertibot/src/STM32F30x_StdPeriph_Driver/src/stm32f30x_usart.c ****   */
 406:/home/user/Desktop/STM32-Projekte/FH-Vertibot/src/STM32F30x_StdPeriph_Driver/src/stm32f30x_usart.c **** void USART_Cmd(USART_TypeDef* USARTx, FunctionalState NewState)
 407:/home/user/Desktop/STM32-Projekte/FH-Vertibot/src/STM32F30x_StdPeriph_Driver/src/stm32f30x_usart.c **** {
 417              		.loc 1 407 0
 418              		.cfi_startproc
 419              		@ args = 0, pretend = 0, frame = 0
 420              		@ frame_needed = 0, uses_anonymous_args = 0
 421              		@ link register save eliminated.
 422              	.LVL51:
 408:/home/user/Desktop/STM32-Projekte/FH-Vertibot/src/STM32F30x_StdPeriph_Driver/src/stm32f30x_usart.c ****   /* Check the parameters */
 409:/home/user/Desktop/STM32-Projekte/FH-Vertibot/src/STM32F30x_StdPeriph_Driver/src/stm32f30x_usart.c ****   assert_param(IS_USART_ALL_PERIPH(USARTx));
 410:/home/user/Desktop/STM32-Projekte/FH-Vertibot/src/STM32F30x_StdPeriph_Driver/src/stm32f30x_usart.c ****   assert_param(IS_FUNCTIONAL_STATE(NewState));
 411:/home/user/Desktop/STM32-Projekte/FH-Vertibot/src/STM32F30x_StdPeriph_Driver/src/stm32f30x_usart.c ****   
 412:/home/user/Desktop/STM32-Projekte/FH-Vertibot/src/STM32F30x_StdPeriph_Driver/src/stm32f30x_usart.c ****   if (NewState != DISABLE)
 413:/home/user/Desktop/STM32-Projekte/FH-Vertibot/src/STM32F30x_StdPeriph_Driver/src/stm32f30x_usart.c ****   {
 414:/home/user/Desktop/STM32-Projekte/FH-Vertibot/src/STM32F30x_StdPeriph_Driver/src/stm32f30x_usart.c ****     /* Enable the selected USART by setting the UE bit in the CR1 register */
 415:/home/user/Desktop/STM32-Projekte/FH-Vertibot/src/STM32F30x_StdPeriph_Driver/src/stm32f30x_usart.c ****     USARTx->CR1 |= USART_CR1_UE;
 423              		.loc 1 415 0
 424 018e 0368     		ldr	r3, [r0, #0]
 412:/home/user/Desktop/STM32-Projekte/FH-Vertibot/src/STM32F30x_StdPeriph_Driver/src/stm32f30x_usart.c ****   if (NewState != DISABLE)
 425              		.loc 1 412 0
 426 0190 11B1     		cbz	r1, .L29
 427              		.loc 1 415 0
 428 0192 43F00103 		orr	r3, r3, #1
 429 0196 01E0     		b	.L31
 430              	.L29:
 416:/home/user/Desktop/STM32-Projekte/FH-Vertibot/src/STM32F30x_StdPeriph_Driver/src/stm32f30x_usart.c ****   }
 417:/home/user/Desktop/STM32-Projekte/FH-Vertibot/src/STM32F30x_StdPeriph_Driver/src/stm32f30x_usart.c ****   else
 418:/home/user/Desktop/STM32-Projekte/FH-Vertibot/src/STM32F30x_StdPeriph_Driver/src/stm32f30x_usart.c ****   {
 419:/home/user/Desktop/STM32-Projekte/FH-Vertibot/src/STM32F30x_StdPeriph_Driver/src/stm32f30x_usart.c ****     /* Disable the selected USART by clearing the UE bit in the CR1 register */
 420:/home/user/Desktop/STM32-Projekte/FH-Vertibot/src/STM32F30x_StdPeriph_Driver/src/stm32f30x_usart.c ****     USARTx->CR1 &= (uint32_t)~((uint32_t)USART_CR1_UE);
 431              		.loc 1 420 0
 432 0198 23F00103 		bic	r3, r3, #1
 433              	.L31:
 434 019c 0360     		str	r3, [r0, #0]
 435 019e 7047     		bx	lr
 436              		.cfi_endproc
 437              	.LFE116:
 439              		.align	1
 440              		.global	USART_DirectionModeCmd
 441              		.thumb
 442              		.thumb_func
 444              	USART_DirectionModeCmd:
 445              	.LFB117:
 421:/home/user/Desktop/STM32-Projekte/FH-Vertibot/src/STM32F30x_StdPeriph_Driver/src/stm32f30x_usart.c ****   }
 422:/home/user/Desktop/STM32-Projekte/FH-Vertibot/src/STM32F30x_StdPeriph_Driver/src/stm32f30x_usart.c **** }
 423:/home/user/Desktop/STM32-Projekte/FH-Vertibot/src/STM32F30x_StdPeriph_Driver/src/stm32f30x_usart.c **** 
 424:/home/user/Desktop/STM32-Projekte/FH-Vertibot/src/STM32F30x_StdPeriph_Driver/src/stm32f30x_usart.c **** /**
 425:/home/user/Desktop/STM32-Projekte/FH-Vertibot/src/STM32F30x_StdPeriph_Driver/src/stm32f30x_usart.c ****   * @brief  Enables or disables the USART's transmitter or receiver.
 426:/home/user/Desktop/STM32-Projekte/FH-Vertibot/src/STM32F30x_StdPeriph_Driver/src/stm32f30x_usart.c ****   * @param  USARTx: Select the USART peripheral. This parameter can be one of the 
 427:/home/user/Desktop/STM32-Projekte/FH-Vertibot/src/STM32F30x_StdPeriph_Driver/src/stm32f30x_usart.c ****   *         following values: USART1 or USART2 or USART3 or UART4 or UART5.
 428:/home/user/Desktop/STM32-Projekte/FH-Vertibot/src/STM32F30x_StdPeriph_Driver/src/stm32f30x_usart.c ****   * @param  USART_Direction: specifies the USART direction.
 429:/home/user/Desktop/STM32-Projekte/FH-Vertibot/src/STM32F30x_StdPeriph_Driver/src/stm32f30x_usart.c ****   *         This parameter can be any combination of the following values:
 430:/home/user/Desktop/STM32-Projekte/FH-Vertibot/src/STM32F30x_StdPeriph_Driver/src/stm32f30x_usart.c ****   *         @arg USART_Mode_Tx: USART Transmitter
 431:/home/user/Desktop/STM32-Projekte/FH-Vertibot/src/STM32F30x_StdPeriph_Driver/src/stm32f30x_usart.c ****   *         @arg USART_Mode_Rx: USART Receiver
 432:/home/user/Desktop/STM32-Projekte/FH-Vertibot/src/STM32F30x_StdPeriph_Driver/src/stm32f30x_usart.c ****   * @param  NewState: new state of the USART transfer direction.
 433:/home/user/Desktop/STM32-Projekte/FH-Vertibot/src/STM32F30x_StdPeriph_Driver/src/stm32f30x_usart.c ****   *         This parameter can be: ENABLE or DISABLE.  
 434:/home/user/Desktop/STM32-Projekte/FH-Vertibot/src/STM32F30x_StdPeriph_Driver/src/stm32f30x_usart.c ****   * @retval None
 435:/home/user/Desktop/STM32-Projekte/FH-Vertibot/src/STM32F30x_StdPeriph_Driver/src/stm32f30x_usart.c ****   */
 436:/home/user/Desktop/STM32-Projekte/FH-Vertibot/src/STM32F30x_StdPeriph_Driver/src/stm32f30x_usart.c **** void USART_DirectionModeCmd(USART_TypeDef* USARTx, uint32_t USART_DirectionMode, FunctionalState Ne
 437:/home/user/Desktop/STM32-Projekte/FH-Vertibot/src/STM32F30x_StdPeriph_Driver/src/stm32f30x_usart.c **** {
 446              		.loc 1 437 0
 447              		.cfi_startproc
 448              		@ args = 0, pretend = 0, frame = 0
 449              		@ frame_needed = 0, uses_anonymous_args = 0
 450              		@ link register save eliminated.
 451              	.LVL52:
 438:/home/user/Desktop/STM32-Projekte/FH-Vertibot/src/STM32F30x_StdPeriph_Driver/src/stm32f30x_usart.c ****   /* Check the parameters */
 439:/home/user/Desktop/STM32-Projekte/FH-Vertibot/src/STM32F30x_StdPeriph_Driver/src/stm32f30x_usart.c ****   assert_param(IS_USART_ALL_PERIPH(USARTx));
 440:/home/user/Desktop/STM32-Projekte/FH-Vertibot/src/STM32F30x_StdPeriph_Driver/src/stm32f30x_usart.c ****   assert_param(IS_USART_MODE(USART_DirectionMode));
 441:/home/user/Desktop/STM32-Projekte/FH-Vertibot/src/STM32F30x_StdPeriph_Driver/src/stm32f30x_usart.c ****   assert_param(IS_FUNCTIONAL_STATE(NewState)); 
 442:/home/user/Desktop/STM32-Projekte/FH-Vertibot/src/STM32F30x_StdPeriph_Driver/src/stm32f30x_usart.c **** 
 443:/home/user/Desktop/STM32-Projekte/FH-Vertibot/src/STM32F30x_StdPeriph_Driver/src/stm32f30x_usart.c ****   if (NewState != DISABLE)
 444:/home/user/Desktop/STM32-Projekte/FH-Vertibot/src/STM32F30x_StdPeriph_Driver/src/stm32f30x_usart.c ****   {
 445:/home/user/Desktop/STM32-Projekte/FH-Vertibot/src/STM32F30x_StdPeriph_Driver/src/stm32f30x_usart.c ****     /* Enable the USART's transfer interface by setting the TE and/or RE bits 
 446:/home/user/Desktop/STM32-Projekte/FH-Vertibot/src/STM32F30x_StdPeriph_Driver/src/stm32f30x_usart.c ****        in the USART CR1 register */
 447:/home/user/Desktop/STM32-Projekte/FH-Vertibot/src/STM32F30x_StdPeriph_Driver/src/stm32f30x_usart.c ****     USARTx->CR1 |= USART_DirectionMode;
 452              		.loc 1 447 0
 453 01a0 0368     		ldr	r3, [r0, #0]
 443:/home/user/Desktop/STM32-Projekte/FH-Vertibot/src/STM32F30x_StdPeriph_Driver/src/stm32f30x_usart.c ****   if (NewState != DISABLE)
 454              		.loc 1 443 0
 455 01a2 0AB1     		cbz	r2, .L33
 456              		.loc 1 447 0
 457 01a4 1943     		orrs	r1, r1, r3
 458              	.LVL53:
 459 01a6 01E0     		b	.L35
 460              	.LVL54:
 461              	.L33:
 448:/home/user/Desktop/STM32-Projekte/FH-Vertibot/src/STM32F30x_StdPeriph_Driver/src/stm32f30x_usart.c ****   }
 449:/home/user/Desktop/STM32-Projekte/FH-Vertibot/src/STM32F30x_StdPeriph_Driver/src/stm32f30x_usart.c ****   else
 450:/home/user/Desktop/STM32-Projekte/FH-Vertibot/src/STM32F30x_StdPeriph_Driver/src/stm32f30x_usart.c ****   {
 451:/home/user/Desktop/STM32-Projekte/FH-Vertibot/src/STM32F30x_StdPeriph_Driver/src/stm32f30x_usart.c ****     /* Disable the USART's transfer interface by clearing the TE and/or RE bits
 452:/home/user/Desktop/STM32-Projekte/FH-Vertibot/src/STM32F30x_StdPeriph_Driver/src/stm32f30x_usart.c ****        in the USART CR3 register */
 453:/home/user/Desktop/STM32-Projekte/FH-Vertibot/src/STM32F30x_StdPeriph_Driver/src/stm32f30x_usart.c ****     USARTx->CR1 &= (uint32_t)~USART_DirectionMode;
 462              		.loc 1 453 0
 463 01a8 23EA0101 		bic	r1, r3, r1
 464              	.LVL55:
 465              	.L35:
 466 01ac 0160     		str	r1, [r0, #0]
 467 01ae 7047     		bx	lr
 468              		.cfi_endproc
 469              	.LFE117:
 471              		.align	1
 472              		.global	USART_OverSampling8Cmd
 473              		.thumb
 474              		.thumb_func
 476              	USART_OverSampling8Cmd:
 477              	.LFB118:
 454:/home/user/Desktop/STM32-Projekte/FH-Vertibot/src/STM32F30x_StdPeriph_Driver/src/stm32f30x_usart.c ****   }
 455:/home/user/Desktop/STM32-Projekte/FH-Vertibot/src/STM32F30x_StdPeriph_Driver/src/stm32f30x_usart.c **** }
 456:/home/user/Desktop/STM32-Projekte/FH-Vertibot/src/STM32F30x_StdPeriph_Driver/src/stm32f30x_usart.c **** 
 457:/home/user/Desktop/STM32-Projekte/FH-Vertibot/src/STM32F30x_StdPeriph_Driver/src/stm32f30x_usart.c **** /**
 458:/home/user/Desktop/STM32-Projekte/FH-Vertibot/src/STM32F30x_StdPeriph_Driver/src/stm32f30x_usart.c ****   * @brief  Enables or disables the USART's 8x oversampling mode.
 459:/home/user/Desktop/STM32-Projekte/FH-Vertibot/src/STM32F30x_StdPeriph_Driver/src/stm32f30x_usart.c ****   * @param  USARTx: Select the USART peripheral. This parameter can be one of the 
 460:/home/user/Desktop/STM32-Projekte/FH-Vertibot/src/STM32F30x_StdPeriph_Driver/src/stm32f30x_usart.c ****   *         following values: USART1 or USART2 or USART3 or UART4 or UART5.
 461:/home/user/Desktop/STM32-Projekte/FH-Vertibot/src/STM32F30x_StdPeriph_Driver/src/stm32f30x_usart.c ****   * @param  NewState: new state of the USART 8x oversampling mode.
 462:/home/user/Desktop/STM32-Projekte/FH-Vertibot/src/STM32F30x_StdPeriph_Driver/src/stm32f30x_usart.c ****   *         This parameter can be: ENABLE or DISABLE.
 463:/home/user/Desktop/STM32-Projekte/FH-Vertibot/src/STM32F30x_StdPeriph_Driver/src/stm32f30x_usart.c ****   * @note
 464:/home/user/Desktop/STM32-Projekte/FH-Vertibot/src/STM32F30x_StdPeriph_Driver/src/stm32f30x_usart.c ****   *   This function has to be called before calling USART_Init()
 465:/home/user/Desktop/STM32-Projekte/FH-Vertibot/src/STM32F30x_StdPeriph_Driver/src/stm32f30x_usart.c ****   *   function in order to have correct baudrate Divider value.
 466:/home/user/Desktop/STM32-Projekte/FH-Vertibot/src/STM32F30x_StdPeriph_Driver/src/stm32f30x_usart.c ****   * @retval None
 467:/home/user/Desktop/STM32-Projekte/FH-Vertibot/src/STM32F30x_StdPeriph_Driver/src/stm32f30x_usart.c ****   */
 468:/home/user/Desktop/STM32-Projekte/FH-Vertibot/src/STM32F30x_StdPeriph_Driver/src/stm32f30x_usart.c **** void USART_OverSampling8Cmd(USART_TypeDef* USARTx, FunctionalState NewState)
 469:/home/user/Desktop/STM32-Projekte/FH-Vertibot/src/STM32F30x_StdPeriph_Driver/src/stm32f30x_usart.c **** {
 478              		.loc 1 469 0
 479              		.cfi_startproc
 480              		@ args = 0, pretend = 0, frame = 0
 481              		@ frame_needed = 0, uses_anonymous_args = 0
 482              		@ link register save eliminated.
 483              	.LVL56:
 470:/home/user/Desktop/STM32-Projekte/FH-Vertibot/src/STM32F30x_StdPeriph_Driver/src/stm32f30x_usart.c ****   /* Check the parameters */
 471:/home/user/Desktop/STM32-Projekte/FH-Vertibot/src/STM32F30x_StdPeriph_Driver/src/stm32f30x_usart.c ****   assert_param(IS_USART_ALL_PERIPH(USARTx));
 472:/home/user/Desktop/STM32-Projekte/FH-Vertibot/src/STM32F30x_StdPeriph_Driver/src/stm32f30x_usart.c ****   assert_param(IS_FUNCTIONAL_STATE(NewState));
 473:/home/user/Desktop/STM32-Projekte/FH-Vertibot/src/STM32F30x_StdPeriph_Driver/src/stm32f30x_usart.c ****   
 474:/home/user/Desktop/STM32-Projekte/FH-Vertibot/src/STM32F30x_StdPeriph_Driver/src/stm32f30x_usart.c ****   if (NewState != DISABLE)
 475:/home/user/Desktop/STM32-Projekte/FH-Vertibot/src/STM32F30x_StdPeriph_Driver/src/stm32f30x_usart.c ****   {
 476:/home/user/Desktop/STM32-Projekte/FH-Vertibot/src/STM32F30x_StdPeriph_Driver/src/stm32f30x_usart.c ****     /* Enable the 8x Oversampling mode by setting the OVER8 bit in the CR1 register */
 477:/home/user/Desktop/STM32-Projekte/FH-Vertibot/src/STM32F30x_StdPeriph_Driver/src/stm32f30x_usart.c ****     USARTx->CR1 |= USART_CR1_OVER8;
 484              		.loc 1 477 0
 485 01b0 0368     		ldr	r3, [r0, #0]
 474:/home/user/Desktop/STM32-Projekte/FH-Vertibot/src/STM32F30x_StdPeriph_Driver/src/stm32f30x_usart.c ****   if (NewState != DISABLE)
 486              		.loc 1 474 0
 487 01b2 11B1     		cbz	r1, .L37
 488              		.loc 1 477 0
 489 01b4 43F40043 		orr	r3, r3, #32768
 490 01b8 01E0     		b	.L39
 491              	.L37:
 478:/home/user/Desktop/STM32-Projekte/FH-Vertibot/src/STM32F30x_StdPeriph_Driver/src/stm32f30x_usart.c ****   }
 479:/home/user/Desktop/STM32-Projekte/FH-Vertibot/src/STM32F30x_StdPeriph_Driver/src/stm32f30x_usart.c ****   else
 480:/home/user/Desktop/STM32-Projekte/FH-Vertibot/src/STM32F30x_StdPeriph_Driver/src/stm32f30x_usart.c ****   {
 481:/home/user/Desktop/STM32-Projekte/FH-Vertibot/src/STM32F30x_StdPeriph_Driver/src/stm32f30x_usart.c ****     /* Disable the 8x Oversampling mode by clearing the OVER8 bit in the CR1 register */
 482:/home/user/Desktop/STM32-Projekte/FH-Vertibot/src/STM32F30x_StdPeriph_Driver/src/stm32f30x_usart.c ****     USARTx->CR1 &= (uint32_t)~((uint32_t)USART_CR1_OVER8);
 492              		.loc 1 482 0
 493 01ba 23F40043 		bic	r3, r3, #32768
 494              	.L39:
 495 01be 0360     		str	r3, [r0, #0]
 496 01c0 7047     		bx	lr
 497              		.cfi_endproc
 498              	.LFE118:
 500              		.align	1
 501              		.global	USART_OneBitMethodCmd
 502              		.thumb
 503              		.thumb_func
 505              	USART_OneBitMethodCmd:
 506              	.LFB119:
 483:/home/user/Desktop/STM32-Projekte/FH-Vertibot/src/STM32F30x_StdPeriph_Driver/src/stm32f30x_usart.c ****   }
 484:/home/user/Desktop/STM32-Projekte/FH-Vertibot/src/STM32F30x_StdPeriph_Driver/src/stm32f30x_usart.c **** }
 485:/home/user/Desktop/STM32-Projekte/FH-Vertibot/src/STM32F30x_StdPeriph_Driver/src/stm32f30x_usart.c **** 
 486:/home/user/Desktop/STM32-Projekte/FH-Vertibot/src/STM32F30x_StdPeriph_Driver/src/stm32f30x_usart.c **** /**
 487:/home/user/Desktop/STM32-Projekte/FH-Vertibot/src/STM32F30x_StdPeriph_Driver/src/stm32f30x_usart.c ****   * @brief  Enables or disables the USART's one bit sampling method.
 488:/home/user/Desktop/STM32-Projekte/FH-Vertibot/src/STM32F30x_StdPeriph_Driver/src/stm32f30x_usart.c ****   * @param  USARTx: Select the USART peripheral. This parameter can be one of the
 489:/home/user/Desktop/STM32-Projekte/FH-Vertibot/src/STM32F30x_StdPeriph_Driver/src/stm32f30x_usart.c ****   *         following values: USART1 or USART2 or USART3 or UART4 or UART5.
 490:/home/user/Desktop/STM32-Projekte/FH-Vertibot/src/STM32F30x_StdPeriph_Driver/src/stm32f30x_usart.c ****   * @param  NewState: new state of the USART one bit sampling method.
 491:/home/user/Desktop/STM32-Projekte/FH-Vertibot/src/STM32F30x_StdPeriph_Driver/src/stm32f30x_usart.c ****   *         This parameter can be: ENABLE or DISABLE.
 492:/home/user/Desktop/STM32-Projekte/FH-Vertibot/src/STM32F30x_StdPeriph_Driver/src/stm32f30x_usart.c ****   * @note
 493:/home/user/Desktop/STM32-Projekte/FH-Vertibot/src/STM32F30x_StdPeriph_Driver/src/stm32f30x_usart.c ****   *   This function has to be called before calling USART_Cmd() function.
 494:/home/user/Desktop/STM32-Projekte/FH-Vertibot/src/STM32F30x_StdPeriph_Driver/src/stm32f30x_usart.c ****   * @retval None
 495:/home/user/Desktop/STM32-Projekte/FH-Vertibot/src/STM32F30x_StdPeriph_Driver/src/stm32f30x_usart.c ****   */
 496:/home/user/Desktop/STM32-Projekte/FH-Vertibot/src/STM32F30x_StdPeriph_Driver/src/stm32f30x_usart.c **** void USART_OneBitMethodCmd(USART_TypeDef* USARTx, FunctionalState NewState)
 497:/home/user/Desktop/STM32-Projekte/FH-Vertibot/src/STM32F30x_StdPeriph_Driver/src/stm32f30x_usart.c **** {
 507              		.loc 1 497 0
 508              		.cfi_startproc
 509              		@ args = 0, pretend = 0, frame = 0
 510              		@ frame_needed = 0, uses_anonymous_args = 0
 511              		@ link register save eliminated.
 512              	.LVL57:
 498:/home/user/Desktop/STM32-Projekte/FH-Vertibot/src/STM32F30x_StdPeriph_Driver/src/stm32f30x_usart.c ****   /* Check the parameters */
 499:/home/user/Desktop/STM32-Projekte/FH-Vertibot/src/STM32F30x_StdPeriph_Driver/src/stm32f30x_usart.c ****   assert_param(IS_USART_ALL_PERIPH(USARTx));
 500:/home/user/Desktop/STM32-Projekte/FH-Vertibot/src/STM32F30x_StdPeriph_Driver/src/stm32f30x_usart.c ****   assert_param(IS_FUNCTIONAL_STATE(NewState));
 501:/home/user/Desktop/STM32-Projekte/FH-Vertibot/src/STM32F30x_StdPeriph_Driver/src/stm32f30x_usart.c **** 
 502:/home/user/Desktop/STM32-Projekte/FH-Vertibot/src/STM32F30x_StdPeriph_Driver/src/stm32f30x_usart.c ****   if (NewState != DISABLE)
 503:/home/user/Desktop/STM32-Projekte/FH-Vertibot/src/STM32F30x_StdPeriph_Driver/src/stm32f30x_usart.c ****   {
 504:/home/user/Desktop/STM32-Projekte/FH-Vertibot/src/STM32F30x_StdPeriph_Driver/src/stm32f30x_usart.c ****     /* Enable the one bit method by setting the ONEBITE bit in the CR3 register */
 505:/home/user/Desktop/STM32-Projekte/FH-Vertibot/src/STM32F30x_StdPeriph_Driver/src/stm32f30x_usart.c ****     USARTx->CR3 |= USART_CR3_ONEBIT;
 513              		.loc 1 505 0
 514 01c2 8368     		ldr	r3, [r0, #8]
 502:/home/user/Desktop/STM32-Projekte/FH-Vertibot/src/STM32F30x_StdPeriph_Driver/src/stm32f30x_usart.c ****   if (NewState != DISABLE)
 515              		.loc 1 502 0
 516 01c4 11B1     		cbz	r1, .L41
 517              		.loc 1 505 0
 518 01c6 43F40063 		orr	r3, r3, #2048
 519 01ca 01E0     		b	.L43
 520              	.L41:
 506:/home/user/Desktop/STM32-Projekte/FH-Vertibot/src/STM32F30x_StdPeriph_Driver/src/stm32f30x_usart.c ****   }
 507:/home/user/Desktop/STM32-Projekte/FH-Vertibot/src/STM32F30x_StdPeriph_Driver/src/stm32f30x_usart.c ****   else
 508:/home/user/Desktop/STM32-Projekte/FH-Vertibot/src/STM32F30x_StdPeriph_Driver/src/stm32f30x_usart.c ****   {
 509:/home/user/Desktop/STM32-Projekte/FH-Vertibot/src/STM32F30x_StdPeriph_Driver/src/stm32f30x_usart.c ****     /* Disable the one bit method by clearing the ONEBITE bit in the CR3 register */
 510:/home/user/Desktop/STM32-Projekte/FH-Vertibot/src/STM32F30x_StdPeriph_Driver/src/stm32f30x_usart.c ****     USARTx->CR3 &= (uint32_t)~((uint32_t)USART_CR3_ONEBIT);
 521              		.loc 1 510 0
 522 01cc 23F40063 		bic	r3, r3, #2048
 523              	.L43:
 524 01d0 8360     		str	r3, [r0, #8]
 525 01d2 7047     		bx	lr
 526              		.cfi_endproc
 527              	.LFE119:
 529              		.align	1
 530              		.global	USART_MSBFirstCmd
 531              		.thumb
 532              		.thumb_func
 534              	USART_MSBFirstCmd:
 535              	.LFB120:
 511:/home/user/Desktop/STM32-Projekte/FH-Vertibot/src/STM32F30x_StdPeriph_Driver/src/stm32f30x_usart.c ****   }
 512:/home/user/Desktop/STM32-Projekte/FH-Vertibot/src/STM32F30x_StdPeriph_Driver/src/stm32f30x_usart.c **** }
 513:/home/user/Desktop/STM32-Projekte/FH-Vertibot/src/STM32F30x_StdPeriph_Driver/src/stm32f30x_usart.c **** 
 514:/home/user/Desktop/STM32-Projekte/FH-Vertibot/src/STM32F30x_StdPeriph_Driver/src/stm32f30x_usart.c **** /**
 515:/home/user/Desktop/STM32-Projekte/FH-Vertibot/src/STM32F30x_StdPeriph_Driver/src/stm32f30x_usart.c ****   * @brief  Enables or disables the USART's most significant bit first 
 516:/home/user/Desktop/STM32-Projekte/FH-Vertibot/src/STM32F30x_StdPeriph_Driver/src/stm32f30x_usart.c ****   *         transmitted/received following the start bit.
 517:/home/user/Desktop/STM32-Projekte/FH-Vertibot/src/STM32F30x_StdPeriph_Driver/src/stm32f30x_usart.c ****   * @param  USARTx: Select the USART peripheral. This parameter can be one of the
 518:/home/user/Desktop/STM32-Projekte/FH-Vertibot/src/STM32F30x_StdPeriph_Driver/src/stm32f30x_usart.c ****   *         following values: USART1 or USART2 or USART3 or UART4 or UART5.
 519:/home/user/Desktop/STM32-Projekte/FH-Vertibot/src/STM32F30x_StdPeriph_Driver/src/stm32f30x_usart.c ****   * @param  NewState: new state of the USART most significant bit first
 520:/home/user/Desktop/STM32-Projekte/FH-Vertibot/src/STM32F30x_StdPeriph_Driver/src/stm32f30x_usart.c ****   *         transmitted/received following the start bit.
 521:/home/user/Desktop/STM32-Projekte/FH-Vertibot/src/STM32F30x_StdPeriph_Driver/src/stm32f30x_usart.c ****   *         This parameter can be: ENABLE or DISABLE.
 522:/home/user/Desktop/STM32-Projekte/FH-Vertibot/src/STM32F30x_StdPeriph_Driver/src/stm32f30x_usart.c ****   * @note
 523:/home/user/Desktop/STM32-Projekte/FH-Vertibot/src/STM32F30x_StdPeriph_Driver/src/stm32f30x_usart.c ****   *   This function has to be called before calling USART_Cmd() function. 
 524:/home/user/Desktop/STM32-Projekte/FH-Vertibot/src/STM32F30x_StdPeriph_Driver/src/stm32f30x_usart.c ****   * @retval None
 525:/home/user/Desktop/STM32-Projekte/FH-Vertibot/src/STM32F30x_StdPeriph_Driver/src/stm32f30x_usart.c ****   */
 526:/home/user/Desktop/STM32-Projekte/FH-Vertibot/src/STM32F30x_StdPeriph_Driver/src/stm32f30x_usart.c **** void USART_MSBFirstCmd(USART_TypeDef* USARTx, FunctionalState NewState)
 527:/home/user/Desktop/STM32-Projekte/FH-Vertibot/src/STM32F30x_StdPeriph_Driver/src/stm32f30x_usart.c **** {
 536              		.loc 1 527 0
 537              		.cfi_startproc
 538              		@ args = 0, pretend = 0, frame = 0
 539              		@ frame_needed = 0, uses_anonymous_args = 0
 540              		@ link register save eliminated.
 541              	.LVL58:
 528:/home/user/Desktop/STM32-Projekte/FH-Vertibot/src/STM32F30x_StdPeriph_Driver/src/stm32f30x_usart.c ****   /* Check the parameters */
 529:/home/user/Desktop/STM32-Projekte/FH-Vertibot/src/STM32F30x_StdPeriph_Driver/src/stm32f30x_usart.c ****   assert_param(IS_USART_ALL_PERIPH(USARTx));
 530:/home/user/Desktop/STM32-Projekte/FH-Vertibot/src/STM32F30x_StdPeriph_Driver/src/stm32f30x_usart.c ****   assert_param(IS_FUNCTIONAL_STATE(NewState));
 531:/home/user/Desktop/STM32-Projekte/FH-Vertibot/src/STM32F30x_StdPeriph_Driver/src/stm32f30x_usart.c **** 
 532:/home/user/Desktop/STM32-Projekte/FH-Vertibot/src/STM32F30x_StdPeriph_Driver/src/stm32f30x_usart.c ****   if (NewState != DISABLE)
 533:/home/user/Desktop/STM32-Projekte/FH-Vertibot/src/STM32F30x_StdPeriph_Driver/src/stm32f30x_usart.c ****   {
 534:/home/user/Desktop/STM32-Projekte/FH-Vertibot/src/STM32F30x_StdPeriph_Driver/src/stm32f30x_usart.c ****     /* Enable the most significant bit first transmitted/received following the
 535:/home/user/Desktop/STM32-Projekte/FH-Vertibot/src/STM32F30x_StdPeriph_Driver/src/stm32f30x_usart.c ****        start bit by setting the MSBFIRST bit in the CR2 register */
 536:/home/user/Desktop/STM32-Projekte/FH-Vertibot/src/STM32F30x_StdPeriph_Driver/src/stm32f30x_usart.c ****     USARTx->CR2 |= USART_CR2_MSBFIRST;
 542              		.loc 1 536 0
 543 01d4 4368     		ldr	r3, [r0, #4]
 532:/home/user/Desktop/STM32-Projekte/FH-Vertibot/src/STM32F30x_StdPeriph_Driver/src/stm32f30x_usart.c ****   if (NewState != DISABLE)
 544              		.loc 1 532 0
 545 01d6 11B1     		cbz	r1, .L45
 546              		.loc 1 536 0
 547 01d8 43F40023 		orr	r3, r3, #524288
 548 01dc 01E0     		b	.L47
 549              	.L45:
 537:/home/user/Desktop/STM32-Projekte/FH-Vertibot/src/STM32F30x_StdPeriph_Driver/src/stm32f30x_usart.c ****   }
 538:/home/user/Desktop/STM32-Projekte/FH-Vertibot/src/STM32F30x_StdPeriph_Driver/src/stm32f30x_usart.c ****   else
 539:/home/user/Desktop/STM32-Projekte/FH-Vertibot/src/STM32F30x_StdPeriph_Driver/src/stm32f30x_usart.c ****   {
 540:/home/user/Desktop/STM32-Projekte/FH-Vertibot/src/STM32F30x_StdPeriph_Driver/src/stm32f30x_usart.c ****     /* Disable the most significant bit first transmitted/received following the
 541:/home/user/Desktop/STM32-Projekte/FH-Vertibot/src/STM32F30x_StdPeriph_Driver/src/stm32f30x_usart.c ****        start bit by clearing the MSBFIRST bit in the CR2 register */
 542:/home/user/Desktop/STM32-Projekte/FH-Vertibot/src/STM32F30x_StdPeriph_Driver/src/stm32f30x_usart.c ****     USARTx->CR2 &= (uint32_t)~((uint32_t)USART_CR2_MSBFIRST);
 550              		.loc 1 542 0
 551 01de 23F40023 		bic	r3, r3, #524288
 552              	.L47:
 553 01e2 4360     		str	r3, [r0, #4]
 554 01e4 7047     		bx	lr
 555              		.cfi_endproc
 556              	.LFE120:
 558              		.align	1
 559              		.global	USART_DataInvCmd
 560              		.thumb
 561              		.thumb_func
 563              	USART_DataInvCmd:
 564              	.LFB121:
 543:/home/user/Desktop/STM32-Projekte/FH-Vertibot/src/STM32F30x_StdPeriph_Driver/src/stm32f30x_usart.c ****   }
 544:/home/user/Desktop/STM32-Projekte/FH-Vertibot/src/STM32F30x_StdPeriph_Driver/src/stm32f30x_usart.c **** }
 545:/home/user/Desktop/STM32-Projekte/FH-Vertibot/src/STM32F30x_StdPeriph_Driver/src/stm32f30x_usart.c **** 
 546:/home/user/Desktop/STM32-Projekte/FH-Vertibot/src/STM32F30x_StdPeriph_Driver/src/stm32f30x_usart.c **** /**
 547:/home/user/Desktop/STM32-Projekte/FH-Vertibot/src/STM32F30x_StdPeriph_Driver/src/stm32f30x_usart.c ****   * @brief  Enables or disables the binary data inversion.
 548:/home/user/Desktop/STM32-Projekte/FH-Vertibot/src/STM32F30x_StdPeriph_Driver/src/stm32f30x_usart.c ****   * @param  USARTx: Select the USART peripheral. This parameter can be one of the 
 549:/home/user/Desktop/STM32-Projekte/FH-Vertibot/src/STM32F30x_StdPeriph_Driver/src/stm32f30x_usart.c ****   *         following values: USART1 or USART2 or USART3 or UART4 or UART5.
 550:/home/user/Desktop/STM32-Projekte/FH-Vertibot/src/STM32F30x_StdPeriph_Driver/src/stm32f30x_usart.c ****   * @param  NewState: new defined levels for the USART data.
 551:/home/user/Desktop/STM32-Projekte/FH-Vertibot/src/STM32F30x_StdPeriph_Driver/src/stm32f30x_usart.c ****   *         This parameter can be: ENABLE or DISABLE.
 552:/home/user/Desktop/STM32-Projekte/FH-Vertibot/src/STM32F30x_StdPeriph_Driver/src/stm32f30x_usart.c ****   *   @arg  ENABLE: Logical data from the data register are send/received in negative
 553:/home/user/Desktop/STM32-Projekte/FH-Vertibot/src/STM32F30x_StdPeriph_Driver/src/stm32f30x_usart.c ****   *         logic. (1=L, 0=H). The parity bit is also inverted.
 554:/home/user/Desktop/STM32-Projekte/FH-Vertibot/src/STM32F30x_StdPeriph_Driver/src/stm32f30x_usart.c ****   *   @arg  DISABLE: Logical data from the data register are send/received in positive
 555:/home/user/Desktop/STM32-Projekte/FH-Vertibot/src/STM32F30x_StdPeriph_Driver/src/stm32f30x_usart.c ****   *         logic. (1=H, 0=L) 
 556:/home/user/Desktop/STM32-Projekte/FH-Vertibot/src/STM32F30x_StdPeriph_Driver/src/stm32f30x_usart.c ****   * @note
 557:/home/user/Desktop/STM32-Projekte/FH-Vertibot/src/STM32F30x_StdPeriph_Driver/src/stm32f30x_usart.c ****   *   This function has to be called before calling USART_Cmd() function. 
 558:/home/user/Desktop/STM32-Projekte/FH-Vertibot/src/STM32F30x_StdPeriph_Driver/src/stm32f30x_usart.c ****   * @retval None
 559:/home/user/Desktop/STM32-Projekte/FH-Vertibot/src/STM32F30x_StdPeriph_Driver/src/stm32f30x_usart.c ****   */
 560:/home/user/Desktop/STM32-Projekte/FH-Vertibot/src/STM32F30x_StdPeriph_Driver/src/stm32f30x_usart.c **** void USART_DataInvCmd(USART_TypeDef* USARTx, FunctionalState NewState)
 561:/home/user/Desktop/STM32-Projekte/FH-Vertibot/src/STM32F30x_StdPeriph_Driver/src/stm32f30x_usart.c **** {
 565              		.loc 1 561 0
 566              		.cfi_startproc
 567              		@ args = 0, pretend = 0, frame = 0
 568              		@ frame_needed = 0, uses_anonymous_args = 0
 569              		@ link register save eliminated.
 570              	.LVL59:
 562:/home/user/Desktop/STM32-Projekte/FH-Vertibot/src/STM32F30x_StdPeriph_Driver/src/stm32f30x_usart.c ****   /* Check the parameters */
 563:/home/user/Desktop/STM32-Projekte/FH-Vertibot/src/STM32F30x_StdPeriph_Driver/src/stm32f30x_usart.c ****   assert_param(IS_USART_ALL_PERIPH(USARTx));
 564:/home/user/Desktop/STM32-Projekte/FH-Vertibot/src/STM32F30x_StdPeriph_Driver/src/stm32f30x_usart.c ****   assert_param(IS_FUNCTIONAL_STATE(NewState));
 565:/home/user/Desktop/STM32-Projekte/FH-Vertibot/src/STM32F30x_StdPeriph_Driver/src/stm32f30x_usart.c **** 
 566:/home/user/Desktop/STM32-Projekte/FH-Vertibot/src/STM32F30x_StdPeriph_Driver/src/stm32f30x_usart.c ****   if (NewState != DISABLE)
 567:/home/user/Desktop/STM32-Projekte/FH-Vertibot/src/STM32F30x_StdPeriph_Driver/src/stm32f30x_usart.c ****   {
 568:/home/user/Desktop/STM32-Projekte/FH-Vertibot/src/STM32F30x_StdPeriph_Driver/src/stm32f30x_usart.c ****     /* Enable the binary data inversion feature by setting the DATAINV bit in
 569:/home/user/Desktop/STM32-Projekte/FH-Vertibot/src/STM32F30x_StdPeriph_Driver/src/stm32f30x_usart.c ****        the CR2 register */
 570:/home/user/Desktop/STM32-Projekte/FH-Vertibot/src/STM32F30x_StdPeriph_Driver/src/stm32f30x_usart.c ****     USARTx->CR2 |= USART_CR2_DATAINV;
 571              		.loc 1 570 0
 572 01e6 4368     		ldr	r3, [r0, #4]
 566:/home/user/Desktop/STM32-Projekte/FH-Vertibot/src/STM32F30x_StdPeriph_Driver/src/stm32f30x_usart.c ****   if (NewState != DISABLE)
 573              		.loc 1 566 0
 574 01e8 11B1     		cbz	r1, .L49
 575              		.loc 1 570 0
 576 01ea 43F48023 		orr	r3, r3, #262144
 577 01ee 01E0     		b	.L51
 578              	.L49:
 571:/home/user/Desktop/STM32-Projekte/FH-Vertibot/src/STM32F30x_StdPeriph_Driver/src/stm32f30x_usart.c ****   }
 572:/home/user/Desktop/STM32-Projekte/FH-Vertibot/src/STM32F30x_StdPeriph_Driver/src/stm32f30x_usart.c ****   else
 573:/home/user/Desktop/STM32-Projekte/FH-Vertibot/src/STM32F30x_StdPeriph_Driver/src/stm32f30x_usart.c ****   {
 574:/home/user/Desktop/STM32-Projekte/FH-Vertibot/src/STM32F30x_StdPeriph_Driver/src/stm32f30x_usart.c ****     /* Disable the binary data inversion feature by clearing the DATAINV bit in
 575:/home/user/Desktop/STM32-Projekte/FH-Vertibot/src/STM32F30x_StdPeriph_Driver/src/stm32f30x_usart.c ****        the CR2 register */
 576:/home/user/Desktop/STM32-Projekte/FH-Vertibot/src/STM32F30x_StdPeriph_Driver/src/stm32f30x_usart.c ****     USARTx->CR2 &= (uint32_t)~((uint32_t)USART_CR2_DATAINV);
 579              		.loc 1 576 0
 580 01f0 23F48023 		bic	r3, r3, #262144
 581              	.L51:
 582 01f4 4360     		str	r3, [r0, #4]
 583 01f6 7047     		bx	lr
 584              		.cfi_endproc
 585              	.LFE121:
 587              		.align	1
 588              		.global	USART_InvPinCmd
 589              		.thumb
 590              		.thumb_func
 592              	USART_InvPinCmd:
 593              	.LFB122:
 577:/home/user/Desktop/STM32-Projekte/FH-Vertibot/src/STM32F30x_StdPeriph_Driver/src/stm32f30x_usart.c ****   }
 578:/home/user/Desktop/STM32-Projekte/FH-Vertibot/src/STM32F30x_StdPeriph_Driver/src/stm32f30x_usart.c **** }
 579:/home/user/Desktop/STM32-Projekte/FH-Vertibot/src/STM32F30x_StdPeriph_Driver/src/stm32f30x_usart.c **** 
 580:/home/user/Desktop/STM32-Projekte/FH-Vertibot/src/STM32F30x_StdPeriph_Driver/src/stm32f30x_usart.c **** /**
 581:/home/user/Desktop/STM32-Projekte/FH-Vertibot/src/STM32F30x_StdPeriph_Driver/src/stm32f30x_usart.c ****   * @brief  Enables or disables the Pin(s) active level inversion.
 582:/home/user/Desktop/STM32-Projekte/FH-Vertibot/src/STM32F30x_StdPeriph_Driver/src/stm32f30x_usart.c ****   * @param  USARTx: Select the USART peripheral. This parameter can be one of the 
 583:/home/user/Desktop/STM32-Projekte/FH-Vertibot/src/STM32F30x_StdPeriph_Driver/src/stm32f30x_usart.c ****   *         following values: USART1 or USART2 or USART3 or UART4 or UART5.
 584:/home/user/Desktop/STM32-Projekte/FH-Vertibot/src/STM32F30x_StdPeriph_Driver/src/stm32f30x_usart.c ****   * @param  USART_InvPin: specifies the USART pin(s) to invert.
 585:/home/user/Desktop/STM32-Projekte/FH-Vertibot/src/STM32F30x_StdPeriph_Driver/src/stm32f30x_usart.c ****   *         This parameter can be any combination of the following values:
 586:/home/user/Desktop/STM32-Projekte/FH-Vertibot/src/STM32F30x_StdPeriph_Driver/src/stm32f30x_usart.c ****   *         @arg USART_InvPin_Tx: USART Tx pin active level inversion.
 587:/home/user/Desktop/STM32-Projekte/FH-Vertibot/src/STM32F30x_StdPeriph_Driver/src/stm32f30x_usart.c ****   *         @arg USART_InvPin_Rx: USART Rx pin active level inversion.
 588:/home/user/Desktop/STM32-Projekte/FH-Vertibot/src/STM32F30x_StdPeriph_Driver/src/stm32f30x_usart.c ****   * @param  NewState: new active level status for the USART pin(s).
 589:/home/user/Desktop/STM32-Projekte/FH-Vertibot/src/STM32F30x_StdPeriph_Driver/src/stm32f30x_usart.c ****   *         This parameter can be: ENABLE or DISABLE.
 590:/home/user/Desktop/STM32-Projekte/FH-Vertibot/src/STM32F30x_StdPeriph_Driver/src/stm32f30x_usart.c ****   *          - ENABLE: pin(s) signal values are inverted (Vdd =0, Gnd =1).
 591:/home/user/Desktop/STM32-Projekte/FH-Vertibot/src/STM32F30x_StdPeriph_Driver/src/stm32f30x_usart.c ****   *          - DISABLE: pin(s) signal works using the standard logic levels (Vdd =1, Gnd =0).
 592:/home/user/Desktop/STM32-Projekte/FH-Vertibot/src/STM32F30x_StdPeriph_Driver/src/stm32f30x_usart.c ****   * @note
 593:/home/user/Desktop/STM32-Projekte/FH-Vertibot/src/STM32F30x_StdPeriph_Driver/src/stm32f30x_usart.c ****   *   This function has to be called before calling USART_Cmd() function.  
 594:/home/user/Desktop/STM32-Projekte/FH-Vertibot/src/STM32F30x_StdPeriph_Driver/src/stm32f30x_usart.c ****   * @retval None
 595:/home/user/Desktop/STM32-Projekte/FH-Vertibot/src/STM32F30x_StdPeriph_Driver/src/stm32f30x_usart.c ****   */
 596:/home/user/Desktop/STM32-Projekte/FH-Vertibot/src/STM32F30x_StdPeriph_Driver/src/stm32f30x_usart.c **** void USART_InvPinCmd(USART_TypeDef* USARTx, uint32_t USART_InvPin, FunctionalState NewState)
 597:/home/user/Desktop/STM32-Projekte/FH-Vertibot/src/STM32F30x_StdPeriph_Driver/src/stm32f30x_usart.c **** {
 594              		.loc 1 597 0
 595              		.cfi_startproc
 596              		@ args = 0, pretend = 0, frame = 0
 597              		@ frame_needed = 0, uses_anonymous_args = 0
 598              		@ link register save eliminated.
 599              	.LVL60:
 598:/home/user/Desktop/STM32-Projekte/FH-Vertibot/src/STM32F30x_StdPeriph_Driver/src/stm32f30x_usart.c ****   /* Check the parameters */
 599:/home/user/Desktop/STM32-Projekte/FH-Vertibot/src/STM32F30x_StdPeriph_Driver/src/stm32f30x_usart.c ****   assert_param(IS_USART_ALL_PERIPH(USARTx));
 600:/home/user/Desktop/STM32-Projekte/FH-Vertibot/src/STM32F30x_StdPeriph_Driver/src/stm32f30x_usart.c ****   assert_param(IS_USART_INVERSTION_PIN(USART_InvPin));
 601:/home/user/Desktop/STM32-Projekte/FH-Vertibot/src/STM32F30x_StdPeriph_Driver/src/stm32f30x_usart.c ****   assert_param(IS_FUNCTIONAL_STATE(NewState)); 
 602:/home/user/Desktop/STM32-Projekte/FH-Vertibot/src/STM32F30x_StdPeriph_Driver/src/stm32f30x_usart.c **** 
 603:/home/user/Desktop/STM32-Projekte/FH-Vertibot/src/STM32F30x_StdPeriph_Driver/src/stm32f30x_usart.c ****   if (NewState != DISABLE)
 604:/home/user/Desktop/STM32-Projekte/FH-Vertibot/src/STM32F30x_StdPeriph_Driver/src/stm32f30x_usart.c ****   {
 605:/home/user/Desktop/STM32-Projekte/FH-Vertibot/src/STM32F30x_StdPeriph_Driver/src/stm32f30x_usart.c ****     /* Enable the active level inversion for selected pins by setting the TXINV 
 606:/home/user/Desktop/STM32-Projekte/FH-Vertibot/src/STM32F30x_StdPeriph_Driver/src/stm32f30x_usart.c ****        and/or RXINV bits in the USART CR2 register */
 607:/home/user/Desktop/STM32-Projekte/FH-Vertibot/src/STM32F30x_StdPeriph_Driver/src/stm32f30x_usart.c ****     USARTx->CR2 |= USART_InvPin;
 600              		.loc 1 607 0
 601 01f8 4368     		ldr	r3, [r0, #4]
 603:/home/user/Desktop/STM32-Projekte/FH-Vertibot/src/STM32F30x_StdPeriph_Driver/src/stm32f30x_usart.c ****   if (NewState != DISABLE)
 602              		.loc 1 603 0
 603 01fa 0AB1     		cbz	r2, .L53
 604              		.loc 1 607 0
 605 01fc 1943     		orrs	r1, r1, r3
 606              	.LVL61:
 607 01fe 01E0     		b	.L55
 608              	.LVL62:
 609              	.L53:
 608:/home/user/Desktop/STM32-Projekte/FH-Vertibot/src/STM32F30x_StdPeriph_Driver/src/stm32f30x_usart.c ****   }
 609:/home/user/Desktop/STM32-Projekte/FH-Vertibot/src/STM32F30x_StdPeriph_Driver/src/stm32f30x_usart.c ****   else
 610:/home/user/Desktop/STM32-Projekte/FH-Vertibot/src/STM32F30x_StdPeriph_Driver/src/stm32f30x_usart.c ****   {
 611:/home/user/Desktop/STM32-Projekte/FH-Vertibot/src/STM32F30x_StdPeriph_Driver/src/stm32f30x_usart.c ****     /* Disable the active level inversion for selected requests by clearing the 
 612:/home/user/Desktop/STM32-Projekte/FH-Vertibot/src/STM32F30x_StdPeriph_Driver/src/stm32f30x_usart.c ****        TXINV and/or RXINV bits in the USART CR2 register */
 613:/home/user/Desktop/STM32-Projekte/FH-Vertibot/src/STM32F30x_StdPeriph_Driver/src/stm32f30x_usart.c ****     USARTx->CR2 &= (uint32_t)~USART_InvPin;
 610              		.loc 1 613 0
 611 0200 23EA0101 		bic	r1, r3, r1
 612              	.LVL63:
 613              	.L55:
 614 0204 4160     		str	r1, [r0, #4]
 615 0206 7047     		bx	lr
 616              		.cfi_endproc
 617              	.LFE122:
 619              		.align	1
 620              		.global	USART_SWAPPinCmd
 621              		.thumb
 622              		.thumb_func
 624              	USART_SWAPPinCmd:
 625              	.LFB123:
 614:/home/user/Desktop/STM32-Projekte/FH-Vertibot/src/STM32F30x_StdPeriph_Driver/src/stm32f30x_usart.c ****   }
 615:/home/user/Desktop/STM32-Projekte/FH-Vertibot/src/STM32F30x_StdPeriph_Driver/src/stm32f30x_usart.c **** }
 616:/home/user/Desktop/STM32-Projekte/FH-Vertibot/src/STM32F30x_StdPeriph_Driver/src/stm32f30x_usart.c **** 
 617:/home/user/Desktop/STM32-Projekte/FH-Vertibot/src/STM32F30x_StdPeriph_Driver/src/stm32f30x_usart.c **** /**
 618:/home/user/Desktop/STM32-Projekte/FH-Vertibot/src/STM32F30x_StdPeriph_Driver/src/stm32f30x_usart.c ****   * @brief  Enables or disables the swap Tx/Rx pins.
 619:/home/user/Desktop/STM32-Projekte/FH-Vertibot/src/STM32F30x_StdPeriph_Driver/src/stm32f30x_usart.c ****   * @param  USARTx: Select the USART peripheral. This parameter can be one of the
 620:/home/user/Desktop/STM32-Projekte/FH-Vertibot/src/STM32F30x_StdPeriph_Driver/src/stm32f30x_usart.c ****   *         following values: USART1 or USART2 or USART3 or UART4 or UART5.
 621:/home/user/Desktop/STM32-Projekte/FH-Vertibot/src/STM32F30x_StdPeriph_Driver/src/stm32f30x_usart.c ****   * @param  NewState: new state of the USARTx TX/RX pins pinout.
 622:/home/user/Desktop/STM32-Projekte/FH-Vertibot/src/STM32F30x_StdPeriph_Driver/src/stm32f30x_usart.c ****   *         This parameter can be: ENABLE or DISABLE.
 623:/home/user/Desktop/STM32-Projekte/FH-Vertibot/src/STM32F30x_StdPeriph_Driver/src/stm32f30x_usart.c ****   *         @arg ENABLE: The TX and RX pins functions are swapped.
 624:/home/user/Desktop/STM32-Projekte/FH-Vertibot/src/STM32F30x_StdPeriph_Driver/src/stm32f30x_usart.c ****   *         @arg DISABLE: TX/RX pins are used as defined in standard pinout
 625:/home/user/Desktop/STM32-Projekte/FH-Vertibot/src/STM32F30x_StdPeriph_Driver/src/stm32f30x_usart.c ****   * @note
 626:/home/user/Desktop/STM32-Projekte/FH-Vertibot/src/STM32F30x_StdPeriph_Driver/src/stm32f30x_usart.c ****   *   This function has to be called before calling USART_Cmd() function.
 627:/home/user/Desktop/STM32-Projekte/FH-Vertibot/src/STM32F30x_StdPeriph_Driver/src/stm32f30x_usart.c ****   * @retval None
 628:/home/user/Desktop/STM32-Projekte/FH-Vertibot/src/STM32F30x_StdPeriph_Driver/src/stm32f30x_usart.c ****   */
 629:/home/user/Desktop/STM32-Projekte/FH-Vertibot/src/STM32F30x_StdPeriph_Driver/src/stm32f30x_usart.c **** void USART_SWAPPinCmd(USART_TypeDef* USARTx, FunctionalState NewState)
 630:/home/user/Desktop/STM32-Projekte/FH-Vertibot/src/STM32F30x_StdPeriph_Driver/src/stm32f30x_usart.c **** {
 626              		.loc 1 630 0
 627              		.cfi_startproc
 628              		@ args = 0, pretend = 0, frame = 0
 629              		@ frame_needed = 0, uses_anonymous_args = 0
 630              		@ link register save eliminated.
 631              	.LVL64:
 631:/home/user/Desktop/STM32-Projekte/FH-Vertibot/src/STM32F30x_StdPeriph_Driver/src/stm32f30x_usart.c ****   /* Check the parameters */
 632:/home/user/Desktop/STM32-Projekte/FH-Vertibot/src/STM32F30x_StdPeriph_Driver/src/stm32f30x_usart.c ****   assert_param(IS_USART_ALL_PERIPH(USARTx));
 633:/home/user/Desktop/STM32-Projekte/FH-Vertibot/src/STM32F30x_StdPeriph_Driver/src/stm32f30x_usart.c ****   assert_param(IS_FUNCTIONAL_STATE(NewState));
 634:/home/user/Desktop/STM32-Projekte/FH-Vertibot/src/STM32F30x_StdPeriph_Driver/src/stm32f30x_usart.c **** 
 635:/home/user/Desktop/STM32-Projekte/FH-Vertibot/src/STM32F30x_StdPeriph_Driver/src/stm32f30x_usart.c ****   if (NewState != DISABLE)
 636:/home/user/Desktop/STM32-Projekte/FH-Vertibot/src/STM32F30x_StdPeriph_Driver/src/stm32f30x_usart.c ****   {
 637:/home/user/Desktop/STM32-Projekte/FH-Vertibot/src/STM32F30x_StdPeriph_Driver/src/stm32f30x_usart.c ****     /* Enable the SWAP feature by setting the SWAP bit in the CR2 register */
 638:/home/user/Desktop/STM32-Projekte/FH-Vertibot/src/STM32F30x_StdPeriph_Driver/src/stm32f30x_usart.c ****     USARTx->CR2 |= USART_CR2_SWAP;
 632              		.loc 1 638 0
 633 0208 4368     		ldr	r3, [r0, #4]
 635:/home/user/Desktop/STM32-Projekte/FH-Vertibot/src/STM32F30x_StdPeriph_Driver/src/stm32f30x_usart.c ****   if (NewState != DISABLE)
 634              		.loc 1 635 0
 635 020a 11B1     		cbz	r1, .L57
 636              		.loc 1 638 0
 637 020c 43F40043 		orr	r3, r3, #32768
 638 0210 01E0     		b	.L59
 639              	.L57:
 639:/home/user/Desktop/STM32-Projekte/FH-Vertibot/src/STM32F30x_StdPeriph_Driver/src/stm32f30x_usart.c ****   }
 640:/home/user/Desktop/STM32-Projekte/FH-Vertibot/src/STM32F30x_StdPeriph_Driver/src/stm32f30x_usart.c ****   else
 641:/home/user/Desktop/STM32-Projekte/FH-Vertibot/src/STM32F30x_StdPeriph_Driver/src/stm32f30x_usart.c ****   {
 642:/home/user/Desktop/STM32-Projekte/FH-Vertibot/src/STM32F30x_StdPeriph_Driver/src/stm32f30x_usart.c ****     /* Disable the SWAP feature by clearing the SWAP bit in the CR2 register */
 643:/home/user/Desktop/STM32-Projekte/FH-Vertibot/src/STM32F30x_StdPeriph_Driver/src/stm32f30x_usart.c ****     USARTx->CR2 &= (uint32_t)~((uint32_t)USART_CR2_SWAP);
 640              		.loc 1 643 0
 641 0212 23F40043 		bic	r3, r3, #32768
 642              	.L59:
 643 0216 4360     		str	r3, [r0, #4]
 644 0218 7047     		bx	lr
 645              		.cfi_endproc
 646              	.LFE123:
 648              		.align	1
 649              		.global	USART_ReceiverTimeOutCmd
 650              		.thumb
 651              		.thumb_func
 653              	USART_ReceiverTimeOutCmd:
 654              	.LFB124:
 644:/home/user/Desktop/STM32-Projekte/FH-Vertibot/src/STM32F30x_StdPeriph_Driver/src/stm32f30x_usart.c ****   }
 645:/home/user/Desktop/STM32-Projekte/FH-Vertibot/src/STM32F30x_StdPeriph_Driver/src/stm32f30x_usart.c **** }
 646:/home/user/Desktop/STM32-Projekte/FH-Vertibot/src/STM32F30x_StdPeriph_Driver/src/stm32f30x_usart.c **** 
 647:/home/user/Desktop/STM32-Projekte/FH-Vertibot/src/STM32F30x_StdPeriph_Driver/src/stm32f30x_usart.c **** /**
 648:/home/user/Desktop/STM32-Projekte/FH-Vertibot/src/STM32F30x_StdPeriph_Driver/src/stm32f30x_usart.c ****   * @brief  Enables or disables the receiver Time Out feature.
 649:/home/user/Desktop/STM32-Projekte/FH-Vertibot/src/STM32F30x_StdPeriph_Driver/src/stm32f30x_usart.c ****   * @param  USARTx: Select the USART peripheral. This parameter can be one of the 
 650:/home/user/Desktop/STM32-Projekte/FH-Vertibot/src/STM32F30x_StdPeriph_Driver/src/stm32f30x_usart.c ****   *         following values: USART1 or USART2 or USART3 or UART4 or UART5.
 651:/home/user/Desktop/STM32-Projekte/FH-Vertibot/src/STM32F30x_StdPeriph_Driver/src/stm32f30x_usart.c ****   * @param  NewState: new state of the USARTx receiver Time Out.
 652:/home/user/Desktop/STM32-Projekte/FH-Vertibot/src/STM32F30x_StdPeriph_Driver/src/stm32f30x_usart.c ****   *         This parameter can be: ENABLE or DISABLE.
 653:/home/user/Desktop/STM32-Projekte/FH-Vertibot/src/STM32F30x_StdPeriph_Driver/src/stm32f30x_usart.c ****   * @retval None
 654:/home/user/Desktop/STM32-Projekte/FH-Vertibot/src/STM32F30x_StdPeriph_Driver/src/stm32f30x_usart.c ****   */
 655:/home/user/Desktop/STM32-Projekte/FH-Vertibot/src/STM32F30x_StdPeriph_Driver/src/stm32f30x_usart.c **** void USART_ReceiverTimeOutCmd(USART_TypeDef* USARTx, FunctionalState NewState)
 656:/home/user/Desktop/STM32-Projekte/FH-Vertibot/src/STM32F30x_StdPeriph_Driver/src/stm32f30x_usart.c **** {
 655              		.loc 1 656 0
 656              		.cfi_startproc
 657              		@ args = 0, pretend = 0, frame = 0
 658              		@ frame_needed = 0, uses_anonymous_args = 0
 659              		@ link register save eliminated.
 660              	.LVL65:
 657:/home/user/Desktop/STM32-Projekte/FH-Vertibot/src/STM32F30x_StdPeriph_Driver/src/stm32f30x_usart.c ****   /* Check the parameters */
 658:/home/user/Desktop/STM32-Projekte/FH-Vertibot/src/STM32F30x_StdPeriph_Driver/src/stm32f30x_usart.c ****   assert_param(IS_USART_ALL_PERIPH(USARTx));
 659:/home/user/Desktop/STM32-Projekte/FH-Vertibot/src/STM32F30x_StdPeriph_Driver/src/stm32f30x_usart.c ****   assert_param(IS_FUNCTIONAL_STATE(NewState));
 660:/home/user/Desktop/STM32-Projekte/FH-Vertibot/src/STM32F30x_StdPeriph_Driver/src/stm32f30x_usart.c **** 
 661:/home/user/Desktop/STM32-Projekte/FH-Vertibot/src/STM32F30x_StdPeriph_Driver/src/stm32f30x_usart.c ****   if (NewState != DISABLE)
 662:/home/user/Desktop/STM32-Projekte/FH-Vertibot/src/STM32F30x_StdPeriph_Driver/src/stm32f30x_usart.c ****   {
 663:/home/user/Desktop/STM32-Projekte/FH-Vertibot/src/STM32F30x_StdPeriph_Driver/src/stm32f30x_usart.c ****     /* Enable the receiver time out feature by setting the RTOEN bit in the CR2 
 664:/home/user/Desktop/STM32-Projekte/FH-Vertibot/src/STM32F30x_StdPeriph_Driver/src/stm32f30x_usart.c ****        register */
 665:/home/user/Desktop/STM32-Projekte/FH-Vertibot/src/STM32F30x_StdPeriph_Driver/src/stm32f30x_usart.c ****     USARTx->CR2 |= USART_CR2_RTOEN;
 661              		.loc 1 665 0
 662 021a 4368     		ldr	r3, [r0, #4]
 661:/home/user/Desktop/STM32-Projekte/FH-Vertibot/src/STM32F30x_StdPeriph_Driver/src/stm32f30x_usart.c ****   if (NewState != DISABLE)
 663              		.loc 1 661 0
 664 021c 11B1     		cbz	r1, .L61
 665              		.loc 1 665 0
 666 021e 43F40003 		orr	r3, r3, #8388608
 667 0222 01E0     		b	.L63
 668              	.L61:
 666:/home/user/Desktop/STM32-Projekte/FH-Vertibot/src/STM32F30x_StdPeriph_Driver/src/stm32f30x_usart.c ****   }
 667:/home/user/Desktop/STM32-Projekte/FH-Vertibot/src/STM32F30x_StdPeriph_Driver/src/stm32f30x_usart.c ****   else
 668:/home/user/Desktop/STM32-Projekte/FH-Vertibot/src/STM32F30x_StdPeriph_Driver/src/stm32f30x_usart.c ****   {
 669:/home/user/Desktop/STM32-Projekte/FH-Vertibot/src/STM32F30x_StdPeriph_Driver/src/stm32f30x_usart.c ****     /* Disable the receiver time out feature by clearing the RTOEN bit in the CR2 
 670:/home/user/Desktop/STM32-Projekte/FH-Vertibot/src/STM32F30x_StdPeriph_Driver/src/stm32f30x_usart.c ****        register */
 671:/home/user/Desktop/STM32-Projekte/FH-Vertibot/src/STM32F30x_StdPeriph_Driver/src/stm32f30x_usart.c ****     USARTx->CR2 &= (uint32_t)~((uint32_t)USART_CR2_RTOEN);
 669              		.loc 1 671 0
 670 0224 23F40003 		bic	r3, r3, #8388608
 671              	.L63:
 672 0228 4360     		str	r3, [r0, #4]
 673 022a 7047     		bx	lr
 674              		.cfi_endproc
 675              	.LFE124:
 677              		.align	1
 678              		.global	USART_SetReceiverTimeOut
 679              		.thumb
 680              		.thumb_func
 682              	USART_SetReceiverTimeOut:
 683              	.LFB125:
 672:/home/user/Desktop/STM32-Projekte/FH-Vertibot/src/STM32F30x_StdPeriph_Driver/src/stm32f30x_usart.c ****   }
 673:/home/user/Desktop/STM32-Projekte/FH-Vertibot/src/STM32F30x_StdPeriph_Driver/src/stm32f30x_usart.c **** }
 674:/home/user/Desktop/STM32-Projekte/FH-Vertibot/src/STM32F30x_StdPeriph_Driver/src/stm32f30x_usart.c **** 
 675:/home/user/Desktop/STM32-Projekte/FH-Vertibot/src/STM32F30x_StdPeriph_Driver/src/stm32f30x_usart.c **** /**
 676:/home/user/Desktop/STM32-Projekte/FH-Vertibot/src/STM32F30x_StdPeriph_Driver/src/stm32f30x_usart.c ****   * @brief  Sets the receiver Time Out value.
 677:/home/user/Desktop/STM32-Projekte/FH-Vertibot/src/STM32F30x_StdPeriph_Driver/src/stm32f30x_usart.c ****   * @param  USARTx: Select the USART peripheral. This parameter can be one of the 
 678:/home/user/Desktop/STM32-Projekte/FH-Vertibot/src/STM32F30x_StdPeriph_Driver/src/stm32f30x_usart.c ****   *         following values: USART1 or USART2 or USART3 or UART4 or UART5.
 679:/home/user/Desktop/STM32-Projekte/FH-Vertibot/src/STM32F30x_StdPeriph_Driver/src/stm32f30x_usart.c ****   * @param  USART_ReceiverTimeOut: specifies the Receiver Time Out value.
 680:/home/user/Desktop/STM32-Projekte/FH-Vertibot/src/STM32F30x_StdPeriph_Driver/src/stm32f30x_usart.c ****   * @retval None
 681:/home/user/Desktop/STM32-Projekte/FH-Vertibot/src/STM32F30x_StdPeriph_Driver/src/stm32f30x_usart.c ****   */
 682:/home/user/Desktop/STM32-Projekte/FH-Vertibot/src/STM32F30x_StdPeriph_Driver/src/stm32f30x_usart.c **** void USART_SetReceiverTimeOut(USART_TypeDef* USARTx, uint32_t USART_ReceiverTimeOut)
 683:/home/user/Desktop/STM32-Projekte/FH-Vertibot/src/STM32F30x_StdPeriph_Driver/src/stm32f30x_usart.c **** {    
 684              		.loc 1 683 0
 685              		.cfi_startproc
 686              		@ args = 0, pretend = 0, frame = 0
 687              		@ frame_needed = 0, uses_anonymous_args = 0
 688              		@ link register save eliminated.
 689              	.LVL66:
 684:/home/user/Desktop/STM32-Projekte/FH-Vertibot/src/STM32F30x_StdPeriph_Driver/src/stm32f30x_usart.c ****   /* Check the parameters */
 685:/home/user/Desktop/STM32-Projekte/FH-Vertibot/src/STM32F30x_StdPeriph_Driver/src/stm32f30x_usart.c ****   assert_param(IS_USART_ALL_PERIPH(USARTx));
 686:/home/user/Desktop/STM32-Projekte/FH-Vertibot/src/STM32F30x_StdPeriph_Driver/src/stm32f30x_usart.c ****   assert_param(IS_USART_TIMEOUT(USART_ReceiverTimeOut));
 687:/home/user/Desktop/STM32-Projekte/FH-Vertibot/src/STM32F30x_StdPeriph_Driver/src/stm32f30x_usart.c **** 
 688:/home/user/Desktop/STM32-Projekte/FH-Vertibot/src/STM32F30x_StdPeriph_Driver/src/stm32f30x_usart.c ****   /* Clear the receiver Time Out value by clearing the RTO[23:0] bits in the RTOR
 689:/home/user/Desktop/STM32-Projekte/FH-Vertibot/src/STM32F30x_StdPeriph_Driver/src/stm32f30x_usart.c ****      register  */
 690:/home/user/Desktop/STM32-Projekte/FH-Vertibot/src/STM32F30x_StdPeriph_Driver/src/stm32f30x_usart.c ****   USARTx->RTOR &= (uint32_t)~((uint32_t)USART_RTOR_RTO);
 690              		.loc 1 690 0
 691 022c 4369     		ldr	r3, [r0, #20]
 692 022e 03F07F43 		and	r3, r3, #-16777216
 693 0232 4361     		str	r3, [r0, #20]
 691:/home/user/Desktop/STM32-Projekte/FH-Vertibot/src/STM32F30x_StdPeriph_Driver/src/stm32f30x_usart.c ****   /* Set the receiver Time Out value by setting the RTO[23:0] bits in the RTOR
 692:/home/user/Desktop/STM32-Projekte/FH-Vertibot/src/STM32F30x_StdPeriph_Driver/src/stm32f30x_usart.c ****      register  */
 693:/home/user/Desktop/STM32-Projekte/FH-Vertibot/src/STM32F30x_StdPeriph_Driver/src/stm32f30x_usart.c ****   USARTx->RTOR |= USART_ReceiverTimeOut;
 694              		.loc 1 693 0
 695 0234 4369     		ldr	r3, [r0, #20]
 696 0236 1943     		orrs	r1, r1, r3
 697              	.LVL67:
 698 0238 4161     		str	r1, [r0, #20]
 699 023a 7047     		bx	lr
 700              		.cfi_endproc
 701              	.LFE125:
 703              		.align	1
 704              		.global	USART_SetPrescaler
 705              		.thumb
 706              		.thumb_func
 708              	USART_SetPrescaler:
 709              	.LFB126:
 694:/home/user/Desktop/STM32-Projekte/FH-Vertibot/src/STM32F30x_StdPeriph_Driver/src/stm32f30x_usart.c **** }
 695:/home/user/Desktop/STM32-Projekte/FH-Vertibot/src/STM32F30x_StdPeriph_Driver/src/stm32f30x_usart.c **** 
 696:/home/user/Desktop/STM32-Projekte/FH-Vertibot/src/STM32F30x_StdPeriph_Driver/src/stm32f30x_usart.c **** /**
 697:/home/user/Desktop/STM32-Projekte/FH-Vertibot/src/STM32F30x_StdPeriph_Driver/src/stm32f30x_usart.c ****   * @brief  Sets the system clock prescaler.
 698:/home/user/Desktop/STM32-Projekte/FH-Vertibot/src/STM32F30x_StdPeriph_Driver/src/stm32f30x_usart.c ****   * @param  USARTx: Select the USART peripheral. This parameter can be one of the
 699:/home/user/Desktop/STM32-Projekte/FH-Vertibot/src/STM32F30x_StdPeriph_Driver/src/stm32f30x_usart.c ****   *         following values: USART1 or USART2 or USART3 or UART4 or UART5.
 700:/home/user/Desktop/STM32-Projekte/FH-Vertibot/src/STM32F30x_StdPeriph_Driver/src/stm32f30x_usart.c ****   * @param  USART_Prescaler: specifies the prescaler clock.  
 701:/home/user/Desktop/STM32-Projekte/FH-Vertibot/src/STM32F30x_StdPeriph_Driver/src/stm32f30x_usart.c ****   * @note
 702:/home/user/Desktop/STM32-Projekte/FH-Vertibot/src/STM32F30x_StdPeriph_Driver/src/stm32f30x_usart.c ****   *   This function has to be called before calling USART_Cmd() function.  
 703:/home/user/Desktop/STM32-Projekte/FH-Vertibot/src/STM32F30x_StdPeriph_Driver/src/stm32f30x_usart.c ****   * @retval None
 704:/home/user/Desktop/STM32-Projekte/FH-Vertibot/src/STM32F30x_StdPeriph_Driver/src/stm32f30x_usart.c ****   */
 705:/home/user/Desktop/STM32-Projekte/FH-Vertibot/src/STM32F30x_StdPeriph_Driver/src/stm32f30x_usart.c **** void USART_SetPrescaler(USART_TypeDef* USARTx, uint8_t USART_Prescaler)
 706:/home/user/Desktop/STM32-Projekte/FH-Vertibot/src/STM32F30x_StdPeriph_Driver/src/stm32f30x_usart.c **** {
 710              		.loc 1 706 0
 711              		.cfi_startproc
 712              		@ args = 0, pretend = 0, frame = 0
 713              		@ frame_needed = 0, uses_anonymous_args = 0
 714              		@ link register save eliminated.
 715              	.LVL68:
 707:/home/user/Desktop/STM32-Projekte/FH-Vertibot/src/STM32F30x_StdPeriph_Driver/src/stm32f30x_usart.c ****   /* Check the parameters */
 708:/home/user/Desktop/STM32-Projekte/FH-Vertibot/src/STM32F30x_StdPeriph_Driver/src/stm32f30x_usart.c ****   assert_param(IS_USART_ALL_PERIPH(USARTx));
 709:/home/user/Desktop/STM32-Projekte/FH-Vertibot/src/STM32F30x_StdPeriph_Driver/src/stm32f30x_usart.c **** 
 710:/home/user/Desktop/STM32-Projekte/FH-Vertibot/src/STM32F30x_StdPeriph_Driver/src/stm32f30x_usart.c ****   /* Clear the USART prescaler */
 711:/home/user/Desktop/STM32-Projekte/FH-Vertibot/src/STM32F30x_StdPeriph_Driver/src/stm32f30x_usart.c ****   USARTx->GTPR &= USART_GTPR_GT;
 716              		.loc 1 711 0
 717 023c 038A     		ldrh	r3, [r0, #16]
 718 023e 03F47F43 		and	r3, r3, #65280
 719 0242 0382     		strh	r3, [r0, #16]	@ movhi
 712:/home/user/Desktop/STM32-Projekte/FH-Vertibot/src/STM32F30x_StdPeriph_Driver/src/stm32f30x_usart.c ****   /* Set the USART prescaler */
 713:/home/user/Desktop/STM32-Projekte/FH-Vertibot/src/STM32F30x_StdPeriph_Driver/src/stm32f30x_usart.c ****   USARTx->GTPR |= USART_Prescaler;
 720              		.loc 1 713 0
 721 0244 038A     		ldrh	r3, [r0, #16]
 722 0246 9BB2     		uxth	r3, r3
 723 0248 1943     		orrs	r1, r1, r3
 724              	.LVL69:
 725 024a 0182     		strh	r1, [r0, #16]	@ movhi
 726 024c 7047     		bx	lr
 727              		.cfi_endproc
 728              	.LFE126:
 730              		.align	1
 731              		.global	USART_STOPModeCmd
 732              		.thumb
 733              		.thumb_func
 735              	USART_STOPModeCmd:
 736              	.LFB127:
 714:/home/user/Desktop/STM32-Projekte/FH-Vertibot/src/STM32F30x_StdPeriph_Driver/src/stm32f30x_usart.c **** }
 715:/home/user/Desktop/STM32-Projekte/FH-Vertibot/src/STM32F30x_StdPeriph_Driver/src/stm32f30x_usart.c **** 
 716:/home/user/Desktop/STM32-Projekte/FH-Vertibot/src/STM32F30x_StdPeriph_Driver/src/stm32f30x_usart.c **** /**
 717:/home/user/Desktop/STM32-Projekte/FH-Vertibot/src/STM32F30x_StdPeriph_Driver/src/stm32f30x_usart.c ****   * @}
 718:/home/user/Desktop/STM32-Projekte/FH-Vertibot/src/STM32F30x_StdPeriph_Driver/src/stm32f30x_usart.c ****   */
 719:/home/user/Desktop/STM32-Projekte/FH-Vertibot/src/STM32F30x_StdPeriph_Driver/src/stm32f30x_usart.c **** 
 720:/home/user/Desktop/STM32-Projekte/FH-Vertibot/src/STM32F30x_StdPeriph_Driver/src/stm32f30x_usart.c **** 
 721:/home/user/Desktop/STM32-Projekte/FH-Vertibot/src/STM32F30x_StdPeriph_Driver/src/stm32f30x_usart.c **** /** @defgroup USART_Group2 STOP Mode functions
 722:/home/user/Desktop/STM32-Projekte/FH-Vertibot/src/STM32F30x_StdPeriph_Driver/src/stm32f30x_usart.c ****  *  @brief   STOP Mode functions
 723:/home/user/Desktop/STM32-Projekte/FH-Vertibot/src/STM32F30x_StdPeriph_Driver/src/stm32f30x_usart.c ****  *
 724:/home/user/Desktop/STM32-Projekte/FH-Vertibot/src/STM32F30x_StdPeriph_Driver/src/stm32f30x_usart.c **** @verbatim
 725:/home/user/Desktop/STM32-Projekte/FH-Vertibot/src/STM32F30x_StdPeriph_Driver/src/stm32f30x_usart.c ****  ===============================================================================
 726:/home/user/Desktop/STM32-Projekte/FH-Vertibot/src/STM32F30x_StdPeriph_Driver/src/stm32f30x_usart.c ****                         ##### STOP Mode functions #####
 727:/home/user/Desktop/STM32-Projekte/FH-Vertibot/src/STM32F30x_StdPeriph_Driver/src/stm32f30x_usart.c ****  ===============================================================================
 728:/home/user/Desktop/STM32-Projekte/FH-Vertibot/src/STM32F30x_StdPeriph_Driver/src/stm32f30x_usart.c ****     [..] This subsection provides a set of functions allowing to manage 
 729:/home/user/Desktop/STM32-Projekte/FH-Vertibot/src/STM32F30x_StdPeriph_Driver/src/stm32f30x_usart.c ****          WakeUp from STOP mode.
 730:/home/user/Desktop/STM32-Projekte/FH-Vertibot/src/STM32F30x_StdPeriph_Driver/src/stm32f30x_usart.c **** 
 731:/home/user/Desktop/STM32-Projekte/FH-Vertibot/src/STM32F30x_StdPeriph_Driver/src/stm32f30x_usart.c ****     [..] The USART is able to WakeUp from Stop Mode if USART clock is set to HSI
 732:/home/user/Desktop/STM32-Projekte/FH-Vertibot/src/STM32F30x_StdPeriph_Driver/src/stm32f30x_usart.c ****          or LSI.
 733:/home/user/Desktop/STM32-Projekte/FH-Vertibot/src/STM32F30x_StdPeriph_Driver/src/stm32f30x_usart.c ****          
 734:/home/user/Desktop/STM32-Projekte/FH-Vertibot/src/STM32F30x_StdPeriph_Driver/src/stm32f30x_usart.c ****     [..] The WakeUp source is configured by calling USART_StopModeWakeUpSourceConfig()
 735:/home/user/Desktop/STM32-Projekte/FH-Vertibot/src/STM32F30x_StdPeriph_Driver/src/stm32f30x_usart.c ****          function.
 736:/home/user/Desktop/STM32-Projekte/FH-Vertibot/src/STM32F30x_StdPeriph_Driver/src/stm32f30x_usart.c ****          
 737:/home/user/Desktop/STM32-Projekte/FH-Vertibot/src/STM32F30x_StdPeriph_Driver/src/stm32f30x_usart.c ****     [..] After configuring the source of WakeUp and before entering in Stop Mode 
 738:/home/user/Desktop/STM32-Projekte/FH-Vertibot/src/STM32F30x_StdPeriph_Driver/src/stm32f30x_usart.c ****          USART_STOPModeCmd() function should be called to allow USART WakeUp.
 739:/home/user/Desktop/STM32-Projekte/FH-Vertibot/src/STM32F30x_StdPeriph_Driver/src/stm32f30x_usart.c ****                            
 740:/home/user/Desktop/STM32-Projekte/FH-Vertibot/src/STM32F30x_StdPeriph_Driver/src/stm32f30x_usart.c **** @endverbatim
 741:/home/user/Desktop/STM32-Projekte/FH-Vertibot/src/STM32F30x_StdPeriph_Driver/src/stm32f30x_usart.c ****   * @{
 742:/home/user/Desktop/STM32-Projekte/FH-Vertibot/src/STM32F30x_StdPeriph_Driver/src/stm32f30x_usart.c ****   */
 743:/home/user/Desktop/STM32-Projekte/FH-Vertibot/src/STM32F30x_StdPeriph_Driver/src/stm32f30x_usart.c ****   
 744:/home/user/Desktop/STM32-Projekte/FH-Vertibot/src/STM32F30x_StdPeriph_Driver/src/stm32f30x_usart.c **** /**
 745:/home/user/Desktop/STM32-Projekte/FH-Vertibot/src/STM32F30x_StdPeriph_Driver/src/stm32f30x_usart.c ****   * @brief  Enables or disables the specified USART peripheral in STOP Mode.
 746:/home/user/Desktop/STM32-Projekte/FH-Vertibot/src/STM32F30x_StdPeriph_Driver/src/stm32f30x_usart.c ****   * @param  USARTx: Select the USART peripheral. This parameter can be one of the
 747:/home/user/Desktop/STM32-Projekte/FH-Vertibot/src/STM32F30x_StdPeriph_Driver/src/stm32f30x_usart.c ****   *         following values: USART1 or USART2 or USART3 or UART4 or UART5.
 748:/home/user/Desktop/STM32-Projekte/FH-Vertibot/src/STM32F30x_StdPeriph_Driver/src/stm32f30x_usart.c ****   * @param  NewState: new state of the USARTx peripheral state in stop mode.
 749:/home/user/Desktop/STM32-Projekte/FH-Vertibot/src/STM32F30x_StdPeriph_Driver/src/stm32f30x_usart.c ****   *         This parameter can be: ENABLE or DISABLE.
 750:/home/user/Desktop/STM32-Projekte/FH-Vertibot/src/STM32F30x_StdPeriph_Driver/src/stm32f30x_usart.c ****   * @note
 751:/home/user/Desktop/STM32-Projekte/FH-Vertibot/src/STM32F30x_StdPeriph_Driver/src/stm32f30x_usart.c ****   *   This function has to be called when USART clock is set to HSI or LSE.
 752:/home/user/Desktop/STM32-Projekte/FH-Vertibot/src/STM32F30x_StdPeriph_Driver/src/stm32f30x_usart.c ****   * @retval None
 753:/home/user/Desktop/STM32-Projekte/FH-Vertibot/src/STM32F30x_StdPeriph_Driver/src/stm32f30x_usart.c ****   */
 754:/home/user/Desktop/STM32-Projekte/FH-Vertibot/src/STM32F30x_StdPeriph_Driver/src/stm32f30x_usart.c **** void USART_STOPModeCmd(USART_TypeDef* USARTx, FunctionalState NewState)
 755:/home/user/Desktop/STM32-Projekte/FH-Vertibot/src/STM32F30x_StdPeriph_Driver/src/stm32f30x_usart.c **** {
 737              		.loc 1 755 0
 738              		.cfi_startproc
 739              		@ args = 0, pretend = 0, frame = 0
 740              		@ frame_needed = 0, uses_anonymous_args = 0
 741              		@ link register save eliminated.
 742              	.LVL70:
 756:/home/user/Desktop/STM32-Projekte/FH-Vertibot/src/STM32F30x_StdPeriph_Driver/src/stm32f30x_usart.c ****   /* Check the parameters */
 757:/home/user/Desktop/STM32-Projekte/FH-Vertibot/src/STM32F30x_StdPeriph_Driver/src/stm32f30x_usart.c ****   assert_param(IS_USART_ALL_PERIPH(USARTx));
 758:/home/user/Desktop/STM32-Projekte/FH-Vertibot/src/STM32F30x_StdPeriph_Driver/src/stm32f30x_usart.c ****   assert_param(IS_FUNCTIONAL_STATE(NewState));
 759:/home/user/Desktop/STM32-Projekte/FH-Vertibot/src/STM32F30x_StdPeriph_Driver/src/stm32f30x_usart.c ****   
 760:/home/user/Desktop/STM32-Projekte/FH-Vertibot/src/STM32F30x_StdPeriph_Driver/src/stm32f30x_usart.c ****   if (NewState != DISABLE)
 761:/home/user/Desktop/STM32-Projekte/FH-Vertibot/src/STM32F30x_StdPeriph_Driver/src/stm32f30x_usart.c ****   {
 762:/home/user/Desktop/STM32-Projekte/FH-Vertibot/src/STM32F30x_StdPeriph_Driver/src/stm32f30x_usart.c ****     /* Enable the selected USART in STOP mode by setting the UESM bit in the CR1
 763:/home/user/Desktop/STM32-Projekte/FH-Vertibot/src/STM32F30x_StdPeriph_Driver/src/stm32f30x_usart.c ****        register */
 764:/home/user/Desktop/STM32-Projekte/FH-Vertibot/src/STM32F30x_StdPeriph_Driver/src/stm32f30x_usart.c ****     USARTx->CR1 |= USART_CR1_UESM;
 743              		.loc 1 764 0
 744 024e 0368     		ldr	r3, [r0, #0]
 760:/home/user/Desktop/STM32-Projekte/FH-Vertibot/src/STM32F30x_StdPeriph_Driver/src/stm32f30x_usart.c ****   if (NewState != DISABLE)
 745              		.loc 1 760 0
 746 0250 11B1     		cbz	r1, .L67
 747              		.loc 1 764 0
 748 0252 43F00203 		orr	r3, r3, #2
 749 0256 01E0     		b	.L69
 750              	.L67:
 765:/home/user/Desktop/STM32-Projekte/FH-Vertibot/src/STM32F30x_StdPeriph_Driver/src/stm32f30x_usart.c ****   }
 766:/home/user/Desktop/STM32-Projekte/FH-Vertibot/src/STM32F30x_StdPeriph_Driver/src/stm32f30x_usart.c ****   else
 767:/home/user/Desktop/STM32-Projekte/FH-Vertibot/src/STM32F30x_StdPeriph_Driver/src/stm32f30x_usart.c ****   {
 768:/home/user/Desktop/STM32-Projekte/FH-Vertibot/src/STM32F30x_StdPeriph_Driver/src/stm32f30x_usart.c ****     /* Disable the selected USART in STOP mode by clearing the UE bit in the CR1
 769:/home/user/Desktop/STM32-Projekte/FH-Vertibot/src/STM32F30x_StdPeriph_Driver/src/stm32f30x_usart.c ****        register */
 770:/home/user/Desktop/STM32-Projekte/FH-Vertibot/src/STM32F30x_StdPeriph_Driver/src/stm32f30x_usart.c ****     USARTx->CR1 &= (uint32_t)~((uint32_t)USART_CR1_UESM);
 751              		.loc 1 770 0
 752 0258 23F00203 		bic	r3, r3, #2
 753              	.L69:
 754 025c 0360     		str	r3, [r0, #0]
 755 025e 7047     		bx	lr
 756              		.cfi_endproc
 757              	.LFE127:
 759              		.align	1
 760              		.global	USART_StopModeWakeUpSourceConfig
 761              		.thumb
 762              		.thumb_func
 764              	USART_StopModeWakeUpSourceConfig:
 765              	.LFB128:
 771:/home/user/Desktop/STM32-Projekte/FH-Vertibot/src/STM32F30x_StdPeriph_Driver/src/stm32f30x_usart.c ****   }
 772:/home/user/Desktop/STM32-Projekte/FH-Vertibot/src/STM32F30x_StdPeriph_Driver/src/stm32f30x_usart.c **** }
 773:/home/user/Desktop/STM32-Projekte/FH-Vertibot/src/STM32F30x_StdPeriph_Driver/src/stm32f30x_usart.c **** 
 774:/home/user/Desktop/STM32-Projekte/FH-Vertibot/src/STM32F30x_StdPeriph_Driver/src/stm32f30x_usart.c **** /**
 775:/home/user/Desktop/STM32-Projekte/FH-Vertibot/src/STM32F30x_StdPeriph_Driver/src/stm32f30x_usart.c ****   * @brief  Selects the USART WakeUp method form stop mode.
 776:/home/user/Desktop/STM32-Projekte/FH-Vertibot/src/STM32F30x_StdPeriph_Driver/src/stm32f30x_usart.c ****   * @param  USARTx: Select the USART peripheral. This parameter can be one of the 
 777:/home/user/Desktop/STM32-Projekte/FH-Vertibot/src/STM32F30x_StdPeriph_Driver/src/stm32f30x_usart.c ****   *         following values: USART1 or USART2 or USART3 or UART4 or UART5.
 778:/home/user/Desktop/STM32-Projekte/FH-Vertibot/src/STM32F30x_StdPeriph_Driver/src/stm32f30x_usart.c ****   * @param  USART_WakeUp: specifies the selected USART wakeup method.
 779:/home/user/Desktop/STM32-Projekte/FH-Vertibot/src/STM32F30x_StdPeriph_Driver/src/stm32f30x_usart.c ****   *         This parameter can be one of the following values:
 780:/home/user/Desktop/STM32-Projekte/FH-Vertibot/src/STM32F30x_StdPeriph_Driver/src/stm32f30x_usart.c ****   *         @arg USART_WakeUpSource_AddressMatch: WUF active on address match.
 781:/home/user/Desktop/STM32-Projekte/FH-Vertibot/src/STM32F30x_StdPeriph_Driver/src/stm32f30x_usart.c ****   *         @arg USART_WakeUpSource_StartBit: WUF active on Start bit detection.
 782:/home/user/Desktop/STM32-Projekte/FH-Vertibot/src/STM32F30x_StdPeriph_Driver/src/stm32f30x_usart.c ****   *         @arg USART_WakeUpSource_RXNE: WUF active on RXNE.
 783:/home/user/Desktop/STM32-Projekte/FH-Vertibot/src/STM32F30x_StdPeriph_Driver/src/stm32f30x_usart.c ****   * @note
 784:/home/user/Desktop/STM32-Projekte/FH-Vertibot/src/STM32F30x_StdPeriph_Driver/src/stm32f30x_usart.c ****   *   This function has to be called before calling USART_Cmd() function.  
 785:/home/user/Desktop/STM32-Projekte/FH-Vertibot/src/STM32F30x_StdPeriph_Driver/src/stm32f30x_usart.c ****   * @retval None
 786:/home/user/Desktop/STM32-Projekte/FH-Vertibot/src/STM32F30x_StdPeriph_Driver/src/stm32f30x_usart.c ****   */
 787:/home/user/Desktop/STM32-Projekte/FH-Vertibot/src/STM32F30x_StdPeriph_Driver/src/stm32f30x_usart.c **** void USART_StopModeWakeUpSourceConfig(USART_TypeDef* USARTx, uint32_t USART_WakeUpSource)
 788:/home/user/Desktop/STM32-Projekte/FH-Vertibot/src/STM32F30x_StdPeriph_Driver/src/stm32f30x_usart.c **** {
 766              		.loc 1 788 0
 767              		.cfi_startproc
 768              		@ args = 0, pretend = 0, frame = 0
 769              		@ frame_needed = 0, uses_anonymous_args = 0
 770              		@ link register save eliminated.
 771              	.LVL71:
 789:/home/user/Desktop/STM32-Projekte/FH-Vertibot/src/STM32F30x_StdPeriph_Driver/src/stm32f30x_usart.c ****   /* Check the parameters */
 790:/home/user/Desktop/STM32-Projekte/FH-Vertibot/src/STM32F30x_StdPeriph_Driver/src/stm32f30x_usart.c ****   assert_param(IS_USART_ALL_PERIPH(USARTx));
 791:/home/user/Desktop/STM32-Projekte/FH-Vertibot/src/STM32F30x_StdPeriph_Driver/src/stm32f30x_usart.c ****   assert_param(IS_USART_STOPMODE_WAKEUPSOURCE(USART_WakeUpSource));
 792:/home/user/Desktop/STM32-Projekte/FH-Vertibot/src/STM32F30x_StdPeriph_Driver/src/stm32f30x_usart.c **** 
 793:/home/user/Desktop/STM32-Projekte/FH-Vertibot/src/STM32F30x_StdPeriph_Driver/src/stm32f30x_usart.c ****   USARTx->CR3 &= (uint32_t)~((uint32_t)USART_CR3_WUS);
 772              		.loc 1 793 0
 773 0260 8368     		ldr	r3, [r0, #8]
 774 0262 23F44013 		bic	r3, r3, #3145728
 775 0266 8360     		str	r3, [r0, #8]
 794:/home/user/Desktop/STM32-Projekte/FH-Vertibot/src/STM32F30x_StdPeriph_Driver/src/stm32f30x_usart.c ****   USARTx->CR3 |= USART_WakeUpSource;
 776              		.loc 1 794 0
 777 0268 8368     		ldr	r3, [r0, #8]
 778 026a 1943     		orrs	r1, r1, r3
 779              	.LVL72:
 780 026c 8160     		str	r1, [r0, #8]
 781 026e 7047     		bx	lr
 782              		.cfi_endproc
 783              	.LFE128:
 785              		.align	1
 786              		.global	USART_AutoBaudRateCmd
 787              		.thumb
 788              		.thumb_func
 790              	USART_AutoBaudRateCmd:
 791              	.LFB129:
 795:/home/user/Desktop/STM32-Projekte/FH-Vertibot/src/STM32F30x_StdPeriph_Driver/src/stm32f30x_usart.c **** }
 796:/home/user/Desktop/STM32-Projekte/FH-Vertibot/src/STM32F30x_StdPeriph_Driver/src/stm32f30x_usart.c **** 
 797:/home/user/Desktop/STM32-Projekte/FH-Vertibot/src/STM32F30x_StdPeriph_Driver/src/stm32f30x_usart.c **** /**
 798:/home/user/Desktop/STM32-Projekte/FH-Vertibot/src/STM32F30x_StdPeriph_Driver/src/stm32f30x_usart.c ****   * @}
 799:/home/user/Desktop/STM32-Projekte/FH-Vertibot/src/STM32F30x_StdPeriph_Driver/src/stm32f30x_usart.c ****   */
 800:/home/user/Desktop/STM32-Projekte/FH-Vertibot/src/STM32F30x_StdPeriph_Driver/src/stm32f30x_usart.c **** 
 801:/home/user/Desktop/STM32-Projekte/FH-Vertibot/src/STM32F30x_StdPeriph_Driver/src/stm32f30x_usart.c **** 
 802:/home/user/Desktop/STM32-Projekte/FH-Vertibot/src/STM32F30x_StdPeriph_Driver/src/stm32f30x_usart.c **** /** @defgroup USART_Group3 AutoBaudRate functions
 803:/home/user/Desktop/STM32-Projekte/FH-Vertibot/src/STM32F30x_StdPeriph_Driver/src/stm32f30x_usart.c ****  *  @brief   AutoBaudRate functions 
 804:/home/user/Desktop/STM32-Projekte/FH-Vertibot/src/STM32F30x_StdPeriph_Driver/src/stm32f30x_usart.c ****  *
 805:/home/user/Desktop/STM32-Projekte/FH-Vertibot/src/STM32F30x_StdPeriph_Driver/src/stm32f30x_usart.c **** @verbatim
 806:/home/user/Desktop/STM32-Projekte/FH-Vertibot/src/STM32F30x_StdPeriph_Driver/src/stm32f30x_usart.c ****  ===============================================================================
 807:/home/user/Desktop/STM32-Projekte/FH-Vertibot/src/STM32F30x_StdPeriph_Driver/src/stm32f30x_usart.c ****                        ##### AutoBaudRate functions #####
 808:/home/user/Desktop/STM32-Projekte/FH-Vertibot/src/STM32F30x_StdPeriph_Driver/src/stm32f30x_usart.c ****  ===============================================================================
 809:/home/user/Desktop/STM32-Projekte/FH-Vertibot/src/STM32F30x_StdPeriph_Driver/src/stm32f30x_usart.c ****     [..] This subsection provides a set of functions allowing to manage 
 810:/home/user/Desktop/STM32-Projekte/FH-Vertibot/src/STM32F30x_StdPeriph_Driver/src/stm32f30x_usart.c ****          the AutoBaudRate detections.
 811:/home/user/Desktop/STM32-Projekte/FH-Vertibot/src/STM32F30x_StdPeriph_Driver/src/stm32f30x_usart.c ****          
 812:/home/user/Desktop/STM32-Projekte/FH-Vertibot/src/STM32F30x_StdPeriph_Driver/src/stm32f30x_usart.c ****     [..] Before Enabling AutoBaudRate detection using USART_AutoBaudRateCmd ()
 813:/home/user/Desktop/STM32-Projekte/FH-Vertibot/src/STM32F30x_StdPeriph_Driver/src/stm32f30x_usart.c ****          The character patterns used to calculate baudrate must be chosen by calling 
 814:/home/user/Desktop/STM32-Projekte/FH-Vertibot/src/STM32F30x_StdPeriph_Driver/src/stm32f30x_usart.c ****          USART_AutoBaudRateConfig() function. These function take as parameter :
 815:/home/user/Desktop/STM32-Projekte/FH-Vertibot/src/STM32F30x_StdPeriph_Driver/src/stm32f30x_usart.c ****         (#)USART_AutoBaudRate_StartBit : any character starting with a bit 1.
 816:/home/user/Desktop/STM32-Projekte/FH-Vertibot/src/STM32F30x_StdPeriph_Driver/src/stm32f30x_usart.c ****         (#)USART_AutoBaudRate_FallingEdge : any character starting with a 10xx bit pattern. 
 817:/home/user/Desktop/STM32-Projekte/FH-Vertibot/src/STM32F30x_StdPeriph_Driver/src/stm32f30x_usart.c ****                           
 818:/home/user/Desktop/STM32-Projekte/FH-Vertibot/src/STM32F30x_StdPeriph_Driver/src/stm32f30x_usart.c ****     [..] At any later time, another request for AutoBaudRate detection can be performed
 819:/home/user/Desktop/STM32-Projekte/FH-Vertibot/src/STM32F30x_StdPeriph_Driver/src/stm32f30x_usart.c ****          using USART_RequestCmd() function.
 820:/home/user/Desktop/STM32-Projekte/FH-Vertibot/src/STM32F30x_StdPeriph_Driver/src/stm32f30x_usart.c ****          
 821:/home/user/Desktop/STM32-Projekte/FH-Vertibot/src/STM32F30x_StdPeriph_Driver/src/stm32f30x_usart.c ****     [..] The AutoBaudRate detection is monitored by the status of ABRF flag which indicate
 822:/home/user/Desktop/STM32-Projekte/FH-Vertibot/src/STM32F30x_StdPeriph_Driver/src/stm32f30x_usart.c ****          that the AutoBaudRate detection is completed. In addition to ABRF flag, the ABRE flag
 823:/home/user/Desktop/STM32-Projekte/FH-Vertibot/src/STM32F30x_StdPeriph_Driver/src/stm32f30x_usart.c ****          indicate that this procedure is completed without success. USART_GetFlagStatus () 
 824:/home/user/Desktop/STM32-Projekte/FH-Vertibot/src/STM32F30x_StdPeriph_Driver/src/stm32f30x_usart.c ****          function should be used to monitor the status of these flags.  
 825:/home/user/Desktop/STM32-Projekte/FH-Vertibot/src/STM32F30x_StdPeriph_Driver/src/stm32f30x_usart.c ****              
 826:/home/user/Desktop/STM32-Projekte/FH-Vertibot/src/STM32F30x_StdPeriph_Driver/src/stm32f30x_usart.c **** @endverbatim
 827:/home/user/Desktop/STM32-Projekte/FH-Vertibot/src/STM32F30x_StdPeriph_Driver/src/stm32f30x_usart.c ****   * @{
 828:/home/user/Desktop/STM32-Projekte/FH-Vertibot/src/STM32F30x_StdPeriph_Driver/src/stm32f30x_usart.c ****   */
 829:/home/user/Desktop/STM32-Projekte/FH-Vertibot/src/STM32F30x_StdPeriph_Driver/src/stm32f30x_usart.c ****   
 830:/home/user/Desktop/STM32-Projekte/FH-Vertibot/src/STM32F30x_StdPeriph_Driver/src/stm32f30x_usart.c **** /**
 831:/home/user/Desktop/STM32-Projekte/FH-Vertibot/src/STM32F30x_StdPeriph_Driver/src/stm32f30x_usart.c ****   * @brief  Enables or disables the Auto Baud Rate.
 832:/home/user/Desktop/STM32-Projekte/FH-Vertibot/src/STM32F30x_StdPeriph_Driver/src/stm32f30x_usart.c ****   * @param  USARTx: Select the USART peripheral. This parameter can be one of the 
 833:/home/user/Desktop/STM32-Projekte/FH-Vertibot/src/STM32F30x_StdPeriph_Driver/src/stm32f30x_usart.c ****   *         following values: USART1 or USART2 or USART3 or UART4 or UART5.
 834:/home/user/Desktop/STM32-Projekte/FH-Vertibot/src/STM32F30x_StdPeriph_Driver/src/stm32f30x_usart.c ****   * @param  NewState: new state of the USARTx auto baud rate.
 835:/home/user/Desktop/STM32-Projekte/FH-Vertibot/src/STM32F30x_StdPeriph_Driver/src/stm32f30x_usart.c ****   *         This parameter can be: ENABLE or DISABLE.
 836:/home/user/Desktop/STM32-Projekte/FH-Vertibot/src/STM32F30x_StdPeriph_Driver/src/stm32f30x_usart.c ****   * @retval None
 837:/home/user/Desktop/STM32-Projekte/FH-Vertibot/src/STM32F30x_StdPeriph_Driver/src/stm32f30x_usart.c ****   */
 838:/home/user/Desktop/STM32-Projekte/FH-Vertibot/src/STM32F30x_StdPeriph_Driver/src/stm32f30x_usart.c **** void USART_AutoBaudRateCmd(USART_TypeDef* USARTx, FunctionalState NewState)
 839:/home/user/Desktop/STM32-Projekte/FH-Vertibot/src/STM32F30x_StdPeriph_Driver/src/stm32f30x_usart.c **** {
 792              		.loc 1 839 0
 793              		.cfi_startproc
 794              		@ args = 0, pretend = 0, frame = 0
 795              		@ frame_needed = 0, uses_anonymous_args = 0
 796              		@ link register save eliminated.
 797              	.LVL73:
 840:/home/user/Desktop/STM32-Projekte/FH-Vertibot/src/STM32F30x_StdPeriph_Driver/src/stm32f30x_usart.c ****   /* Check the parameters */
 841:/home/user/Desktop/STM32-Projekte/FH-Vertibot/src/STM32F30x_StdPeriph_Driver/src/stm32f30x_usart.c ****   assert_param(IS_USART_ALL_PERIPH(USARTx));
 842:/home/user/Desktop/STM32-Projekte/FH-Vertibot/src/STM32F30x_StdPeriph_Driver/src/stm32f30x_usart.c ****   assert_param(IS_FUNCTIONAL_STATE(NewState));
 843:/home/user/Desktop/STM32-Projekte/FH-Vertibot/src/STM32F30x_StdPeriph_Driver/src/stm32f30x_usart.c **** 
 844:/home/user/Desktop/STM32-Projekte/FH-Vertibot/src/STM32F30x_StdPeriph_Driver/src/stm32f30x_usart.c ****   if (NewState != DISABLE)
 845:/home/user/Desktop/STM32-Projekte/FH-Vertibot/src/STM32F30x_StdPeriph_Driver/src/stm32f30x_usart.c ****   {
 846:/home/user/Desktop/STM32-Projekte/FH-Vertibot/src/STM32F30x_StdPeriph_Driver/src/stm32f30x_usart.c ****     /* Enable the auto baud rate feature by setting the ABREN bit in the CR2 
 847:/home/user/Desktop/STM32-Projekte/FH-Vertibot/src/STM32F30x_StdPeriph_Driver/src/stm32f30x_usart.c ****        register */
 848:/home/user/Desktop/STM32-Projekte/FH-Vertibot/src/STM32F30x_StdPeriph_Driver/src/stm32f30x_usart.c ****     USARTx->CR2 |= USART_CR2_ABREN;
 798              		.loc 1 848 0
 799 0270 4368     		ldr	r3, [r0, #4]
 844:/home/user/Desktop/STM32-Projekte/FH-Vertibot/src/STM32F30x_StdPeriph_Driver/src/stm32f30x_usart.c ****   if (NewState != DISABLE)
 800              		.loc 1 844 0
 801 0272 11B1     		cbz	r1, .L72
 802              		.loc 1 848 0
 803 0274 43F48013 		orr	r3, r3, #1048576
 804 0278 01E0     		b	.L74
 805              	.L72:
 849:/home/user/Desktop/STM32-Projekte/FH-Vertibot/src/STM32F30x_StdPeriph_Driver/src/stm32f30x_usart.c ****   }
 850:/home/user/Desktop/STM32-Projekte/FH-Vertibot/src/STM32F30x_StdPeriph_Driver/src/stm32f30x_usart.c ****   else
 851:/home/user/Desktop/STM32-Projekte/FH-Vertibot/src/STM32F30x_StdPeriph_Driver/src/stm32f30x_usart.c ****   {
 852:/home/user/Desktop/STM32-Projekte/FH-Vertibot/src/STM32F30x_StdPeriph_Driver/src/stm32f30x_usart.c ****     /* Disable the auto baud rate feature by clearing the ABREN bit in the CR2 
 853:/home/user/Desktop/STM32-Projekte/FH-Vertibot/src/STM32F30x_StdPeriph_Driver/src/stm32f30x_usart.c ****        register */
 854:/home/user/Desktop/STM32-Projekte/FH-Vertibot/src/STM32F30x_StdPeriph_Driver/src/stm32f30x_usart.c ****     USARTx->CR2 &= (uint32_t)~((uint32_t)USART_CR2_ABREN);
 806              		.loc 1 854 0
 807 027a 23F48013 		bic	r3, r3, #1048576
 808              	.L74:
 809 027e 4360     		str	r3, [r0, #4]
 810 0280 7047     		bx	lr
 811              		.cfi_endproc
 812              	.LFE129:
 814              		.align	1
 815              		.global	USART_AutoBaudRateConfig
 816              		.thumb
 817              		.thumb_func
 819              	USART_AutoBaudRateConfig:
 820              	.LFB130:
 855:/home/user/Desktop/STM32-Projekte/FH-Vertibot/src/STM32F30x_StdPeriph_Driver/src/stm32f30x_usart.c ****   }
 856:/home/user/Desktop/STM32-Projekte/FH-Vertibot/src/STM32F30x_StdPeriph_Driver/src/stm32f30x_usart.c **** }
 857:/home/user/Desktop/STM32-Projekte/FH-Vertibot/src/STM32F30x_StdPeriph_Driver/src/stm32f30x_usart.c **** 
 858:/home/user/Desktop/STM32-Projekte/FH-Vertibot/src/STM32F30x_StdPeriph_Driver/src/stm32f30x_usart.c **** /**
 859:/home/user/Desktop/STM32-Projekte/FH-Vertibot/src/STM32F30x_StdPeriph_Driver/src/stm32f30x_usart.c ****   * @brief  Selects the USART auto baud rate method.
 860:/home/user/Desktop/STM32-Projekte/FH-Vertibot/src/STM32F30x_StdPeriph_Driver/src/stm32f30x_usart.c ****   * @param  USARTx: Select the USART peripheral. This parameter can be one of the 
 861:/home/user/Desktop/STM32-Projekte/FH-Vertibot/src/STM32F30x_StdPeriph_Driver/src/stm32f30x_usart.c ****   *         following values: USART1 or USART2 or USART3 or UART4 or UART5.
 862:/home/user/Desktop/STM32-Projekte/FH-Vertibot/src/STM32F30x_StdPeriph_Driver/src/stm32f30x_usart.c ****   * @param  USART_AutoBaudRate: specifies the selected USART auto baud rate method.
 863:/home/user/Desktop/STM32-Projekte/FH-Vertibot/src/STM32F30x_StdPeriph_Driver/src/stm32f30x_usart.c ****   *         This parameter can be one of the following values:
 864:/home/user/Desktop/STM32-Projekte/FH-Vertibot/src/STM32F30x_StdPeriph_Driver/src/stm32f30x_usart.c ****   *         @arg USART_AutoBaudRate_StartBit: Start Bit duration measurement.
 865:/home/user/Desktop/STM32-Projekte/FH-Vertibot/src/STM32F30x_StdPeriph_Driver/src/stm32f30x_usart.c ****   *         @arg USART_AutoBaudRate_FallingEdge: Falling edge to falling edge measurement.
 866:/home/user/Desktop/STM32-Projekte/FH-Vertibot/src/STM32F30x_StdPeriph_Driver/src/stm32f30x_usart.c ****   *         @arg USART_AutoBaudRate_0x7FFrame: 0x7F frame.
 867:/home/user/Desktop/STM32-Projekte/FH-Vertibot/src/STM32F30x_StdPeriph_Driver/src/stm32f30x_usart.c ****   *         @arg USART_AutoBaudRate_0x55Frame: 0x55 frame.
 868:/home/user/Desktop/STM32-Projekte/FH-Vertibot/src/STM32F30x_StdPeriph_Driver/src/stm32f30x_usart.c ****   * @note
 869:/home/user/Desktop/STM32-Projekte/FH-Vertibot/src/STM32F30x_StdPeriph_Driver/src/stm32f30x_usart.c ****   *   This function has to be called before calling USART_Cmd() function. 
 870:/home/user/Desktop/STM32-Projekte/FH-Vertibot/src/STM32F30x_StdPeriph_Driver/src/stm32f30x_usart.c ****   * @retval None
 871:/home/user/Desktop/STM32-Projekte/FH-Vertibot/src/STM32F30x_StdPeriph_Driver/src/stm32f30x_usart.c ****   */
 872:/home/user/Desktop/STM32-Projekte/FH-Vertibot/src/STM32F30x_StdPeriph_Driver/src/stm32f30x_usart.c **** void USART_AutoBaudRateConfig(USART_TypeDef* USARTx, uint32_t USART_AutoBaudRate)
 873:/home/user/Desktop/STM32-Projekte/FH-Vertibot/src/STM32F30x_StdPeriph_Driver/src/stm32f30x_usart.c **** {
 821              		.loc 1 873 0
 822              		.cfi_startproc
 823              		@ args = 0, pretend = 0, frame = 0
 824              		@ frame_needed = 0, uses_anonymous_args = 0
 825              		@ link register save eliminated.
 826              	.LVL74:
 874:/home/user/Desktop/STM32-Projekte/FH-Vertibot/src/STM32F30x_StdPeriph_Driver/src/stm32f30x_usart.c ****   /* Check the parameters */
 875:/home/user/Desktop/STM32-Projekte/FH-Vertibot/src/STM32F30x_StdPeriph_Driver/src/stm32f30x_usart.c ****   assert_param(IS_USART_ALL_PERIPH(USARTx));
 876:/home/user/Desktop/STM32-Projekte/FH-Vertibot/src/STM32F30x_StdPeriph_Driver/src/stm32f30x_usart.c ****   assert_param(IS_USART_AUTOBAUDRATE_MODE(USART_AutoBaudRate));
 877:/home/user/Desktop/STM32-Projekte/FH-Vertibot/src/STM32F30x_StdPeriph_Driver/src/stm32f30x_usart.c **** 
 878:/home/user/Desktop/STM32-Projekte/FH-Vertibot/src/STM32F30x_StdPeriph_Driver/src/stm32f30x_usart.c ****   USARTx->CR2 &= (uint32_t)~((uint32_t)USART_CR2_ABRMODE);
 827              		.loc 1 878 0
 828 0282 4368     		ldr	r3, [r0, #4]
 829 0284 23F4C003 		bic	r3, r3, #6291456
 830 0288 4360     		str	r3, [r0, #4]
 879:/home/user/Desktop/STM32-Projekte/FH-Vertibot/src/STM32F30x_StdPeriph_Driver/src/stm32f30x_usart.c ****   USARTx->CR2 |= USART_AutoBaudRate;
 831              		.loc 1 879 0
 832 028a 4368     		ldr	r3, [r0, #4]
 833 028c 1943     		orrs	r1, r1, r3
 834              	.LVL75:
 835 028e 4160     		str	r1, [r0, #4]
 836 0290 7047     		bx	lr
 837              		.cfi_endproc
 838              	.LFE130:
 840              		.align	1
 841              		.global	USART_SendData
 842              		.thumb
 843              		.thumb_func
 845              	USART_SendData:
 846              	.LFB131:
 880:/home/user/Desktop/STM32-Projekte/FH-Vertibot/src/STM32F30x_StdPeriph_Driver/src/stm32f30x_usart.c **** }
 881:/home/user/Desktop/STM32-Projekte/FH-Vertibot/src/STM32F30x_StdPeriph_Driver/src/stm32f30x_usart.c **** 
 882:/home/user/Desktop/STM32-Projekte/FH-Vertibot/src/STM32F30x_StdPeriph_Driver/src/stm32f30x_usart.c **** /**
 883:/home/user/Desktop/STM32-Projekte/FH-Vertibot/src/STM32F30x_StdPeriph_Driver/src/stm32f30x_usart.c ****   * @}
 884:/home/user/Desktop/STM32-Projekte/FH-Vertibot/src/STM32F30x_StdPeriph_Driver/src/stm32f30x_usart.c ****   */
 885:/home/user/Desktop/STM32-Projekte/FH-Vertibot/src/STM32F30x_StdPeriph_Driver/src/stm32f30x_usart.c **** 
 886:/home/user/Desktop/STM32-Projekte/FH-Vertibot/src/STM32F30x_StdPeriph_Driver/src/stm32f30x_usart.c **** 
 887:/home/user/Desktop/STM32-Projekte/FH-Vertibot/src/STM32F30x_StdPeriph_Driver/src/stm32f30x_usart.c **** /** @defgroup USART_Group4 Data transfers functions
 888:/home/user/Desktop/STM32-Projekte/FH-Vertibot/src/STM32F30x_StdPeriph_Driver/src/stm32f30x_usart.c ****  *  @brief   Data transfers functions 
 889:/home/user/Desktop/STM32-Projekte/FH-Vertibot/src/STM32F30x_StdPeriph_Driver/src/stm32f30x_usart.c ****  *
 890:/home/user/Desktop/STM32-Projekte/FH-Vertibot/src/STM32F30x_StdPeriph_Driver/src/stm32f30x_usart.c **** @verbatim
 891:/home/user/Desktop/STM32-Projekte/FH-Vertibot/src/STM32F30x_StdPeriph_Driver/src/stm32f30x_usart.c ****  ===============================================================================
 892:/home/user/Desktop/STM32-Projekte/FH-Vertibot/src/STM32F30x_StdPeriph_Driver/src/stm32f30x_usart.c ****                     ##### Data transfers functions #####
 893:/home/user/Desktop/STM32-Projekte/FH-Vertibot/src/STM32F30x_StdPeriph_Driver/src/stm32f30x_usart.c ****  ===============================================================================
 894:/home/user/Desktop/STM32-Projekte/FH-Vertibot/src/STM32F30x_StdPeriph_Driver/src/stm32f30x_usart.c ****     [..] This subsection provides a set of functions allowing to manage 
 895:/home/user/Desktop/STM32-Projekte/FH-Vertibot/src/STM32F30x_StdPeriph_Driver/src/stm32f30x_usart.c ****          the USART data transfers.
 896:/home/user/Desktop/STM32-Projekte/FH-Vertibot/src/STM32F30x_StdPeriph_Driver/src/stm32f30x_usart.c ****     [..] During an USART reception, data shifts in least significant bit first 
 897:/home/user/Desktop/STM32-Projekte/FH-Vertibot/src/STM32F30x_StdPeriph_Driver/src/stm32f30x_usart.c ****          through the RX pin. When a transmission is taking place, a write instruction to 
 898:/home/user/Desktop/STM32-Projekte/FH-Vertibot/src/STM32F30x_StdPeriph_Driver/src/stm32f30x_usart.c ****          the USART_TDR register stores the data in the shift register.
 899:/home/user/Desktop/STM32-Projekte/FH-Vertibot/src/STM32F30x_StdPeriph_Driver/src/stm32f30x_usart.c ****     [..] The read access of the USART_RDR register can be done using 
 900:/home/user/Desktop/STM32-Projekte/FH-Vertibot/src/STM32F30x_StdPeriph_Driver/src/stm32f30x_usart.c ****          the USART_ReceiveData() function and returns the RDR value.
 901:/home/user/Desktop/STM32-Projekte/FH-Vertibot/src/STM32F30x_StdPeriph_Driver/src/stm32f30x_usart.c ****          Whereas a write access to the USART_TDR can be done using USART_SendData()
 902:/home/user/Desktop/STM32-Projekte/FH-Vertibot/src/STM32F30x_StdPeriph_Driver/src/stm32f30x_usart.c ****          function and stores the written data into TDR.
 903:/home/user/Desktop/STM32-Projekte/FH-Vertibot/src/STM32F30x_StdPeriph_Driver/src/stm32f30x_usart.c **** 
 904:/home/user/Desktop/STM32-Projekte/FH-Vertibot/src/STM32F30x_StdPeriph_Driver/src/stm32f30x_usart.c **** @endverbatim
 905:/home/user/Desktop/STM32-Projekte/FH-Vertibot/src/STM32F30x_StdPeriph_Driver/src/stm32f30x_usart.c ****   * @{
 906:/home/user/Desktop/STM32-Projekte/FH-Vertibot/src/STM32F30x_StdPeriph_Driver/src/stm32f30x_usart.c ****   */
 907:/home/user/Desktop/STM32-Projekte/FH-Vertibot/src/STM32F30x_StdPeriph_Driver/src/stm32f30x_usart.c **** 
 908:/home/user/Desktop/STM32-Projekte/FH-Vertibot/src/STM32F30x_StdPeriph_Driver/src/stm32f30x_usart.c **** /**
 909:/home/user/Desktop/STM32-Projekte/FH-Vertibot/src/STM32F30x_StdPeriph_Driver/src/stm32f30x_usart.c ****   * @brief  Transmits single data through the USARTx peripheral.
 910:/home/user/Desktop/STM32-Projekte/FH-Vertibot/src/STM32F30x_StdPeriph_Driver/src/stm32f30x_usart.c ****   * @param  USARTx: Select the USART peripheral. This parameter can be one of the 
 911:/home/user/Desktop/STM32-Projekte/FH-Vertibot/src/STM32F30x_StdPeriph_Driver/src/stm32f30x_usart.c ****   *         following values: USART1 or USART2 or USART3 or UART4 or UART5.
 912:/home/user/Desktop/STM32-Projekte/FH-Vertibot/src/STM32F30x_StdPeriph_Driver/src/stm32f30x_usart.c ****   * @param  Data: the data to transmit.
 913:/home/user/Desktop/STM32-Projekte/FH-Vertibot/src/STM32F30x_StdPeriph_Driver/src/stm32f30x_usart.c ****   * @retval None
 914:/home/user/Desktop/STM32-Projekte/FH-Vertibot/src/STM32F30x_StdPeriph_Driver/src/stm32f30x_usart.c ****   */
 915:/home/user/Desktop/STM32-Projekte/FH-Vertibot/src/STM32F30x_StdPeriph_Driver/src/stm32f30x_usart.c **** void USART_SendData(USART_TypeDef* USARTx, uint16_t Data)
 916:/home/user/Desktop/STM32-Projekte/FH-Vertibot/src/STM32F30x_StdPeriph_Driver/src/stm32f30x_usart.c **** {
 847              		.loc 1 916 0
 848              		.cfi_startproc
 849              		@ args = 0, pretend = 0, frame = 0
 850              		@ frame_needed = 0, uses_anonymous_args = 0
 851              		@ link register save eliminated.
 852              	.LVL76:
 917:/home/user/Desktop/STM32-Projekte/FH-Vertibot/src/STM32F30x_StdPeriph_Driver/src/stm32f30x_usart.c ****   /* Check the parameters */
 918:/home/user/Desktop/STM32-Projekte/FH-Vertibot/src/STM32F30x_StdPeriph_Driver/src/stm32f30x_usart.c ****   assert_param(IS_USART_ALL_PERIPH(USARTx));
 919:/home/user/Desktop/STM32-Projekte/FH-Vertibot/src/STM32F30x_StdPeriph_Driver/src/stm32f30x_usart.c ****   assert_param(IS_USART_DATA(Data)); 
 920:/home/user/Desktop/STM32-Projekte/FH-Vertibot/src/STM32F30x_StdPeriph_Driver/src/stm32f30x_usart.c **** 
 921:/home/user/Desktop/STM32-Projekte/FH-Vertibot/src/STM32F30x_StdPeriph_Driver/src/stm32f30x_usart.c ****   /* Transmit Data */
 922:/home/user/Desktop/STM32-Projekte/FH-Vertibot/src/STM32F30x_StdPeriph_Driver/src/stm32f30x_usart.c ****   USARTx->TDR = (Data & (uint16_t)0x01FF);
 853              		.loc 1 922 0
 854 0292 C905     		lsls	r1, r1, #23
 855              	.LVL77:
 856 0294 C90D     		lsrs	r1, r1, #23
 857 0296 0185     		strh	r1, [r0, #40]	@ movhi
 858 0298 7047     		bx	lr
 859              		.cfi_endproc
 860              	.LFE131:
 862              		.align	1
 863              		.global	USART_ReceiveData
 864              		.thumb
 865              		.thumb_func
 867              	USART_ReceiveData:
 868              	.LFB132:
 923:/home/user/Desktop/STM32-Projekte/FH-Vertibot/src/STM32F30x_StdPeriph_Driver/src/stm32f30x_usart.c **** }
 924:/home/user/Desktop/STM32-Projekte/FH-Vertibot/src/STM32F30x_StdPeriph_Driver/src/stm32f30x_usart.c **** 
 925:/home/user/Desktop/STM32-Projekte/FH-Vertibot/src/STM32F30x_StdPeriph_Driver/src/stm32f30x_usart.c **** /**
 926:/home/user/Desktop/STM32-Projekte/FH-Vertibot/src/STM32F30x_StdPeriph_Driver/src/stm32f30x_usart.c ****   * @brief  Returns the most recent received data by the USARTx peripheral.
 927:/home/user/Desktop/STM32-Projekte/FH-Vertibot/src/STM32F30x_StdPeriph_Driver/src/stm32f30x_usart.c ****   * @param  USARTx: Select the USART peripheral. This parameter can be one of the 
 928:/home/user/Desktop/STM32-Projekte/FH-Vertibot/src/STM32F30x_StdPeriph_Driver/src/stm32f30x_usart.c ****   *         following values: USART1 or USART2 or USART3 or UART4 or UART5.
 929:/home/user/Desktop/STM32-Projekte/FH-Vertibot/src/STM32F30x_StdPeriph_Driver/src/stm32f30x_usart.c ****   * @retval The received data.
 930:/home/user/Desktop/STM32-Projekte/FH-Vertibot/src/STM32F30x_StdPeriph_Driver/src/stm32f30x_usart.c ****   */
 931:/home/user/Desktop/STM32-Projekte/FH-Vertibot/src/STM32F30x_StdPeriph_Driver/src/stm32f30x_usart.c **** uint16_t USART_ReceiveData(USART_TypeDef* USARTx)
 932:/home/user/Desktop/STM32-Projekte/FH-Vertibot/src/STM32F30x_StdPeriph_Driver/src/stm32f30x_usart.c **** {
 869              		.loc 1 932 0
 870              		.cfi_startproc
 871              		@ args = 0, pretend = 0, frame = 0
 872              		@ frame_needed = 0, uses_anonymous_args = 0
 873              		@ link register save eliminated.
 874              	.LVL78:
 933:/home/user/Desktop/STM32-Projekte/FH-Vertibot/src/STM32F30x_StdPeriph_Driver/src/stm32f30x_usart.c ****   /* Check the parameters */
 934:/home/user/Desktop/STM32-Projekte/FH-Vertibot/src/STM32F30x_StdPeriph_Driver/src/stm32f30x_usart.c ****   assert_param(IS_USART_ALL_PERIPH(USARTx));
 935:/home/user/Desktop/STM32-Projekte/FH-Vertibot/src/STM32F30x_StdPeriph_Driver/src/stm32f30x_usart.c **** 
 936:/home/user/Desktop/STM32-Projekte/FH-Vertibot/src/STM32F30x_StdPeriph_Driver/src/stm32f30x_usart.c ****   /* Receive Data */
 937:/home/user/Desktop/STM32-Projekte/FH-Vertibot/src/STM32F30x_StdPeriph_Driver/src/stm32f30x_usart.c ****   return (uint16_t)(USARTx->RDR & (uint16_t)0x01FF);
 875              		.loc 1 937 0
 876 029a 808C     		ldrh	r0, [r0, #36]
 877              	.LVL79:
 878 029c C005     		lsls	r0, r0, #23
 938:/home/user/Desktop/STM32-Projekte/FH-Vertibot/src/STM32F30x_StdPeriph_Driver/src/stm32f30x_usart.c **** }
 879              		.loc 1 938 0
 880 029e C00D     		lsrs	r0, r0, #23
 881 02a0 7047     		bx	lr
 882              		.cfi_endproc
 883              	.LFE132:
 885              		.align	1
 886              		.global	USART_SetAddress
 887              		.thumb
 888              		.thumb_func
 890              	USART_SetAddress:
 891              	.LFB133:
 939:/home/user/Desktop/STM32-Projekte/FH-Vertibot/src/STM32F30x_StdPeriph_Driver/src/stm32f30x_usart.c **** 
 940:/home/user/Desktop/STM32-Projekte/FH-Vertibot/src/STM32F30x_StdPeriph_Driver/src/stm32f30x_usart.c **** /**
 941:/home/user/Desktop/STM32-Projekte/FH-Vertibot/src/STM32F30x_StdPeriph_Driver/src/stm32f30x_usart.c ****   * @}
 942:/home/user/Desktop/STM32-Projekte/FH-Vertibot/src/STM32F30x_StdPeriph_Driver/src/stm32f30x_usart.c ****   */
 943:/home/user/Desktop/STM32-Projekte/FH-Vertibot/src/STM32F30x_StdPeriph_Driver/src/stm32f30x_usart.c **** 
 944:/home/user/Desktop/STM32-Projekte/FH-Vertibot/src/STM32F30x_StdPeriph_Driver/src/stm32f30x_usart.c **** /** @defgroup USART_Group5 MultiProcessor Communication functions
 945:/home/user/Desktop/STM32-Projekte/FH-Vertibot/src/STM32F30x_StdPeriph_Driver/src/stm32f30x_usart.c ****  *  @brief   Multi-Processor Communication functions 
 946:/home/user/Desktop/STM32-Projekte/FH-Vertibot/src/STM32F30x_StdPeriph_Driver/src/stm32f30x_usart.c ****  *
 947:/home/user/Desktop/STM32-Projekte/FH-Vertibot/src/STM32F30x_StdPeriph_Driver/src/stm32f30x_usart.c **** @verbatim   
 948:/home/user/Desktop/STM32-Projekte/FH-Vertibot/src/STM32F30x_StdPeriph_Driver/src/stm32f30x_usart.c ****  ===============================================================================
 949:/home/user/Desktop/STM32-Projekte/FH-Vertibot/src/STM32F30x_StdPeriph_Driver/src/stm32f30x_usart.c ****              ##### Multi-Processor Communication functions #####
 950:/home/user/Desktop/STM32-Projekte/FH-Vertibot/src/STM32F30x_StdPeriph_Driver/src/stm32f30x_usart.c ****  ===============================================================================
 951:/home/user/Desktop/STM32-Projekte/FH-Vertibot/src/STM32F30x_StdPeriph_Driver/src/stm32f30x_usart.c ****     [..] This subsection provides a set of functions allowing to manage the USART
 952:/home/user/Desktop/STM32-Projekte/FH-Vertibot/src/STM32F30x_StdPeriph_Driver/src/stm32f30x_usart.c ****          multiprocessor communication.
 953:/home/user/Desktop/STM32-Projekte/FH-Vertibot/src/STM32F30x_StdPeriph_Driver/src/stm32f30x_usart.c ****     [..] For instance one of the USARTs can be the master, its TX output is
 954:/home/user/Desktop/STM32-Projekte/FH-Vertibot/src/STM32F30x_StdPeriph_Driver/src/stm32f30x_usart.c ****          connected to the RX input of the other USART. The others are slaves,
 955:/home/user/Desktop/STM32-Projekte/FH-Vertibot/src/STM32F30x_StdPeriph_Driver/src/stm32f30x_usart.c ****          their respective TX outputs are logically ANDed together and connected 
 956:/home/user/Desktop/STM32-Projekte/FH-Vertibot/src/STM32F30x_StdPeriph_Driver/src/stm32f30x_usart.c ****          to the RX input of the master. USART multiprocessor communication is 
 957:/home/user/Desktop/STM32-Projekte/FH-Vertibot/src/STM32F30x_StdPeriph_Driver/src/stm32f30x_usart.c ****          possible through the following procedure:
 958:/home/user/Desktop/STM32-Projekte/FH-Vertibot/src/STM32F30x_StdPeriph_Driver/src/stm32f30x_usart.c ****          (#) Program the Baud rate, Word length = 9 bits, Stop bits, Parity, 
 959:/home/user/Desktop/STM32-Projekte/FH-Vertibot/src/STM32F30x_StdPeriph_Driver/src/stm32f30x_usart.c ****              Mode transmitter or Mode receiver and hardware flow control values 
 960:/home/user/Desktop/STM32-Projekte/FH-Vertibot/src/STM32F30x_StdPeriph_Driver/src/stm32f30x_usart.c ****              using the USART_Init() function.
 961:/home/user/Desktop/STM32-Projekte/FH-Vertibot/src/STM32F30x_StdPeriph_Driver/src/stm32f30x_usart.c ****          (#) Configures the USART address using the USART_SetAddress() function.
 962:/home/user/Desktop/STM32-Projekte/FH-Vertibot/src/STM32F30x_StdPeriph_Driver/src/stm32f30x_usart.c ****          (#) Configures the wake up methode (USART_WakeUp_IdleLine or 
 963:/home/user/Desktop/STM32-Projekte/FH-Vertibot/src/STM32F30x_StdPeriph_Driver/src/stm32f30x_usart.c ****              USART_WakeUp_AddressMark) using USART_WakeUpConfig() function only 
 964:/home/user/Desktop/STM32-Projekte/FH-Vertibot/src/STM32F30x_StdPeriph_Driver/src/stm32f30x_usart.c ****              for the slaves.
 965:/home/user/Desktop/STM32-Projekte/FH-Vertibot/src/STM32F30x_StdPeriph_Driver/src/stm32f30x_usart.c ****          (#) Enable the USART using the USART_Cmd() function.
 966:/home/user/Desktop/STM32-Projekte/FH-Vertibot/src/STM32F30x_StdPeriph_Driver/src/stm32f30x_usart.c ****          (#) Enter the USART slaves in mute mode using USART_ReceiverWakeUpCmd() 
 967:/home/user/Desktop/STM32-Projekte/FH-Vertibot/src/STM32F30x_StdPeriph_Driver/src/stm32f30x_usart.c ****              function.
 968:/home/user/Desktop/STM32-Projekte/FH-Vertibot/src/STM32F30x_StdPeriph_Driver/src/stm32f30x_usart.c ****     [..] The USART Slave exit from mute mode when receive the wake up condition.
 969:/home/user/Desktop/STM32-Projekte/FH-Vertibot/src/STM32F30x_StdPeriph_Driver/src/stm32f30x_usart.c **** 
 970:/home/user/Desktop/STM32-Projekte/FH-Vertibot/src/STM32F30x_StdPeriph_Driver/src/stm32f30x_usart.c **** @endverbatim
 971:/home/user/Desktop/STM32-Projekte/FH-Vertibot/src/STM32F30x_StdPeriph_Driver/src/stm32f30x_usart.c ****   * @{
 972:/home/user/Desktop/STM32-Projekte/FH-Vertibot/src/STM32F30x_StdPeriph_Driver/src/stm32f30x_usart.c ****   */
 973:/home/user/Desktop/STM32-Projekte/FH-Vertibot/src/STM32F30x_StdPeriph_Driver/src/stm32f30x_usart.c **** 
 974:/home/user/Desktop/STM32-Projekte/FH-Vertibot/src/STM32F30x_StdPeriph_Driver/src/stm32f30x_usart.c **** /**
 975:/home/user/Desktop/STM32-Projekte/FH-Vertibot/src/STM32F30x_StdPeriph_Driver/src/stm32f30x_usart.c ****   * @brief  Sets the address of the USART node.
 976:/home/user/Desktop/STM32-Projekte/FH-Vertibot/src/STM32F30x_StdPeriph_Driver/src/stm32f30x_usart.c ****   * @param  USARTx: Select the USART peripheral. This parameter can be one of the 
 977:/home/user/Desktop/STM32-Projekte/FH-Vertibot/src/STM32F30x_StdPeriph_Driver/src/stm32f30x_usart.c ****   *         following values: USART1 or USART2 or USART3 or UART4 or UART5.
 978:/home/user/Desktop/STM32-Projekte/FH-Vertibot/src/STM32F30x_StdPeriph_Driver/src/stm32f30x_usart.c ****   * @param  USART_Address: Indicates the address of the USART node.
 979:/home/user/Desktop/STM32-Projekte/FH-Vertibot/src/STM32F30x_StdPeriph_Driver/src/stm32f30x_usart.c ****   * @retval None
 980:/home/user/Desktop/STM32-Projekte/FH-Vertibot/src/STM32F30x_StdPeriph_Driver/src/stm32f30x_usart.c ****   */
 981:/home/user/Desktop/STM32-Projekte/FH-Vertibot/src/STM32F30x_StdPeriph_Driver/src/stm32f30x_usart.c **** void USART_SetAddress(USART_TypeDef* USARTx, uint8_t USART_Address)
 982:/home/user/Desktop/STM32-Projekte/FH-Vertibot/src/STM32F30x_StdPeriph_Driver/src/stm32f30x_usart.c **** {
 892              		.loc 1 982 0
 893              		.cfi_startproc
 894              		@ args = 0, pretend = 0, frame = 0
 895              		@ frame_needed = 0, uses_anonymous_args = 0
 896              		@ link register save eliminated.
 897              	.LVL80:
 983:/home/user/Desktop/STM32-Projekte/FH-Vertibot/src/STM32F30x_StdPeriph_Driver/src/stm32f30x_usart.c ****   /* Check the parameters */
 984:/home/user/Desktop/STM32-Projekte/FH-Vertibot/src/STM32F30x_StdPeriph_Driver/src/stm32f30x_usart.c ****   assert_param(IS_USART_ALL_PERIPH(USARTx));
 985:/home/user/Desktop/STM32-Projekte/FH-Vertibot/src/STM32F30x_StdPeriph_Driver/src/stm32f30x_usart.c **** 
 986:/home/user/Desktop/STM32-Projekte/FH-Vertibot/src/STM32F30x_StdPeriph_Driver/src/stm32f30x_usart.c ****   /* Clear the USART address */
 987:/home/user/Desktop/STM32-Projekte/FH-Vertibot/src/STM32F30x_StdPeriph_Driver/src/stm32f30x_usart.c ****   USARTx->CR2 &= (uint32_t)~((uint32_t)USART_CR2_ADD);
 898              		.loc 1 987 0
 899 02a2 4368     		ldr	r3, [r0, #4]
 900 02a4 23F07F43 		bic	r3, r3, #-16777216
 901 02a8 4360     		str	r3, [r0, #4]
 988:/home/user/Desktop/STM32-Projekte/FH-Vertibot/src/STM32F30x_StdPeriph_Driver/src/stm32f30x_usart.c ****   /* Set the USART address node */
 989:/home/user/Desktop/STM32-Projekte/FH-Vertibot/src/STM32F30x_StdPeriph_Driver/src/stm32f30x_usart.c ****   USARTx->CR2 |=((uint32_t)USART_Address << (uint32_t)0x18);
 902              		.loc 1 989 0
 903 02aa 4368     		ldr	r3, [r0, #4]
 904 02ac 43EA0161 		orr	r1, r3, r1, lsl #24
 905              	.LVL81:
 906 02b0 4160     		str	r1, [r0, #4]
 907 02b2 7047     		bx	lr
 908              		.cfi_endproc
 909              	.LFE133:
 911              		.align	1
 912              		.global	USART_MuteModeCmd
 913              		.thumb
 914              		.thumb_func
 916              	USART_MuteModeCmd:
 917              	.LFB134:
 990:/home/user/Desktop/STM32-Projekte/FH-Vertibot/src/STM32F30x_StdPeriph_Driver/src/stm32f30x_usart.c **** }
 991:/home/user/Desktop/STM32-Projekte/FH-Vertibot/src/STM32F30x_StdPeriph_Driver/src/stm32f30x_usart.c **** 
 992:/home/user/Desktop/STM32-Projekte/FH-Vertibot/src/STM32F30x_StdPeriph_Driver/src/stm32f30x_usart.c **** /**
 993:/home/user/Desktop/STM32-Projekte/FH-Vertibot/src/STM32F30x_StdPeriph_Driver/src/stm32f30x_usart.c ****   * @brief  Enables or disables the USART's mute mode.
 994:/home/user/Desktop/STM32-Projekte/FH-Vertibot/src/STM32F30x_StdPeriph_Driver/src/stm32f30x_usart.c ****   * @param  USARTx: Select the USART peripheral. This parameter can be one of the 
 995:/home/user/Desktop/STM32-Projekte/FH-Vertibot/src/STM32F30x_StdPeriph_Driver/src/stm32f30x_usart.c ****   *         following values: USART1 or USART2 or USART3 or UART4 or UART5.
 996:/home/user/Desktop/STM32-Projekte/FH-Vertibot/src/STM32F30x_StdPeriph_Driver/src/stm32f30x_usart.c ****   * @param  NewState: new state of the USART mute mode.
 997:/home/user/Desktop/STM32-Projekte/FH-Vertibot/src/STM32F30x_StdPeriph_Driver/src/stm32f30x_usart.c ****   *         This parameter can be: ENABLE or DISABLE.
 998:/home/user/Desktop/STM32-Projekte/FH-Vertibot/src/STM32F30x_StdPeriph_Driver/src/stm32f30x_usart.c ****   * @retval None
 999:/home/user/Desktop/STM32-Projekte/FH-Vertibot/src/STM32F30x_StdPeriph_Driver/src/stm32f30x_usart.c ****   */
1000:/home/user/Desktop/STM32-Projekte/FH-Vertibot/src/STM32F30x_StdPeriph_Driver/src/stm32f30x_usart.c **** void USART_MuteModeCmd(USART_TypeDef* USARTx, FunctionalState NewState)
1001:/home/user/Desktop/STM32-Projekte/FH-Vertibot/src/STM32F30x_StdPeriph_Driver/src/stm32f30x_usart.c **** {
 918              		.loc 1 1001 0
 919              		.cfi_startproc
 920              		@ args = 0, pretend = 0, frame = 0
 921              		@ frame_needed = 0, uses_anonymous_args = 0
 922              		@ link register save eliminated.
 923              	.LVL82:
1002:/home/user/Desktop/STM32-Projekte/FH-Vertibot/src/STM32F30x_StdPeriph_Driver/src/stm32f30x_usart.c ****   /* Check the parameters */
1003:/home/user/Desktop/STM32-Projekte/FH-Vertibot/src/STM32F30x_StdPeriph_Driver/src/stm32f30x_usart.c ****   assert_param(IS_USART_ALL_PERIPH(USARTx));
1004:/home/user/Desktop/STM32-Projekte/FH-Vertibot/src/STM32F30x_StdPeriph_Driver/src/stm32f30x_usart.c ****   assert_param(IS_FUNCTIONAL_STATE(NewState)); 
1005:/home/user/Desktop/STM32-Projekte/FH-Vertibot/src/STM32F30x_StdPeriph_Driver/src/stm32f30x_usart.c **** 
1006:/home/user/Desktop/STM32-Projekte/FH-Vertibot/src/STM32F30x_StdPeriph_Driver/src/stm32f30x_usart.c ****   if (NewState != DISABLE)
1007:/home/user/Desktop/STM32-Projekte/FH-Vertibot/src/STM32F30x_StdPeriph_Driver/src/stm32f30x_usart.c ****   {
1008:/home/user/Desktop/STM32-Projekte/FH-Vertibot/src/STM32F30x_StdPeriph_Driver/src/stm32f30x_usart.c ****     /* Enable the USART mute mode by setting the MME bit in the CR1 register */
1009:/home/user/Desktop/STM32-Projekte/FH-Vertibot/src/STM32F30x_StdPeriph_Driver/src/stm32f30x_usart.c ****     USARTx->CR1 |= USART_CR1_MME;
 924              		.loc 1 1009 0
 925 02b4 0368     		ldr	r3, [r0, #0]
1006:/home/user/Desktop/STM32-Projekte/FH-Vertibot/src/STM32F30x_StdPeriph_Driver/src/stm32f30x_usart.c ****   if (NewState != DISABLE)
 926              		.loc 1 1006 0
 927 02b6 11B1     		cbz	r1, .L80
 928              		.loc 1 1009 0
 929 02b8 43F40053 		orr	r3, r3, #8192
 930 02bc 01E0     		b	.L82
 931              	.L80:
1010:/home/user/Desktop/STM32-Projekte/FH-Vertibot/src/STM32F30x_StdPeriph_Driver/src/stm32f30x_usart.c ****   }
1011:/home/user/Desktop/STM32-Projekte/FH-Vertibot/src/STM32F30x_StdPeriph_Driver/src/stm32f30x_usart.c ****   else
1012:/home/user/Desktop/STM32-Projekte/FH-Vertibot/src/STM32F30x_StdPeriph_Driver/src/stm32f30x_usart.c ****   {
1013:/home/user/Desktop/STM32-Projekte/FH-Vertibot/src/STM32F30x_StdPeriph_Driver/src/stm32f30x_usart.c ****     /* Disable the USART mute mode by clearing the MME bit in the CR1 register */
1014:/home/user/Desktop/STM32-Projekte/FH-Vertibot/src/STM32F30x_StdPeriph_Driver/src/stm32f30x_usart.c ****     USARTx->CR1 &= (uint32_t)~((uint32_t)USART_CR1_MME);
 932              		.loc 1 1014 0
 933 02be 23F40053 		bic	r3, r3, #8192
 934              	.L82:
 935 02c2 0360     		str	r3, [r0, #0]
 936 02c4 7047     		bx	lr
 937              		.cfi_endproc
 938              	.LFE134:
 940              		.align	1
 941              		.global	USART_MuteModeWakeUpConfig
 942              		.thumb
 943              		.thumb_func
 945              	USART_MuteModeWakeUpConfig:
 946              	.LFB135:
1015:/home/user/Desktop/STM32-Projekte/FH-Vertibot/src/STM32F30x_StdPeriph_Driver/src/stm32f30x_usart.c ****   }
1016:/home/user/Desktop/STM32-Projekte/FH-Vertibot/src/STM32F30x_StdPeriph_Driver/src/stm32f30x_usart.c **** }
1017:/home/user/Desktop/STM32-Projekte/FH-Vertibot/src/STM32F30x_StdPeriph_Driver/src/stm32f30x_usart.c **** 
1018:/home/user/Desktop/STM32-Projekte/FH-Vertibot/src/STM32F30x_StdPeriph_Driver/src/stm32f30x_usart.c **** /**
1019:/home/user/Desktop/STM32-Projekte/FH-Vertibot/src/STM32F30x_StdPeriph_Driver/src/stm32f30x_usart.c ****   * @brief  Selects the USART WakeUp method from mute mode.
1020:/home/user/Desktop/STM32-Projekte/FH-Vertibot/src/STM32F30x_StdPeriph_Driver/src/stm32f30x_usart.c ****   * @param  USARTx: Select the USART peripheral. This parameter can be one of the 
1021:/home/user/Desktop/STM32-Projekte/FH-Vertibot/src/STM32F30x_StdPeriph_Driver/src/stm32f30x_usart.c ****   *         following values: USART1 or USART2 or USART3 or UART4 or UART5.
1022:/home/user/Desktop/STM32-Projekte/FH-Vertibot/src/STM32F30x_StdPeriph_Driver/src/stm32f30x_usart.c ****   * @param  USART_WakeUp: specifies the USART wakeup method.
1023:/home/user/Desktop/STM32-Projekte/FH-Vertibot/src/STM32F30x_StdPeriph_Driver/src/stm32f30x_usart.c ****   *         This parameter can be one of the following values:
1024:/home/user/Desktop/STM32-Projekte/FH-Vertibot/src/STM32F30x_StdPeriph_Driver/src/stm32f30x_usart.c ****   *         @arg USART_WakeUp_IdleLine: WakeUp by an idle line detection
1025:/home/user/Desktop/STM32-Projekte/FH-Vertibot/src/STM32F30x_StdPeriph_Driver/src/stm32f30x_usart.c ****   *         @arg USART_WakeUp_AddressMark: WakeUp by an address mark
1026:/home/user/Desktop/STM32-Projekte/FH-Vertibot/src/STM32F30x_StdPeriph_Driver/src/stm32f30x_usart.c ****   * @retval None
1027:/home/user/Desktop/STM32-Projekte/FH-Vertibot/src/STM32F30x_StdPeriph_Driver/src/stm32f30x_usart.c ****   */
1028:/home/user/Desktop/STM32-Projekte/FH-Vertibot/src/STM32F30x_StdPeriph_Driver/src/stm32f30x_usart.c **** void USART_MuteModeWakeUpConfig(USART_TypeDef* USARTx, uint32_t USART_WakeUp)
1029:/home/user/Desktop/STM32-Projekte/FH-Vertibot/src/STM32F30x_StdPeriph_Driver/src/stm32f30x_usart.c **** {
 947              		.loc 1 1029 0
 948              		.cfi_startproc
 949              		@ args = 0, pretend = 0, frame = 0
 950              		@ frame_needed = 0, uses_anonymous_args = 0
 951              		@ link register save eliminated.
 952              	.LVL83:
1030:/home/user/Desktop/STM32-Projekte/FH-Vertibot/src/STM32F30x_StdPeriph_Driver/src/stm32f30x_usart.c ****   /* Check the parameters */
1031:/home/user/Desktop/STM32-Projekte/FH-Vertibot/src/STM32F30x_StdPeriph_Driver/src/stm32f30x_usart.c ****   assert_param(IS_USART_ALL_PERIPH(USARTx));
1032:/home/user/Desktop/STM32-Projekte/FH-Vertibot/src/STM32F30x_StdPeriph_Driver/src/stm32f30x_usart.c ****   assert_param(IS_USART_MUTEMODE_WAKEUP(USART_WakeUp));
1033:/home/user/Desktop/STM32-Projekte/FH-Vertibot/src/STM32F30x_StdPeriph_Driver/src/stm32f30x_usart.c **** 
1034:/home/user/Desktop/STM32-Projekte/FH-Vertibot/src/STM32F30x_StdPeriph_Driver/src/stm32f30x_usart.c ****   USARTx->CR1 &= (uint32_t)~((uint32_t)USART_CR1_WAKE);
 953              		.loc 1 1034 0
 954 02c6 0368     		ldr	r3, [r0, #0]
 955 02c8 23F40063 		bic	r3, r3, #2048
 956 02cc 0360     		str	r3, [r0, #0]
1035:/home/user/Desktop/STM32-Projekte/FH-Vertibot/src/STM32F30x_StdPeriph_Driver/src/stm32f30x_usart.c ****   USARTx->CR1 |= USART_WakeUp;
 957              		.loc 1 1035 0
 958 02ce 0368     		ldr	r3, [r0, #0]
 959 02d0 1943     		orrs	r1, r1, r3
 960              	.LVL84:
 961 02d2 0160     		str	r1, [r0, #0]
 962 02d4 7047     		bx	lr
 963              		.cfi_endproc
 964              	.LFE135:
 966              		.align	1
 967              		.global	USART_AddressDetectionConfig
 968              		.thumb
 969              		.thumb_func
 971              	USART_AddressDetectionConfig:
 972              	.LFB136:
1036:/home/user/Desktop/STM32-Projekte/FH-Vertibot/src/STM32F30x_StdPeriph_Driver/src/stm32f30x_usart.c **** }
1037:/home/user/Desktop/STM32-Projekte/FH-Vertibot/src/STM32F30x_StdPeriph_Driver/src/stm32f30x_usart.c **** 
1038:/home/user/Desktop/STM32-Projekte/FH-Vertibot/src/STM32F30x_StdPeriph_Driver/src/stm32f30x_usart.c **** /**
1039:/home/user/Desktop/STM32-Projekte/FH-Vertibot/src/STM32F30x_StdPeriph_Driver/src/stm32f30x_usart.c ****   * @brief  Configure the the USART Address detection length.
1040:/home/user/Desktop/STM32-Projekte/FH-Vertibot/src/STM32F30x_StdPeriph_Driver/src/stm32f30x_usart.c ****   * @param  USARTx: Select the USART peripheral. This parameter can be one of the 
1041:/home/user/Desktop/STM32-Projekte/FH-Vertibot/src/STM32F30x_StdPeriph_Driver/src/stm32f30x_usart.c ****   *         following values: USART1 or USART2 or USART3 or UART4 or UART5.
1042:/home/user/Desktop/STM32-Projekte/FH-Vertibot/src/STM32F30x_StdPeriph_Driver/src/stm32f30x_usart.c ****   * @param  USART_AddressLength: specifies the USART address length detection.
1043:/home/user/Desktop/STM32-Projekte/FH-Vertibot/src/STM32F30x_StdPeriph_Driver/src/stm32f30x_usart.c ****   *         This parameter can be one of the following values:
1044:/home/user/Desktop/STM32-Projekte/FH-Vertibot/src/STM32F30x_StdPeriph_Driver/src/stm32f30x_usart.c ****   *         @arg USART_AddressLength_4b: 4-bit address length detection 
1045:/home/user/Desktop/STM32-Projekte/FH-Vertibot/src/STM32F30x_StdPeriph_Driver/src/stm32f30x_usart.c ****   *         @arg USART_AddressLength_7b: 7-bit address length detection 
1046:/home/user/Desktop/STM32-Projekte/FH-Vertibot/src/STM32F30x_StdPeriph_Driver/src/stm32f30x_usart.c ****   * @retval None
1047:/home/user/Desktop/STM32-Projekte/FH-Vertibot/src/STM32F30x_StdPeriph_Driver/src/stm32f30x_usart.c ****   */
1048:/home/user/Desktop/STM32-Projekte/FH-Vertibot/src/STM32F30x_StdPeriph_Driver/src/stm32f30x_usart.c **** void USART_AddressDetectionConfig(USART_TypeDef* USARTx, uint32_t USART_AddressLength)
1049:/home/user/Desktop/STM32-Projekte/FH-Vertibot/src/STM32F30x_StdPeriph_Driver/src/stm32f30x_usart.c **** {
 973              		.loc 1 1049 0
 974              		.cfi_startproc
 975              		@ args = 0, pretend = 0, frame = 0
 976              		@ frame_needed = 0, uses_anonymous_args = 0
 977              		@ link register save eliminated.
 978              	.LVL85:
1050:/home/user/Desktop/STM32-Projekte/FH-Vertibot/src/STM32F30x_StdPeriph_Driver/src/stm32f30x_usart.c ****   /* Check the parameters */
1051:/home/user/Desktop/STM32-Projekte/FH-Vertibot/src/STM32F30x_StdPeriph_Driver/src/stm32f30x_usart.c ****   assert_param(IS_USART_ALL_PERIPH(USARTx));
1052:/home/user/Desktop/STM32-Projekte/FH-Vertibot/src/STM32F30x_StdPeriph_Driver/src/stm32f30x_usart.c ****   assert_param(IS_USART_ADDRESS_DETECTION(USART_AddressLength));
1053:/home/user/Desktop/STM32-Projekte/FH-Vertibot/src/STM32F30x_StdPeriph_Driver/src/stm32f30x_usart.c **** 
1054:/home/user/Desktop/STM32-Projekte/FH-Vertibot/src/STM32F30x_StdPeriph_Driver/src/stm32f30x_usart.c ****   USARTx->CR2 &= (uint32_t)~((uint32_t)USART_CR2_ADDM7);
 979              		.loc 1 1054 0
 980 02d6 4368     		ldr	r3, [r0, #4]
 981 02d8 23F01003 		bic	r3, r3, #16
 982 02dc 4360     		str	r3, [r0, #4]
1055:/home/user/Desktop/STM32-Projekte/FH-Vertibot/src/STM32F30x_StdPeriph_Driver/src/stm32f30x_usart.c ****   USARTx->CR2 |= USART_AddressLength;
 983              		.loc 1 1055 0
 984 02de 4368     		ldr	r3, [r0, #4]
 985 02e0 1943     		orrs	r1, r1, r3
 986              	.LVL86:
 987 02e2 4160     		str	r1, [r0, #4]
 988 02e4 7047     		bx	lr
 989              		.cfi_endproc
 990              	.LFE136:
 992              		.align	1
 993              		.global	USART_LINBreakDetectLengthConfig
 994              		.thumb
 995              		.thumb_func
 997              	USART_LINBreakDetectLengthConfig:
 998              	.LFB137:
1056:/home/user/Desktop/STM32-Projekte/FH-Vertibot/src/STM32F30x_StdPeriph_Driver/src/stm32f30x_usart.c **** }
1057:/home/user/Desktop/STM32-Projekte/FH-Vertibot/src/STM32F30x_StdPeriph_Driver/src/stm32f30x_usart.c **** 
1058:/home/user/Desktop/STM32-Projekte/FH-Vertibot/src/STM32F30x_StdPeriph_Driver/src/stm32f30x_usart.c **** /**
1059:/home/user/Desktop/STM32-Projekte/FH-Vertibot/src/STM32F30x_StdPeriph_Driver/src/stm32f30x_usart.c ****   * @}
1060:/home/user/Desktop/STM32-Projekte/FH-Vertibot/src/STM32F30x_StdPeriph_Driver/src/stm32f30x_usart.c ****   */
1061:/home/user/Desktop/STM32-Projekte/FH-Vertibot/src/STM32F30x_StdPeriph_Driver/src/stm32f30x_usart.c **** 
1062:/home/user/Desktop/STM32-Projekte/FH-Vertibot/src/STM32F30x_StdPeriph_Driver/src/stm32f30x_usart.c **** /** @defgroup USART_Group6 LIN mode functions
1063:/home/user/Desktop/STM32-Projekte/FH-Vertibot/src/STM32F30x_StdPeriph_Driver/src/stm32f30x_usart.c ****  *  @brief   LIN mode functions 
1064:/home/user/Desktop/STM32-Projekte/FH-Vertibot/src/STM32F30x_StdPeriph_Driver/src/stm32f30x_usart.c ****  *
1065:/home/user/Desktop/STM32-Projekte/FH-Vertibot/src/STM32F30x_StdPeriph_Driver/src/stm32f30x_usart.c **** @verbatim   
1066:/home/user/Desktop/STM32-Projekte/FH-Vertibot/src/STM32F30x_StdPeriph_Driver/src/stm32f30x_usart.c ****  ===============================================================================
1067:/home/user/Desktop/STM32-Projekte/FH-Vertibot/src/STM32F30x_StdPeriph_Driver/src/stm32f30x_usart.c ****                        ##### LIN mode functions #####
1068:/home/user/Desktop/STM32-Projekte/FH-Vertibot/src/STM32F30x_StdPeriph_Driver/src/stm32f30x_usart.c ****  ===============================================================================
1069:/home/user/Desktop/STM32-Projekte/FH-Vertibot/src/STM32F30x_StdPeriph_Driver/src/stm32f30x_usart.c ****     [..] This subsection provides a set of functions allowing to manage the USART 
1070:/home/user/Desktop/STM32-Projekte/FH-Vertibot/src/STM32F30x_StdPeriph_Driver/src/stm32f30x_usart.c ****          LIN Mode communication.
1071:/home/user/Desktop/STM32-Projekte/FH-Vertibot/src/STM32F30x_StdPeriph_Driver/src/stm32f30x_usart.c ****     [..] In LIN mode, 8-bit data format with 1 stop bit is required in accordance 
1072:/home/user/Desktop/STM32-Projekte/FH-Vertibot/src/STM32F30x_StdPeriph_Driver/src/stm32f30x_usart.c ****          with the LIN standard.
1073:/home/user/Desktop/STM32-Projekte/FH-Vertibot/src/STM32F30x_StdPeriph_Driver/src/stm32f30x_usart.c ****     [..] Only this LIN Feature is supported by the USART IP:
1074:/home/user/Desktop/STM32-Projekte/FH-Vertibot/src/STM32F30x_StdPeriph_Driver/src/stm32f30x_usart.c ****          (+) LIN Master Synchronous Break send capability and LIN slave break 
1075:/home/user/Desktop/STM32-Projekte/FH-Vertibot/src/STM32F30x_StdPeriph_Driver/src/stm32f30x_usart.c ****              detection capability :  13-bit break generation and 10/11 bit break 
1076:/home/user/Desktop/STM32-Projekte/FH-Vertibot/src/STM32F30x_StdPeriph_Driver/src/stm32f30x_usart.c ****              detection.
1077:/home/user/Desktop/STM32-Projekte/FH-Vertibot/src/STM32F30x_StdPeriph_Driver/src/stm32f30x_usart.c ****     [..] USART LIN Master transmitter communication is possible through the 
1078:/home/user/Desktop/STM32-Projekte/FH-Vertibot/src/STM32F30x_StdPeriph_Driver/src/stm32f30x_usart.c ****          following procedure:
1079:/home/user/Desktop/STM32-Projekte/FH-Vertibot/src/STM32F30x_StdPeriph_Driver/src/stm32f30x_usart.c ****          (#) Program the Baud rate, Word length = 8bits, Stop bits = 1bit, Parity, 
1080:/home/user/Desktop/STM32-Projekte/FH-Vertibot/src/STM32F30x_StdPeriph_Driver/src/stm32f30x_usart.c ****              Mode transmitter or Mode receiver and hardware flow control values 
1081:/home/user/Desktop/STM32-Projekte/FH-Vertibot/src/STM32F30x_StdPeriph_Driver/src/stm32f30x_usart.c ****              using the USART_Init() function.
1082:/home/user/Desktop/STM32-Projekte/FH-Vertibot/src/STM32F30x_StdPeriph_Driver/src/stm32f30x_usart.c ****          (#) Enable the LIN mode using the USART_LINCmd() function.
1083:/home/user/Desktop/STM32-Projekte/FH-Vertibot/src/STM32F30x_StdPeriph_Driver/src/stm32f30x_usart.c ****          (#) Enable the USART using the USART_Cmd() function.
1084:/home/user/Desktop/STM32-Projekte/FH-Vertibot/src/STM32F30x_StdPeriph_Driver/src/stm32f30x_usart.c ****          (#) Send the break character using USART_SendBreak() function.
1085:/home/user/Desktop/STM32-Projekte/FH-Vertibot/src/STM32F30x_StdPeriph_Driver/src/stm32f30x_usart.c ****     [..] USART LIN Master receiver communication is possible through the 
1086:/home/user/Desktop/STM32-Projekte/FH-Vertibot/src/STM32F30x_StdPeriph_Driver/src/stm32f30x_usart.c ****          following procedure:
1087:/home/user/Desktop/STM32-Projekte/FH-Vertibot/src/STM32F30x_StdPeriph_Driver/src/stm32f30x_usart.c ****          (#) Program the Baud rate, Word length = 8bits, Stop bits = 1bit, Parity, 
1088:/home/user/Desktop/STM32-Projekte/FH-Vertibot/src/STM32F30x_StdPeriph_Driver/src/stm32f30x_usart.c ****              Mode transmitter or Mode receiver and hardware flow control values 
1089:/home/user/Desktop/STM32-Projekte/FH-Vertibot/src/STM32F30x_StdPeriph_Driver/src/stm32f30x_usart.c ****              using the USART_Init() function.
1090:/home/user/Desktop/STM32-Projekte/FH-Vertibot/src/STM32F30x_StdPeriph_Driver/src/stm32f30x_usart.c ****          (#) Configures the break detection length 
1091:/home/user/Desktop/STM32-Projekte/FH-Vertibot/src/STM32F30x_StdPeriph_Driver/src/stm32f30x_usart.c ****              using the USART_LINBreakDetectLengthConfig() function.
1092:/home/user/Desktop/STM32-Projekte/FH-Vertibot/src/STM32F30x_StdPeriph_Driver/src/stm32f30x_usart.c ****          (#) Enable the LIN mode using the USART_LINCmd() function.
1093:/home/user/Desktop/STM32-Projekte/FH-Vertibot/src/STM32F30x_StdPeriph_Driver/src/stm32f30x_usart.c ****          (#) Enable the USART using the USART_Cmd() function.
1094:/home/user/Desktop/STM32-Projekte/FH-Vertibot/src/STM32F30x_StdPeriph_Driver/src/stm32f30x_usart.c ****          [..]
1095:/home/user/Desktop/STM32-Projekte/FH-Vertibot/src/STM32F30x_StdPeriph_Driver/src/stm32f30x_usart.c ****          (@) In LIN mode, the following bits must be kept cleared:
1096:/home/user/Desktop/STM32-Projekte/FH-Vertibot/src/STM32F30x_StdPeriph_Driver/src/stm32f30x_usart.c ****              (+@) CLKEN in the USART_CR2 register.
1097:/home/user/Desktop/STM32-Projekte/FH-Vertibot/src/STM32F30x_StdPeriph_Driver/src/stm32f30x_usart.c ****              (+@) STOP[1:0], SCEN, HDSEL and IREN in the USART_CR3 register.
1098:/home/user/Desktop/STM32-Projekte/FH-Vertibot/src/STM32F30x_StdPeriph_Driver/src/stm32f30x_usart.c **** 
1099:/home/user/Desktop/STM32-Projekte/FH-Vertibot/src/STM32F30x_StdPeriph_Driver/src/stm32f30x_usart.c **** @endverbatim
1100:/home/user/Desktop/STM32-Projekte/FH-Vertibot/src/STM32F30x_StdPeriph_Driver/src/stm32f30x_usart.c ****   * @{
1101:/home/user/Desktop/STM32-Projekte/FH-Vertibot/src/STM32F30x_StdPeriph_Driver/src/stm32f30x_usart.c ****   */
1102:/home/user/Desktop/STM32-Projekte/FH-Vertibot/src/STM32F30x_StdPeriph_Driver/src/stm32f30x_usart.c **** 
1103:/home/user/Desktop/STM32-Projekte/FH-Vertibot/src/STM32F30x_StdPeriph_Driver/src/stm32f30x_usart.c **** /**
1104:/home/user/Desktop/STM32-Projekte/FH-Vertibot/src/STM32F30x_StdPeriph_Driver/src/stm32f30x_usart.c ****   * @brief  Sets the USART LIN Break detection length.
1105:/home/user/Desktop/STM32-Projekte/FH-Vertibot/src/STM32F30x_StdPeriph_Driver/src/stm32f30x_usart.c ****   * @param  USARTx: Select the USART peripheral. This parameter can be one of the 
1106:/home/user/Desktop/STM32-Projekte/FH-Vertibot/src/STM32F30x_StdPeriph_Driver/src/stm32f30x_usart.c ****   *         following values: USART1 or USART2 or USART3 or UART4 or UART5.
1107:/home/user/Desktop/STM32-Projekte/FH-Vertibot/src/STM32F30x_StdPeriph_Driver/src/stm32f30x_usart.c ****   * @param  USART_LINBreakDetectLength: specifies the LIN break detection length.
1108:/home/user/Desktop/STM32-Projekte/FH-Vertibot/src/STM32F30x_StdPeriph_Driver/src/stm32f30x_usart.c ****   *         This parameter can be one of the following values:
1109:/home/user/Desktop/STM32-Projekte/FH-Vertibot/src/STM32F30x_StdPeriph_Driver/src/stm32f30x_usart.c ****   *         @arg USART_LINBreakDetectLength_10b: 10-bit break detection
1110:/home/user/Desktop/STM32-Projekte/FH-Vertibot/src/STM32F30x_StdPeriph_Driver/src/stm32f30x_usart.c ****   *         @arg USART_LINBreakDetectLength_11b: 11-bit break detection
1111:/home/user/Desktop/STM32-Projekte/FH-Vertibot/src/STM32F30x_StdPeriph_Driver/src/stm32f30x_usart.c ****   * @retval None
1112:/home/user/Desktop/STM32-Projekte/FH-Vertibot/src/STM32F30x_StdPeriph_Driver/src/stm32f30x_usart.c ****   */
1113:/home/user/Desktop/STM32-Projekte/FH-Vertibot/src/STM32F30x_StdPeriph_Driver/src/stm32f30x_usart.c **** void USART_LINBreakDetectLengthConfig(USART_TypeDef* USARTx, uint32_t USART_LINBreakDetectLength)
1114:/home/user/Desktop/STM32-Projekte/FH-Vertibot/src/STM32F30x_StdPeriph_Driver/src/stm32f30x_usart.c **** {
 999              		.loc 1 1114 0
 1000              		.cfi_startproc
 1001              		@ args = 0, pretend = 0, frame = 0
 1002              		@ frame_needed = 0, uses_anonymous_args = 0
 1003              		@ link register save eliminated.
 1004              	.LVL87:
1115:/home/user/Desktop/STM32-Projekte/FH-Vertibot/src/STM32F30x_StdPeriph_Driver/src/stm32f30x_usart.c ****   /* Check the parameters */
1116:/home/user/Desktop/STM32-Projekte/FH-Vertibot/src/STM32F30x_StdPeriph_Driver/src/stm32f30x_usart.c ****   assert_param(IS_USART_ALL_PERIPH(USARTx));
1117:/home/user/Desktop/STM32-Projekte/FH-Vertibot/src/STM32F30x_StdPeriph_Driver/src/stm32f30x_usart.c ****   assert_param(IS_USART_LIN_BREAK_DETECT_LENGTH(USART_LINBreakDetectLength));
1118:/home/user/Desktop/STM32-Projekte/FH-Vertibot/src/STM32F30x_StdPeriph_Driver/src/stm32f30x_usart.c **** 
1119:/home/user/Desktop/STM32-Projekte/FH-Vertibot/src/STM32F30x_StdPeriph_Driver/src/stm32f30x_usart.c ****   USARTx->CR2 &= (uint32_t)~((uint32_t)USART_CR2_LBDL);
 1005              		.loc 1 1119 0
 1006 02e6 4368     		ldr	r3, [r0, #4]
 1007 02e8 23F02003 		bic	r3, r3, #32
 1008 02ec 4360     		str	r3, [r0, #4]
1120:/home/user/Desktop/STM32-Projekte/FH-Vertibot/src/STM32F30x_StdPeriph_Driver/src/stm32f30x_usart.c ****   USARTx->CR2 |= USART_LINBreakDetectLength;  
 1009              		.loc 1 1120 0
 1010 02ee 4368     		ldr	r3, [r0, #4]
 1011 02f0 1943     		orrs	r1, r1, r3
 1012              	.LVL88:
 1013 02f2 4160     		str	r1, [r0, #4]
 1014 02f4 7047     		bx	lr
 1015              		.cfi_endproc
 1016              	.LFE137:
 1018              		.align	1
 1019              		.global	USART_LINCmd
 1020              		.thumb
 1021              		.thumb_func
 1023              	USART_LINCmd:
 1024              	.LFB138:
1121:/home/user/Desktop/STM32-Projekte/FH-Vertibot/src/STM32F30x_StdPeriph_Driver/src/stm32f30x_usart.c **** }
1122:/home/user/Desktop/STM32-Projekte/FH-Vertibot/src/STM32F30x_StdPeriph_Driver/src/stm32f30x_usart.c **** 
1123:/home/user/Desktop/STM32-Projekte/FH-Vertibot/src/STM32F30x_StdPeriph_Driver/src/stm32f30x_usart.c **** /**
1124:/home/user/Desktop/STM32-Projekte/FH-Vertibot/src/STM32F30x_StdPeriph_Driver/src/stm32f30x_usart.c ****   * @brief  Enables or disables the USART's LIN mode.
1125:/home/user/Desktop/STM32-Projekte/FH-Vertibot/src/STM32F30x_StdPeriph_Driver/src/stm32f30x_usart.c ****   * @param  USARTx: Select the USART peripheral. This parameter can be one of the 
1126:/home/user/Desktop/STM32-Projekte/FH-Vertibot/src/STM32F30x_StdPeriph_Driver/src/stm32f30x_usart.c ****   *         following values: USART1 or USART2 or USART3 or UART4 or UART5.
1127:/home/user/Desktop/STM32-Projekte/FH-Vertibot/src/STM32F30x_StdPeriph_Driver/src/stm32f30x_usart.c ****   * @param  NewState: new state of the USART LIN mode.
1128:/home/user/Desktop/STM32-Projekte/FH-Vertibot/src/STM32F30x_StdPeriph_Driver/src/stm32f30x_usart.c ****   *         This parameter can be: ENABLE or DISABLE.
1129:/home/user/Desktop/STM32-Projekte/FH-Vertibot/src/STM32F30x_StdPeriph_Driver/src/stm32f30x_usart.c ****   * @retval None
1130:/home/user/Desktop/STM32-Projekte/FH-Vertibot/src/STM32F30x_StdPeriph_Driver/src/stm32f30x_usart.c ****   */
1131:/home/user/Desktop/STM32-Projekte/FH-Vertibot/src/STM32F30x_StdPeriph_Driver/src/stm32f30x_usart.c **** void USART_LINCmd(USART_TypeDef* USARTx, FunctionalState NewState)
1132:/home/user/Desktop/STM32-Projekte/FH-Vertibot/src/STM32F30x_StdPeriph_Driver/src/stm32f30x_usart.c **** {
 1025              		.loc 1 1132 0
 1026              		.cfi_startproc
 1027              		@ args = 0, pretend = 0, frame = 0
 1028              		@ frame_needed = 0, uses_anonymous_args = 0
 1029              		@ link register save eliminated.
 1030              	.LVL89:
1133:/home/user/Desktop/STM32-Projekte/FH-Vertibot/src/STM32F30x_StdPeriph_Driver/src/stm32f30x_usart.c ****   /* Check the parameters */
1134:/home/user/Desktop/STM32-Projekte/FH-Vertibot/src/STM32F30x_StdPeriph_Driver/src/stm32f30x_usart.c ****   assert_param(IS_USART_ALL_PERIPH(USARTx));
1135:/home/user/Desktop/STM32-Projekte/FH-Vertibot/src/STM32F30x_StdPeriph_Driver/src/stm32f30x_usart.c ****   assert_param(IS_FUNCTIONAL_STATE(NewState));
1136:/home/user/Desktop/STM32-Projekte/FH-Vertibot/src/STM32F30x_StdPeriph_Driver/src/stm32f30x_usart.c **** 
1137:/home/user/Desktop/STM32-Projekte/FH-Vertibot/src/STM32F30x_StdPeriph_Driver/src/stm32f30x_usart.c ****   if (NewState != DISABLE)
1138:/home/user/Desktop/STM32-Projekte/FH-Vertibot/src/STM32F30x_StdPeriph_Driver/src/stm32f30x_usart.c ****   {
1139:/home/user/Desktop/STM32-Projekte/FH-Vertibot/src/STM32F30x_StdPeriph_Driver/src/stm32f30x_usart.c ****     /* Enable the LIN mode by setting the LINEN bit in the CR2 register */
1140:/home/user/Desktop/STM32-Projekte/FH-Vertibot/src/STM32F30x_StdPeriph_Driver/src/stm32f30x_usart.c ****     USARTx->CR2 |= USART_CR2_LINEN;
 1031              		.loc 1 1140 0
 1032 02f6 4368     		ldr	r3, [r0, #4]
1137:/home/user/Desktop/STM32-Projekte/FH-Vertibot/src/STM32F30x_StdPeriph_Driver/src/stm32f30x_usart.c ****   if (NewState != DISABLE)
 1033              		.loc 1 1137 0
 1034 02f8 11B1     		cbz	r1, .L87
 1035              		.loc 1 1140 0
 1036 02fa 43F48043 		orr	r3, r3, #16384
 1037 02fe 01E0     		b	.L89
 1038              	.L87:
1141:/home/user/Desktop/STM32-Projekte/FH-Vertibot/src/STM32F30x_StdPeriph_Driver/src/stm32f30x_usart.c ****   }
1142:/home/user/Desktop/STM32-Projekte/FH-Vertibot/src/STM32F30x_StdPeriph_Driver/src/stm32f30x_usart.c ****   else
1143:/home/user/Desktop/STM32-Projekte/FH-Vertibot/src/STM32F30x_StdPeriph_Driver/src/stm32f30x_usart.c ****   {
1144:/home/user/Desktop/STM32-Projekte/FH-Vertibot/src/STM32F30x_StdPeriph_Driver/src/stm32f30x_usart.c ****     /* Disable the LIN mode by clearing the LINEN bit in the CR2 register */
1145:/home/user/Desktop/STM32-Projekte/FH-Vertibot/src/STM32F30x_StdPeriph_Driver/src/stm32f30x_usart.c ****     USARTx->CR2 &= (uint32_t)~((uint32_t)USART_CR2_LINEN);
 1039              		.loc 1 1145 0
 1040 0300 23F48043 		bic	r3, r3, #16384
 1041              	.L89:
 1042 0304 4360     		str	r3, [r0, #4]
 1043 0306 7047     		bx	lr
 1044              		.cfi_endproc
 1045              	.LFE138:
 1047              		.align	1
 1048              		.global	USART_HalfDuplexCmd
 1049              		.thumb
 1050              		.thumb_func
 1052              	USART_HalfDuplexCmd:
 1053              	.LFB139:
1146:/home/user/Desktop/STM32-Projekte/FH-Vertibot/src/STM32F30x_StdPeriph_Driver/src/stm32f30x_usart.c ****   }
1147:/home/user/Desktop/STM32-Projekte/FH-Vertibot/src/STM32F30x_StdPeriph_Driver/src/stm32f30x_usart.c **** }
1148:/home/user/Desktop/STM32-Projekte/FH-Vertibot/src/STM32F30x_StdPeriph_Driver/src/stm32f30x_usart.c **** 
1149:/home/user/Desktop/STM32-Projekte/FH-Vertibot/src/STM32F30x_StdPeriph_Driver/src/stm32f30x_usart.c **** /**
1150:/home/user/Desktop/STM32-Projekte/FH-Vertibot/src/STM32F30x_StdPeriph_Driver/src/stm32f30x_usart.c ****   * @}
1151:/home/user/Desktop/STM32-Projekte/FH-Vertibot/src/STM32F30x_StdPeriph_Driver/src/stm32f30x_usart.c ****   */
1152:/home/user/Desktop/STM32-Projekte/FH-Vertibot/src/STM32F30x_StdPeriph_Driver/src/stm32f30x_usart.c **** 
1153:/home/user/Desktop/STM32-Projekte/FH-Vertibot/src/STM32F30x_StdPeriph_Driver/src/stm32f30x_usart.c **** /** @defgroup USART_Group7 Halfduplex mode function
1154:/home/user/Desktop/STM32-Projekte/FH-Vertibot/src/STM32F30x_StdPeriph_Driver/src/stm32f30x_usart.c ****  *  @brief   Half-duplex mode function 
1155:/home/user/Desktop/STM32-Projekte/FH-Vertibot/src/STM32F30x_StdPeriph_Driver/src/stm32f30x_usart.c ****  *
1156:/home/user/Desktop/STM32-Projekte/FH-Vertibot/src/STM32F30x_StdPeriph_Driver/src/stm32f30x_usart.c **** @verbatim   
1157:/home/user/Desktop/STM32-Projekte/FH-Vertibot/src/STM32F30x_StdPeriph_Driver/src/stm32f30x_usart.c ****  ===============================================================================
1158:/home/user/Desktop/STM32-Projekte/FH-Vertibot/src/STM32F30x_StdPeriph_Driver/src/stm32f30x_usart.c ****                    ##### Half-duplex mode function #####
1159:/home/user/Desktop/STM32-Projekte/FH-Vertibot/src/STM32F30x_StdPeriph_Driver/src/stm32f30x_usart.c ****  ===============================================================================
1160:/home/user/Desktop/STM32-Projekte/FH-Vertibot/src/STM32F30x_StdPeriph_Driver/src/stm32f30x_usart.c ****     [..] This subsection provides a set of functions allowing to manage the USART
1161:/home/user/Desktop/STM32-Projekte/FH-Vertibot/src/STM32F30x_StdPeriph_Driver/src/stm32f30x_usart.c ****          Half-duplex communication.
1162:/home/user/Desktop/STM32-Projekte/FH-Vertibot/src/STM32F30x_StdPeriph_Driver/src/stm32f30x_usart.c ****     [..] The USART can be configured to follow a single-wire half-duplex protocol 
1163:/home/user/Desktop/STM32-Projekte/FH-Vertibot/src/STM32F30x_StdPeriph_Driver/src/stm32f30x_usart.c ****          where the TX and RX lines are internally connected.
1164:/home/user/Desktop/STM32-Projekte/FH-Vertibot/src/STM32F30x_StdPeriph_Driver/src/stm32f30x_usart.c ****     [..] USART Half duplex communication is possible through the following procedure:
1165:/home/user/Desktop/STM32-Projekte/FH-Vertibot/src/STM32F30x_StdPeriph_Driver/src/stm32f30x_usart.c ****          (#) Program the Baud rate, Word length, Stop bits, Parity, Mode transmitter 
1166:/home/user/Desktop/STM32-Projekte/FH-Vertibot/src/STM32F30x_StdPeriph_Driver/src/stm32f30x_usart.c ****              or Mode receiver and hardware flow control values using the USART_Init()
1167:/home/user/Desktop/STM32-Projekte/FH-Vertibot/src/STM32F30x_StdPeriph_Driver/src/stm32f30x_usart.c ****             function.
1168:/home/user/Desktop/STM32-Projekte/FH-Vertibot/src/STM32F30x_StdPeriph_Driver/src/stm32f30x_usart.c ****          (#) Configures the USART address using the USART_SetAddress() function.
1169:/home/user/Desktop/STM32-Projekte/FH-Vertibot/src/STM32F30x_StdPeriph_Driver/src/stm32f30x_usart.c ****          (#) Enable the half duplex mode using USART_HalfDuplexCmd() function.
1170:/home/user/Desktop/STM32-Projekte/FH-Vertibot/src/STM32F30x_StdPeriph_Driver/src/stm32f30x_usart.c ****          (#) Enable the USART using the USART_Cmd() function.
1171:/home/user/Desktop/STM32-Projekte/FH-Vertibot/src/STM32F30x_StdPeriph_Driver/src/stm32f30x_usart.c ****          [..]
1172:/home/user/Desktop/STM32-Projekte/FH-Vertibot/src/STM32F30x_StdPeriph_Driver/src/stm32f30x_usart.c ****          (@) The RX pin is no longer used.
1173:/home/user/Desktop/STM32-Projekte/FH-Vertibot/src/STM32F30x_StdPeriph_Driver/src/stm32f30x_usart.c ****          (@) In Half-duplex mode the following bits must be kept cleared:
1174:/home/user/Desktop/STM32-Projekte/FH-Vertibot/src/STM32F30x_StdPeriph_Driver/src/stm32f30x_usart.c ****              (+@) LINEN and CLKEN bits in the USART_CR2 register.
1175:/home/user/Desktop/STM32-Projekte/FH-Vertibot/src/STM32F30x_StdPeriph_Driver/src/stm32f30x_usart.c ****              (+@) SCEN and IREN bits in the USART_CR3 register.
1176:/home/user/Desktop/STM32-Projekte/FH-Vertibot/src/STM32F30x_StdPeriph_Driver/src/stm32f30x_usart.c **** 
1177:/home/user/Desktop/STM32-Projekte/FH-Vertibot/src/STM32F30x_StdPeriph_Driver/src/stm32f30x_usart.c **** @endverbatim
1178:/home/user/Desktop/STM32-Projekte/FH-Vertibot/src/STM32F30x_StdPeriph_Driver/src/stm32f30x_usart.c ****   * @{
1179:/home/user/Desktop/STM32-Projekte/FH-Vertibot/src/STM32F30x_StdPeriph_Driver/src/stm32f30x_usart.c ****   */
1180:/home/user/Desktop/STM32-Projekte/FH-Vertibot/src/STM32F30x_StdPeriph_Driver/src/stm32f30x_usart.c **** 
1181:/home/user/Desktop/STM32-Projekte/FH-Vertibot/src/STM32F30x_StdPeriph_Driver/src/stm32f30x_usart.c **** /**
1182:/home/user/Desktop/STM32-Projekte/FH-Vertibot/src/STM32F30x_StdPeriph_Driver/src/stm32f30x_usart.c ****   * @brief  Enables or disables the USART's Half Duplex communication.
1183:/home/user/Desktop/STM32-Projekte/FH-Vertibot/src/STM32F30x_StdPeriph_Driver/src/stm32f30x_usart.c ****   * @param  USARTx: Select the USART peripheral. This parameter can be one of the 
1184:/home/user/Desktop/STM32-Projekte/FH-Vertibot/src/STM32F30x_StdPeriph_Driver/src/stm32f30x_usart.c ****   *         following values: USART1 or USART2 or USART3 or UART4 or UART5.
1185:/home/user/Desktop/STM32-Projekte/FH-Vertibot/src/STM32F30x_StdPeriph_Driver/src/stm32f30x_usart.c ****   * @param  NewState: new state of the USART Communication.
1186:/home/user/Desktop/STM32-Projekte/FH-Vertibot/src/STM32F30x_StdPeriph_Driver/src/stm32f30x_usart.c ****   *         This parameter can be: ENABLE or DISABLE.
1187:/home/user/Desktop/STM32-Projekte/FH-Vertibot/src/STM32F30x_StdPeriph_Driver/src/stm32f30x_usart.c ****   * @retval None
1188:/home/user/Desktop/STM32-Projekte/FH-Vertibot/src/STM32F30x_StdPeriph_Driver/src/stm32f30x_usart.c ****   */
1189:/home/user/Desktop/STM32-Projekte/FH-Vertibot/src/STM32F30x_StdPeriph_Driver/src/stm32f30x_usart.c **** void USART_HalfDuplexCmd(USART_TypeDef* USARTx, FunctionalState NewState)
1190:/home/user/Desktop/STM32-Projekte/FH-Vertibot/src/STM32F30x_StdPeriph_Driver/src/stm32f30x_usart.c **** {
 1054              		.loc 1 1190 0
 1055              		.cfi_startproc
 1056              		@ args = 0, pretend = 0, frame = 0
 1057              		@ frame_needed = 0, uses_anonymous_args = 0
 1058              		@ link register save eliminated.
 1059              	.LVL90:
1191:/home/user/Desktop/STM32-Projekte/FH-Vertibot/src/STM32F30x_StdPeriph_Driver/src/stm32f30x_usart.c ****   /* Check the parameters */
1192:/home/user/Desktop/STM32-Projekte/FH-Vertibot/src/STM32F30x_StdPeriph_Driver/src/stm32f30x_usart.c ****   assert_param(IS_USART_ALL_PERIPH(USARTx));
1193:/home/user/Desktop/STM32-Projekte/FH-Vertibot/src/STM32F30x_StdPeriph_Driver/src/stm32f30x_usart.c ****   assert_param(IS_FUNCTIONAL_STATE(NewState));
1194:/home/user/Desktop/STM32-Projekte/FH-Vertibot/src/STM32F30x_StdPeriph_Driver/src/stm32f30x_usart.c ****   
1195:/home/user/Desktop/STM32-Projekte/FH-Vertibot/src/STM32F30x_StdPeriph_Driver/src/stm32f30x_usart.c ****   if (NewState != DISABLE)
1196:/home/user/Desktop/STM32-Projekte/FH-Vertibot/src/STM32F30x_StdPeriph_Driver/src/stm32f30x_usart.c ****   {
1197:/home/user/Desktop/STM32-Projekte/FH-Vertibot/src/STM32F30x_StdPeriph_Driver/src/stm32f30x_usart.c ****     /* Enable the Half-Duplex mode by setting the HDSEL bit in the CR3 register */
1198:/home/user/Desktop/STM32-Projekte/FH-Vertibot/src/STM32F30x_StdPeriph_Driver/src/stm32f30x_usart.c ****     USARTx->CR3 |= USART_CR3_HDSEL;
 1060              		.loc 1 1198 0
 1061 0308 8368     		ldr	r3, [r0, #8]
1195:/home/user/Desktop/STM32-Projekte/FH-Vertibot/src/STM32F30x_StdPeriph_Driver/src/stm32f30x_usart.c ****   if (NewState != DISABLE)
 1062              		.loc 1 1195 0
 1063 030a 11B1     		cbz	r1, .L91
 1064              		.loc 1 1198 0
 1065 030c 43F00803 		orr	r3, r3, #8
 1066 0310 01E0     		b	.L93
 1067              	.L91:
1199:/home/user/Desktop/STM32-Projekte/FH-Vertibot/src/STM32F30x_StdPeriph_Driver/src/stm32f30x_usart.c ****   }
1200:/home/user/Desktop/STM32-Projekte/FH-Vertibot/src/STM32F30x_StdPeriph_Driver/src/stm32f30x_usart.c ****   else
1201:/home/user/Desktop/STM32-Projekte/FH-Vertibot/src/STM32F30x_StdPeriph_Driver/src/stm32f30x_usart.c ****   {
1202:/home/user/Desktop/STM32-Projekte/FH-Vertibot/src/STM32F30x_StdPeriph_Driver/src/stm32f30x_usart.c ****     /* Disable the Half-Duplex mode by clearing the HDSEL bit in the CR3 register */
1203:/home/user/Desktop/STM32-Projekte/FH-Vertibot/src/STM32F30x_StdPeriph_Driver/src/stm32f30x_usart.c ****     USARTx->CR3 &= (uint32_t)~((uint32_t)USART_CR3_HDSEL);
 1068              		.loc 1 1203 0
 1069 0312 23F00803 		bic	r3, r3, #8
 1070              	.L93:
 1071 0316 8360     		str	r3, [r0, #8]
 1072 0318 7047     		bx	lr
 1073              		.cfi_endproc
 1074              	.LFE139:
 1076              		.align	1
 1077              		.global	USART_SetGuardTime
 1078              		.thumb
 1079              		.thumb_func
 1081              	USART_SetGuardTime:
 1082              	.LFB140:
1204:/home/user/Desktop/STM32-Projekte/FH-Vertibot/src/STM32F30x_StdPeriph_Driver/src/stm32f30x_usart.c ****   }
1205:/home/user/Desktop/STM32-Projekte/FH-Vertibot/src/STM32F30x_StdPeriph_Driver/src/stm32f30x_usart.c **** }
1206:/home/user/Desktop/STM32-Projekte/FH-Vertibot/src/STM32F30x_StdPeriph_Driver/src/stm32f30x_usart.c **** 
1207:/home/user/Desktop/STM32-Projekte/FH-Vertibot/src/STM32F30x_StdPeriph_Driver/src/stm32f30x_usart.c **** /**
1208:/home/user/Desktop/STM32-Projekte/FH-Vertibot/src/STM32F30x_StdPeriph_Driver/src/stm32f30x_usart.c ****   * @}
1209:/home/user/Desktop/STM32-Projekte/FH-Vertibot/src/STM32F30x_StdPeriph_Driver/src/stm32f30x_usart.c ****   */
1210:/home/user/Desktop/STM32-Projekte/FH-Vertibot/src/STM32F30x_StdPeriph_Driver/src/stm32f30x_usart.c **** 
1211:/home/user/Desktop/STM32-Projekte/FH-Vertibot/src/STM32F30x_StdPeriph_Driver/src/stm32f30x_usart.c **** 
1212:/home/user/Desktop/STM32-Projekte/FH-Vertibot/src/STM32F30x_StdPeriph_Driver/src/stm32f30x_usart.c **** /** @defgroup USART_Group8 Smartcard mode functions
1213:/home/user/Desktop/STM32-Projekte/FH-Vertibot/src/STM32F30x_StdPeriph_Driver/src/stm32f30x_usart.c ****  *  @brief   Smartcard mode functions 
1214:/home/user/Desktop/STM32-Projekte/FH-Vertibot/src/STM32F30x_StdPeriph_Driver/src/stm32f30x_usart.c ****  *
1215:/home/user/Desktop/STM32-Projekte/FH-Vertibot/src/STM32F30x_StdPeriph_Driver/src/stm32f30x_usart.c **** @verbatim   
1216:/home/user/Desktop/STM32-Projekte/FH-Vertibot/src/STM32F30x_StdPeriph_Driver/src/stm32f30x_usart.c ****  ===============================================================================
1217:/home/user/Desktop/STM32-Projekte/FH-Vertibot/src/STM32F30x_StdPeriph_Driver/src/stm32f30x_usart.c ****                      ##### Smartcard mode functions #####
1218:/home/user/Desktop/STM32-Projekte/FH-Vertibot/src/STM32F30x_StdPeriph_Driver/src/stm32f30x_usart.c ****  ===============================================================================
1219:/home/user/Desktop/STM32-Projekte/FH-Vertibot/src/STM32F30x_StdPeriph_Driver/src/stm32f30x_usart.c ****     [..] This subsection provides a set of functions allowing to manage the USART
1220:/home/user/Desktop/STM32-Projekte/FH-Vertibot/src/STM32F30x_StdPeriph_Driver/src/stm32f30x_usart.c ****          Smartcard communication.
1221:/home/user/Desktop/STM32-Projekte/FH-Vertibot/src/STM32F30x_StdPeriph_Driver/src/stm32f30x_usart.c ****     [..] The Smartcard interface is designed to support asynchronous protocol 
1222:/home/user/Desktop/STM32-Projekte/FH-Vertibot/src/STM32F30x_StdPeriph_Driver/src/stm32f30x_usart.c ****          Smartcards as defined in the ISO 7816-3 standard. The USART can provide 
1223:/home/user/Desktop/STM32-Projekte/FH-Vertibot/src/STM32F30x_StdPeriph_Driver/src/stm32f30x_usart.c ****          a clock to the smartcard through the SCLK output. In smartcard mode, 
1224:/home/user/Desktop/STM32-Projekte/FH-Vertibot/src/STM32F30x_StdPeriph_Driver/src/stm32f30x_usart.c ****          SCLK is not associated to the communication but is simply derived from 
1225:/home/user/Desktop/STM32-Projekte/FH-Vertibot/src/STM32F30x_StdPeriph_Driver/src/stm32f30x_usart.c ****          the internal peripheral input clock through a 5-bit prescaler.
1226:/home/user/Desktop/STM32-Projekte/FH-Vertibot/src/STM32F30x_StdPeriph_Driver/src/stm32f30x_usart.c ****     [..] Smartcard communication is possible through the following procedure:
1227:/home/user/Desktop/STM32-Projekte/FH-Vertibot/src/STM32F30x_StdPeriph_Driver/src/stm32f30x_usart.c ****          (#) Configures the Smartcard Prsecaler using the USART_SetPrescaler() 
1228:/home/user/Desktop/STM32-Projekte/FH-Vertibot/src/STM32F30x_StdPeriph_Driver/src/stm32f30x_usart.c ****              function.
1229:/home/user/Desktop/STM32-Projekte/FH-Vertibot/src/STM32F30x_StdPeriph_Driver/src/stm32f30x_usart.c ****          (#) Configures the Smartcard Guard Time using the USART_SetGuardTime() 
1230:/home/user/Desktop/STM32-Projekte/FH-Vertibot/src/STM32F30x_StdPeriph_Driver/src/stm32f30x_usart.c ****              function.
1231:/home/user/Desktop/STM32-Projekte/FH-Vertibot/src/STM32F30x_StdPeriph_Driver/src/stm32f30x_usart.c ****          (#) Program the USART clock using the USART_ClockInit() function as following:
1232:/home/user/Desktop/STM32-Projekte/FH-Vertibot/src/STM32F30x_StdPeriph_Driver/src/stm32f30x_usart.c ****              (++) USART Clock enabled.
1233:/home/user/Desktop/STM32-Projekte/FH-Vertibot/src/STM32F30x_StdPeriph_Driver/src/stm32f30x_usart.c ****              (++) USART CPOL Low.
1234:/home/user/Desktop/STM32-Projekte/FH-Vertibot/src/STM32F30x_StdPeriph_Driver/src/stm32f30x_usart.c ****              (++) USART CPHA on first edge.
1235:/home/user/Desktop/STM32-Projekte/FH-Vertibot/src/STM32F30x_StdPeriph_Driver/src/stm32f30x_usart.c ****              (++) USART Last Bit Clock Enabled.
1236:/home/user/Desktop/STM32-Projekte/FH-Vertibot/src/STM32F30x_StdPeriph_Driver/src/stm32f30x_usart.c ****          (#) Program the Smartcard interface using the USART_Init() function as 
1237:/home/user/Desktop/STM32-Projekte/FH-Vertibot/src/STM32F30x_StdPeriph_Driver/src/stm32f30x_usart.c ****              following:
1238:/home/user/Desktop/STM32-Projekte/FH-Vertibot/src/STM32F30x_StdPeriph_Driver/src/stm32f30x_usart.c ****              (++) Word Length = 9 Bits.
1239:/home/user/Desktop/STM32-Projekte/FH-Vertibot/src/STM32F30x_StdPeriph_Driver/src/stm32f30x_usart.c ****              (++) 1.5 Stop Bit.
1240:/home/user/Desktop/STM32-Projekte/FH-Vertibot/src/STM32F30x_StdPeriph_Driver/src/stm32f30x_usart.c ****              (++) Even parity.
1241:/home/user/Desktop/STM32-Projekte/FH-Vertibot/src/STM32F30x_StdPeriph_Driver/src/stm32f30x_usart.c ****              (++) BaudRate = 12096 baud.
1242:/home/user/Desktop/STM32-Projekte/FH-Vertibot/src/STM32F30x_StdPeriph_Driver/src/stm32f30x_usart.c ****              (++) Hardware flow control disabled (RTS and CTS signals).
1243:/home/user/Desktop/STM32-Projekte/FH-Vertibot/src/STM32F30x_StdPeriph_Driver/src/stm32f30x_usart.c ****              (++) Tx and Rx enabled
1244:/home/user/Desktop/STM32-Projekte/FH-Vertibot/src/STM32F30x_StdPeriph_Driver/src/stm32f30x_usart.c ****          (#) Optionally you can enable the parity error interrupt using 
1245:/home/user/Desktop/STM32-Projekte/FH-Vertibot/src/STM32F30x_StdPeriph_Driver/src/stm32f30x_usart.c ****              the USART_ITConfig() function.
1246:/home/user/Desktop/STM32-Projekte/FH-Vertibot/src/STM32F30x_StdPeriph_Driver/src/stm32f30x_usart.c ****          (#) Enable the Smartcard NACK using the USART_SmartCardNACKCmd() function.
1247:/home/user/Desktop/STM32-Projekte/FH-Vertibot/src/STM32F30x_StdPeriph_Driver/src/stm32f30x_usart.c ****          (#) Enable the Smartcard interface using the USART_SmartCardCmd() function.
1248:/home/user/Desktop/STM32-Projekte/FH-Vertibot/src/STM32F30x_StdPeriph_Driver/src/stm32f30x_usart.c ****          (#) Enable the USART using the USART_Cmd() function.
1249:/home/user/Desktop/STM32-Projekte/FH-Vertibot/src/STM32F30x_StdPeriph_Driver/src/stm32f30x_usart.c ****     [..] 
1250:/home/user/Desktop/STM32-Projekte/FH-Vertibot/src/STM32F30x_StdPeriph_Driver/src/stm32f30x_usart.c ****   Please refer to the ISO 7816-3 specification for more details.
1251:/home/user/Desktop/STM32-Projekte/FH-Vertibot/src/STM32F30x_StdPeriph_Driver/src/stm32f30x_usart.c ****     [..] 
1252:/home/user/Desktop/STM32-Projekte/FH-Vertibot/src/STM32F30x_StdPeriph_Driver/src/stm32f30x_usart.c ****          (@) It is also possible to choose 0.5 stop bit for receiving but it is 
1253:/home/user/Desktop/STM32-Projekte/FH-Vertibot/src/STM32F30x_StdPeriph_Driver/src/stm32f30x_usart.c ****              recommended to use 1.5 stop bits for both transmitting and receiving 
1254:/home/user/Desktop/STM32-Projekte/FH-Vertibot/src/STM32F30x_StdPeriph_Driver/src/stm32f30x_usart.c ****              to avoid switching between the two configurations.
1255:/home/user/Desktop/STM32-Projekte/FH-Vertibot/src/STM32F30x_StdPeriph_Driver/src/stm32f30x_usart.c ****          (@) In smartcard mode, the following bits must be kept cleared:
1256:/home/user/Desktop/STM32-Projekte/FH-Vertibot/src/STM32F30x_StdPeriph_Driver/src/stm32f30x_usart.c ****              (+@) LINEN bit in the USART_CR2 register.
1257:/home/user/Desktop/STM32-Projekte/FH-Vertibot/src/STM32F30x_StdPeriph_Driver/src/stm32f30x_usart.c ****              (+@) HDSEL and IREN bits in the USART_CR3 register.
1258:/home/user/Desktop/STM32-Projekte/FH-Vertibot/src/STM32F30x_StdPeriph_Driver/src/stm32f30x_usart.c **** 
1259:/home/user/Desktop/STM32-Projekte/FH-Vertibot/src/STM32F30x_StdPeriph_Driver/src/stm32f30x_usart.c **** @endverbatim
1260:/home/user/Desktop/STM32-Projekte/FH-Vertibot/src/STM32F30x_StdPeriph_Driver/src/stm32f30x_usart.c ****   * @{
1261:/home/user/Desktop/STM32-Projekte/FH-Vertibot/src/STM32F30x_StdPeriph_Driver/src/stm32f30x_usart.c ****   */
1262:/home/user/Desktop/STM32-Projekte/FH-Vertibot/src/STM32F30x_StdPeriph_Driver/src/stm32f30x_usart.c **** 
1263:/home/user/Desktop/STM32-Projekte/FH-Vertibot/src/STM32F30x_StdPeriph_Driver/src/stm32f30x_usart.c **** /**
1264:/home/user/Desktop/STM32-Projekte/FH-Vertibot/src/STM32F30x_StdPeriph_Driver/src/stm32f30x_usart.c ****   * @brief  Sets the specified USART guard time.
1265:/home/user/Desktop/STM32-Projekte/FH-Vertibot/src/STM32F30x_StdPeriph_Driver/src/stm32f30x_usart.c ****   * @param  USARTx: Select the USART peripheral. This parameter can be one of the 
1266:/home/user/Desktop/STM32-Projekte/FH-Vertibot/src/STM32F30x_StdPeriph_Driver/src/stm32f30x_usart.c ****   *         following values: USART1 or USART2 or USART3.
1267:/home/user/Desktop/STM32-Projekte/FH-Vertibot/src/STM32F30x_StdPeriph_Driver/src/stm32f30x_usart.c ****   * @param  USART_GuardTime: specifies the guard time.
1268:/home/user/Desktop/STM32-Projekte/FH-Vertibot/src/STM32F30x_StdPeriph_Driver/src/stm32f30x_usart.c ****   * @retval None
1269:/home/user/Desktop/STM32-Projekte/FH-Vertibot/src/STM32F30x_StdPeriph_Driver/src/stm32f30x_usart.c ****   */
1270:/home/user/Desktop/STM32-Projekte/FH-Vertibot/src/STM32F30x_StdPeriph_Driver/src/stm32f30x_usart.c **** void USART_SetGuardTime(USART_TypeDef* USARTx, uint8_t USART_GuardTime)
1271:/home/user/Desktop/STM32-Projekte/FH-Vertibot/src/STM32F30x_StdPeriph_Driver/src/stm32f30x_usart.c **** {    
 1083              		.loc 1 1271 0
 1084              		.cfi_startproc
 1085              		@ args = 0, pretend = 0, frame = 0
 1086              		@ frame_needed = 0, uses_anonymous_args = 0
 1087              		@ link register save eliminated.
 1088              	.LVL91:
1272:/home/user/Desktop/STM32-Projekte/FH-Vertibot/src/STM32F30x_StdPeriph_Driver/src/stm32f30x_usart.c ****   /* Check the parameters */
1273:/home/user/Desktop/STM32-Projekte/FH-Vertibot/src/STM32F30x_StdPeriph_Driver/src/stm32f30x_usart.c ****   assert_param(IS_USART_123_PERIPH(USARTx));
1274:/home/user/Desktop/STM32-Projekte/FH-Vertibot/src/STM32F30x_StdPeriph_Driver/src/stm32f30x_usart.c **** 
1275:/home/user/Desktop/STM32-Projekte/FH-Vertibot/src/STM32F30x_StdPeriph_Driver/src/stm32f30x_usart.c ****   /* Clear the USART Guard time */
1276:/home/user/Desktop/STM32-Projekte/FH-Vertibot/src/STM32F30x_StdPeriph_Driver/src/stm32f30x_usart.c ****   USARTx->GTPR &= USART_GTPR_PSC;
 1089              		.loc 1 1276 0
 1090 031a 038A     		ldrh	r3, [r0, #16]
 1091 031c DBB2     		uxtb	r3, r3
 1092 031e 0382     		strh	r3, [r0, #16]	@ movhi
1277:/home/user/Desktop/STM32-Projekte/FH-Vertibot/src/STM32F30x_StdPeriph_Driver/src/stm32f30x_usart.c ****   /* Set the USART guard time */
1278:/home/user/Desktop/STM32-Projekte/FH-Vertibot/src/STM32F30x_StdPeriph_Driver/src/stm32f30x_usart.c ****   USARTx->GTPR |= (uint16_t)((uint16_t)USART_GuardTime << 0x08);
 1093              		.loc 1 1278 0
 1094 0320 038A     		ldrh	r3, [r0, #16]
 1095 0322 9BB2     		uxth	r3, r3
 1096 0324 43EA0121 		orr	r1, r3, r1, lsl #8
 1097              	.LVL92:
 1098 0328 0182     		strh	r1, [r0, #16]	@ movhi
 1099 032a 7047     		bx	lr
 1100              		.cfi_endproc
 1101              	.LFE140:
 1103              		.align	1
 1104              		.global	USART_SmartCardCmd
 1105              		.thumb
 1106              		.thumb_func
 1108              	USART_SmartCardCmd:
 1109              	.LFB141:
1279:/home/user/Desktop/STM32-Projekte/FH-Vertibot/src/STM32F30x_StdPeriph_Driver/src/stm32f30x_usart.c **** }
1280:/home/user/Desktop/STM32-Projekte/FH-Vertibot/src/STM32F30x_StdPeriph_Driver/src/stm32f30x_usart.c **** 
1281:/home/user/Desktop/STM32-Projekte/FH-Vertibot/src/STM32F30x_StdPeriph_Driver/src/stm32f30x_usart.c **** /**
1282:/home/user/Desktop/STM32-Projekte/FH-Vertibot/src/STM32F30x_StdPeriph_Driver/src/stm32f30x_usart.c ****   * @brief  Enables or disables the USART's Smart Card mode.
1283:/home/user/Desktop/STM32-Projekte/FH-Vertibot/src/STM32F30x_StdPeriph_Driver/src/stm32f30x_usart.c ****   * @param  USARTx: Select the USART peripheral. This parameter can be one of the 
1284:/home/user/Desktop/STM32-Projekte/FH-Vertibot/src/STM32F30x_StdPeriph_Driver/src/stm32f30x_usart.c ****   *         following values: USART1 or USART2 or USART3.
1285:/home/user/Desktop/STM32-Projekte/FH-Vertibot/src/STM32F30x_StdPeriph_Driver/src/stm32f30x_usart.c ****   * @param  NewState: new state of the Smart Card mode.
1286:/home/user/Desktop/STM32-Projekte/FH-Vertibot/src/STM32F30x_StdPeriph_Driver/src/stm32f30x_usart.c ****   *         This parameter can be: ENABLE or DISABLE.      
1287:/home/user/Desktop/STM32-Projekte/FH-Vertibot/src/STM32F30x_StdPeriph_Driver/src/stm32f30x_usart.c ****   * @retval None
1288:/home/user/Desktop/STM32-Projekte/FH-Vertibot/src/STM32F30x_StdPeriph_Driver/src/stm32f30x_usart.c ****   */
1289:/home/user/Desktop/STM32-Projekte/FH-Vertibot/src/STM32F30x_StdPeriph_Driver/src/stm32f30x_usart.c **** void USART_SmartCardCmd(USART_TypeDef* USARTx, FunctionalState NewState)
1290:/home/user/Desktop/STM32-Projekte/FH-Vertibot/src/STM32F30x_StdPeriph_Driver/src/stm32f30x_usart.c **** {
 1110              		.loc 1 1290 0
 1111              		.cfi_startproc
 1112              		@ args = 0, pretend = 0, frame = 0
 1113              		@ frame_needed = 0, uses_anonymous_args = 0
 1114              		@ link register save eliminated.
 1115              	.LVL93:
1291:/home/user/Desktop/STM32-Projekte/FH-Vertibot/src/STM32F30x_StdPeriph_Driver/src/stm32f30x_usart.c ****   /* Check the parameters */
1292:/home/user/Desktop/STM32-Projekte/FH-Vertibot/src/STM32F30x_StdPeriph_Driver/src/stm32f30x_usart.c ****   assert_param(IS_USART_123_PERIPH(USARTx));
1293:/home/user/Desktop/STM32-Projekte/FH-Vertibot/src/STM32F30x_StdPeriph_Driver/src/stm32f30x_usart.c ****   assert_param(IS_FUNCTIONAL_STATE(NewState));
1294:/home/user/Desktop/STM32-Projekte/FH-Vertibot/src/STM32F30x_StdPeriph_Driver/src/stm32f30x_usart.c ****   if (NewState != DISABLE)
1295:/home/user/Desktop/STM32-Projekte/FH-Vertibot/src/STM32F30x_StdPeriph_Driver/src/stm32f30x_usart.c ****   {
1296:/home/user/Desktop/STM32-Projekte/FH-Vertibot/src/STM32F30x_StdPeriph_Driver/src/stm32f30x_usart.c ****     /* Enable the SC mode by setting the SCEN bit in the CR3 register */
1297:/home/user/Desktop/STM32-Projekte/FH-Vertibot/src/STM32F30x_StdPeriph_Driver/src/stm32f30x_usart.c ****     USARTx->CR3 |= USART_CR3_SCEN;
 1116              		.loc 1 1297 0
 1117 032c 8368     		ldr	r3, [r0, #8]
1294:/home/user/Desktop/STM32-Projekte/FH-Vertibot/src/STM32F30x_StdPeriph_Driver/src/stm32f30x_usart.c ****   if (NewState != DISABLE)
 1118              		.loc 1 1294 0
 1119 032e 11B1     		cbz	r1, .L96
 1120              		.loc 1 1297 0
 1121 0330 43F02003 		orr	r3, r3, #32
 1122 0334 01E0     		b	.L98
 1123              	.L96:
1298:/home/user/Desktop/STM32-Projekte/FH-Vertibot/src/STM32F30x_StdPeriph_Driver/src/stm32f30x_usart.c ****   }
1299:/home/user/Desktop/STM32-Projekte/FH-Vertibot/src/STM32F30x_StdPeriph_Driver/src/stm32f30x_usart.c ****   else
1300:/home/user/Desktop/STM32-Projekte/FH-Vertibot/src/STM32F30x_StdPeriph_Driver/src/stm32f30x_usart.c ****   {
1301:/home/user/Desktop/STM32-Projekte/FH-Vertibot/src/STM32F30x_StdPeriph_Driver/src/stm32f30x_usart.c ****     /* Disable the SC mode by clearing the SCEN bit in the CR3 register */
1302:/home/user/Desktop/STM32-Projekte/FH-Vertibot/src/STM32F30x_StdPeriph_Driver/src/stm32f30x_usart.c ****     USARTx->CR3 &= (uint32_t)~((uint32_t)USART_CR3_SCEN);
 1124              		.loc 1 1302 0
 1125 0336 23F02003 		bic	r3, r3, #32
 1126              	.L98:
 1127 033a 8360     		str	r3, [r0, #8]
 1128 033c 7047     		bx	lr
 1129              		.cfi_endproc
 1130              	.LFE141:
 1132              		.align	1
 1133              		.global	USART_SmartCardNACKCmd
 1134              		.thumb
 1135              		.thumb_func
 1137              	USART_SmartCardNACKCmd:
 1138              	.LFB142:
1303:/home/user/Desktop/STM32-Projekte/FH-Vertibot/src/STM32F30x_StdPeriph_Driver/src/stm32f30x_usart.c ****   }
1304:/home/user/Desktop/STM32-Projekte/FH-Vertibot/src/STM32F30x_StdPeriph_Driver/src/stm32f30x_usart.c **** }
1305:/home/user/Desktop/STM32-Projekte/FH-Vertibot/src/STM32F30x_StdPeriph_Driver/src/stm32f30x_usart.c **** 
1306:/home/user/Desktop/STM32-Projekte/FH-Vertibot/src/STM32F30x_StdPeriph_Driver/src/stm32f30x_usart.c **** /**
1307:/home/user/Desktop/STM32-Projekte/FH-Vertibot/src/STM32F30x_StdPeriph_Driver/src/stm32f30x_usart.c ****   * @brief  Enables or disables NACK transmission.
1308:/home/user/Desktop/STM32-Projekte/FH-Vertibot/src/STM32F30x_StdPeriph_Driver/src/stm32f30x_usart.c ****   * @param  USARTx: Select the USART peripheral. This parameter can be one of the 
1309:/home/user/Desktop/STM32-Projekte/FH-Vertibot/src/STM32F30x_StdPeriph_Driver/src/stm32f30x_usart.c ****   *         following values: USART1 or USART2 or USART3.
1310:/home/user/Desktop/STM32-Projekte/FH-Vertibot/src/STM32F30x_StdPeriph_Driver/src/stm32f30x_usart.c ****   * @param  NewState: new state of the NACK transmission.
1311:/home/user/Desktop/STM32-Projekte/FH-Vertibot/src/STM32F30x_StdPeriph_Driver/src/stm32f30x_usart.c ****   *         This parameter can be: ENABLE or DISABLE.  
1312:/home/user/Desktop/STM32-Projekte/FH-Vertibot/src/STM32F30x_StdPeriph_Driver/src/stm32f30x_usart.c ****   * @retval None
1313:/home/user/Desktop/STM32-Projekte/FH-Vertibot/src/STM32F30x_StdPeriph_Driver/src/stm32f30x_usart.c ****   */
1314:/home/user/Desktop/STM32-Projekte/FH-Vertibot/src/STM32F30x_StdPeriph_Driver/src/stm32f30x_usart.c **** void USART_SmartCardNACKCmd(USART_TypeDef* USARTx, FunctionalState NewState)
1315:/home/user/Desktop/STM32-Projekte/FH-Vertibot/src/STM32F30x_StdPeriph_Driver/src/stm32f30x_usart.c **** {
 1139              		.loc 1 1315 0
 1140              		.cfi_startproc
 1141              		@ args = 0, pretend = 0, frame = 0
 1142              		@ frame_needed = 0, uses_anonymous_args = 0
 1143              		@ link register save eliminated.
 1144              	.LVL94:
1316:/home/user/Desktop/STM32-Projekte/FH-Vertibot/src/STM32F30x_StdPeriph_Driver/src/stm32f30x_usart.c ****   /* Check the parameters */
1317:/home/user/Desktop/STM32-Projekte/FH-Vertibot/src/STM32F30x_StdPeriph_Driver/src/stm32f30x_usart.c ****   assert_param(IS_USART_123_PERIPH(USARTx)); 
1318:/home/user/Desktop/STM32-Projekte/FH-Vertibot/src/STM32F30x_StdPeriph_Driver/src/stm32f30x_usart.c ****   assert_param(IS_FUNCTIONAL_STATE(NewState));
1319:/home/user/Desktop/STM32-Projekte/FH-Vertibot/src/STM32F30x_StdPeriph_Driver/src/stm32f30x_usart.c ****   if (NewState != DISABLE)
1320:/home/user/Desktop/STM32-Projekte/FH-Vertibot/src/STM32F30x_StdPeriph_Driver/src/stm32f30x_usart.c ****   {
1321:/home/user/Desktop/STM32-Projekte/FH-Vertibot/src/STM32F30x_StdPeriph_Driver/src/stm32f30x_usart.c ****     /* Enable the NACK transmission by setting the NACK bit in the CR3 register */
1322:/home/user/Desktop/STM32-Projekte/FH-Vertibot/src/STM32F30x_StdPeriph_Driver/src/stm32f30x_usart.c ****     USARTx->CR3 |= USART_CR3_NACK;
 1145              		.loc 1 1322 0
 1146 033e 8368     		ldr	r3, [r0, #8]
1319:/home/user/Desktop/STM32-Projekte/FH-Vertibot/src/STM32F30x_StdPeriph_Driver/src/stm32f30x_usart.c ****   if (NewState != DISABLE)
 1147              		.loc 1 1319 0
 1148 0340 11B1     		cbz	r1, .L100
 1149              		.loc 1 1322 0
 1150 0342 43F01003 		orr	r3, r3, #16
 1151 0346 01E0     		b	.L102
 1152              	.L100:
1323:/home/user/Desktop/STM32-Projekte/FH-Vertibot/src/STM32F30x_StdPeriph_Driver/src/stm32f30x_usart.c ****   }
1324:/home/user/Desktop/STM32-Projekte/FH-Vertibot/src/STM32F30x_StdPeriph_Driver/src/stm32f30x_usart.c ****   else
1325:/home/user/Desktop/STM32-Projekte/FH-Vertibot/src/STM32F30x_StdPeriph_Driver/src/stm32f30x_usart.c ****   {
1326:/home/user/Desktop/STM32-Projekte/FH-Vertibot/src/STM32F30x_StdPeriph_Driver/src/stm32f30x_usart.c ****     /* Disable the NACK transmission by clearing the NACK bit in the CR3 register */
1327:/home/user/Desktop/STM32-Projekte/FH-Vertibot/src/STM32F30x_StdPeriph_Driver/src/stm32f30x_usart.c ****     USARTx->CR3 &= (uint32_t)~((uint32_t)USART_CR3_NACK);
 1153              		.loc 1 1327 0
 1154 0348 23F01003 		bic	r3, r3, #16
 1155              	.L102:
 1156 034c 8360     		str	r3, [r0, #8]
 1157 034e 7047     		bx	lr
 1158              		.cfi_endproc
 1159              	.LFE142:
 1161              		.align	1
 1162              		.global	USART_SetAutoRetryCount
 1163              		.thumb
 1164              		.thumb_func
 1166              	USART_SetAutoRetryCount:
 1167              	.LFB143:
1328:/home/user/Desktop/STM32-Projekte/FH-Vertibot/src/STM32F30x_StdPeriph_Driver/src/stm32f30x_usart.c ****   }
1329:/home/user/Desktop/STM32-Projekte/FH-Vertibot/src/STM32F30x_StdPeriph_Driver/src/stm32f30x_usart.c **** }
1330:/home/user/Desktop/STM32-Projekte/FH-Vertibot/src/STM32F30x_StdPeriph_Driver/src/stm32f30x_usart.c **** 
1331:/home/user/Desktop/STM32-Projekte/FH-Vertibot/src/STM32F30x_StdPeriph_Driver/src/stm32f30x_usart.c **** /**
1332:/home/user/Desktop/STM32-Projekte/FH-Vertibot/src/STM32F30x_StdPeriph_Driver/src/stm32f30x_usart.c ****   * @brief  Sets the Smart Card number of retries in transmit and receive.
1333:/home/user/Desktop/STM32-Projekte/FH-Vertibot/src/STM32F30x_StdPeriph_Driver/src/stm32f30x_usart.c ****   * @param  USARTx: Select the USART peripheral. This parameter can be one of the 
1334:/home/user/Desktop/STM32-Projekte/FH-Vertibot/src/STM32F30x_StdPeriph_Driver/src/stm32f30x_usart.c ****   *         following values: USART1 or USART2 or USART3.
1335:/home/user/Desktop/STM32-Projekte/FH-Vertibot/src/STM32F30x_StdPeriph_Driver/src/stm32f30x_usart.c ****   * @param  USART_AutoCount: specifies the Smart Card auto retry count.
1336:/home/user/Desktop/STM32-Projekte/FH-Vertibot/src/STM32F30x_StdPeriph_Driver/src/stm32f30x_usart.c ****   * @retval None
1337:/home/user/Desktop/STM32-Projekte/FH-Vertibot/src/STM32F30x_StdPeriph_Driver/src/stm32f30x_usart.c ****   */
1338:/home/user/Desktop/STM32-Projekte/FH-Vertibot/src/STM32F30x_StdPeriph_Driver/src/stm32f30x_usart.c **** void USART_SetAutoRetryCount(USART_TypeDef* USARTx, uint8_t USART_AutoCount)
1339:/home/user/Desktop/STM32-Projekte/FH-Vertibot/src/STM32F30x_StdPeriph_Driver/src/stm32f30x_usart.c **** {    
 1168              		.loc 1 1339 0
 1169              		.cfi_startproc
 1170              		@ args = 0, pretend = 0, frame = 0
 1171              		@ frame_needed = 0, uses_anonymous_args = 0
 1172              		@ link register save eliminated.
 1173              	.LVL95:
1340:/home/user/Desktop/STM32-Projekte/FH-Vertibot/src/STM32F30x_StdPeriph_Driver/src/stm32f30x_usart.c ****   /* Check the parameters */
1341:/home/user/Desktop/STM32-Projekte/FH-Vertibot/src/STM32F30x_StdPeriph_Driver/src/stm32f30x_usart.c ****   assert_param(IS_USART_123_PERIPH(USARTx));
1342:/home/user/Desktop/STM32-Projekte/FH-Vertibot/src/STM32F30x_StdPeriph_Driver/src/stm32f30x_usart.c ****   assert_param(IS_USART_AUTO_RETRY_COUNTER(USART_AutoCount));
1343:/home/user/Desktop/STM32-Projekte/FH-Vertibot/src/STM32F30x_StdPeriph_Driver/src/stm32f30x_usart.c ****   /* Clear the USART auto retry count */
1344:/home/user/Desktop/STM32-Projekte/FH-Vertibot/src/STM32F30x_StdPeriph_Driver/src/stm32f30x_usart.c ****   USARTx->CR3 &= (uint32_t)~((uint32_t)USART_CR3_SCARCNT);
 1174              		.loc 1 1344 0
 1175 0350 8368     		ldr	r3, [r0, #8]
 1176 0352 23F46023 		bic	r3, r3, #917504
 1177 0356 8360     		str	r3, [r0, #8]
1345:/home/user/Desktop/STM32-Projekte/FH-Vertibot/src/STM32F30x_StdPeriph_Driver/src/stm32f30x_usart.c ****   /* Set the USART auto retry count*/
1346:/home/user/Desktop/STM32-Projekte/FH-Vertibot/src/STM32F30x_StdPeriph_Driver/src/stm32f30x_usart.c ****   USARTx->CR3 |= (uint32_t)((uint32_t)USART_AutoCount << 0x11);
 1178              		.loc 1 1346 0
 1179 0358 8368     		ldr	r3, [r0, #8]
 1180 035a 43EA4141 		orr	r1, r3, r1, lsl #17
 1181              	.LVL96:
 1182 035e 8160     		str	r1, [r0, #8]
 1183 0360 7047     		bx	lr
 1184              		.cfi_endproc
 1185              	.LFE143:
 1187              		.align	1
 1188              		.global	USART_SetBlockLength
 1189              		.thumb
 1190              		.thumb_func
 1192              	USART_SetBlockLength:
 1193              	.LFB144:
1347:/home/user/Desktop/STM32-Projekte/FH-Vertibot/src/STM32F30x_StdPeriph_Driver/src/stm32f30x_usart.c **** }
1348:/home/user/Desktop/STM32-Projekte/FH-Vertibot/src/STM32F30x_StdPeriph_Driver/src/stm32f30x_usart.c **** 
1349:/home/user/Desktop/STM32-Projekte/FH-Vertibot/src/STM32F30x_StdPeriph_Driver/src/stm32f30x_usart.c **** /**
1350:/home/user/Desktop/STM32-Projekte/FH-Vertibot/src/STM32F30x_StdPeriph_Driver/src/stm32f30x_usart.c ****   * @brief  Sets the Smart Card Block length.
1351:/home/user/Desktop/STM32-Projekte/FH-Vertibot/src/STM32F30x_StdPeriph_Driver/src/stm32f30x_usart.c ****   * @param  USARTx: Select the USART peripheral. This parameter can be one of the 
1352:/home/user/Desktop/STM32-Projekte/FH-Vertibot/src/STM32F30x_StdPeriph_Driver/src/stm32f30x_usart.c ****   *         following values: USART1 or USART2 or USART3.
1353:/home/user/Desktop/STM32-Projekte/FH-Vertibot/src/STM32F30x_StdPeriph_Driver/src/stm32f30x_usart.c ****   * @param  USART_BlockLength: specifies the Smart Card block length.
1354:/home/user/Desktop/STM32-Projekte/FH-Vertibot/src/STM32F30x_StdPeriph_Driver/src/stm32f30x_usart.c ****   * @retval None
1355:/home/user/Desktop/STM32-Projekte/FH-Vertibot/src/STM32F30x_StdPeriph_Driver/src/stm32f30x_usart.c ****   */
1356:/home/user/Desktop/STM32-Projekte/FH-Vertibot/src/STM32F30x_StdPeriph_Driver/src/stm32f30x_usart.c **** void USART_SetBlockLength(USART_TypeDef* USARTx, uint8_t USART_BlockLength)
1357:/home/user/Desktop/STM32-Projekte/FH-Vertibot/src/STM32F30x_StdPeriph_Driver/src/stm32f30x_usart.c **** {    
 1194              		.loc 1 1357 0
 1195              		.cfi_startproc
 1196              		@ args = 0, pretend = 0, frame = 0
 1197              		@ frame_needed = 0, uses_anonymous_args = 0
 1198              		@ link register save eliminated.
 1199              	.LVL97:
1358:/home/user/Desktop/STM32-Projekte/FH-Vertibot/src/STM32F30x_StdPeriph_Driver/src/stm32f30x_usart.c ****   /* Check the parameters */
1359:/home/user/Desktop/STM32-Projekte/FH-Vertibot/src/STM32F30x_StdPeriph_Driver/src/stm32f30x_usart.c ****   assert_param(IS_USART_123_PERIPH(USARTx));
1360:/home/user/Desktop/STM32-Projekte/FH-Vertibot/src/STM32F30x_StdPeriph_Driver/src/stm32f30x_usart.c **** 
1361:/home/user/Desktop/STM32-Projekte/FH-Vertibot/src/STM32F30x_StdPeriph_Driver/src/stm32f30x_usart.c ****   /* Clear the Smart card block length */
1362:/home/user/Desktop/STM32-Projekte/FH-Vertibot/src/STM32F30x_StdPeriph_Driver/src/stm32f30x_usart.c ****   USARTx->RTOR &= (uint32_t)~((uint32_t)USART_RTOR_BLEN);
 1200              		.loc 1 1362 0
 1201 0362 4369     		ldr	r3, [r0, #20]
 1202 0364 23F07F43 		bic	r3, r3, #-16777216
 1203 0368 4361     		str	r3, [r0, #20]
1363:/home/user/Desktop/STM32-Projekte/FH-Vertibot/src/STM32F30x_StdPeriph_Driver/src/stm32f30x_usart.c ****   /* Set the Smart Card block length */
1364:/home/user/Desktop/STM32-Projekte/FH-Vertibot/src/STM32F30x_StdPeriph_Driver/src/stm32f30x_usart.c ****   USARTx->RTOR |= (uint32_t)((uint32_t)USART_BlockLength << 0x18);
 1204              		.loc 1 1364 0
 1205 036a 4369     		ldr	r3, [r0, #20]
 1206 036c 43EA0161 		orr	r1, r3, r1, lsl #24
 1207              	.LVL98:
 1208 0370 4161     		str	r1, [r0, #20]
 1209 0372 7047     		bx	lr
 1210              		.cfi_endproc
 1211              	.LFE144:
 1213              		.align	1
