   1              		.syntax unified
   2              		.cpu cortex-m4
   3              		.eabi_attribute 27, 3
   4              		.eabi_attribute 28, 1
   5              		.fpu fpv4-sp-d16
   6              		.eabi_attribute 20, 1
   7              		.eabi_attribute 21, 1
   8              		.eabi_attribute 23, 3
   9              		.eabi_attribute 24, 1
  10              		.eabi_attribute 25, 1
  11              		.eabi_attribute 26, 1
  12              		.eabi_attribute 30, 4
  13              		.eabi_attribute 34, 1
  14              		.eabi_attribute 18, 4
  15              		.thumb
  16              		.file	"stm32f30x_usart.c"
  17              		.text
  18              	.Ltext0:
  19              		.cfi_sections	.debug_frame
  20              		.align	1
  21              		.global	USART_DeInit
  22              		.thumb
  23              		.thumb_func
  25              	USART_DeInit:
  26              	.LFB111:
  27              		.file 1 "/home/user/Desktop/STM32-Projekte/FH-Vertibot/src/STM32F30x_StdPeriph_Driver/src/stm32f30
   1:/home/user/Desktop/STM32-Projekte/FH-Vertibot/src/STM32F30x_StdPeriph_Driver/src/stm32f30x_usart.c **** /**
   2:/home/user/Desktop/STM32-Projekte/FH-Vertibot/src/STM32F30x_StdPeriph_Driver/src/stm32f30x_usart.c ****   ******************************************************************************
   3:/home/user/Desktop/STM32-Projekte/FH-Vertibot/src/STM32F30x_StdPeriph_Driver/src/stm32f30x_usart.c ****   * @file    stm32f30x_usart.c
   4:/home/user/Desktop/STM32-Projekte/FH-Vertibot/src/STM32F30x_StdPeriph_Driver/src/stm32f30x_usart.c ****   * @author  MCD Application Team
   5:/home/user/Desktop/STM32-Projekte/FH-Vertibot/src/STM32F30x_StdPeriph_Driver/src/stm32f30x_usart.c ****   * @version V1.0.1
   6:/home/user/Desktop/STM32-Projekte/FH-Vertibot/src/STM32F30x_StdPeriph_Driver/src/stm32f30x_usart.c ****   * @date    23-October-2012
   7:/home/user/Desktop/STM32-Projekte/FH-Vertibot/src/STM32F30x_StdPeriph_Driver/src/stm32f30x_usart.c ****   * @brief   This file provides firmware functions to manage the following
   8:/home/user/Desktop/STM32-Projekte/FH-Vertibot/src/STM32F30x_StdPeriph_Driver/src/stm32f30x_usart.c ****   *          functionalities of the Universal synchronous asynchronous receiver
   9:/home/user/Desktop/STM32-Projekte/FH-Vertibot/src/STM32F30x_StdPeriph_Driver/src/stm32f30x_usart.c ****   *          transmitter (USART):
  10:/home/user/Desktop/STM32-Projekte/FH-Vertibot/src/STM32F30x_StdPeriph_Driver/src/stm32f30x_usart.c ****   *           + Initialization and Configuration
  11:/home/user/Desktop/STM32-Projekte/FH-Vertibot/src/STM32F30x_StdPeriph_Driver/src/stm32f30x_usart.c ****   *           + STOP Mode
  12:/home/user/Desktop/STM32-Projekte/FH-Vertibot/src/STM32F30x_StdPeriph_Driver/src/stm32f30x_usart.c ****   *           + AutoBaudRate
  13:/home/user/Desktop/STM32-Projekte/FH-Vertibot/src/STM32F30x_StdPeriph_Driver/src/stm32f30x_usart.c ****   *           + Data transfers
  14:/home/user/Desktop/STM32-Projekte/FH-Vertibot/src/STM32F30x_StdPeriph_Driver/src/stm32f30x_usart.c ****   *           + Multi-Processor Communication
  15:/home/user/Desktop/STM32-Projekte/FH-Vertibot/src/STM32F30x_StdPeriph_Driver/src/stm32f30x_usart.c ****   *           + LIN mode
  16:/home/user/Desktop/STM32-Projekte/FH-Vertibot/src/STM32F30x_StdPeriph_Driver/src/stm32f30x_usart.c ****   *           + Half-duplex mode
  17:/home/user/Desktop/STM32-Projekte/FH-Vertibot/src/STM32F30x_StdPeriph_Driver/src/stm32f30x_usart.c ****   *           + Smartcard mode
  18:/home/user/Desktop/STM32-Projekte/FH-Vertibot/src/STM32F30x_StdPeriph_Driver/src/stm32f30x_usart.c ****   *           + IrDA mode
  19:/home/user/Desktop/STM32-Projekte/FH-Vertibot/src/STM32F30x_StdPeriph_Driver/src/stm32f30x_usart.c ****   *           + RS485 mode  
  20:/home/user/Desktop/STM32-Projekte/FH-Vertibot/src/STM32F30x_StdPeriph_Driver/src/stm32f30x_usart.c ****   *           + DMA transfers management
  21:/home/user/Desktop/STM32-Projekte/FH-Vertibot/src/STM32F30x_StdPeriph_Driver/src/stm32f30x_usart.c ****   *           + Interrupts and flags management
  22:/home/user/Desktop/STM32-Projekte/FH-Vertibot/src/STM32F30x_StdPeriph_Driver/src/stm32f30x_usart.c ****   *           
  23:/home/user/Desktop/STM32-Projekte/FH-Vertibot/src/STM32F30x_StdPeriph_Driver/src/stm32f30x_usart.c ****   *  @verbatim  
  24:/home/user/Desktop/STM32-Projekte/FH-Vertibot/src/STM32F30x_StdPeriph_Driver/src/stm32f30x_usart.c ****  ===============================================================================
  25:/home/user/Desktop/STM32-Projekte/FH-Vertibot/src/STM32F30x_StdPeriph_Driver/src/stm32f30x_usart.c ****                       ##### How to use this driver #####
  26:/home/user/Desktop/STM32-Projekte/FH-Vertibot/src/STM32F30x_StdPeriph_Driver/src/stm32f30x_usart.c ****  ===============================================================================
  27:/home/user/Desktop/STM32-Projekte/FH-Vertibot/src/STM32F30x_StdPeriph_Driver/src/stm32f30x_usart.c ****       [..]
  28:/home/user/Desktop/STM32-Projekte/FH-Vertibot/src/STM32F30x_StdPeriph_Driver/src/stm32f30x_usart.c ****           (#) Enable peripheral clock using RCC_APB2PeriphClockCmd(RCC_APB2Periph_USART1, ENABLE)
  29:/home/user/Desktop/STM32-Projekte/FH-Vertibot/src/STM32F30x_StdPeriph_Driver/src/stm32f30x_usart.c ****              function for USART1 or using RCC_APB1PeriphClockCmd(RCC_APB1Periph_USARTx, ENABLE)
  30:/home/user/Desktop/STM32-Projekte/FH-Vertibot/src/STM32F30x_StdPeriph_Driver/src/stm32f30x_usart.c ****              function for USART2, USART3, UART4 and UART5.
  31:/home/user/Desktop/STM32-Projekte/FH-Vertibot/src/STM32F30x_StdPeriph_Driver/src/stm32f30x_usart.c ****           (#)  According to the USART mode, enable the GPIO clocks using
  32:/home/user/Desktop/STM32-Projekte/FH-Vertibot/src/STM32F30x_StdPeriph_Driver/src/stm32f30x_usart.c ****               RCC_AHBPeriphClockCmd() function. (The I/O can be TX, RX, CTS,
  33:/home/user/Desktop/STM32-Projekte/FH-Vertibot/src/STM32F30x_StdPeriph_Driver/src/stm32f30x_usart.c ****               or and SCLK).
  34:/home/user/Desktop/STM32-Projekte/FH-Vertibot/src/STM32F30x_StdPeriph_Driver/src/stm32f30x_usart.c ****           (#) Peripheral's alternate function:
  35:/home/user/Desktop/STM32-Projekte/FH-Vertibot/src/STM32F30x_StdPeriph_Driver/src/stm32f30x_usart.c ****               (++) Connect the pin to the desired peripherals' Alternate
  36:/home/user/Desktop/STM32-Projekte/FH-Vertibot/src/STM32F30x_StdPeriph_Driver/src/stm32f30x_usart.c ****                    Function (AF) using GPIO_PinAFConfig() function.
  37:/home/user/Desktop/STM32-Projekte/FH-Vertibot/src/STM32F30x_StdPeriph_Driver/src/stm32f30x_usart.c ****               (++) Configure the desired pin in alternate function by:
  38:/home/user/Desktop/STM32-Projekte/FH-Vertibot/src/STM32F30x_StdPeriph_Driver/src/stm32f30x_usart.c ****                    GPIO_InitStruct->GPIO_Mode = GPIO_Mode_AF.
  39:/home/user/Desktop/STM32-Projekte/FH-Vertibot/src/STM32F30x_StdPeriph_Driver/src/stm32f30x_usart.c ****               (++) Select the type, pull-up/pull-down and output speed via
  40:/home/user/Desktop/STM32-Projekte/FH-Vertibot/src/STM32F30x_StdPeriph_Driver/src/stm32f30x_usart.c ****                    GPIO_PuPd, GPIO_OType and GPIO_Speed members.
  41:/home/user/Desktop/STM32-Projekte/FH-Vertibot/src/STM32F30x_StdPeriph_Driver/src/stm32f30x_usart.c ****               (++) Call GPIO_Init() function.
  42:/home/user/Desktop/STM32-Projekte/FH-Vertibot/src/STM32F30x_StdPeriph_Driver/src/stm32f30x_usart.c ****           (#) Program the Baud Rate, Word Length , Stop Bit, Parity, Hardware
  43:/home/user/Desktop/STM32-Projekte/FH-Vertibot/src/STM32F30x_StdPeriph_Driver/src/stm32f30x_usart.c ****              flow control and Mode(Receiver/Transmitter) using the SPI_Init()
  44:/home/user/Desktop/STM32-Projekte/FH-Vertibot/src/STM32F30x_StdPeriph_Driver/src/stm32f30x_usart.c ****              function.
  45:/home/user/Desktop/STM32-Projekte/FH-Vertibot/src/STM32F30x_StdPeriph_Driver/src/stm32f30x_usart.c ****           (#) For synchronous mode, enable the clock and program the polarity,
  46:/home/user/Desktop/STM32-Projekte/FH-Vertibot/src/STM32F30x_StdPeriph_Driver/src/stm32f30x_usart.c ****              phase and last bit using the USART_ClockInit() function.
  47:/home/user/Desktop/STM32-Projekte/FH-Vertibot/src/STM32F30x_StdPeriph_Driver/src/stm32f30x_usart.c ****           (#) Enable the NVIC and the corresponding interrupt using the function
  48:/home/user/Desktop/STM32-Projekte/FH-Vertibot/src/STM32F30x_StdPeriph_Driver/src/stm32f30x_usart.c ****              USART_ITConfig() if you need to use interrupt mode.
  49:/home/user/Desktop/STM32-Projekte/FH-Vertibot/src/STM32F30x_StdPeriph_Driver/src/stm32f30x_usart.c ****           (#) When using the DMA mode:
  50:/home/user/Desktop/STM32-Projekte/FH-Vertibot/src/STM32F30x_StdPeriph_Driver/src/stm32f30x_usart.c ****               (++) Configure the DMA using DMA_Init() function.
  51:/home/user/Desktop/STM32-Projekte/FH-Vertibot/src/STM32F30x_StdPeriph_Driver/src/stm32f30x_usart.c ****               (++) Active the needed channel Request using USART_DMACmd() function.
  52:/home/user/Desktop/STM32-Projekte/FH-Vertibot/src/STM32F30x_StdPeriph_Driver/src/stm32f30x_usart.c ****           (#) Enable the USART using the USART_Cmd() function.
  53:/home/user/Desktop/STM32-Projekte/FH-Vertibot/src/STM32F30x_StdPeriph_Driver/src/stm32f30x_usart.c ****           (#) Enable the DMA using the DMA_Cmd() function, when using DMA mode.
  54:/home/user/Desktop/STM32-Projekte/FH-Vertibot/src/STM32F30x_StdPeriph_Driver/src/stm32f30x_usart.c ****       [..]
  55:/home/user/Desktop/STM32-Projekte/FH-Vertibot/src/STM32F30x_StdPeriph_Driver/src/stm32f30x_usart.c ****               Refer to Multi-Processor, LIN, half-duplex, Smartcard, IrDA sub-sections
  56:/home/user/Desktop/STM32-Projekte/FH-Vertibot/src/STM32F30x_StdPeriph_Driver/src/stm32f30x_usart.c ****               for more details.
  57:/home/user/Desktop/STM32-Projekte/FH-Vertibot/src/STM32F30x_StdPeriph_Driver/src/stm32f30x_usart.c **** 
  58:/home/user/Desktop/STM32-Projekte/FH-Vertibot/src/STM32F30x_StdPeriph_Driver/src/stm32f30x_usart.c ****    @endverbatim
  59:/home/user/Desktop/STM32-Projekte/FH-Vertibot/src/STM32F30x_StdPeriph_Driver/src/stm32f30x_usart.c **** 
  60:/home/user/Desktop/STM32-Projekte/FH-Vertibot/src/STM32F30x_StdPeriph_Driver/src/stm32f30x_usart.c ****   ******************************************************************************
  61:/home/user/Desktop/STM32-Projekte/FH-Vertibot/src/STM32F30x_StdPeriph_Driver/src/stm32f30x_usart.c ****   * @attention
  62:/home/user/Desktop/STM32-Projekte/FH-Vertibot/src/STM32F30x_StdPeriph_Driver/src/stm32f30x_usart.c ****   *
  63:/home/user/Desktop/STM32-Projekte/FH-Vertibot/src/STM32F30x_StdPeriph_Driver/src/stm32f30x_usart.c ****   * <h2><center>&copy; COPYRIGHT 2012 STMicroelectronics</center></h2>
  64:/home/user/Desktop/STM32-Projekte/FH-Vertibot/src/STM32F30x_StdPeriph_Driver/src/stm32f30x_usart.c ****   *
  65:/home/user/Desktop/STM32-Projekte/FH-Vertibot/src/STM32F30x_StdPeriph_Driver/src/stm32f30x_usart.c ****   * Licensed under MCD-ST Liberty SW License Agreement V2, (the "License");
  66:/home/user/Desktop/STM32-Projekte/FH-Vertibot/src/STM32F30x_StdPeriph_Driver/src/stm32f30x_usart.c ****   * You may not use this file except in compliance with the License.
  67:/home/user/Desktop/STM32-Projekte/FH-Vertibot/src/STM32F30x_StdPeriph_Driver/src/stm32f30x_usart.c ****   * You may obtain a copy of the License at:
  68:/home/user/Desktop/STM32-Projekte/FH-Vertibot/src/STM32F30x_StdPeriph_Driver/src/stm32f30x_usart.c ****   *
  69:/home/user/Desktop/STM32-Projekte/FH-Vertibot/src/STM32F30x_StdPeriph_Driver/src/stm32f30x_usart.c ****   *        http://www.st.com/software_license_agreement_liberty_v2
  70:/home/user/Desktop/STM32-Projekte/FH-Vertibot/src/STM32F30x_StdPeriph_Driver/src/stm32f30x_usart.c ****   *
  71:/home/user/Desktop/STM32-Projekte/FH-Vertibot/src/STM32F30x_StdPeriph_Driver/src/stm32f30x_usart.c ****   * Unless required by applicable law or agreed to in writing, software 
  72:/home/user/Desktop/STM32-Projekte/FH-Vertibot/src/STM32F30x_StdPeriph_Driver/src/stm32f30x_usart.c ****   * distributed under the License is distributed on an "AS IS" BASIS, 
  73:/home/user/Desktop/STM32-Projekte/FH-Vertibot/src/STM32F30x_StdPeriph_Driver/src/stm32f30x_usart.c ****   * WITHOUT WARRANTIES OR CONDITIONS OF ANY KIND, either express or implied.
  74:/home/user/Desktop/STM32-Projekte/FH-Vertibot/src/STM32F30x_StdPeriph_Driver/src/stm32f30x_usart.c ****   * See the License for the specific language governing permissions and
  75:/home/user/Desktop/STM32-Projekte/FH-Vertibot/src/STM32F30x_StdPeriph_Driver/src/stm32f30x_usart.c ****   * limitations under the License.
  76:/home/user/Desktop/STM32-Projekte/FH-Vertibot/src/STM32F30x_StdPeriph_Driver/src/stm32f30x_usart.c ****   *
  77:/home/user/Desktop/STM32-Projekte/FH-Vertibot/src/STM32F30x_StdPeriph_Driver/src/stm32f30x_usart.c ****   ******************************************************************************
  78:/home/user/Desktop/STM32-Projekte/FH-Vertibot/src/STM32F30x_StdPeriph_Driver/src/stm32f30x_usart.c ****   */
  79:/home/user/Desktop/STM32-Projekte/FH-Vertibot/src/STM32F30x_StdPeriph_Driver/src/stm32f30x_usart.c **** 
  80:/home/user/Desktop/STM32-Projekte/FH-Vertibot/src/STM32F30x_StdPeriph_Driver/src/stm32f30x_usart.c **** /* Includes ------------------------------------------------------------------*/
  81:/home/user/Desktop/STM32-Projekte/FH-Vertibot/src/STM32F30x_StdPeriph_Driver/src/stm32f30x_usart.c **** #include "stm32f30x_usart.h"
  82:/home/user/Desktop/STM32-Projekte/FH-Vertibot/src/STM32F30x_StdPeriph_Driver/src/stm32f30x_usart.c **** #include "stm32f30x_rcc.h"
  83:/home/user/Desktop/STM32-Projekte/FH-Vertibot/src/STM32F30x_StdPeriph_Driver/src/stm32f30x_usart.c **** 
  84:/home/user/Desktop/STM32-Projekte/FH-Vertibot/src/STM32F30x_StdPeriph_Driver/src/stm32f30x_usart.c **** /** @addtogroup STM32F30x_StdPeriph_Driver
  85:/home/user/Desktop/STM32-Projekte/FH-Vertibot/src/STM32F30x_StdPeriph_Driver/src/stm32f30x_usart.c ****   * @{
  86:/home/user/Desktop/STM32-Projekte/FH-Vertibot/src/STM32F30x_StdPeriph_Driver/src/stm32f30x_usart.c ****   */
  87:/home/user/Desktop/STM32-Projekte/FH-Vertibot/src/STM32F30x_StdPeriph_Driver/src/stm32f30x_usart.c **** 
  88:/home/user/Desktop/STM32-Projekte/FH-Vertibot/src/STM32F30x_StdPeriph_Driver/src/stm32f30x_usart.c **** /** @defgroup USART 
  89:/home/user/Desktop/STM32-Projekte/FH-Vertibot/src/STM32F30x_StdPeriph_Driver/src/stm32f30x_usart.c ****   * @brief USART driver modules
  90:/home/user/Desktop/STM32-Projekte/FH-Vertibot/src/STM32F30x_StdPeriph_Driver/src/stm32f30x_usart.c ****   * @{
  91:/home/user/Desktop/STM32-Projekte/FH-Vertibot/src/STM32F30x_StdPeriph_Driver/src/stm32f30x_usart.c ****   */
  92:/home/user/Desktop/STM32-Projekte/FH-Vertibot/src/STM32F30x_StdPeriph_Driver/src/stm32f30x_usart.c **** 
  93:/home/user/Desktop/STM32-Projekte/FH-Vertibot/src/STM32F30x_StdPeriph_Driver/src/stm32f30x_usart.c **** /* Private typedef -----------------------------------------------------------*/
  94:/home/user/Desktop/STM32-Projekte/FH-Vertibot/src/STM32F30x_StdPeriph_Driver/src/stm32f30x_usart.c **** /* Private define ------------------------------------------------------------*/
  95:/home/user/Desktop/STM32-Projekte/FH-Vertibot/src/STM32F30x_StdPeriph_Driver/src/stm32f30x_usart.c **** 
  96:/home/user/Desktop/STM32-Projekte/FH-Vertibot/src/STM32F30x_StdPeriph_Driver/src/stm32f30x_usart.c **** /*!< USART CR1 register clear Mask ((~(uint32_t)0xFFFFE6F3)) */
  97:/home/user/Desktop/STM32-Projekte/FH-Vertibot/src/STM32F30x_StdPeriph_Driver/src/stm32f30x_usart.c **** #define CR1_CLEAR_MASK            ((uint32_t)(USART_CR1_M | USART_CR1_PCE | \
  98:/home/user/Desktop/STM32-Projekte/FH-Vertibot/src/STM32F30x_StdPeriph_Driver/src/stm32f30x_usart.c ****                                               USART_CR1_PS | USART_CR1_TE | \
  99:/home/user/Desktop/STM32-Projekte/FH-Vertibot/src/STM32F30x_StdPeriph_Driver/src/stm32f30x_usart.c ****                                               USART_CR1_RE))
 100:/home/user/Desktop/STM32-Projekte/FH-Vertibot/src/STM32F30x_StdPeriph_Driver/src/stm32f30x_usart.c **** 
 101:/home/user/Desktop/STM32-Projekte/FH-Vertibot/src/STM32F30x_StdPeriph_Driver/src/stm32f30x_usart.c **** /*!< USART CR2 register clock bits clear Mask ((~(uint32_t)0xFFFFF0FF)) */
 102:/home/user/Desktop/STM32-Projekte/FH-Vertibot/src/STM32F30x_StdPeriph_Driver/src/stm32f30x_usart.c **** #define CR2_CLOCK_CLEAR_MASK      ((uint32_t)(USART_CR2_CLKEN | USART_CR2_CPOL | \
 103:/home/user/Desktop/STM32-Projekte/FH-Vertibot/src/STM32F30x_StdPeriph_Driver/src/stm32f30x_usart.c ****                                               USART_CR2_CPHA | USART_CR2_LBCL))
 104:/home/user/Desktop/STM32-Projekte/FH-Vertibot/src/STM32F30x_StdPeriph_Driver/src/stm32f30x_usart.c **** 
 105:/home/user/Desktop/STM32-Projekte/FH-Vertibot/src/STM32F30x_StdPeriph_Driver/src/stm32f30x_usart.c **** /*!< USART CR3 register clear Mask ((~(uint32_t)0xFFFFFCFF)) */
 106:/home/user/Desktop/STM32-Projekte/FH-Vertibot/src/STM32F30x_StdPeriph_Driver/src/stm32f30x_usart.c **** #define CR3_CLEAR_MASK            ((uint32_t)(USART_CR3_RTSE | USART_CR3_CTSE))
 107:/home/user/Desktop/STM32-Projekte/FH-Vertibot/src/STM32F30x_StdPeriph_Driver/src/stm32f30x_usart.c **** 
 108:/home/user/Desktop/STM32-Projekte/FH-Vertibot/src/STM32F30x_StdPeriph_Driver/src/stm32f30x_usart.c **** /*!< USART Interrupts mask */
 109:/home/user/Desktop/STM32-Projekte/FH-Vertibot/src/STM32F30x_StdPeriph_Driver/src/stm32f30x_usart.c **** #define IT_MASK                   ((uint32_t)0x000000FF)
 110:/home/user/Desktop/STM32-Projekte/FH-Vertibot/src/STM32F30x_StdPeriph_Driver/src/stm32f30x_usart.c **** 
 111:/home/user/Desktop/STM32-Projekte/FH-Vertibot/src/STM32F30x_StdPeriph_Driver/src/stm32f30x_usart.c **** /* Private macro -------------------------------------------------------------*/
 112:/home/user/Desktop/STM32-Projekte/FH-Vertibot/src/STM32F30x_StdPeriph_Driver/src/stm32f30x_usart.c **** /* Private variables ---------------------------------------------------------*/
 113:/home/user/Desktop/STM32-Projekte/FH-Vertibot/src/STM32F30x_StdPeriph_Driver/src/stm32f30x_usart.c **** /* Private function prototypes -----------------------------------------------*/
 114:/home/user/Desktop/STM32-Projekte/FH-Vertibot/src/STM32F30x_StdPeriph_Driver/src/stm32f30x_usart.c **** /* Private functions ---------------------------------------------------------*/
 115:/home/user/Desktop/STM32-Projekte/FH-Vertibot/src/STM32F30x_StdPeriph_Driver/src/stm32f30x_usart.c **** 
 116:/home/user/Desktop/STM32-Projekte/FH-Vertibot/src/STM32F30x_StdPeriph_Driver/src/stm32f30x_usart.c **** /** @defgroup USART_Private_Functions
 117:/home/user/Desktop/STM32-Projekte/FH-Vertibot/src/STM32F30x_StdPeriph_Driver/src/stm32f30x_usart.c ****   * @{
 118:/home/user/Desktop/STM32-Projekte/FH-Vertibot/src/STM32F30x_StdPeriph_Driver/src/stm32f30x_usart.c ****   */
 119:/home/user/Desktop/STM32-Projekte/FH-Vertibot/src/STM32F30x_StdPeriph_Driver/src/stm32f30x_usart.c **** 
 120:/home/user/Desktop/STM32-Projekte/FH-Vertibot/src/STM32F30x_StdPeriph_Driver/src/stm32f30x_usart.c **** /** @defgroup USART_Group1 Initialization and Configuration functions
 121:/home/user/Desktop/STM32-Projekte/FH-Vertibot/src/STM32F30x_StdPeriph_Driver/src/stm32f30x_usart.c ****  *  @brief   Initialization and Configuration functions 
 122:/home/user/Desktop/STM32-Projekte/FH-Vertibot/src/STM32F30x_StdPeriph_Driver/src/stm32f30x_usart.c ****  *
 123:/home/user/Desktop/STM32-Projekte/FH-Vertibot/src/STM32F30x_StdPeriph_Driver/src/stm32f30x_usart.c **** @verbatim 
 124:/home/user/Desktop/STM32-Projekte/FH-Vertibot/src/STM32F30x_StdPeriph_Driver/src/stm32f30x_usart.c ****  ===============================================================================
 125:/home/user/Desktop/STM32-Projekte/FH-Vertibot/src/STM32F30x_StdPeriph_Driver/src/stm32f30x_usart.c ****            ##### Initialization and Configuration functions #####
 126:/home/user/Desktop/STM32-Projekte/FH-Vertibot/src/STM32F30x_StdPeriph_Driver/src/stm32f30x_usart.c ****  ===============================================================================  
 127:/home/user/Desktop/STM32-Projekte/FH-Vertibot/src/STM32F30x_StdPeriph_Driver/src/stm32f30x_usart.c ****   [..]
 128:/home/user/Desktop/STM32-Projekte/FH-Vertibot/src/STM32F30x_StdPeriph_Driver/src/stm32f30x_usart.c ****       This subsection provides a set of functions allowing to initialize the USART 
 129:/home/user/Desktop/STM32-Projekte/FH-Vertibot/src/STM32F30x_StdPeriph_Driver/src/stm32f30x_usart.c ****       in asynchronous and in synchronous modes.
 130:/home/user/Desktop/STM32-Projekte/FH-Vertibot/src/STM32F30x_StdPeriph_Driver/src/stm32f30x_usart.c ****        (+) For the asynchronous mode only these parameters can be configured: 
 131:/home/user/Desktop/STM32-Projekte/FH-Vertibot/src/STM32F30x_StdPeriph_Driver/src/stm32f30x_usart.c ****             (++) Baud Rate.
 132:/home/user/Desktop/STM32-Projekte/FH-Vertibot/src/STM32F30x_StdPeriph_Driver/src/stm32f30x_usart.c ****             (++) Word Length. 
 133:/home/user/Desktop/STM32-Projekte/FH-Vertibot/src/STM32F30x_StdPeriph_Driver/src/stm32f30x_usart.c ****             (++) Stop Bit.
 134:/home/user/Desktop/STM32-Projekte/FH-Vertibot/src/STM32F30x_StdPeriph_Driver/src/stm32f30x_usart.c ****             (++) Parity: If the parity is enabled, then the MSB bit of the data written
 135:/home/user/Desktop/STM32-Projekte/FH-Vertibot/src/STM32F30x_StdPeriph_Driver/src/stm32f30x_usart.c ****                  in the data register is transmitted but is changed by the parity bit.
 136:/home/user/Desktop/STM32-Projekte/FH-Vertibot/src/STM32F30x_StdPeriph_Driver/src/stm32f30x_usart.c ****                  Depending on the frame length defined by the M bit (8-bits or 9-bits),
 137:/home/user/Desktop/STM32-Projekte/FH-Vertibot/src/STM32F30x_StdPeriph_Driver/src/stm32f30x_usart.c ****                  the possible USART frame formats are as listed in the following table:
 138:/home/user/Desktop/STM32-Projekte/FH-Vertibot/src/STM32F30x_StdPeriph_Driver/src/stm32f30x_usart.c ****     [..]
 139:/home/user/Desktop/STM32-Projekte/FH-Vertibot/src/STM32F30x_StdPeriph_Driver/src/stm32f30x_usart.c ****    +-------------------------------------------------------------+     
 140:/home/user/Desktop/STM32-Projekte/FH-Vertibot/src/STM32F30x_StdPeriph_Driver/src/stm32f30x_usart.c ****    |   M bit |  PCE bit  |            USART frame                |
 141:/home/user/Desktop/STM32-Projekte/FH-Vertibot/src/STM32F30x_StdPeriph_Driver/src/stm32f30x_usart.c ****    |---------------------|---------------------------------------|             
 142:/home/user/Desktop/STM32-Projekte/FH-Vertibot/src/STM32F30x_StdPeriph_Driver/src/stm32f30x_usart.c ****    |    0    |    0      |    | SB | 8 bit data | STB |          |
 143:/home/user/Desktop/STM32-Projekte/FH-Vertibot/src/STM32F30x_StdPeriph_Driver/src/stm32f30x_usart.c ****    |---------|-----------|---------------------------------------|  
 144:/home/user/Desktop/STM32-Projekte/FH-Vertibot/src/STM32F30x_StdPeriph_Driver/src/stm32f30x_usart.c ****    |    0    |    1      |    | SB | 7 bit data | PB | STB |     |
 145:/home/user/Desktop/STM32-Projekte/FH-Vertibot/src/STM32F30x_StdPeriph_Driver/src/stm32f30x_usart.c ****    |---------|-----------|---------------------------------------|  
 146:/home/user/Desktop/STM32-Projekte/FH-Vertibot/src/STM32F30x_StdPeriph_Driver/src/stm32f30x_usart.c ****    |    1    |    0      |    | SB | 9 bit data | STB |          |
 147:/home/user/Desktop/STM32-Projekte/FH-Vertibot/src/STM32F30x_StdPeriph_Driver/src/stm32f30x_usart.c ****    |---------|-----------|---------------------------------------|  
 148:/home/user/Desktop/STM32-Projekte/FH-Vertibot/src/STM32F30x_StdPeriph_Driver/src/stm32f30x_usart.c ****    |    1    |    1      |    | SB | 8 bit data | PB | STB |     |
 149:/home/user/Desktop/STM32-Projekte/FH-Vertibot/src/STM32F30x_StdPeriph_Driver/src/stm32f30x_usart.c ****    +-------------------------------------------------------------+            
 150:/home/user/Desktop/STM32-Projekte/FH-Vertibot/src/STM32F30x_StdPeriph_Driver/src/stm32f30x_usart.c ****     [..]
 151:/home/user/Desktop/STM32-Projekte/FH-Vertibot/src/STM32F30x_StdPeriph_Driver/src/stm32f30x_usart.c ****            (++) Hardware flow control.
 152:/home/user/Desktop/STM32-Projekte/FH-Vertibot/src/STM32F30x_StdPeriph_Driver/src/stm32f30x_usart.c ****            (++) Receiver/transmitter modes.
 153:/home/user/Desktop/STM32-Projekte/FH-Vertibot/src/STM32F30x_StdPeriph_Driver/src/stm32f30x_usart.c ****     [..] The USART_Init() function follows the USART  asynchronous configuration 
 154:/home/user/Desktop/STM32-Projekte/FH-Vertibot/src/STM32F30x_StdPeriph_Driver/src/stm32f30x_usart.c ****          procedure(details for the procedure are available in reference manual.
 155:/home/user/Desktop/STM32-Projekte/FH-Vertibot/src/STM32F30x_StdPeriph_Driver/src/stm32f30x_usart.c ****         (+) For the synchronous mode in addition to the asynchronous mode parameters
 156:/home/user/Desktop/STM32-Projekte/FH-Vertibot/src/STM32F30x_StdPeriph_Driver/src/stm32f30x_usart.c ****             these parameters should be also configured:
 157:/home/user/Desktop/STM32-Projekte/FH-Vertibot/src/STM32F30x_StdPeriph_Driver/src/stm32f30x_usart.c ****             (++) USART Clock Enabled.
 158:/home/user/Desktop/STM32-Projekte/FH-Vertibot/src/STM32F30x_StdPeriph_Driver/src/stm32f30x_usart.c ****             (++) USART polarity.
 159:/home/user/Desktop/STM32-Projekte/FH-Vertibot/src/STM32F30x_StdPeriph_Driver/src/stm32f30x_usart.c ****             (++) USART phase.
 160:/home/user/Desktop/STM32-Projekte/FH-Vertibot/src/STM32F30x_StdPeriph_Driver/src/stm32f30x_usart.c ****             (++) USART LastBit.
 161:/home/user/Desktop/STM32-Projekte/FH-Vertibot/src/STM32F30x_StdPeriph_Driver/src/stm32f30x_usart.c ****     [..] These parameters can be configured using the USART_ClockInit() function.
 162:/home/user/Desktop/STM32-Projekte/FH-Vertibot/src/STM32F30x_StdPeriph_Driver/src/stm32f30x_usart.c **** 
 163:/home/user/Desktop/STM32-Projekte/FH-Vertibot/src/STM32F30x_StdPeriph_Driver/src/stm32f30x_usart.c **** @endverbatim
 164:/home/user/Desktop/STM32-Projekte/FH-Vertibot/src/STM32F30x_StdPeriph_Driver/src/stm32f30x_usart.c ****   * @{
 165:/home/user/Desktop/STM32-Projekte/FH-Vertibot/src/STM32F30x_StdPeriph_Driver/src/stm32f30x_usart.c ****   */
 166:/home/user/Desktop/STM32-Projekte/FH-Vertibot/src/STM32F30x_StdPeriph_Driver/src/stm32f30x_usart.c ****   
 167:/home/user/Desktop/STM32-Projekte/FH-Vertibot/src/STM32F30x_StdPeriph_Driver/src/stm32f30x_usart.c **** /**
 168:/home/user/Desktop/STM32-Projekte/FH-Vertibot/src/STM32F30x_StdPeriph_Driver/src/stm32f30x_usart.c ****   * @brief  Deinitializes the USARTx peripheral registers to their default reset values.
 169:/home/user/Desktop/STM32-Projekte/FH-Vertibot/src/STM32F30x_StdPeriph_Driver/src/stm32f30x_usart.c ****   * @param  USARTx: Select the USART peripheral. This parameter can be one of the 
 170:/home/user/Desktop/STM32-Projekte/FH-Vertibot/src/STM32F30x_StdPeriph_Driver/src/stm32f30x_usart.c ****   *         following values: USART1 or USART2 or USART3 or UART4 or UART5.
 171:/home/user/Desktop/STM32-Projekte/FH-Vertibot/src/STM32F30x_StdPeriph_Driver/src/stm32f30x_usart.c ****   * @retval None
 172:/home/user/Desktop/STM32-Projekte/FH-Vertibot/src/STM32F30x_StdPeriph_Driver/src/stm32f30x_usart.c ****   */
 173:/home/user/Desktop/STM32-Projekte/FH-Vertibot/src/STM32F30x_StdPeriph_Driver/src/stm32f30x_usart.c **** void USART_DeInit(USART_TypeDef* USARTx)
 174:/home/user/Desktop/STM32-Projekte/FH-Vertibot/src/STM32F30x_StdPeriph_Driver/src/stm32f30x_usart.c **** {
  28              		.loc 1 174 0
  29              		.cfi_startproc
  30              		@ args = 0, pretend = 0, frame = 0
  31              		@ frame_needed = 0, uses_anonymous_args = 0
  32              	.LVL0:
  33 0000 08B5     		push	{r3, lr}
  34              	.LCFI0:
  35              		.cfi_def_cfa_offset 8
  36              		.cfi_offset 3, -8
  37              		.cfi_offset 14, -4
 175:/home/user/Desktop/STM32-Projekte/FH-Vertibot/src/STM32F30x_StdPeriph_Driver/src/stm32f30x_usart.c ****   /* Check the parameters */
 176:/home/user/Desktop/STM32-Projekte/FH-Vertibot/src/STM32F30x_StdPeriph_Driver/src/stm32f30x_usart.c ****   assert_param(IS_USART_ALL_PERIPH(USARTx));
 177:/home/user/Desktop/STM32-Projekte/FH-Vertibot/src/STM32F30x_StdPeriph_Driver/src/stm32f30x_usart.c **** 
 178:/home/user/Desktop/STM32-Projekte/FH-Vertibot/src/STM32F30x_StdPeriph_Driver/src/stm32f30x_usart.c ****   if (USARTx == USART1)
  38              		.loc 1 178 0
  39 0002 204B     		ldr	r3, .L9
  40 0004 9842     		cmp	r0, r3
  41 0006 0BD1     		bne	.L2
 179:/home/user/Desktop/STM32-Projekte/FH-Vertibot/src/STM32F30x_StdPeriph_Driver/src/stm32f30x_usart.c ****   {
 180:/home/user/Desktop/STM32-Projekte/FH-Vertibot/src/STM32F30x_StdPeriph_Driver/src/stm32f30x_usart.c ****     RCC_APB2PeriphResetCmd(RCC_APB2Periph_USART1, ENABLE);
  42              		.loc 1 180 0
  43 0008 4FF48040 		mov	r0, #16384
  44              	.LVL1:
  45 000c 0121     		movs	r1, #1
  46 000e FFF7FEFF 		bl	RCC_APB2PeriphResetCmd
  47              	.LVL2:
 181:/home/user/Desktop/STM32-Projekte/FH-Vertibot/src/STM32F30x_StdPeriph_Driver/src/stm32f30x_usart.c ****     RCC_APB2PeriphResetCmd(RCC_APB2Periph_USART1, DISABLE);
  48              		.loc 1 181 0
  49 0012 4FF48040 		mov	r0, #16384
  50 0016 0021     		movs	r1, #0
 182:/home/user/Desktop/STM32-Projekte/FH-Vertibot/src/STM32F30x_StdPeriph_Driver/src/stm32f30x_usart.c ****   }
 183:/home/user/Desktop/STM32-Projekte/FH-Vertibot/src/STM32F30x_StdPeriph_Driver/src/stm32f30x_usart.c ****   else if (USARTx == USART2)
 184:/home/user/Desktop/STM32-Projekte/FH-Vertibot/src/STM32F30x_StdPeriph_Driver/src/stm32f30x_usart.c ****   {
 185:/home/user/Desktop/STM32-Projekte/FH-Vertibot/src/STM32F30x_StdPeriph_Driver/src/stm32f30x_usart.c ****     RCC_APB1PeriphResetCmd(RCC_APB1Periph_USART2, ENABLE);
 186:/home/user/Desktop/STM32-Projekte/FH-Vertibot/src/STM32F30x_StdPeriph_Driver/src/stm32f30x_usart.c ****     RCC_APB1PeriphResetCmd(RCC_APB1Periph_USART2, DISABLE);
 187:/home/user/Desktop/STM32-Projekte/FH-Vertibot/src/STM32F30x_StdPeriph_Driver/src/stm32f30x_usart.c ****   }
 188:/home/user/Desktop/STM32-Projekte/FH-Vertibot/src/STM32F30x_StdPeriph_Driver/src/stm32f30x_usart.c ****   else if (USARTx == USART3)
 189:/home/user/Desktop/STM32-Projekte/FH-Vertibot/src/STM32F30x_StdPeriph_Driver/src/stm32f30x_usart.c ****   {
 190:/home/user/Desktop/STM32-Projekte/FH-Vertibot/src/STM32F30x_StdPeriph_Driver/src/stm32f30x_usart.c ****     RCC_APB1PeriphResetCmd(RCC_APB1Periph_USART3, ENABLE);
 191:/home/user/Desktop/STM32-Projekte/FH-Vertibot/src/STM32F30x_StdPeriph_Driver/src/stm32f30x_usart.c ****     RCC_APB1PeriphResetCmd(RCC_APB1Periph_USART3, DISABLE);
 192:/home/user/Desktop/STM32-Projekte/FH-Vertibot/src/STM32F30x_StdPeriph_Driver/src/stm32f30x_usart.c ****   }
 193:/home/user/Desktop/STM32-Projekte/FH-Vertibot/src/STM32F30x_StdPeriph_Driver/src/stm32f30x_usart.c ****   else if (USARTx == UART4)
 194:/home/user/Desktop/STM32-Projekte/FH-Vertibot/src/STM32F30x_StdPeriph_Driver/src/stm32f30x_usart.c ****   {
 195:/home/user/Desktop/STM32-Projekte/FH-Vertibot/src/STM32F30x_StdPeriph_Driver/src/stm32f30x_usart.c ****     RCC_APB1PeriphResetCmd(RCC_APB1Periph_UART4, ENABLE);
 196:/home/user/Desktop/STM32-Projekte/FH-Vertibot/src/STM32F30x_StdPeriph_Driver/src/stm32f30x_usart.c ****     RCC_APB1PeriphResetCmd(RCC_APB1Periph_UART4, DISABLE);
 197:/home/user/Desktop/STM32-Projekte/FH-Vertibot/src/STM32F30x_StdPeriph_Driver/src/stm32f30x_usart.c ****   }
 198:/home/user/Desktop/STM32-Projekte/FH-Vertibot/src/STM32F30x_StdPeriph_Driver/src/stm32f30x_usart.c ****   else
 199:/home/user/Desktop/STM32-Projekte/FH-Vertibot/src/STM32F30x_StdPeriph_Driver/src/stm32f30x_usart.c ****   {
 200:/home/user/Desktop/STM32-Projekte/FH-Vertibot/src/STM32F30x_StdPeriph_Driver/src/stm32f30x_usart.c ****     if  (USARTx == UART5)
 201:/home/user/Desktop/STM32-Projekte/FH-Vertibot/src/STM32F30x_StdPeriph_Driver/src/stm32f30x_usart.c ****     {
 202:/home/user/Desktop/STM32-Projekte/FH-Vertibot/src/STM32F30x_StdPeriph_Driver/src/stm32f30x_usart.c ****       RCC_APB1PeriphResetCmd(RCC_APB1Periph_UART5, ENABLE);
 203:/home/user/Desktop/STM32-Projekte/FH-Vertibot/src/STM32F30x_StdPeriph_Driver/src/stm32f30x_usart.c ****       RCC_APB1PeriphResetCmd(RCC_APB1Periph_UART5, DISABLE);
 204:/home/user/Desktop/STM32-Projekte/FH-Vertibot/src/STM32F30x_StdPeriph_Driver/src/stm32f30x_usart.c ****     }
 205:/home/user/Desktop/STM32-Projekte/FH-Vertibot/src/STM32F30x_StdPeriph_Driver/src/stm32f30x_usart.c ****   }
 206:/home/user/Desktop/STM32-Projekte/FH-Vertibot/src/STM32F30x_StdPeriph_Driver/src/stm32f30x_usart.c **** }
  51              		.loc 1 206 0
  52 0018 BDE80840 		pop	{r3, lr}
 181:/home/user/Desktop/STM32-Projekte/FH-Vertibot/src/STM32F30x_StdPeriph_Driver/src/stm32f30x_usart.c ****     RCC_APB2PeriphResetCmd(RCC_APB2Periph_USART1, DISABLE);
  53              		.loc 1 181 0
  54 001c FFF7FEBF 		b	RCC_APB2PeriphResetCmd
  55              	.LVL3:
  56              	.L2:
 183:/home/user/Desktop/STM32-Projekte/FH-Vertibot/src/STM32F30x_StdPeriph_Driver/src/stm32f30x_usart.c ****   else if (USARTx == USART2)
  57              		.loc 1 183 0
  58 0020 194B     		ldr	r3, .L9+4
  59 0022 9842     		cmp	r0, r3
  60 0024 07D1     		bne	.L3
 185:/home/user/Desktop/STM32-Projekte/FH-Vertibot/src/STM32F30x_StdPeriph_Driver/src/stm32f30x_usart.c ****     RCC_APB1PeriphResetCmd(RCC_APB1Periph_USART2, ENABLE);
  61              		.loc 1 185 0
  62 0026 4FF40030 		mov	r0, #131072
  63              	.LVL4:
  64 002a 0121     		movs	r1, #1
  65 002c FFF7FEFF 		bl	RCC_APB1PeriphResetCmd
  66              	.LVL5:
 186:/home/user/Desktop/STM32-Projekte/FH-Vertibot/src/STM32F30x_StdPeriph_Driver/src/stm32f30x_usart.c ****     RCC_APB1PeriphResetCmd(RCC_APB1Periph_USART2, DISABLE);
  67              		.loc 1 186 0
  68 0030 4FF40030 		mov	r0, #131072
  69 0034 1FE0     		b	.L7
  70              	.LVL6:
  71              	.L3:
 188:/home/user/Desktop/STM32-Projekte/FH-Vertibot/src/STM32F30x_StdPeriph_Driver/src/stm32f30x_usart.c ****   else if (USARTx == USART3)
  72              		.loc 1 188 0
  73 0036 154B     		ldr	r3, .L9+8
  74 0038 9842     		cmp	r0, r3
  75 003a 07D1     		bne	.L4
 190:/home/user/Desktop/STM32-Projekte/FH-Vertibot/src/STM32F30x_StdPeriph_Driver/src/stm32f30x_usart.c ****     RCC_APB1PeriphResetCmd(RCC_APB1Periph_USART3, ENABLE);
  76              		.loc 1 190 0
  77 003c 4FF48020 		mov	r0, #262144
  78              	.LVL7:
  79 0040 0121     		movs	r1, #1
  80 0042 FFF7FEFF 		bl	RCC_APB1PeriphResetCmd
  81              	.LVL8:
 191:/home/user/Desktop/STM32-Projekte/FH-Vertibot/src/STM32F30x_StdPeriph_Driver/src/stm32f30x_usart.c ****     RCC_APB1PeriphResetCmd(RCC_APB1Periph_USART3, DISABLE);
  82              		.loc 1 191 0
  83 0046 4FF48020 		mov	r0, #262144
  84 004a 14E0     		b	.L7
  85              	.LVL9:
  86              	.L4:
 193:/home/user/Desktop/STM32-Projekte/FH-Vertibot/src/STM32F30x_StdPeriph_Driver/src/stm32f30x_usart.c ****   else if (USARTx == UART4)
  87              		.loc 1 193 0
  88 004c 104B     		ldr	r3, .L9+12
  89 004e 9842     		cmp	r0, r3
  90 0050 07D1     		bne	.L5
 195:/home/user/Desktop/STM32-Projekte/FH-Vertibot/src/STM32F30x_StdPeriph_Driver/src/stm32f30x_usart.c ****     RCC_APB1PeriphResetCmd(RCC_APB1Periph_UART4, ENABLE);
  91              		.loc 1 195 0
  92 0052 4FF40020 		mov	r0, #524288
  93              	.LVL10:
  94 0056 0121     		movs	r1, #1
  95 0058 FFF7FEFF 		bl	RCC_APB1PeriphResetCmd
  96              	.LVL11:
 196:/home/user/Desktop/STM32-Projekte/FH-Vertibot/src/STM32F30x_StdPeriph_Driver/src/stm32f30x_usart.c ****     RCC_APB1PeriphResetCmd(RCC_APB1Periph_UART4, DISABLE);
  97              		.loc 1 196 0
  98 005c 4FF40020 		mov	r0, #524288
  99 0060 09E0     		b	.L7
 100              	.LVL12:
 101              	.L5:
 200:/home/user/Desktop/STM32-Projekte/FH-Vertibot/src/STM32F30x_StdPeriph_Driver/src/stm32f30x_usart.c ****     if  (USARTx == UART5)
 102              		.loc 1 200 0
 103 0062 0C4B     		ldr	r3, .L9+16
 104 0064 9842     		cmp	r0, r3
 105 0066 0BD1     		bne	.L1
 202:/home/user/Desktop/STM32-Projekte/FH-Vertibot/src/STM32F30x_StdPeriph_Driver/src/stm32f30x_usart.c ****       RCC_APB1PeriphResetCmd(RCC_APB1Periph_UART5, ENABLE);
 106              		.loc 1 202 0
 107 0068 4FF48010 		mov	r0, #1048576
 108              	.LVL13:
 109 006c 0121     		movs	r1, #1
 110 006e FFF7FEFF 		bl	RCC_APB1PeriphResetCmd
 111              	.LVL14:
 203:/home/user/Desktop/STM32-Projekte/FH-Vertibot/src/STM32F30x_StdPeriph_Driver/src/stm32f30x_usart.c ****       RCC_APB1PeriphResetCmd(RCC_APB1Periph_UART5, DISABLE);
 112              		.loc 1 203 0
 113 0072 4FF48010 		mov	r0, #1048576
 114              	.L7:
 115 0076 0021     		movs	r1, #0
 116              		.loc 1 206 0
 117 0078 BDE80840 		pop	{r3, lr}
 203:/home/user/Desktop/STM32-Projekte/FH-Vertibot/src/STM32F30x_StdPeriph_Driver/src/stm32f30x_usart.c ****       RCC_APB1PeriphResetCmd(RCC_APB1Periph_UART5, DISABLE);
 118              		.loc 1 203 0
 119 007c FFF7FEBF 		b	RCC_APB1PeriphResetCmd
 120              	.LVL15:
 121              	.L1:
 122 0080 08BD     		pop	{r3, pc}
 123              	.L10:
 124 0082 00BF     		.align	2
 125              	.L9:
 126 0084 00380140 		.word	1073821696
 127 0088 00440040 		.word	1073759232
 128 008c 00480040 		.word	1073760256
 129 0090 004C0040 		.word	1073761280
 130 0094 00500040 		.word	1073762304
 131              		.cfi_endproc
 132              	.LFE111:
 134              		.align	1
 135              		.global	USART_Init
 136              		.thumb
 137              		.thumb_func
 139              	USART_Init:
 140              	.LFB112:
 207:/home/user/Desktop/STM32-Projekte/FH-Vertibot/src/STM32F30x_StdPeriph_Driver/src/stm32f30x_usart.c **** 
 208:/home/user/Desktop/STM32-Projekte/FH-Vertibot/src/STM32F30x_StdPeriph_Driver/src/stm32f30x_usart.c **** /**
 209:/home/user/Desktop/STM32-Projekte/FH-Vertibot/src/STM32F30x_StdPeriph_Driver/src/stm32f30x_usart.c ****   * @brief  Initializes the USARTx peripheral according to the specified
 210:/home/user/Desktop/STM32-Projekte/FH-Vertibot/src/STM32F30x_StdPeriph_Driver/src/stm32f30x_usart.c ****   *         parameters in the USART_InitStruct .
 211:/home/user/Desktop/STM32-Projekte/FH-Vertibot/src/STM32F30x_StdPeriph_Driver/src/stm32f30x_usart.c ****   * @param  USARTx: Select the USART peripheral. This parameter can be one of the 
 212:/home/user/Desktop/STM32-Projekte/FH-Vertibot/src/STM32F30x_StdPeriph_Driver/src/stm32f30x_usart.c ****   *         following values: USART1 or USART2 or USART3 or UART4 or UART5.
 213:/home/user/Desktop/STM32-Projekte/FH-Vertibot/src/STM32F30x_StdPeriph_Driver/src/stm32f30x_usart.c ****   * @param  USART_InitStruct: pointer to a USART_InitTypeDef structure
 214:/home/user/Desktop/STM32-Projekte/FH-Vertibot/src/STM32F30x_StdPeriph_Driver/src/stm32f30x_usart.c ****   *         that contains the configuration information for the specified USART peripheral.
 215:/home/user/Desktop/STM32-Projekte/FH-Vertibot/src/STM32F30x_StdPeriph_Driver/src/stm32f30x_usart.c ****   * @retval None
 216:/home/user/Desktop/STM32-Projekte/FH-Vertibot/src/STM32F30x_StdPeriph_Driver/src/stm32f30x_usart.c ****   */
 217:/home/user/Desktop/STM32-Projekte/FH-Vertibot/src/STM32F30x_StdPeriph_Driver/src/stm32f30x_usart.c **** void USART_Init(USART_TypeDef* USARTx, USART_InitTypeDef* USART_InitStruct)
 218:/home/user/Desktop/STM32-Projekte/FH-Vertibot/src/STM32F30x_StdPeriph_Driver/src/stm32f30x_usart.c **** {
 141              		.loc 1 218 0
 142              		.cfi_startproc
 143              		@ args = 0, pretend = 0, frame = 64
 144              		@ frame_needed = 0, uses_anonymous_args = 0
 145              	.LVL16:
 219:/home/user/Desktop/STM32-Projekte/FH-Vertibot/src/STM32F30x_StdPeriph_Driver/src/stm32f30x_usart.c ****   uint32_t divider = 0, apbclock = 0, tmpreg = 0;
 220:/home/user/Desktop/STM32-Projekte/FH-Vertibot/src/STM32F30x_StdPeriph_Driver/src/stm32f30x_usart.c ****   RCC_ClocksTypeDef RCC_ClocksStatus;
 221:/home/user/Desktop/STM32-Projekte/FH-Vertibot/src/STM32F30x_StdPeriph_Driver/src/stm32f30x_usart.c ****   
 222:/home/user/Desktop/STM32-Projekte/FH-Vertibot/src/STM32F30x_StdPeriph_Driver/src/stm32f30x_usart.c ****   /* Check the parameters */
 223:/home/user/Desktop/STM32-Projekte/FH-Vertibot/src/STM32F30x_StdPeriph_Driver/src/stm32f30x_usart.c ****   assert_param(IS_USART_ALL_PERIPH(USARTx));
 224:/home/user/Desktop/STM32-Projekte/FH-Vertibot/src/STM32F30x_StdPeriph_Driver/src/stm32f30x_usart.c ****   assert_param(IS_USART_BAUDRATE(USART_InitStruct->USART_BaudRate));
 225:/home/user/Desktop/STM32-Projekte/FH-Vertibot/src/STM32F30x_StdPeriph_Driver/src/stm32f30x_usart.c ****   assert_param(IS_USART_WORD_LENGTH(USART_InitStruct->USART_WordLength));
 226:/home/user/Desktop/STM32-Projekte/FH-Vertibot/src/STM32F30x_StdPeriph_Driver/src/stm32f30x_usart.c ****   assert_param(IS_USART_STOPBITS(USART_InitStruct->USART_StopBits));
 227:/home/user/Desktop/STM32-Projekte/FH-Vertibot/src/STM32F30x_StdPeriph_Driver/src/stm32f30x_usart.c ****   assert_param(IS_USART_PARITY(USART_InitStruct->USART_Parity));
 228:/home/user/Desktop/STM32-Projekte/FH-Vertibot/src/STM32F30x_StdPeriph_Driver/src/stm32f30x_usart.c ****   assert_param(IS_USART_MODE(USART_InitStruct->USART_Mode));
 229:/home/user/Desktop/STM32-Projekte/FH-Vertibot/src/STM32F30x_StdPeriph_Driver/src/stm32f30x_usart.c ****   assert_param(IS_USART_HARDWARE_FLOW_CONTROL(USART_InitStruct->USART_HardwareFlowControl));
 230:/home/user/Desktop/STM32-Projekte/FH-Vertibot/src/STM32F30x_StdPeriph_Driver/src/stm32f30x_usart.c ****   
 231:/home/user/Desktop/STM32-Projekte/FH-Vertibot/src/STM32F30x_StdPeriph_Driver/src/stm32f30x_usart.c ****   /* Disable USART */
 232:/home/user/Desktop/STM32-Projekte/FH-Vertibot/src/STM32F30x_StdPeriph_Driver/src/stm32f30x_usart.c ****   USARTx->CR1 &= (uint32_t)~((uint32_t)USART_CR1_UE);
 146              		.loc 1 232 0
 147 0098 0368     		ldr	r3, [r0]
 148 009a 23F00103 		bic	r3, r3, #1
 218:/home/user/Desktop/STM32-Projekte/FH-Vertibot/src/STM32F30x_StdPeriph_Driver/src/stm32f30x_usart.c **** {
 149              		.loc 1 218 0
 150 009e 30B5     		push	{r4, r5, lr}
 151              	.LCFI1:
 152              		.cfi_def_cfa_offset 12
 153              		.cfi_offset 4, -12
 154              		.cfi_offset 5, -8
 155              		.cfi_offset 14, -4
 156              		.loc 1 232 0
 157 00a0 0360     		str	r3, [r0]
 233:/home/user/Desktop/STM32-Projekte/FH-Vertibot/src/STM32F30x_StdPeriph_Driver/src/stm32f30x_usart.c ****   
 234:/home/user/Desktop/STM32-Projekte/FH-Vertibot/src/STM32F30x_StdPeriph_Driver/src/stm32f30x_usart.c ****   /*---------------------------- USART CR2 Configuration -----------------------*/
 235:/home/user/Desktop/STM32-Projekte/FH-Vertibot/src/STM32F30x_StdPeriph_Driver/src/stm32f30x_usart.c ****   tmpreg = USARTx->CR2;
 158              		.loc 1 235 0
 159 00a2 4268     		ldr	r2, [r0, #4]
 160              	.LVL17:
 236:/home/user/Desktop/STM32-Projekte/FH-Vertibot/src/STM32F30x_StdPeriph_Driver/src/stm32f30x_usart.c ****   /* Clear STOP[13:12] bits */
 237:/home/user/Desktop/STM32-Projekte/FH-Vertibot/src/STM32F30x_StdPeriph_Driver/src/stm32f30x_usart.c ****   tmpreg &= (uint32_t)~((uint32_t)USART_CR2_STOP);
 238:/home/user/Desktop/STM32-Projekte/FH-Vertibot/src/STM32F30x_StdPeriph_Driver/src/stm32f30x_usart.c ****   
 239:/home/user/Desktop/STM32-Projekte/FH-Vertibot/src/STM32F30x_StdPeriph_Driver/src/stm32f30x_usart.c ****   /* Configure the USART Stop Bits, Clock, CPOL, CPHA and LastBit ------------*/
 240:/home/user/Desktop/STM32-Projekte/FH-Vertibot/src/STM32F30x_StdPeriph_Driver/src/stm32f30x_usart.c ****   /* Set STOP[13:12] bits according to USART_StopBits value */
 241:/home/user/Desktop/STM32-Projekte/FH-Vertibot/src/STM32F30x_StdPeriph_Driver/src/stm32f30x_usart.c ****   tmpreg |= (uint32_t)USART_InitStruct->USART_StopBits;
 161              		.loc 1 241 0
 162 00a4 8B68     		ldr	r3, [r1, #8]
 218:/home/user/Desktop/STM32-Projekte/FH-Vertibot/src/STM32F30x_StdPeriph_Driver/src/stm32f30x_usart.c **** {
 163              		.loc 1 218 0
 164 00a6 0D46     		mov	r5, r1
 237:/home/user/Desktop/STM32-Projekte/FH-Vertibot/src/STM32F30x_StdPeriph_Driver/src/stm32f30x_usart.c ****   tmpreg &= (uint32_t)~((uint32_t)USART_CR2_STOP);
 165              		.loc 1 237 0
 166 00a8 22F44052 		bic	r2, r2, #12288
 167              	.LVL18:
 168              		.loc 1 241 0
 169 00ac 1343     		orrs	r3, r3, r2
 170              	.LVL19:
 242:/home/user/Desktop/STM32-Projekte/FH-Vertibot/src/STM32F30x_StdPeriph_Driver/src/stm32f30x_usart.c ****   
 243:/home/user/Desktop/STM32-Projekte/FH-Vertibot/src/STM32F30x_StdPeriph_Driver/src/stm32f30x_usart.c ****   /* Write to USART CR2 */
 244:/home/user/Desktop/STM32-Projekte/FH-Vertibot/src/STM32F30x_StdPeriph_Driver/src/stm32f30x_usart.c ****   USARTx->CR2 = tmpreg;
 171              		.loc 1 244 0
 172 00ae 4360     		str	r3, [r0, #4]
 245:/home/user/Desktop/STM32-Projekte/FH-Vertibot/src/STM32F30x_StdPeriph_Driver/src/stm32f30x_usart.c ****   
 246:/home/user/Desktop/STM32-Projekte/FH-Vertibot/src/STM32F30x_StdPeriph_Driver/src/stm32f30x_usart.c ****   /*---------------------------- USART CR1 Configuration -----------------------*/
 247:/home/user/Desktop/STM32-Projekte/FH-Vertibot/src/STM32F30x_StdPeriph_Driver/src/stm32f30x_usart.c ****   tmpreg = USARTx->CR1;
 248:/home/user/Desktop/STM32-Projekte/FH-Vertibot/src/STM32F30x_StdPeriph_Driver/src/stm32f30x_usart.c ****   /* Clear M, PCE, PS, TE and RE bits */
 249:/home/user/Desktop/STM32-Projekte/FH-Vertibot/src/STM32F30x_StdPeriph_Driver/src/stm32f30x_usart.c ****   tmpreg &= (uint32_t)~((uint32_t)CR1_CLEAR_MASK);
 250:/home/user/Desktop/STM32-Projekte/FH-Vertibot/src/STM32F30x_StdPeriph_Driver/src/stm32f30x_usart.c ****   
 251:/home/user/Desktop/STM32-Projekte/FH-Vertibot/src/STM32F30x_StdPeriph_Driver/src/stm32f30x_usart.c ****   /* Configure the USART Word Length, Parity and mode ----------------------- */
 252:/home/user/Desktop/STM32-Projekte/FH-Vertibot/src/STM32F30x_StdPeriph_Driver/src/stm32f30x_usart.c ****   /* Set the M bits according to USART_WordLength value */
 253:/home/user/Desktop/STM32-Projekte/FH-Vertibot/src/STM32F30x_StdPeriph_Driver/src/stm32f30x_usart.c ****   /* Set PCE and PS bits according to USART_Parity value */
 254:/home/user/Desktop/STM32-Projekte/FH-Vertibot/src/STM32F30x_StdPeriph_Driver/src/stm32f30x_usart.c ****   /* Set TE and RE bits according to USART_Mode value */
 255:/home/user/Desktop/STM32-Projekte/FH-Vertibot/src/STM32F30x_StdPeriph_Driver/src/stm32f30x_usart.c ****   tmpreg |= (uint32_t)USART_InitStruct->USART_WordLength | USART_InitStruct->USART_Parity |
 173              		.loc 1 255 0
 174 00b0 6A68     		ldr	r2, [r5, #4]
 175 00b2 C968     		ldr	r1, [r1, #12]
 176              	.LVL20:
 247:/home/user/Desktop/STM32-Projekte/FH-Vertibot/src/STM32F30x_StdPeriph_Driver/src/stm32f30x_usart.c ****   tmpreg = USARTx->CR1;
 177              		.loc 1 247 0
 178 00b4 0368     		ldr	r3, [r0]
 179              	.LVL21:
 180              		.loc 1 255 0
 181 00b6 1143     		orrs	r1, r1, r2
 182 00b8 2A69     		ldr	r2, [r5, #16]
 249:/home/user/Desktop/STM32-Projekte/FH-Vertibot/src/STM32F30x_StdPeriph_Driver/src/stm32f30x_usart.c ****   tmpreg &= (uint32_t)~((uint32_t)CR1_CLEAR_MASK);
 183              		.loc 1 249 0
 184 00ba 23F4B053 		bic	r3, r3, #5632
 185              	.LVL22:
 186              		.loc 1 255 0
 187 00be 0A43     		orrs	r2, r2, r1
 249:/home/user/Desktop/STM32-Projekte/FH-Vertibot/src/STM32F30x_StdPeriph_Driver/src/stm32f30x_usart.c ****   tmpreg &= (uint32_t)~((uint32_t)CR1_CLEAR_MASK);
 188              		.loc 1 249 0
 189 00c0 23F00C03 		bic	r3, r3, #12
 190              	.LVL23:
 191              		.loc 1 255 0
 192 00c4 1343     		orrs	r3, r3, r2
 193              	.LVL24:
 256:/home/user/Desktop/STM32-Projekte/FH-Vertibot/src/STM32F30x_StdPeriph_Driver/src/stm32f30x_usart.c ****     USART_InitStruct->USART_Mode;
 257:/home/user/Desktop/STM32-Projekte/FH-Vertibot/src/STM32F30x_StdPeriph_Driver/src/stm32f30x_usart.c ****   
 258:/home/user/Desktop/STM32-Projekte/FH-Vertibot/src/STM32F30x_StdPeriph_Driver/src/stm32f30x_usart.c ****   /* Write to USART CR1 */
 259:/home/user/Desktop/STM32-Projekte/FH-Vertibot/src/STM32F30x_StdPeriph_Driver/src/stm32f30x_usart.c ****   USARTx->CR1 = tmpreg;
 194              		.loc 1 259 0
 195 00c6 0360     		str	r3, [r0]
 260:/home/user/Desktop/STM32-Projekte/FH-Vertibot/src/STM32F30x_StdPeriph_Driver/src/stm32f30x_usart.c ****   
 261:/home/user/Desktop/STM32-Projekte/FH-Vertibot/src/STM32F30x_StdPeriph_Driver/src/stm32f30x_usart.c ****   /*---------------------------- USART CR3 Configuration -----------------------*/
 262:/home/user/Desktop/STM32-Projekte/FH-Vertibot/src/STM32F30x_StdPeriph_Driver/src/stm32f30x_usart.c ****   tmpreg = USARTx->CR3;
 196              		.loc 1 262 0
 197 00c8 8268     		ldr	r2, [r0, #8]
 198              	.LVL25:
 263:/home/user/Desktop/STM32-Projekte/FH-Vertibot/src/STM32F30x_StdPeriph_Driver/src/stm32f30x_usart.c ****   /* Clear CTSE and RTSE bits */
 264:/home/user/Desktop/STM32-Projekte/FH-Vertibot/src/STM32F30x_StdPeriph_Driver/src/stm32f30x_usart.c ****   tmpreg &= (uint32_t)~((uint32_t)CR3_CLEAR_MASK);
 265:/home/user/Desktop/STM32-Projekte/FH-Vertibot/src/STM32F30x_StdPeriph_Driver/src/stm32f30x_usart.c ****   
 266:/home/user/Desktop/STM32-Projekte/FH-Vertibot/src/STM32F30x_StdPeriph_Driver/src/stm32f30x_usart.c ****   /* Configure the USART HFC -------------------------------------------------*/
 267:/home/user/Desktop/STM32-Projekte/FH-Vertibot/src/STM32F30x_StdPeriph_Driver/src/stm32f30x_usart.c ****   /* Set CTSE and RTSE bits according to USART_HardwareFlowControl value */
 268:/home/user/Desktop/STM32-Projekte/FH-Vertibot/src/STM32F30x_StdPeriph_Driver/src/stm32f30x_usart.c ****   tmpreg |= USART_InitStruct->USART_HardwareFlowControl;
 199              		.loc 1 268 0
 200 00ca 6B69     		ldr	r3, [r5, #20]
 264:/home/user/Desktop/STM32-Projekte/FH-Vertibot/src/STM32F30x_StdPeriph_Driver/src/stm32f30x_usart.c ****   tmpreg &= (uint32_t)~((uint32_t)CR3_CLEAR_MASK);
 201              		.loc 1 264 0
 202 00cc 22F44072 		bic	r2, r2, #768
 203              	.LVL26:
 204              		.loc 1 268 0
 205 00d0 1343     		orrs	r3, r3, r2
 206              	.LVL27:
 218:/home/user/Desktop/STM32-Projekte/FH-Vertibot/src/STM32F30x_StdPeriph_Driver/src/stm32f30x_usart.c **** {
 207              		.loc 1 218 0
 208 00d2 91B0     		sub	sp, sp, #68
 209              	.LCFI2:
 210              		.cfi_def_cfa_offset 80
 269:/home/user/Desktop/STM32-Projekte/FH-Vertibot/src/STM32F30x_StdPeriph_Driver/src/stm32f30x_usart.c ****   
 270:/home/user/Desktop/STM32-Projekte/FH-Vertibot/src/STM32F30x_StdPeriph_Driver/src/stm32f30x_usart.c ****   /* Write to USART CR3 */
 271:/home/user/Desktop/STM32-Projekte/FH-Vertibot/src/STM32F30x_StdPeriph_Driver/src/stm32f30x_usart.c ****   USARTx->CR3 = tmpreg;
 211              		.loc 1 271 0
 212 00d4 8360     		str	r3, [r0, #8]
 218:/home/user/Desktop/STM32-Projekte/FH-Vertibot/src/STM32F30x_StdPeriph_Driver/src/stm32f30x_usart.c **** {
 213              		.loc 1 218 0
 214 00d6 0446     		mov	r4, r0
 272:/home/user/Desktop/STM32-Projekte/FH-Vertibot/src/STM32F30x_StdPeriph_Driver/src/stm32f30x_usart.c ****   
 273:/home/user/Desktop/STM32-Projekte/FH-Vertibot/src/STM32F30x_StdPeriph_Driver/src/stm32f30x_usart.c ****   /*---------------------------- USART BRR Configuration -----------------------*/
 274:/home/user/Desktop/STM32-Projekte/FH-Vertibot/src/STM32F30x_StdPeriph_Driver/src/stm32f30x_usart.c ****   /* Configure the USART Baud Rate -------------------------------------------*/
 275:/home/user/Desktop/STM32-Projekte/FH-Vertibot/src/STM32F30x_StdPeriph_Driver/src/stm32f30x_usart.c ****   RCC_GetClocksFreq(&RCC_ClocksStatus);
 215              		.loc 1 275 0
 216 00d8 01A8     		add	r0, sp, #4
 217              	.LVL28:
 218 00da FFF7FEFF 		bl	RCC_GetClocksFreq
 219              	.LVL29:
 276:/home/user/Desktop/STM32-Projekte/FH-Vertibot/src/STM32F30x_StdPeriph_Driver/src/stm32f30x_usart.c ****   
 277:/home/user/Desktop/STM32-Projekte/FH-Vertibot/src/STM32F30x_StdPeriph_Driver/src/stm32f30x_usart.c ****   if (USARTx == USART1)
 220              		.loc 1 277 0
 221 00de 184B     		ldr	r3, .L24
 222 00e0 9C42     		cmp	r4, r3
 223 00e2 01D1     		bne	.L12
 278:/home/user/Desktop/STM32-Projekte/FH-Vertibot/src/STM32F30x_StdPeriph_Driver/src/stm32f30x_usart.c ****   {
 279:/home/user/Desktop/STM32-Projekte/FH-Vertibot/src/STM32F30x_StdPeriph_Driver/src/stm32f30x_usart.c ****     apbclock = RCC_ClocksStatus.USART1CLK_Frequency;
 224              		.loc 1 279 0
 225 00e4 0B9A     		ldr	r2, [sp, #44]
 226              	.LVL30:
 227 00e6 0EE0     		b	.L13
 228              	.LVL31:
 229              	.L12:
 280:/home/user/Desktop/STM32-Projekte/FH-Vertibot/src/STM32F30x_StdPeriph_Driver/src/stm32f30x_usart.c ****   }
 281:/home/user/Desktop/STM32-Projekte/FH-Vertibot/src/STM32F30x_StdPeriph_Driver/src/stm32f30x_usart.c ****   else if (USARTx == USART2)
 230              		.loc 1 281 0
 231 00e8 164B     		ldr	r3, .L24+4
 232 00ea 9C42     		cmp	r4, r3
 233 00ec 01D1     		bne	.L14
 282:/home/user/Desktop/STM32-Projekte/FH-Vertibot/src/STM32F30x_StdPeriph_Driver/src/stm32f30x_usart.c ****   {
 283:/home/user/Desktop/STM32-Projekte/FH-Vertibot/src/STM32F30x_StdPeriph_Driver/src/stm32f30x_usart.c ****     apbclock = RCC_ClocksStatus.USART2CLK_Frequency;
 234              		.loc 1 283 0
 235 00ee 0C9A     		ldr	r2, [sp, #48]
 236              	.LVL32:
 237 00f0 09E0     		b	.L13
 238              	.LVL33:
 239              	.L14:
 284:/home/user/Desktop/STM32-Projekte/FH-Vertibot/src/STM32F30x_StdPeriph_Driver/src/stm32f30x_usart.c ****   }
 285:/home/user/Desktop/STM32-Projekte/FH-Vertibot/src/STM32F30x_StdPeriph_Driver/src/stm32f30x_usart.c ****   else if (USARTx == USART3)
 240              		.loc 1 285 0
 241 00f2 154B     		ldr	r3, .L24+8
 242 00f4 9C42     		cmp	r4, r3
 243 00f6 01D1     		bne	.L15
 286:/home/user/Desktop/STM32-Projekte/FH-Vertibot/src/STM32F30x_StdPeriph_Driver/src/stm32f30x_usart.c ****   {
 287:/home/user/Desktop/STM32-Projekte/FH-Vertibot/src/STM32F30x_StdPeriph_Driver/src/stm32f30x_usart.c ****     apbclock = RCC_ClocksStatus.USART3CLK_Frequency;
 244              		.loc 1 287 0
 245 00f8 0D9A     		ldr	r2, [sp, #52]
 246              	.LVL34:
 247 00fa 04E0     		b	.L13
 248              	.LVL35:
 249              	.L15:
 288:/home/user/Desktop/STM32-Projekte/FH-Vertibot/src/STM32F30x_StdPeriph_Driver/src/stm32f30x_usart.c ****   }
 289:/home/user/Desktop/STM32-Projekte/FH-Vertibot/src/STM32F30x_StdPeriph_Driver/src/stm32f30x_usart.c ****   else if (USARTx == UART4)
 250              		.loc 1 289 0
 251 00fc 134B     		ldr	r3, .L24+12
 252 00fe 9C42     		cmp	r4, r3
 290:/home/user/Desktop/STM32-Projekte/FH-Vertibot/src/STM32F30x_StdPeriph_Driver/src/stm32f30x_usart.c ****   {
 291:/home/user/Desktop/STM32-Projekte/FH-Vertibot/src/STM32F30x_StdPeriph_Driver/src/stm32f30x_usart.c ****     apbclock = RCC_ClocksStatus.UART4CLK_Frequency;
 253              		.loc 1 291 0
 254 0100 0CBF     		ite	eq
 255 0102 0E9A     		ldreq	r2, [sp, #56]
 256              	.LVL36:
 292:/home/user/Desktop/STM32-Projekte/FH-Vertibot/src/STM32F30x_StdPeriph_Driver/src/stm32f30x_usart.c ****   }
 293:/home/user/Desktop/STM32-Projekte/FH-Vertibot/src/STM32F30x_StdPeriph_Driver/src/stm32f30x_usart.c ****   else 
 294:/home/user/Desktop/STM32-Projekte/FH-Vertibot/src/STM32F30x_StdPeriph_Driver/src/stm32f30x_usart.c ****   {
 295:/home/user/Desktop/STM32-Projekte/FH-Vertibot/src/STM32F30x_StdPeriph_Driver/src/stm32f30x_usart.c ****     apbclock = RCC_ClocksStatus.UART5CLK_Frequency;
 257              		.loc 1 295 0
 258 0104 0F9A     		ldrne	r2, [sp, #60]
 259              	.LVL37:
 260              	.L13:
 296:/home/user/Desktop/STM32-Projekte/FH-Vertibot/src/STM32F30x_StdPeriph_Driver/src/stm32f30x_usart.c ****   }  
 297:/home/user/Desktop/STM32-Projekte/FH-Vertibot/src/STM32F30x_StdPeriph_Driver/src/stm32f30x_usart.c ****   
 298:/home/user/Desktop/STM32-Projekte/FH-Vertibot/src/STM32F30x_StdPeriph_Driver/src/stm32f30x_usart.c ****   /* Determine the integer part */
 299:/home/user/Desktop/STM32-Projekte/FH-Vertibot/src/STM32F30x_StdPeriph_Driver/src/stm32f30x_usart.c ****   if ((USARTx->CR1 & USART_CR1_OVER8) != 0)
 261              		.loc 1 299 0
 262 0106 2368     		ldr	r3, [r4]
 263 0108 2968     		ldr	r1, [r5]
 264 010a 13F4004F 		tst	r3, #32768
 300:/home/user/Desktop/STM32-Projekte/FH-Vertibot/src/STM32F30x_StdPeriph_Driver/src/stm32f30x_usart.c ****   {
 301:/home/user/Desktop/STM32-Projekte/FH-Vertibot/src/STM32F30x_StdPeriph_Driver/src/stm32f30x_usart.c ****     /* (divider * 10) computing in case Oversampling mode is 8 Samples */
 302:/home/user/Desktop/STM32-Projekte/FH-Vertibot/src/STM32F30x_StdPeriph_Driver/src/stm32f30x_usart.c ****     divider = (uint32_t)((2 * apbclock) / (USART_InitStruct->USART_BaudRate));
 265              		.loc 1 302 0
 266 010e 18BF     		it	ne
 267 0110 5200     		lslne	r2, r2, #1
 268              	.LVL38:
 303:/home/user/Desktop/STM32-Projekte/FH-Vertibot/src/STM32F30x_StdPeriph_Driver/src/stm32f30x_usart.c ****     tmpreg  = (uint32_t)((2 * apbclock) % (USART_InitStruct->USART_BaudRate));
 304:/home/user/Desktop/STM32-Projekte/FH-Vertibot/src/STM32F30x_StdPeriph_Driver/src/stm32f30x_usart.c ****   }
 305:/home/user/Desktop/STM32-Projekte/FH-Vertibot/src/STM32F30x_StdPeriph_Driver/src/stm32f30x_usart.c ****   else /* if ((USARTx->CR1 & CR1_OVER8_Set) == 0) */
 306:/home/user/Desktop/STM32-Projekte/FH-Vertibot/src/STM32F30x_StdPeriph_Driver/src/stm32f30x_usart.c ****   {
 307:/home/user/Desktop/STM32-Projekte/FH-Vertibot/src/STM32F30x_StdPeriph_Driver/src/stm32f30x_usart.c ****     /* (divider * 10) computing in case Oversampling mode is 16 Samples */
 308:/home/user/Desktop/STM32-Projekte/FH-Vertibot/src/STM32F30x_StdPeriph_Driver/src/stm32f30x_usart.c ****     divider = (uint32_t)((apbclock) / (USART_InitStruct->USART_BaudRate));
 269              		.loc 1 308 0
 270 0112 B2FBF1F3 		udiv	r3, r2, r1
 271              	.LVL39:
 309:/home/user/Desktop/STM32-Projekte/FH-Vertibot/src/STM32F30x_StdPeriph_Driver/src/stm32f30x_usart.c ****     tmpreg  = (uint32_t)((apbclock) % (USART_InitStruct->USART_BaudRate));
 272              		.loc 1 309 0
 273 0116 01FB1322 		mls	r2, r1, r3, r2
 274              	.LVL40:
 310:/home/user/Desktop/STM32-Projekte/FH-Vertibot/src/STM32F30x_StdPeriph_Driver/src/stm32f30x_usart.c ****   }
 311:/home/user/Desktop/STM32-Projekte/FH-Vertibot/src/STM32F30x_StdPeriph_Driver/src/stm32f30x_usart.c ****   
 312:/home/user/Desktop/STM32-Projekte/FH-Vertibot/src/STM32F30x_StdPeriph_Driver/src/stm32f30x_usart.c ****   /* round the divider : if fractional part i greater than 0.5 increment divider */
 313:/home/user/Desktop/STM32-Projekte/FH-Vertibot/src/STM32F30x_StdPeriph_Driver/src/stm32f30x_usart.c ****   if (tmpreg >=  (USART_InitStruct->USART_BaudRate) / 2)
 275              		.loc 1 313 0
 276 011a B2EB510F 		cmp	r2, r1, lsr #1
 314:/home/user/Desktop/STM32-Projekte/FH-Vertibot/src/STM32F30x_StdPeriph_Driver/src/stm32f30x_usart.c ****   {
 315:/home/user/Desktop/STM32-Projekte/FH-Vertibot/src/STM32F30x_StdPeriph_Driver/src/stm32f30x_usart.c ****     divider++;
 316:/home/user/Desktop/STM32-Projekte/FH-Vertibot/src/STM32F30x_StdPeriph_Driver/src/stm32f30x_usart.c ****   } 
 317:/home/user/Desktop/STM32-Projekte/FH-Vertibot/src/STM32F30x_StdPeriph_Driver/src/stm32f30x_usart.c ****   
 318:/home/user/Desktop/STM32-Projekte/FH-Vertibot/src/STM32F30x_StdPeriph_Driver/src/stm32f30x_usart.c ****   /* Implement the divider in case Oversampling mode is 8 Samples */
 319:/home/user/Desktop/STM32-Projekte/FH-Vertibot/src/STM32F30x_StdPeriph_Driver/src/stm32f30x_usart.c ****   if ((USARTx->CR1 & USART_CR1_OVER8) != 0)
 277              		.loc 1 319 0
 278 011e 2268     		ldr	r2, [r4]
 279              	.LVL41:
 315:/home/user/Desktop/STM32-Projekte/FH-Vertibot/src/STM32F30x_StdPeriph_Driver/src/stm32f30x_usart.c ****     divider++;
 280              		.loc 1 315 0
 281 0120 28BF     		it	cs
 282 0122 0133     		addcs	r3, r3, #1
 283              	.LVL42:
 284              		.loc 1 319 0
 285 0124 1204     		lsls	r2, r2, #16
 286 0126 06D5     		bpl	.L20
 320:/home/user/Desktop/STM32-Projekte/FH-Vertibot/src/STM32F30x_StdPeriph_Driver/src/stm32f30x_usart.c ****   {
 321:/home/user/Desktop/STM32-Projekte/FH-Vertibot/src/STM32F30x_StdPeriph_Driver/src/stm32f30x_usart.c ****     /* get the LSB of divider and shift it to the right by 1 bit */
 322:/home/user/Desktop/STM32-Projekte/FH-Vertibot/src/STM32F30x_StdPeriph_Driver/src/stm32f30x_usart.c ****     tmpreg = (divider & (uint16_t)0x000F) >> 1;
 323:/home/user/Desktop/STM32-Projekte/FH-Vertibot/src/STM32F30x_StdPeriph_Driver/src/stm32f30x_usart.c ****     
 324:/home/user/Desktop/STM32-Projekte/FH-Vertibot/src/STM32F30x_StdPeriph_Driver/src/stm32f30x_usart.c ****     /* update the divider value */
 325:/home/user/Desktop/STM32-Projekte/FH-Vertibot/src/STM32F30x_StdPeriph_Driver/src/stm32f30x_usart.c ****     divider = (divider & (uint16_t)0xFFF0) | tmpreg;
 287              		.loc 1 325 0
 288 0128 4FF6F072 		movw	r2, #65520
 322:/home/user/Desktop/STM32-Projekte/FH-Vertibot/src/STM32F30x_StdPeriph_Driver/src/stm32f30x_usart.c ****     tmpreg = (divider & (uint16_t)0x000F) >> 1;
 289              		.loc 1 322 0
 290 012c C3F34201 		ubfx	r1, r3, #1, #3
 291              	.LVL43:
 292              		.loc 1 325 0
 293 0130 1A40     		ands	r2, r2, r3
 294 0132 41EA0203 		orr	r3, r1, r2
 295              	.LVL44:
 296              	.L20:
 326:/home/user/Desktop/STM32-Projekte/FH-Vertibot/src/STM32F30x_StdPeriph_Driver/src/stm32f30x_usart.c ****   }
 327:/home/user/Desktop/STM32-Projekte/FH-Vertibot/src/STM32F30x_StdPeriph_Driver/src/stm32f30x_usart.c ****   
 328:/home/user/Desktop/STM32-Projekte/FH-Vertibot/src/STM32F30x_StdPeriph_Driver/src/stm32f30x_usart.c ****   /* Write to USART BRR */
 329:/home/user/Desktop/STM32-Projekte/FH-Vertibot/src/STM32F30x_StdPeriph_Driver/src/stm32f30x_usart.c ****   USARTx->BRR = (uint16_t)divider;
 297              		.loc 1 329 0
 298 0136 9BB2     		uxth	r3, r3
 299              	.LVL45:
 300 0138 A381     		strh	r3, [r4, #12]	@ movhi
 330:/home/user/Desktop/STM32-Projekte/FH-Vertibot/src/STM32F30x_StdPeriph_Driver/src/stm32f30x_usart.c **** }
 301              		.loc 1 330 0
 302 013a 11B0     		add	sp, sp, #68
 303              		@ sp needed
 304 013c 30BD     		pop	{r4, r5, pc}
 305              	.LVL46:
 306              	.L25:
 307 013e 00BF     		.align	2
 308              	.L24:
 309 0140 00380140 		.word	1073821696
 310 0144 00440040 		.word	1073759232
 311 0148 00480040 		.word	1073760256
 312 014c 004C0040 		.word	1073761280
 313              		.cfi_endproc
 314              	.LFE112:
 316              		.align	1
 317              		.global	USART_StructInit
 318              		.thumb
 319              		.thumb_func
 321              	USART_StructInit:
 322              	.LFB113:
 331:/home/user/Desktop/STM32-Projekte/FH-Vertibot/src/STM32F30x_StdPeriph_Driver/src/stm32f30x_usart.c **** 
 332:/home/user/Desktop/STM32-Projekte/FH-Vertibot/src/STM32F30x_StdPeriph_Driver/src/stm32f30x_usart.c **** /**
 333:/home/user/Desktop/STM32-Projekte/FH-Vertibot/src/STM32F30x_StdPeriph_Driver/src/stm32f30x_usart.c ****   * @brief  Fills each USART_InitStruct member with its default value.
 334:/home/user/Desktop/STM32-Projekte/FH-Vertibot/src/STM32F30x_StdPeriph_Driver/src/stm32f30x_usart.c ****   * @param  USART_InitStruct: pointer to a USART_InitTypeDef structure
 335:/home/user/Desktop/STM32-Projekte/FH-Vertibot/src/STM32F30x_StdPeriph_Driver/src/stm32f30x_usart.c ****   *         which will be initialized.
 336:/home/user/Desktop/STM32-Projekte/FH-Vertibot/src/STM32F30x_StdPeriph_Driver/src/stm32f30x_usart.c ****   * @retval None
 337:/home/user/Desktop/STM32-Projekte/FH-Vertibot/src/STM32F30x_StdPeriph_Driver/src/stm32f30x_usart.c ****   */
 338:/home/user/Desktop/STM32-Projekte/FH-Vertibot/src/STM32F30x_StdPeriph_Driver/src/stm32f30x_usart.c **** void USART_StructInit(USART_InitTypeDef* USART_InitStruct)
 339:/home/user/Desktop/STM32-Projekte/FH-Vertibot/src/STM32F30x_StdPeriph_Driver/src/stm32f30x_usart.c **** {
 323              		.loc 1 339 0
 324              		.cfi_startproc
 325              		@ args = 0, pretend = 0, frame = 0
 326              		@ frame_needed = 0, uses_anonymous_args = 0
 327              		@ link register save eliminated.
 328              	.LVL47:
 340:/home/user/Desktop/STM32-Projekte/FH-Vertibot/src/STM32F30x_StdPeriph_Driver/src/stm32f30x_usart.c ****   /* USART_InitStruct members default value */
 341:/home/user/Desktop/STM32-Projekte/FH-Vertibot/src/STM32F30x_StdPeriph_Driver/src/stm32f30x_usart.c ****   USART_InitStruct->USART_BaudRate = 9600;
 329              		.loc 1 341 0
 330 0150 4FF41653 		mov	r3, #9600
 331 0154 0360     		str	r3, [r0]
 342:/home/user/Desktop/STM32-Projekte/FH-Vertibot/src/STM32F30x_StdPeriph_Driver/src/stm32f30x_usart.c ****   USART_InitStruct->USART_WordLength = USART_WordLength_8b;
 343:/home/user/Desktop/STM32-Projekte/FH-Vertibot/src/STM32F30x_StdPeriph_Driver/src/stm32f30x_usart.c ****   USART_InitStruct->USART_StopBits = USART_StopBits_1;
 344:/home/user/Desktop/STM32-Projekte/FH-Vertibot/src/STM32F30x_StdPeriph_Driver/src/stm32f30x_usart.c ****   USART_InitStruct->USART_Parity = USART_Parity_No ;
 345:/home/user/Desktop/STM32-Projekte/FH-Vertibot/src/STM32F30x_StdPeriph_Driver/src/stm32f30x_usart.c ****   USART_InitStruct->USART_Mode = USART_Mode_Rx | USART_Mode_Tx;
 332              		.loc 1 345 0
 333 0156 0C22     		movs	r2, #12
 342:/home/user/Desktop/STM32-Projekte/FH-Vertibot/src/STM32F30x_StdPeriph_Driver/src/stm32f30x_usart.c ****   USART_InitStruct->USART_WordLength = USART_WordLength_8b;
 334              		.loc 1 342 0
 335 0158 0023     		movs	r3, #0
 336 015a 4360     		str	r3, [r0, #4]
 343:/home/user/Desktop/STM32-Projekte/FH-Vertibot/src/STM32F30x_StdPeriph_Driver/src/stm32f30x_usart.c ****   USART_InitStruct->USART_StopBits = USART_StopBits_1;
 337              		.loc 1 343 0
 338 015c 8360     		str	r3, [r0, #8]
 344:/home/user/Desktop/STM32-Projekte/FH-Vertibot/src/STM32F30x_StdPeriph_Driver/src/stm32f30x_usart.c ****   USART_InitStruct->USART_Parity = USART_Parity_No ;
 339              		.loc 1 344 0
 340 015e C360     		str	r3, [r0, #12]
 341              		.loc 1 345 0
 342 0160 0261     		str	r2, [r0, #16]
 346:/home/user/Desktop/STM32-Projekte/FH-Vertibot/src/STM32F30x_StdPeriph_Driver/src/stm32f30x_usart.c ****   USART_InitStruct->USART_HardwareFlowControl = USART_HardwareFlowControl_None;
 343              		.loc 1 346 0
 344 0162 4361     		str	r3, [r0, #20]
 345 0164 7047     		bx	lr
 346              		.cfi_endproc
 347              	.LFE113:
 349              		.align	1
 350              		.global	USART_ClockInit
 351              		.thumb
 352              		.thumb_func
 354              	USART_ClockInit:
 355              	.LFB114:
 347:/home/user/Desktop/STM32-Projekte/FH-Vertibot/src/STM32F30x_StdPeriph_Driver/src/stm32f30x_usart.c **** }
 348:/home/user/Desktop/STM32-Projekte/FH-Vertibot/src/STM32F30x_StdPeriph_Driver/src/stm32f30x_usart.c **** 
 349:/home/user/Desktop/STM32-Projekte/FH-Vertibot/src/STM32F30x_StdPeriph_Driver/src/stm32f30x_usart.c **** /**
 350:/home/user/Desktop/STM32-Projekte/FH-Vertibot/src/STM32F30x_StdPeriph_Driver/src/stm32f30x_usart.c ****   * @brief  Initializes the USARTx peripheral Clock according to the
 351:/home/user/Desktop/STM32-Projekte/FH-Vertibot/src/STM32F30x_StdPeriph_Driver/src/stm32f30x_usart.c ****   *         specified parameters in the USART_ClockInitStruct.
 352:/home/user/Desktop/STM32-Projekte/FH-Vertibot/src/STM32F30x_StdPeriph_Driver/src/stm32f30x_usart.c ****   * @param  USARTx: Select the USART peripheral. This parameter can be one of the
 353:/home/user/Desktop/STM32-Projekte/FH-Vertibot/src/STM32F30x_StdPeriph_Driver/src/stm32f30x_usart.c ****   *         following values: USART1 or USART2 or USART3.
 354:/home/user/Desktop/STM32-Projekte/FH-Vertibot/src/STM32F30x_StdPeriph_Driver/src/stm32f30x_usart.c ****   * @param  USART_ClockInitStruct: pointer to a USART_ClockInitTypeDef
 355:/home/user/Desktop/STM32-Projekte/FH-Vertibot/src/STM32F30x_StdPeriph_Driver/src/stm32f30x_usart.c ****   *         structure that contains the configuration information for the specified
 356:/home/user/Desktop/STM32-Projekte/FH-Vertibot/src/STM32F30x_StdPeriph_Driver/src/stm32f30x_usart.c ****   *         USART peripheral.
 357:/home/user/Desktop/STM32-Projekte/FH-Vertibot/src/STM32F30x_StdPeriph_Driver/src/stm32f30x_usart.c ****   * @retval None
 358:/home/user/Desktop/STM32-Projekte/FH-Vertibot/src/STM32F30x_StdPeriph_Driver/src/stm32f30x_usart.c ****   */
 359:/home/user/Desktop/STM32-Projekte/FH-Vertibot/src/STM32F30x_StdPeriph_Driver/src/stm32f30x_usart.c **** void USART_ClockInit(USART_TypeDef* USARTx, USART_ClockInitTypeDef* USART_ClockInitStruct)
 360:/home/user/Desktop/STM32-Projekte/FH-Vertibot/src/STM32F30x_StdPeriph_Driver/src/stm32f30x_usart.c **** {
 356              		.loc 1 360 0
 357              		.cfi_startproc
 358              		@ args = 0, pretend = 0, frame = 0
 359              		@ frame_needed = 0, uses_anonymous_args = 0
 360              	.LVL48:
 361:/home/user/Desktop/STM32-Projekte/FH-Vertibot/src/STM32F30x_StdPeriph_Driver/src/stm32f30x_usart.c ****   uint32_t tmpreg = 0;
 362:/home/user/Desktop/STM32-Projekte/FH-Vertibot/src/STM32F30x_StdPeriph_Driver/src/stm32f30x_usart.c ****   /* Check the parameters */
 363:/home/user/Desktop/STM32-Projekte/FH-Vertibot/src/STM32F30x_StdPeriph_Driver/src/stm32f30x_usart.c ****   assert_param(IS_USART_123_PERIPH(USARTx));
 364:/home/user/Desktop/STM32-Projekte/FH-Vertibot/src/STM32F30x_StdPeriph_Driver/src/stm32f30x_usart.c ****   assert_param(IS_USART_CLOCK(USART_ClockInitStruct->USART_Clock));
 365:/home/user/Desktop/STM32-Projekte/FH-Vertibot/src/STM32F30x_StdPeriph_Driver/src/stm32f30x_usart.c ****   assert_param(IS_USART_CPOL(USART_ClockInitStruct->USART_CPOL));
 366:/home/user/Desktop/STM32-Projekte/FH-Vertibot/src/STM32F30x_StdPeriph_Driver/src/stm32f30x_usart.c ****   assert_param(IS_USART_CPHA(USART_ClockInitStruct->USART_CPHA));
 367:/home/user/Desktop/STM32-Projekte/FH-Vertibot/src/STM32F30x_StdPeriph_Driver/src/stm32f30x_usart.c ****   assert_param(IS_USART_LASTBIT(USART_ClockInitStruct->USART_LastBit));
 368:/home/user/Desktop/STM32-Projekte/FH-Vertibot/src/STM32F30x_StdPeriph_Driver/src/stm32f30x_usart.c **** /*---------------------------- USART CR2 Configuration -----------------------*/
 369:/home/user/Desktop/STM32-Projekte/FH-Vertibot/src/STM32F30x_StdPeriph_Driver/src/stm32f30x_usart.c ****   tmpreg = USARTx->CR2;
 370:/home/user/Desktop/STM32-Projekte/FH-Vertibot/src/STM32F30x_StdPeriph_Driver/src/stm32f30x_usart.c ****   /* Clear CLKEN, CPOL, CPHA, LBCL and SSM bits */
 371:/home/user/Desktop/STM32-Projekte/FH-Vertibot/src/STM32F30x_StdPeriph_Driver/src/stm32f30x_usart.c ****   tmpreg &= (uint32_t)~((uint32_t)CR2_CLOCK_CLEAR_MASK);
 372:/home/user/Desktop/STM32-Projekte/FH-Vertibot/src/STM32F30x_StdPeriph_Driver/src/stm32f30x_usart.c ****   /* Configure the USART Clock, CPOL, CPHA, LastBit and SSM ------------*/
 373:/home/user/Desktop/STM32-Projekte/FH-Vertibot/src/STM32F30x_StdPeriph_Driver/src/stm32f30x_usart.c ****   /* Set CLKEN bit according to USART_Clock value */
 374:/home/user/Desktop/STM32-Projekte/FH-Vertibot/src/STM32F30x_StdPeriph_Driver/src/stm32f30x_usart.c ****   /* Set CPOL bit according to USART_CPOL value */
 375:/home/user/Desktop/STM32-Projekte/FH-Vertibot/src/STM32F30x_StdPeriph_Driver/src/stm32f30x_usart.c ****   /* Set CPHA bit according to USART_CPHA value */
 376:/home/user/Desktop/STM32-Projekte/FH-Vertibot/src/STM32F30x_StdPeriph_Driver/src/stm32f30x_usart.c ****   /* Set LBCL bit according to USART_LastBit value */
 377:/home/user/Desktop/STM32-Projekte/FH-Vertibot/src/STM32F30x_StdPeriph_Driver/src/stm32f30x_usart.c ****   tmpreg |= (uint32_t)(USART_ClockInitStruct->USART_Clock | USART_ClockInitStruct->USART_CPOL | 
 361              		.loc 1 377 0
 362 0166 91E80C00 		ldmia	r1, {r2, r3}
 360:/home/user/Desktop/STM32-Projekte/FH-Vertibot/src/STM32F30x_StdPeriph_Driver/src/stm32f30x_usart.c **** {
 363              		.loc 1 360 0
 364 016a 10B5     		push	{r4, lr}
 365              	.LCFI3:
 366              		.cfi_def_cfa_offset 8
 367              		.cfi_offset 4, -8
 368              		.cfi_offset 14, -4
 369              		.loc 1 377 0
 370 016c 1A43     		orrs	r2, r2, r3
 371 016e 8B68     		ldr	r3, [r1, #8]
 369:/home/user/Desktop/STM32-Projekte/FH-Vertibot/src/STM32F30x_StdPeriph_Driver/src/stm32f30x_usart.c ****   tmpreg = USARTx->CR2;
 372              		.loc 1 369 0
 373 0170 4468     		ldr	r4, [r0, #4]
 374              	.LVL49:
 375              		.loc 1 377 0
 376 0172 C968     		ldr	r1, [r1, #12]
 377              	.LVL50:
 378 0174 1343     		orrs	r3, r3, r2
 371:/home/user/Desktop/STM32-Projekte/FH-Vertibot/src/STM32F30x_StdPeriph_Driver/src/stm32f30x_usart.c ****   tmpreg &= (uint32_t)~((uint32_t)CR2_CLOCK_CLEAR_MASK);
 379              		.loc 1 371 0
 380 0176 24F47064 		bic	r4, r4, #3840
 381              	.LVL51:
 382              		.loc 1 377 0
 383 017a 0B43     		orrs	r3, r3, r1
 384 017c 2343     		orrs	r3, r3, r4
 385              	.LVL52:
 378:/home/user/Desktop/STM32-Projekte/FH-Vertibot/src/STM32F30x_StdPeriph_Driver/src/stm32f30x_usart.c ****                        USART_ClockInitStruct->USART_CPHA | USART_ClockInitStruct->USART_LastBit);
 379:/home/user/Desktop/STM32-Projekte/FH-Vertibot/src/STM32F30x_StdPeriph_Driver/src/stm32f30x_usart.c ****   /* Write to USART CR2 */
 380:/home/user/Desktop/STM32-Projekte/FH-Vertibot/src/STM32F30x_StdPeriph_Driver/src/stm32f30x_usart.c ****   USARTx->CR2 = tmpreg;
 386              		.loc 1 380 0
 387 017e 4360     		str	r3, [r0, #4]
 388 0180 10BD     		pop	{r4, pc}
 389              		.cfi_endproc
 390              	.LFE114:
 392              		.align	1
 393              		.global	USART_ClockStructInit
 394              		.thumb
 395              		.thumb_func
 397              	USART_ClockStructInit:
 398              	.LFB115:
 381:/home/user/Desktop/STM32-Projekte/FH-Vertibot/src/STM32F30x_StdPeriph_Driver/src/stm32f30x_usart.c **** }
 382:/home/user/Desktop/STM32-Projekte/FH-Vertibot/src/STM32F30x_StdPeriph_Driver/src/stm32f30x_usart.c **** 
 383:/home/user/Desktop/STM32-Projekte/FH-Vertibot/src/STM32F30x_StdPeriph_Driver/src/stm32f30x_usart.c **** /**
 384:/home/user/Desktop/STM32-Projekte/FH-Vertibot/src/STM32F30x_StdPeriph_Driver/src/stm32f30x_usart.c ****   * @brief  Fills each USART_ClockInitStruct member with its default value.
 385:/home/user/Desktop/STM32-Projekte/FH-Vertibot/src/STM32F30x_StdPeriph_Driver/src/stm32f30x_usart.c ****   * @param  USART_ClockInitStruct: pointer to a USART_ClockInitTypeDef
 386:/home/user/Desktop/STM32-Projekte/FH-Vertibot/src/STM32F30x_StdPeriph_Driver/src/stm32f30x_usart.c ****   *         structure which will be initialized.
 387:/home/user/Desktop/STM32-Projekte/FH-Vertibot/src/STM32F30x_StdPeriph_Driver/src/stm32f30x_usart.c ****   * @retval None
 388:/home/user/Desktop/STM32-Projekte/FH-Vertibot/src/STM32F30x_StdPeriph_Driver/src/stm32f30x_usart.c ****   */
 389:/home/user/Desktop/STM32-Projekte/FH-Vertibot/src/STM32F30x_StdPeriph_Driver/src/stm32f30x_usart.c **** void USART_ClockStructInit(USART_ClockInitTypeDef* USART_ClockInitStruct)
 390:/home/user/Desktop/STM32-Projekte/FH-Vertibot/src/STM32F30x_StdPeriph_Driver/src/stm32f30x_usart.c **** {
 399              		.loc 1 390 0
 400              		.cfi_startproc
 401              		@ args = 0, pretend = 0, frame = 0
 402              		@ frame_needed = 0, uses_anonymous_args = 0
 403              		@ link register save eliminated.
 404              	.LVL53:
 391:/home/user/Desktop/STM32-Projekte/FH-Vertibot/src/STM32F30x_StdPeriph_Driver/src/stm32f30x_usart.c ****   /* USART_ClockInitStruct members default value */
 392:/home/user/Desktop/STM32-Projekte/FH-Vertibot/src/STM32F30x_StdPeriph_Driver/src/stm32f30x_usart.c ****   USART_ClockInitStruct->USART_Clock = USART_Clock_Disable;
 405              		.loc 1 392 0
 406 0182 0023     		movs	r3, #0
 407 0184 0360     		str	r3, [r0]
 393:/home/user/Desktop/STM32-Projekte/FH-Vertibot/src/STM32F30x_StdPeriph_Driver/src/stm32f30x_usart.c ****   USART_ClockInitStruct->USART_CPOL = USART_CPOL_Low;
 408              		.loc 1 393 0
 409 0186 4360     		str	r3, [r0, #4]
 394:/home/user/Desktop/STM32-Projekte/FH-Vertibot/src/STM32F30x_StdPeriph_Driver/src/stm32f30x_usart.c ****   USART_ClockInitStruct->USART_CPHA = USART_CPHA_1Edge;
 410              		.loc 1 394 0
 411 0188 8360     		str	r3, [r0, #8]
 395:/home/user/Desktop/STM32-Projekte/FH-Vertibot/src/STM32F30x_StdPeriph_Driver/src/stm32f30x_usart.c ****   USART_ClockInitStruct->USART_LastBit = USART_LastBit_Disable;
 412              		.loc 1 395 0
 413 018a C360     		str	r3, [r0, #12]
 414 018c 7047     		bx	lr
 415              		.cfi_endproc
 416              	.LFE115:
 418              		.align	1
 419              		.global	USART_Cmd
 420              		.thumb
 421              		.thumb_func
 423              	USART_Cmd:
 424              	.LFB116:
 396:/home/user/Desktop/STM32-Projekte/FH-Vertibot/src/STM32F30x_StdPeriph_Driver/src/stm32f30x_usart.c **** }
 397:/home/user/Desktop/STM32-Projekte/FH-Vertibot/src/STM32F30x_StdPeriph_Driver/src/stm32f30x_usart.c **** 
 398:/home/user/Desktop/STM32-Projekte/FH-Vertibot/src/STM32F30x_StdPeriph_Driver/src/stm32f30x_usart.c **** /**
 399:/home/user/Desktop/STM32-Projekte/FH-Vertibot/src/STM32F30x_StdPeriph_Driver/src/stm32f30x_usart.c ****   * @brief  Enables or disables the specified USART peripheral.
 400:/home/user/Desktop/STM32-Projekte/FH-Vertibot/src/STM32F30x_StdPeriph_Driver/src/stm32f30x_usart.c ****   * @param  USARTx: Select the USART peripheral. This parameter can be one of the
 401:/home/user/Desktop/STM32-Projekte/FH-Vertibot/src/STM32F30x_StdPeriph_Driver/src/stm32f30x_usart.c ****   *         following values: USART1 or USART2 or USART3 or UART4 or UART5.
 402:/home/user/Desktop/STM32-Projekte/FH-Vertibot/src/STM32F30x_StdPeriph_Driver/src/stm32f30x_usart.c ****   * @param  NewState: new state of the USARTx peripheral.
 403:/home/user/Desktop/STM32-Projekte/FH-Vertibot/src/STM32F30x_StdPeriph_Driver/src/stm32f30x_usart.c ****   *         This parameter can be: ENABLE or DISABLE.
 404:/home/user/Desktop/STM32-Projekte/FH-Vertibot/src/STM32F30x_StdPeriph_Driver/src/stm32f30x_usart.c ****   * @retval None
 405:/home/user/Desktop/STM32-Projekte/FH-Vertibot/src/STM32F30x_StdPeriph_Driver/src/stm32f30x_usart.c ****   */
 406:/home/user/Desktop/STM32-Projekte/FH-Vertibot/src/STM32F30x_StdPeriph_Driver/src/stm32f30x_usart.c **** void USART_Cmd(USART_TypeDef* USARTx, FunctionalState NewState)
 407:/home/user/Desktop/STM32-Projekte/FH-Vertibot/src/STM32F30x_StdPeriph_Driver/src/stm32f30x_usart.c **** {
 425              		.loc 1 407 0
 426              		.cfi_startproc
 427              		@ args = 0, pretend = 0, frame = 0
 428              		@ frame_needed = 0, uses_anonymous_args = 0
 429              		@ link register save eliminated.
 430              	.LVL54:
 408:/home/user/Desktop/STM32-Projekte/FH-Vertibot/src/STM32F30x_StdPeriph_Driver/src/stm32f30x_usart.c ****   /* Check the parameters */
 409:/home/user/Desktop/STM32-Projekte/FH-Vertibot/src/STM32F30x_StdPeriph_Driver/src/stm32f30x_usart.c ****   assert_param(IS_USART_ALL_PERIPH(USARTx));
 410:/home/user/Desktop/STM32-Projekte/FH-Vertibot/src/STM32F30x_StdPeriph_Driver/src/stm32f30x_usart.c ****   assert_param(IS_FUNCTIONAL_STATE(NewState));
 411:/home/user/Desktop/STM32-Projekte/FH-Vertibot/src/STM32F30x_StdPeriph_Driver/src/stm32f30x_usart.c ****   
 412:/home/user/Desktop/STM32-Projekte/FH-Vertibot/src/STM32F30x_StdPeriph_Driver/src/stm32f30x_usart.c ****   if (NewState != DISABLE)
 413:/home/user/Desktop/STM32-Projekte/FH-Vertibot/src/STM32F30x_StdPeriph_Driver/src/stm32f30x_usart.c ****   {
 414:/home/user/Desktop/STM32-Projekte/FH-Vertibot/src/STM32F30x_StdPeriph_Driver/src/stm32f30x_usart.c ****     /* Enable the selected USART by setting the UE bit in the CR1 register */
 415:/home/user/Desktop/STM32-Projekte/FH-Vertibot/src/STM32F30x_StdPeriph_Driver/src/stm32f30x_usart.c ****     USARTx->CR1 |= USART_CR1_UE;
 431              		.loc 1 415 0
 432 018e 0368     		ldr	r3, [r0]
 412:/home/user/Desktop/STM32-Projekte/FH-Vertibot/src/STM32F30x_StdPeriph_Driver/src/stm32f30x_usart.c ****   if (NewState != DISABLE)
 433              		.loc 1 412 0
 434 0190 11B1     		cbz	r1, .L30
 435              		.loc 1 415 0
 436 0192 43F00103 		orr	r3, r3, #1
 437 0196 01E0     		b	.L32
 438              	.L30:
 416:/home/user/Desktop/STM32-Projekte/FH-Vertibot/src/STM32F30x_StdPeriph_Driver/src/stm32f30x_usart.c ****   }
 417:/home/user/Desktop/STM32-Projekte/FH-Vertibot/src/STM32F30x_StdPeriph_Driver/src/stm32f30x_usart.c ****   else
 418:/home/user/Desktop/STM32-Projekte/FH-Vertibot/src/STM32F30x_StdPeriph_Driver/src/stm32f30x_usart.c ****   {
 419:/home/user/Desktop/STM32-Projekte/FH-Vertibot/src/STM32F30x_StdPeriph_Driver/src/stm32f30x_usart.c ****     /* Disable the selected USART by clearing the UE bit in the CR1 register */
 420:/home/user/Desktop/STM32-Projekte/FH-Vertibot/src/STM32F30x_StdPeriph_Driver/src/stm32f30x_usart.c ****     USARTx->CR1 &= (uint32_t)~((uint32_t)USART_CR1_UE);
 439              		.loc 1 420 0
 440 0198 23F00103 		bic	r3, r3, #1
 441              	.L32:
 442 019c 0360     		str	r3, [r0]
 443 019e 7047     		bx	lr
 444              		.cfi_endproc
 445              	.LFE116:
 447              		.align	1
 448              		.global	USART_DirectionModeCmd
 449              		.thumb
 450              		.thumb_func
 452              	USART_DirectionModeCmd:
 453              	.LFB117:
 421:/home/user/Desktop/STM32-Projekte/FH-Vertibot/src/STM32F30x_StdPeriph_Driver/src/stm32f30x_usart.c ****   }
 422:/home/user/Desktop/STM32-Projekte/FH-Vertibot/src/STM32F30x_StdPeriph_Driver/src/stm32f30x_usart.c **** }
 423:/home/user/Desktop/STM32-Projekte/FH-Vertibot/src/STM32F30x_StdPeriph_Driver/src/stm32f30x_usart.c **** 
 424:/home/user/Desktop/STM32-Projekte/FH-Vertibot/src/STM32F30x_StdPeriph_Driver/src/stm32f30x_usart.c **** /**
 425:/home/user/Desktop/STM32-Projekte/FH-Vertibot/src/STM32F30x_StdPeriph_Driver/src/stm32f30x_usart.c ****   * @brief  Enables or disables the USART's transmitter or receiver.
 426:/home/user/Desktop/STM32-Projekte/FH-Vertibot/src/STM32F30x_StdPeriph_Driver/src/stm32f30x_usart.c ****   * @param  USARTx: Select the USART peripheral. This parameter can be one of the 
 427:/home/user/Desktop/STM32-Projekte/FH-Vertibot/src/STM32F30x_StdPeriph_Driver/src/stm32f30x_usart.c ****   *         following values: USART1 or USART2 or USART3 or UART4 or UART5.
 428:/home/user/Desktop/STM32-Projekte/FH-Vertibot/src/STM32F30x_StdPeriph_Driver/src/stm32f30x_usart.c ****   * @param  USART_Direction: specifies the USART direction.
 429:/home/user/Desktop/STM32-Projekte/FH-Vertibot/src/STM32F30x_StdPeriph_Driver/src/stm32f30x_usart.c ****   *         This parameter can be any combination of the following values:
 430:/home/user/Desktop/STM32-Projekte/FH-Vertibot/src/STM32F30x_StdPeriph_Driver/src/stm32f30x_usart.c ****   *         @arg USART_Mode_Tx: USART Transmitter
 431:/home/user/Desktop/STM32-Projekte/FH-Vertibot/src/STM32F30x_StdPeriph_Driver/src/stm32f30x_usart.c ****   *         @arg USART_Mode_Rx: USART Receiver
 432:/home/user/Desktop/STM32-Projekte/FH-Vertibot/src/STM32F30x_StdPeriph_Driver/src/stm32f30x_usart.c ****   * @param  NewState: new state of the USART transfer direction.
 433:/home/user/Desktop/STM32-Projekte/FH-Vertibot/src/STM32F30x_StdPeriph_Driver/src/stm32f30x_usart.c ****   *         This parameter can be: ENABLE or DISABLE.  
 434:/home/user/Desktop/STM32-Projekte/FH-Vertibot/src/STM32F30x_StdPeriph_Driver/src/stm32f30x_usart.c ****   * @retval None
 435:/home/user/Desktop/STM32-Projekte/FH-Vertibot/src/STM32F30x_StdPeriph_Driver/src/stm32f30x_usart.c ****   */
 436:/home/user/Desktop/STM32-Projekte/FH-Vertibot/src/STM32F30x_StdPeriph_Driver/src/stm32f30x_usart.c **** void USART_DirectionModeCmd(USART_TypeDef* USARTx, uint32_t USART_DirectionMode, FunctionalState Ne
 437:/home/user/Desktop/STM32-Projekte/FH-Vertibot/src/STM32F30x_StdPeriph_Driver/src/stm32f30x_usart.c **** {
 454              		.loc 1 437 0
 455              		.cfi_startproc
 456              		@ args = 0, pretend = 0, frame = 0
 457              		@ frame_needed = 0, uses_anonymous_args = 0
 458              		@ link register save eliminated.
 459              	.LVL55:
 438:/home/user/Desktop/STM32-Projekte/FH-Vertibot/src/STM32F30x_StdPeriph_Driver/src/stm32f30x_usart.c ****   /* Check the parameters */
 439:/home/user/Desktop/STM32-Projekte/FH-Vertibot/src/STM32F30x_StdPeriph_Driver/src/stm32f30x_usart.c ****   assert_param(IS_USART_ALL_PERIPH(USARTx));
 440:/home/user/Desktop/STM32-Projekte/FH-Vertibot/src/STM32F30x_StdPeriph_Driver/src/stm32f30x_usart.c ****   assert_param(IS_USART_MODE(USART_DirectionMode));
 441:/home/user/Desktop/STM32-Projekte/FH-Vertibot/src/STM32F30x_StdPeriph_Driver/src/stm32f30x_usart.c ****   assert_param(IS_FUNCTIONAL_STATE(NewState)); 
 442:/home/user/Desktop/STM32-Projekte/FH-Vertibot/src/STM32F30x_StdPeriph_Driver/src/stm32f30x_usart.c **** 
 443:/home/user/Desktop/STM32-Projekte/FH-Vertibot/src/STM32F30x_StdPeriph_Driver/src/stm32f30x_usart.c ****   if (NewState != DISABLE)
 444:/home/user/Desktop/STM32-Projekte/FH-Vertibot/src/STM32F30x_StdPeriph_Driver/src/stm32f30x_usart.c ****   {
 445:/home/user/Desktop/STM32-Projekte/FH-Vertibot/src/STM32F30x_StdPeriph_Driver/src/stm32f30x_usart.c ****     /* Enable the USART's transfer interface by setting the TE and/or RE bits 
 446:/home/user/Desktop/STM32-Projekte/FH-Vertibot/src/STM32F30x_StdPeriph_Driver/src/stm32f30x_usart.c ****        in the USART CR1 register */
 447:/home/user/Desktop/STM32-Projekte/FH-Vertibot/src/STM32F30x_StdPeriph_Driver/src/stm32f30x_usart.c ****     USARTx->CR1 |= USART_DirectionMode;
 460              		.loc 1 447 0
 461 01a0 0368     		ldr	r3, [r0]
 443:/home/user/Desktop/STM32-Projekte/FH-Vertibot/src/STM32F30x_StdPeriph_Driver/src/stm32f30x_usart.c ****   if (NewState != DISABLE)
 462              		.loc 1 443 0
 463 01a2 0AB1     		cbz	r2, .L34
 464              		.loc 1 447 0
 465 01a4 1943     		orrs	r1, r1, r3
 466              	.LVL56:
 467 01a6 01E0     		b	.L36
 468              	.LVL57:
 469              	.L34:
 448:/home/user/Desktop/STM32-Projekte/FH-Vertibot/src/STM32F30x_StdPeriph_Driver/src/stm32f30x_usart.c ****   }
 449:/home/user/Desktop/STM32-Projekte/FH-Vertibot/src/STM32F30x_StdPeriph_Driver/src/stm32f30x_usart.c ****   else
 450:/home/user/Desktop/STM32-Projekte/FH-Vertibot/src/STM32F30x_StdPeriph_Driver/src/stm32f30x_usart.c ****   {
 451:/home/user/Desktop/STM32-Projekte/FH-Vertibot/src/STM32F30x_StdPeriph_Driver/src/stm32f30x_usart.c ****     /* Disable the USART's transfer interface by clearing the TE and/or RE bits
 452:/home/user/Desktop/STM32-Projekte/FH-Vertibot/src/STM32F30x_StdPeriph_Driver/src/stm32f30x_usart.c ****        in the USART CR3 register */
 453:/home/user/Desktop/STM32-Projekte/FH-Vertibot/src/STM32F30x_StdPeriph_Driver/src/stm32f30x_usart.c ****     USARTx->CR1 &= (uint32_t)~USART_DirectionMode;
 470              		.loc 1 453 0
 471 01a8 23EA0101 		bic	r1, r3, r1
 472              	.LVL58:
 473              	.L36:
 474 01ac 0160     		str	r1, [r0]
 475 01ae 7047     		bx	lr
 476              		.cfi_endproc
 477              	.LFE117:
 479              		.align	1
 480              		.global	USART_OverSampling8Cmd
 481              		.thumb
 482              		.thumb_func
 484              	USART_OverSampling8Cmd:
 485              	.LFB118:
 454:/home/user/Desktop/STM32-Projekte/FH-Vertibot/src/STM32F30x_StdPeriph_Driver/src/stm32f30x_usart.c ****   }
 455:/home/user/Desktop/STM32-Projekte/FH-Vertibot/src/STM32F30x_StdPeriph_Driver/src/stm32f30x_usart.c **** }
 456:/home/user/Desktop/STM32-Projekte/FH-Vertibot/src/STM32F30x_StdPeriph_Driver/src/stm32f30x_usart.c **** 
 457:/home/user/Desktop/STM32-Projekte/FH-Vertibot/src/STM32F30x_StdPeriph_Driver/src/stm32f30x_usart.c **** /**
 458:/home/user/Desktop/STM32-Projekte/FH-Vertibot/src/STM32F30x_StdPeriph_Driver/src/stm32f30x_usart.c ****   * @brief  Enables or disables the USART's 8x oversampling mode.
 459:/home/user/Desktop/STM32-Projekte/FH-Vertibot/src/STM32F30x_StdPeriph_Driver/src/stm32f30x_usart.c ****   * @param  USARTx: Select the USART peripheral. This parameter can be one of the 
 460:/home/user/Desktop/STM32-Projekte/FH-Vertibot/src/STM32F30x_StdPeriph_Driver/src/stm32f30x_usart.c ****   *         following values: USART1 or USART2 or USART3 or UART4 or UART5.
 461:/home/user/Desktop/STM32-Projekte/FH-Vertibot/src/STM32F30x_StdPeriph_Driver/src/stm32f30x_usart.c ****   * @param  NewState: new state of the USART 8x oversampling mode.
 462:/home/user/Desktop/STM32-Projekte/FH-Vertibot/src/STM32F30x_StdPeriph_Driver/src/stm32f30x_usart.c ****   *         This parameter can be: ENABLE or DISABLE.
 463:/home/user/Desktop/STM32-Projekte/FH-Vertibot/src/STM32F30x_StdPeriph_Driver/src/stm32f30x_usart.c ****   * @note
 464:/home/user/Desktop/STM32-Projekte/FH-Vertibot/src/STM32F30x_StdPeriph_Driver/src/stm32f30x_usart.c ****   *   This function has to be called before calling USART_Init()
 465:/home/user/Desktop/STM32-Projekte/FH-Vertibot/src/STM32F30x_StdPeriph_Driver/src/stm32f30x_usart.c ****   *   function in order to have correct baudrate Divider value.
 466:/home/user/Desktop/STM32-Projekte/FH-Vertibot/src/STM32F30x_StdPeriph_Driver/src/stm32f30x_usart.c ****   * @retval None
 467:/home/user/Desktop/STM32-Projekte/FH-Vertibot/src/STM32F30x_StdPeriph_Driver/src/stm32f30x_usart.c ****   */
 468:/home/user/Desktop/STM32-Projekte/FH-Vertibot/src/STM32F30x_StdPeriph_Driver/src/stm32f30x_usart.c **** void USART_OverSampling8Cmd(USART_TypeDef* USARTx, FunctionalState NewState)
 469:/home/user/Desktop/STM32-Projekte/FH-Vertibot/src/STM32F30x_StdPeriph_Driver/src/stm32f30x_usart.c **** {
 486              		.loc 1 469 0
 487              		.cfi_startproc
 488              		@ args = 0, pretend = 0, frame = 0
 489              		@ frame_needed = 0, uses_anonymous_args = 0
 490              		@ link register save eliminated.
 491              	.LVL59:
 470:/home/user/Desktop/STM32-Projekte/FH-Vertibot/src/STM32F30x_StdPeriph_Driver/src/stm32f30x_usart.c ****   /* Check the parameters */
 471:/home/user/Desktop/STM32-Projekte/FH-Vertibot/src/STM32F30x_StdPeriph_Driver/src/stm32f30x_usart.c ****   assert_param(IS_USART_ALL_PERIPH(USARTx));
 472:/home/user/Desktop/STM32-Projekte/FH-Vertibot/src/STM32F30x_StdPeriph_Driver/src/stm32f30x_usart.c ****   assert_param(IS_FUNCTIONAL_STATE(NewState));
 473:/home/user/Desktop/STM32-Projekte/FH-Vertibot/src/STM32F30x_StdPeriph_Driver/src/stm32f30x_usart.c ****   
 474:/home/user/Desktop/STM32-Projekte/FH-Vertibot/src/STM32F30x_StdPeriph_Driver/src/stm32f30x_usart.c ****   if (NewState != DISABLE)
 475:/home/user/Desktop/STM32-Projekte/FH-Vertibot/src/STM32F30x_StdPeriph_Driver/src/stm32f30x_usart.c ****   {
 476:/home/user/Desktop/STM32-Projekte/FH-Vertibot/src/STM32F30x_StdPeriph_Driver/src/stm32f30x_usart.c ****     /* Enable the 8x Oversampling mode by setting the OVER8 bit in the CR1 register */
 477:/home/user/Desktop/STM32-Projekte/FH-Vertibot/src/STM32F30x_StdPeriph_Driver/src/stm32f30x_usart.c ****     USARTx->CR1 |= USART_CR1_OVER8;
 492              		.loc 1 477 0
 493 01b0 0368     		ldr	r3, [r0]
 474:/home/user/Desktop/STM32-Projekte/FH-Vertibot/src/STM32F30x_StdPeriph_Driver/src/stm32f30x_usart.c ****   if (NewState != DISABLE)
 494              		.loc 1 474 0
 495 01b2 11B1     		cbz	r1, .L38
 496              		.loc 1 477 0
 497 01b4 43F40043 		orr	r3, r3, #32768
 498 01b8 01E0     		b	.L40
 499              	.L38:
 478:/home/user/Desktop/STM32-Projekte/FH-Vertibot/src/STM32F30x_StdPeriph_Driver/src/stm32f30x_usart.c ****   }
 479:/home/user/Desktop/STM32-Projekte/FH-Vertibot/src/STM32F30x_StdPeriph_Driver/src/stm32f30x_usart.c ****   else
 480:/home/user/Desktop/STM32-Projekte/FH-Vertibot/src/STM32F30x_StdPeriph_Driver/src/stm32f30x_usart.c ****   {
 481:/home/user/Desktop/STM32-Projekte/FH-Vertibot/src/STM32F30x_StdPeriph_Driver/src/stm32f30x_usart.c ****     /* Disable the 8x Oversampling mode by clearing the OVER8 bit in the CR1 register */
 482:/home/user/Desktop/STM32-Projekte/FH-Vertibot/src/STM32F30x_StdPeriph_Driver/src/stm32f30x_usart.c ****     USARTx->CR1 &= (uint32_t)~((uint32_t)USART_CR1_OVER8);
 500              		.loc 1 482 0
 501 01ba 23F40043 		bic	r3, r3, #32768
 502              	.L40:
 503 01be 0360     		str	r3, [r0]
 504 01c0 7047     		bx	lr
 505              		.cfi_endproc
 506              	.LFE118:
 508              		.align	1
 509              		.global	USART_OneBitMethodCmd
 510              		.thumb
 511              		.thumb_func
 513              	USART_OneBitMethodCmd:
 514              	.LFB119:
 483:/home/user/Desktop/STM32-Projekte/FH-Vertibot/src/STM32F30x_StdPeriph_Driver/src/stm32f30x_usart.c ****   }
 484:/home/user/Desktop/STM32-Projekte/FH-Vertibot/src/STM32F30x_StdPeriph_Driver/src/stm32f30x_usart.c **** }
 485:/home/user/Desktop/STM32-Projekte/FH-Vertibot/src/STM32F30x_StdPeriph_Driver/src/stm32f30x_usart.c **** 
 486:/home/user/Desktop/STM32-Projekte/FH-Vertibot/src/STM32F30x_StdPeriph_Driver/src/stm32f30x_usart.c **** /**
 487:/home/user/Desktop/STM32-Projekte/FH-Vertibot/src/STM32F30x_StdPeriph_Driver/src/stm32f30x_usart.c ****   * @brief  Enables or disables the USART's one bit sampling method.
 488:/home/user/Desktop/STM32-Projekte/FH-Vertibot/src/STM32F30x_StdPeriph_Driver/src/stm32f30x_usart.c ****   * @param  USARTx: Select the USART peripheral. This parameter can be one of the
 489:/home/user/Desktop/STM32-Projekte/FH-Vertibot/src/STM32F30x_StdPeriph_Driver/src/stm32f30x_usart.c ****   *         following values: USART1 or USART2 or USART3 or UART4 or UART5.
 490:/home/user/Desktop/STM32-Projekte/FH-Vertibot/src/STM32F30x_StdPeriph_Driver/src/stm32f30x_usart.c ****   * @param  NewState: new state of the USART one bit sampling method.
 491:/home/user/Desktop/STM32-Projekte/FH-Vertibot/src/STM32F30x_StdPeriph_Driver/src/stm32f30x_usart.c ****   *         This parameter can be: ENABLE or DISABLE.
 492:/home/user/Desktop/STM32-Projekte/FH-Vertibot/src/STM32F30x_StdPeriph_Driver/src/stm32f30x_usart.c ****   * @note
 493:/home/user/Desktop/STM32-Projekte/FH-Vertibot/src/STM32F30x_StdPeriph_Driver/src/stm32f30x_usart.c ****   *   This function has to be called before calling USART_Cmd() function.
 494:/home/user/Desktop/STM32-Projekte/FH-Vertibot/src/STM32F30x_StdPeriph_Driver/src/stm32f30x_usart.c ****   * @retval None
 495:/home/user/Desktop/STM32-Projekte/FH-Vertibot/src/STM32F30x_StdPeriph_Driver/src/stm32f30x_usart.c ****   */
 496:/home/user/Desktop/STM32-Projekte/FH-Vertibot/src/STM32F30x_StdPeriph_Driver/src/stm32f30x_usart.c **** void USART_OneBitMethodCmd(USART_TypeDef* USARTx, FunctionalState NewState)
 497:/home/user/Desktop/STM32-Projekte/FH-Vertibot/src/STM32F30x_StdPeriph_Driver/src/stm32f30x_usart.c **** {
 515              		.loc 1 497 0
 516              		.cfi_startproc
 517              		@ args = 0, pretend = 0, frame = 0
 518              		@ frame_needed = 0, uses_anonymous_args = 0
 519              		@ link register save eliminated.
 520              	.LVL60:
 498:/home/user/Desktop/STM32-Projekte/FH-Vertibot/src/STM32F30x_StdPeriph_Driver/src/stm32f30x_usart.c ****   /* Check the parameters */
 499:/home/user/Desktop/STM32-Projekte/FH-Vertibot/src/STM32F30x_StdPeriph_Driver/src/stm32f30x_usart.c ****   assert_param(IS_USART_ALL_PERIPH(USARTx));
 500:/home/user/Desktop/STM32-Projekte/FH-Vertibot/src/STM32F30x_StdPeriph_Driver/src/stm32f30x_usart.c ****   assert_param(IS_FUNCTIONAL_STATE(NewState));
 501:/home/user/Desktop/STM32-Projekte/FH-Vertibot/src/STM32F30x_StdPeriph_Driver/src/stm32f30x_usart.c **** 
 502:/home/user/Desktop/STM32-Projekte/FH-Vertibot/src/STM32F30x_StdPeriph_Driver/src/stm32f30x_usart.c ****   if (NewState != DISABLE)
 503:/home/user/Desktop/STM32-Projekte/FH-Vertibot/src/STM32F30x_StdPeriph_Driver/src/stm32f30x_usart.c ****   {
 504:/home/user/Desktop/STM32-Projekte/FH-Vertibot/src/STM32F30x_StdPeriph_Driver/src/stm32f30x_usart.c ****     /* Enable the one bit method by setting the ONEBITE bit in the CR3 register */
 505:/home/user/Desktop/STM32-Projekte/FH-Vertibot/src/STM32F30x_StdPeriph_Driver/src/stm32f30x_usart.c ****     USARTx->CR3 |= USART_CR3_ONEBIT;
 521              		.loc 1 505 0
 522 01c2 8368     		ldr	r3, [r0, #8]
 502:/home/user/Desktop/STM32-Projekte/FH-Vertibot/src/STM32F30x_StdPeriph_Driver/src/stm32f30x_usart.c ****   if (NewState != DISABLE)
 523              		.loc 1 502 0
 524 01c4 11B1     		cbz	r1, .L42
 525              		.loc 1 505 0
 526 01c6 43F40063 		orr	r3, r3, #2048
 527 01ca 01E0     		b	.L44
 528              	.L42:
 506:/home/user/Desktop/STM32-Projekte/FH-Vertibot/src/STM32F30x_StdPeriph_Driver/src/stm32f30x_usart.c ****   }
 507:/home/user/Desktop/STM32-Projekte/FH-Vertibot/src/STM32F30x_StdPeriph_Driver/src/stm32f30x_usart.c ****   else
 508:/home/user/Desktop/STM32-Projekte/FH-Vertibot/src/STM32F30x_StdPeriph_Driver/src/stm32f30x_usart.c ****   {
 509:/home/user/Desktop/STM32-Projekte/FH-Vertibot/src/STM32F30x_StdPeriph_Driver/src/stm32f30x_usart.c ****     /* Disable the one bit method by clearing the ONEBITE bit in the CR3 register */
 510:/home/user/Desktop/STM32-Projekte/FH-Vertibot/src/STM32F30x_StdPeriph_Driver/src/stm32f30x_usart.c ****     USARTx->CR3 &= (uint32_t)~((uint32_t)USART_CR3_ONEBIT);
 529              		.loc 1 510 0
 530 01cc 23F40063 		bic	r3, r3, #2048
 531              	.L44:
 532 01d0 8360     		str	r3, [r0, #8]
 533 01d2 7047     		bx	lr
 534              		.cfi_endproc
 535              	.LFE119:
 537              		.align	1
 538              		.global	USART_MSBFirstCmd
 539              		.thumb
 540              		.thumb_func
 542              	USART_MSBFirstCmd:
 543              	.LFB120:
 511:/home/user/Desktop/STM32-Projekte/FH-Vertibot/src/STM32F30x_StdPeriph_Driver/src/stm32f30x_usart.c ****   }
 512:/home/user/Desktop/STM32-Projekte/FH-Vertibot/src/STM32F30x_StdPeriph_Driver/src/stm32f30x_usart.c **** }
 513:/home/user/Desktop/STM32-Projekte/FH-Vertibot/src/STM32F30x_StdPeriph_Driver/src/stm32f30x_usart.c **** 
 514:/home/user/Desktop/STM32-Projekte/FH-Vertibot/src/STM32F30x_StdPeriph_Driver/src/stm32f30x_usart.c **** /**
 515:/home/user/Desktop/STM32-Projekte/FH-Vertibot/src/STM32F30x_StdPeriph_Driver/src/stm32f30x_usart.c ****   * @brief  Enables or disables the USART's most significant bit first 
 516:/home/user/Desktop/STM32-Projekte/FH-Vertibot/src/STM32F30x_StdPeriph_Driver/src/stm32f30x_usart.c ****   *         transmitted/received following the start bit.
 517:/home/user/Desktop/STM32-Projekte/FH-Vertibot/src/STM32F30x_StdPeriph_Driver/src/stm32f30x_usart.c ****   * @param  USARTx: Select the USART peripheral. This parameter can be one of the
 518:/home/user/Desktop/STM32-Projekte/FH-Vertibot/src/STM32F30x_StdPeriph_Driver/src/stm32f30x_usart.c ****   *         following values: USART1 or USART2 or USART3 or UART4 or UART5.
 519:/home/user/Desktop/STM32-Projekte/FH-Vertibot/src/STM32F30x_StdPeriph_Driver/src/stm32f30x_usart.c ****   * @param  NewState: new state of the USART most significant bit first
 520:/home/user/Desktop/STM32-Projekte/FH-Vertibot/src/STM32F30x_StdPeriph_Driver/src/stm32f30x_usart.c ****   *         transmitted/received following the start bit.
 521:/home/user/Desktop/STM32-Projekte/FH-Vertibot/src/STM32F30x_StdPeriph_Driver/src/stm32f30x_usart.c ****   *         This parameter can be: ENABLE or DISABLE.
 522:/home/user/Desktop/STM32-Projekte/FH-Vertibot/src/STM32F30x_StdPeriph_Driver/src/stm32f30x_usart.c ****   * @note
 523:/home/user/Desktop/STM32-Projekte/FH-Vertibot/src/STM32F30x_StdPeriph_Driver/src/stm32f30x_usart.c ****   *   This function has to be called before calling USART_Cmd() function. 
 524:/home/user/Desktop/STM32-Projekte/FH-Vertibot/src/STM32F30x_StdPeriph_Driver/src/stm32f30x_usart.c ****   * @retval None
 525:/home/user/Desktop/STM32-Projekte/FH-Vertibot/src/STM32F30x_StdPeriph_Driver/src/stm32f30x_usart.c ****   */
 526:/home/user/Desktop/STM32-Projekte/FH-Vertibot/src/STM32F30x_StdPeriph_Driver/src/stm32f30x_usart.c **** void USART_MSBFirstCmd(USART_TypeDef* USARTx, FunctionalState NewState)
 527:/home/user/Desktop/STM32-Projekte/FH-Vertibot/src/STM32F30x_StdPeriph_Driver/src/stm32f30x_usart.c **** {
 544              		.loc 1 527 0
 545              		.cfi_startproc
 546              		@ args = 0, pretend = 0, frame = 0
 547              		@ frame_needed = 0, uses_anonymous_args = 0
 548              		@ link register save eliminated.
 549              	.LVL61:
 528:/home/user/Desktop/STM32-Projekte/FH-Vertibot/src/STM32F30x_StdPeriph_Driver/src/stm32f30x_usart.c ****   /* Check the parameters */
 529:/home/user/Desktop/STM32-Projekte/FH-Vertibot/src/STM32F30x_StdPeriph_Driver/src/stm32f30x_usart.c ****   assert_param(IS_USART_ALL_PERIPH(USARTx));
 530:/home/user/Desktop/STM32-Projekte/FH-Vertibot/src/STM32F30x_StdPeriph_Driver/src/stm32f30x_usart.c ****   assert_param(IS_FUNCTIONAL_STATE(NewState));
 531:/home/user/Desktop/STM32-Projekte/FH-Vertibot/src/STM32F30x_StdPeriph_Driver/src/stm32f30x_usart.c **** 
 532:/home/user/Desktop/STM32-Projekte/FH-Vertibot/src/STM32F30x_StdPeriph_Driver/src/stm32f30x_usart.c ****   if (NewState != DISABLE)
 533:/home/user/Desktop/STM32-Projekte/FH-Vertibot/src/STM32F30x_StdPeriph_Driver/src/stm32f30x_usart.c ****   {
 534:/home/user/Desktop/STM32-Projekte/FH-Vertibot/src/STM32F30x_StdPeriph_Driver/src/stm32f30x_usart.c ****     /* Enable the most significant bit first transmitted/received following the
 535:/home/user/Desktop/STM32-Projekte/FH-Vertibot/src/STM32F30x_StdPeriph_Driver/src/stm32f30x_usart.c ****        start bit by setting the MSBFIRST bit in the CR2 register */
 536:/home/user/Desktop/STM32-Projekte/FH-Vertibot/src/STM32F30x_StdPeriph_Driver/src/stm32f30x_usart.c ****     USARTx->CR2 |= USART_CR2_MSBFIRST;
 550              		.loc 1 536 0
 551 01d4 4368     		ldr	r3, [r0, #4]
 532:/home/user/Desktop/STM32-Projekte/FH-Vertibot/src/STM32F30x_StdPeriph_Driver/src/stm32f30x_usart.c ****   if (NewState != DISABLE)
 552              		.loc 1 532 0
 553 01d6 11B1     		cbz	r1, .L46
 554              		.loc 1 536 0
 555 01d8 43F40023 		orr	r3, r3, #524288
 556 01dc 01E0     		b	.L48
 557              	.L46:
 537:/home/user/Desktop/STM32-Projekte/FH-Vertibot/src/STM32F30x_StdPeriph_Driver/src/stm32f30x_usart.c ****   }
 538:/home/user/Desktop/STM32-Projekte/FH-Vertibot/src/STM32F30x_StdPeriph_Driver/src/stm32f30x_usart.c ****   else
 539:/home/user/Desktop/STM32-Projekte/FH-Vertibot/src/STM32F30x_StdPeriph_Driver/src/stm32f30x_usart.c ****   {
 540:/home/user/Desktop/STM32-Projekte/FH-Vertibot/src/STM32F30x_StdPeriph_Driver/src/stm32f30x_usart.c ****     /* Disable the most significant bit first transmitted/received following the
 541:/home/user/Desktop/STM32-Projekte/FH-Vertibot/src/STM32F30x_StdPeriph_Driver/src/stm32f30x_usart.c ****        start bit by clearing the MSBFIRST bit in the CR2 register */
 542:/home/user/Desktop/STM32-Projekte/FH-Vertibot/src/STM32F30x_StdPeriph_Driver/src/stm32f30x_usart.c ****     USARTx->CR2 &= (uint32_t)~((uint32_t)USART_CR2_MSBFIRST);
 558              		.loc 1 542 0
 559 01de 23F40023 		bic	r3, r3, #524288
 560              	.L48:
 561 01e2 4360     		str	r3, [r0, #4]
 562 01e4 7047     		bx	lr
 563              		.cfi_endproc
 564              	.LFE120:
 566              		.align	1
 567              		.global	USART_DataInvCmd
 568              		.thumb
 569              		.thumb_func
 571              	USART_DataInvCmd:
 572              	.LFB121:
 543:/home/user/Desktop/STM32-Projekte/FH-Vertibot/src/STM32F30x_StdPeriph_Driver/src/stm32f30x_usart.c ****   }
 544:/home/user/Desktop/STM32-Projekte/FH-Vertibot/src/STM32F30x_StdPeriph_Driver/src/stm32f30x_usart.c **** }
 545:/home/user/Desktop/STM32-Projekte/FH-Vertibot/src/STM32F30x_StdPeriph_Driver/src/stm32f30x_usart.c **** 
 546:/home/user/Desktop/STM32-Projekte/FH-Vertibot/src/STM32F30x_StdPeriph_Driver/src/stm32f30x_usart.c **** /**
 547:/home/user/Desktop/STM32-Projekte/FH-Vertibot/src/STM32F30x_StdPeriph_Driver/src/stm32f30x_usart.c ****   * @brief  Enables or disables the binary data inversion.
 548:/home/user/Desktop/STM32-Projekte/FH-Vertibot/src/STM32F30x_StdPeriph_Driver/src/stm32f30x_usart.c ****   * @param  USARTx: Select the USART peripheral. This parameter can be one of the 
 549:/home/user/Desktop/STM32-Projekte/FH-Vertibot/src/STM32F30x_StdPeriph_Driver/src/stm32f30x_usart.c ****   *         following values: USART1 or USART2 or USART3 or UART4 or UART5.
 550:/home/user/Desktop/STM32-Projekte/FH-Vertibot/src/STM32F30x_StdPeriph_Driver/src/stm32f30x_usart.c ****   * @param  NewState: new defined levels for the USART data.
 551:/home/user/Desktop/STM32-Projekte/FH-Vertibot/src/STM32F30x_StdPeriph_Driver/src/stm32f30x_usart.c ****   *         This parameter can be: ENABLE or DISABLE.
 552:/home/user/Desktop/STM32-Projekte/FH-Vertibot/src/STM32F30x_StdPeriph_Driver/src/stm32f30x_usart.c ****   *   @arg  ENABLE: Logical data from the data register are send/received in negative
 553:/home/user/Desktop/STM32-Projekte/FH-Vertibot/src/STM32F30x_StdPeriph_Driver/src/stm32f30x_usart.c ****   *         logic. (1=L, 0=H). The parity bit is also inverted.
 554:/home/user/Desktop/STM32-Projekte/FH-Vertibot/src/STM32F30x_StdPeriph_Driver/src/stm32f30x_usart.c ****   *   @arg  DISABLE: Logical data from the data register are send/received in positive
 555:/home/user/Desktop/STM32-Projekte/FH-Vertibot/src/STM32F30x_StdPeriph_Driver/src/stm32f30x_usart.c ****   *         logic. (1=H, 0=L) 
 556:/home/user/Desktop/STM32-Projekte/FH-Vertibot/src/STM32F30x_StdPeriph_Driver/src/stm32f30x_usart.c ****   * @note
 557:/home/user/Desktop/STM32-Projekte/FH-Vertibot/src/STM32F30x_StdPeriph_Driver/src/stm32f30x_usart.c ****   *   This function has to be called before calling USART_Cmd() function. 
 558:/home/user/Desktop/STM32-Projekte/FH-Vertibot/src/STM32F30x_StdPeriph_Driver/src/stm32f30x_usart.c ****   * @retval None
 559:/home/user/Desktop/STM32-Projekte/FH-Vertibot/src/STM32F30x_StdPeriph_Driver/src/stm32f30x_usart.c ****   */
 560:/home/user/Desktop/STM32-Projekte/FH-Vertibot/src/STM32F30x_StdPeriph_Driver/src/stm32f30x_usart.c **** void USART_DataInvCmd(USART_TypeDef* USARTx, FunctionalState NewState)
 561:/home/user/Desktop/STM32-Projekte/FH-Vertibot/src/STM32F30x_StdPeriph_Driver/src/stm32f30x_usart.c **** {
 573              		.loc 1 561 0
 574              		.cfi_startproc
 575              		@ args = 0, pretend = 0, frame = 0
 576              		@ frame_needed = 0, uses_anonymous_args = 0
 577              		@ link register save eliminated.
 578              	.LVL62:
 562:/home/user/Desktop/STM32-Projekte/FH-Vertibot/src/STM32F30x_StdPeriph_Driver/src/stm32f30x_usart.c ****   /* Check the parameters */
 563:/home/user/Desktop/STM32-Projekte/FH-Vertibot/src/STM32F30x_StdPeriph_Driver/src/stm32f30x_usart.c ****   assert_param(IS_USART_ALL_PERIPH(USARTx));
 564:/home/user/Desktop/STM32-Projekte/FH-Vertibot/src/STM32F30x_StdPeriph_Driver/src/stm32f30x_usart.c ****   assert_param(IS_FUNCTIONAL_STATE(NewState));
 565:/home/user/Desktop/STM32-Projekte/FH-Vertibot/src/STM32F30x_StdPeriph_Driver/src/stm32f30x_usart.c **** 
 566:/home/user/Desktop/STM32-Projekte/FH-Vertibot/src/STM32F30x_StdPeriph_Driver/src/stm32f30x_usart.c ****   if (NewState != DISABLE)
 567:/home/user/Desktop/STM32-Projekte/FH-Vertibot/src/STM32F30x_StdPeriph_Driver/src/stm32f30x_usart.c ****   {
 568:/home/user/Desktop/STM32-Projekte/FH-Vertibot/src/STM32F30x_StdPeriph_Driver/src/stm32f30x_usart.c ****     /* Enable the binary data inversion feature by setting the DATAINV bit in
 569:/home/user/Desktop/STM32-Projekte/FH-Vertibot/src/STM32F30x_StdPeriph_Driver/src/stm32f30x_usart.c ****        the CR2 register */
 570:/home/user/Desktop/STM32-Projekte/FH-Vertibot/src/STM32F30x_StdPeriph_Driver/src/stm32f30x_usart.c ****     USARTx->CR2 |= USART_CR2_DATAINV;
 579              		.loc 1 570 0
 580 01e6 4368     		ldr	r3, [r0, #4]
 566:/home/user/Desktop/STM32-Projekte/FH-Vertibot/src/STM32F30x_StdPeriph_Driver/src/stm32f30x_usart.c ****   if (NewState != DISABLE)
 581              		.loc 1 566 0
 582 01e8 11B1     		cbz	r1, .L50
 583              		.loc 1 570 0
 584 01ea 43F48023 		orr	r3, r3, #262144
 585 01ee 01E0     		b	.L52
 586              	.L50:
 571:/home/user/Desktop/STM32-Projekte/FH-Vertibot/src/STM32F30x_StdPeriph_Driver/src/stm32f30x_usart.c ****   }
 572:/home/user/Desktop/STM32-Projekte/FH-Vertibot/src/STM32F30x_StdPeriph_Driver/src/stm32f30x_usart.c ****   else
 573:/home/user/Desktop/STM32-Projekte/FH-Vertibot/src/STM32F30x_StdPeriph_Driver/src/stm32f30x_usart.c ****   {
 574:/home/user/Desktop/STM32-Projekte/FH-Vertibot/src/STM32F30x_StdPeriph_Driver/src/stm32f30x_usart.c ****     /* Disable the binary data inversion feature by clearing the DATAINV bit in
 575:/home/user/Desktop/STM32-Projekte/FH-Vertibot/src/STM32F30x_StdPeriph_Driver/src/stm32f30x_usart.c ****        the CR2 register */
 576:/home/user/Desktop/STM32-Projekte/FH-Vertibot/src/STM32F30x_StdPeriph_Driver/src/stm32f30x_usart.c ****     USARTx->CR2 &= (uint32_t)~((uint32_t)USART_CR2_DATAINV);
 587              		.loc 1 576 0
 588 01f0 23F48023 		bic	r3, r3, #262144
 589              	.L52:
 590 01f4 4360     		str	r3, [r0, #4]
 591 01f6 7047     		bx	lr
 592              		.cfi_endproc
 593              	.LFE121:
 595              		.align	1
 596              		.global	USART_InvPinCmd
 597              		.thumb
 598              		.thumb_func
 600              	USART_InvPinCmd:
 601              	.LFB122:
 577:/home/user/Desktop/STM32-Projekte/FH-Vertibot/src/STM32F30x_StdPeriph_Driver/src/stm32f30x_usart.c ****   }
 578:/home/user/Desktop/STM32-Projekte/FH-Vertibot/src/STM32F30x_StdPeriph_Driver/src/stm32f30x_usart.c **** }
 579:/home/user/Desktop/STM32-Projekte/FH-Vertibot/src/STM32F30x_StdPeriph_Driver/src/stm32f30x_usart.c **** 
 580:/home/user/Desktop/STM32-Projekte/FH-Vertibot/src/STM32F30x_StdPeriph_Driver/src/stm32f30x_usart.c **** /**
 581:/home/user/Desktop/STM32-Projekte/FH-Vertibot/src/STM32F30x_StdPeriph_Driver/src/stm32f30x_usart.c ****   * @brief  Enables or disables the Pin(s) active level inversion.
 582:/home/user/Desktop/STM32-Projekte/FH-Vertibot/src/STM32F30x_StdPeriph_Driver/src/stm32f30x_usart.c ****   * @param  USARTx: Select the USART peripheral. This parameter can be one of the 
 583:/home/user/Desktop/STM32-Projekte/FH-Vertibot/src/STM32F30x_StdPeriph_Driver/src/stm32f30x_usart.c ****   *         following values: USART1 or USART2 or USART3 or UART4 or UART5.
 584:/home/user/Desktop/STM32-Projekte/FH-Vertibot/src/STM32F30x_StdPeriph_Driver/src/stm32f30x_usart.c ****   * @param  USART_InvPin: specifies the USART pin(s) to invert.
 585:/home/user/Desktop/STM32-Projekte/FH-Vertibot/src/STM32F30x_StdPeriph_Driver/src/stm32f30x_usart.c ****   *         This parameter can be any combination of the following values:
 586:/home/user/Desktop/STM32-Projekte/FH-Vertibot/src/STM32F30x_StdPeriph_Driver/src/stm32f30x_usart.c ****   *         @arg USART_InvPin_Tx: USART Tx pin active level inversion.
 587:/home/user/Desktop/STM32-Projekte/FH-Vertibot/src/STM32F30x_StdPeriph_Driver/src/stm32f30x_usart.c ****   *         @arg USART_InvPin_Rx: USART Rx pin active level inversion.
 588:/home/user/Desktop/STM32-Projekte/FH-Vertibot/src/STM32F30x_StdPeriph_Driver/src/stm32f30x_usart.c ****   * @param  NewState: new active level status for the USART pin(s).
 589:/home/user/Desktop/STM32-Projekte/FH-Vertibot/src/STM32F30x_StdPeriph_Driver/src/stm32f30x_usart.c ****   *         This parameter can be: ENABLE or DISABLE.
 590:/home/user/Desktop/STM32-Projekte/FH-Vertibot/src/STM32F30x_StdPeriph_Driver/src/stm32f30x_usart.c ****   *          - ENABLE: pin(s) signal values are inverted (Vdd =0, Gnd =1).
 591:/home/user/Desktop/STM32-Projekte/FH-Vertibot/src/STM32F30x_StdPeriph_Driver/src/stm32f30x_usart.c ****   *          - DISABLE: pin(s) signal works using the standard logic levels (Vdd =1, Gnd =0).
 592:/home/user/Desktop/STM32-Projekte/FH-Vertibot/src/STM32F30x_StdPeriph_Driver/src/stm32f30x_usart.c ****   * @note
 593:/home/user/Desktop/STM32-Projekte/FH-Vertibot/src/STM32F30x_StdPeriph_Driver/src/stm32f30x_usart.c ****   *   This function has to be called before calling USART_Cmd() function.  
 594:/home/user/Desktop/STM32-Projekte/FH-Vertibot/src/STM32F30x_StdPeriph_Driver/src/stm32f30x_usart.c ****   * @retval None
 595:/home/user/Desktop/STM32-Projekte/FH-Vertibot/src/STM32F30x_StdPeriph_Driver/src/stm32f30x_usart.c ****   */
 596:/home/user/Desktop/STM32-Projekte/FH-Vertibot/src/STM32F30x_StdPeriph_Driver/src/stm32f30x_usart.c **** void USART_InvPinCmd(USART_TypeDef* USARTx, uint32_t USART_InvPin, FunctionalState NewState)
 597:/home/user/Desktop/STM32-Projekte/FH-Vertibot/src/STM32F30x_StdPeriph_Driver/src/stm32f30x_usart.c **** {
 602              		.loc 1 597 0
 603              		.cfi_startproc
 604              		@ args = 0, pretend = 0, frame = 0
 605              		@ frame_needed = 0, uses_anonymous_args = 0
 606              		@ link register save eliminated.
 607              	.LVL63:
 598:/home/user/Desktop/STM32-Projekte/FH-Vertibot/src/STM32F30x_StdPeriph_Driver/src/stm32f30x_usart.c ****   /* Check the parameters */
 599:/home/user/Desktop/STM32-Projekte/FH-Vertibot/src/STM32F30x_StdPeriph_Driver/src/stm32f30x_usart.c ****   assert_param(IS_USART_ALL_PERIPH(USARTx));
 600:/home/user/Desktop/STM32-Projekte/FH-Vertibot/src/STM32F30x_StdPeriph_Driver/src/stm32f30x_usart.c ****   assert_param(IS_USART_INVERSTION_PIN(USART_InvPin));
 601:/home/user/Desktop/STM32-Projekte/FH-Vertibot/src/STM32F30x_StdPeriph_Driver/src/stm32f30x_usart.c ****   assert_param(IS_FUNCTIONAL_STATE(NewState)); 
 602:/home/user/Desktop/STM32-Projekte/FH-Vertibot/src/STM32F30x_StdPeriph_Driver/src/stm32f30x_usart.c **** 
 603:/home/user/Desktop/STM32-Projekte/FH-Vertibot/src/STM32F30x_StdPeriph_Driver/src/stm32f30x_usart.c ****   if (NewState != DISABLE)
 604:/home/user/Desktop/STM32-Projekte/FH-Vertibot/src/STM32F30x_StdPeriph_Driver/src/stm32f30x_usart.c ****   {
 605:/home/user/Desktop/STM32-Projekte/FH-Vertibot/src/STM32F30x_StdPeriph_Driver/src/stm32f30x_usart.c ****     /* Enable the active level inversion for selected pins by setting the TXINV 
 606:/home/user/Desktop/STM32-Projekte/FH-Vertibot/src/STM32F30x_StdPeriph_Driver/src/stm32f30x_usart.c ****        and/or RXINV bits in the USART CR2 register */
 607:/home/user/Desktop/STM32-Projekte/FH-Vertibot/src/STM32F30x_StdPeriph_Driver/src/stm32f30x_usart.c ****     USARTx->CR2 |= USART_InvPin;
 608              		.loc 1 607 0
 609 01f8 4368     		ldr	r3, [r0, #4]
 603:/home/user/Desktop/STM32-Projekte/FH-Vertibot/src/STM32F30x_StdPeriph_Driver/src/stm32f30x_usart.c ****   if (NewState != DISABLE)
 610              		.loc 1 603 0
 611 01fa 0AB1     		cbz	r2, .L54
 612              		.loc 1 607 0
 613 01fc 1943     		orrs	r1, r1, r3
 614              	.LVL64:
 615 01fe 01E0     		b	.L56
 616              	.LVL65:
 617              	.L54:
 608:/home/user/Desktop/STM32-Projekte/FH-Vertibot/src/STM32F30x_StdPeriph_Driver/src/stm32f30x_usart.c ****   }
 609:/home/user/Desktop/STM32-Projekte/FH-Vertibot/src/STM32F30x_StdPeriph_Driver/src/stm32f30x_usart.c ****   else
 610:/home/user/Desktop/STM32-Projekte/FH-Vertibot/src/STM32F30x_StdPeriph_Driver/src/stm32f30x_usart.c ****   {
 611:/home/user/Desktop/STM32-Projekte/FH-Vertibot/src/STM32F30x_StdPeriph_Driver/src/stm32f30x_usart.c ****     /* Disable the active level inversion for selected requests by clearing the 
 612:/home/user/Desktop/STM32-Projekte/FH-Vertibot/src/STM32F30x_StdPeriph_Driver/src/stm32f30x_usart.c ****        TXINV and/or RXINV bits in the USART CR2 register */
 613:/home/user/Desktop/STM32-Projekte/FH-Vertibot/src/STM32F30x_StdPeriph_Driver/src/stm32f30x_usart.c ****     USARTx->CR2 &= (uint32_t)~USART_InvPin;
 618              		.loc 1 613 0
 619 0200 23EA0101 		bic	r1, r3, r1
 620              	.LVL66:
 621              	.L56:
 622 0204 4160     		str	r1, [r0, #4]
 623 0206 7047     		bx	lr
 624              		.cfi_endproc
 625              	.LFE122:
 627              		.align	1
 628              		.global	USART_SWAPPinCmd
 629              		.thumb
 630              		.thumb_func
 632              	USART_SWAPPinCmd:
 633              	.LFB123:
 614:/home/user/Desktop/STM32-Projekte/FH-Vertibot/src/STM32F30x_StdPeriph_Driver/src/stm32f30x_usart.c ****   }
 615:/home/user/Desktop/STM32-Projekte/FH-Vertibot/src/STM32F30x_StdPeriph_Driver/src/stm32f30x_usart.c **** }
 616:/home/user/Desktop/STM32-Projekte/FH-Vertibot/src/STM32F30x_StdPeriph_Driver/src/stm32f30x_usart.c **** 
 617:/home/user/Desktop/STM32-Projekte/FH-Vertibot/src/STM32F30x_StdPeriph_Driver/src/stm32f30x_usart.c **** /**
 618:/home/user/Desktop/STM32-Projekte/FH-Vertibot/src/STM32F30x_StdPeriph_Driver/src/stm32f30x_usart.c ****   * @brief  Enables or disables the swap Tx/Rx pins.
 619:/home/user/Desktop/STM32-Projekte/FH-Vertibot/src/STM32F30x_StdPeriph_Driver/src/stm32f30x_usart.c ****   * @param  USARTx: Select the USART peripheral. This parameter can be one of the
 620:/home/user/Desktop/STM32-Projekte/FH-Vertibot/src/STM32F30x_StdPeriph_Driver/src/stm32f30x_usart.c ****   *         following values: USART1 or USART2 or USART3 or UART4 or UART5.
 621:/home/user/Desktop/STM32-Projekte/FH-Vertibot/src/STM32F30x_StdPeriph_Driver/src/stm32f30x_usart.c ****   * @param  NewState: new state of the USARTx TX/RX pins pinout.
 622:/home/user/Desktop/STM32-Projekte/FH-Vertibot/src/STM32F30x_StdPeriph_Driver/src/stm32f30x_usart.c ****   *         This parameter can be: ENABLE or DISABLE.
 623:/home/user/Desktop/STM32-Projekte/FH-Vertibot/src/STM32F30x_StdPeriph_Driver/src/stm32f30x_usart.c ****   *         @arg ENABLE: The TX and RX pins functions are swapped.
 624:/home/user/Desktop/STM32-Projekte/FH-Vertibot/src/STM32F30x_StdPeriph_Driver/src/stm32f30x_usart.c ****   *         @arg DISABLE: TX/RX pins are used as defined in standard pinout
 625:/home/user/Desktop/STM32-Projekte/FH-Vertibot/src/STM32F30x_StdPeriph_Driver/src/stm32f30x_usart.c ****   * @note
 626:/home/user/Desktop/STM32-Projekte/FH-Vertibot/src/STM32F30x_StdPeriph_Driver/src/stm32f30x_usart.c ****   *   This function has to be called before calling USART_Cmd() function.
 627:/home/user/Desktop/STM32-Projekte/FH-Vertibot/src/STM32F30x_StdPeriph_Driver/src/stm32f30x_usart.c ****   * @retval None
 628:/home/user/Desktop/STM32-Projekte/FH-Vertibot/src/STM32F30x_StdPeriph_Driver/src/stm32f30x_usart.c ****   */
 629:/home/user/Desktop/STM32-Projekte/FH-Vertibot/src/STM32F30x_StdPeriph_Driver/src/stm32f30x_usart.c **** void USART_SWAPPinCmd(USART_TypeDef* USARTx, FunctionalState NewState)
 630:/home/user/Desktop/STM32-Projekte/FH-Vertibot/src/STM32F30x_StdPeriph_Driver/src/stm32f30x_usart.c **** {
 634              		.loc 1 630 0
 635              		.cfi_startproc
 636              		@ args = 0, pretend = 0, frame = 0
 637              		@ frame_needed = 0, uses_anonymous_args = 0
 638              		@ link register save eliminated.
 639              	.LVL67:
 631:/home/user/Desktop/STM32-Projekte/FH-Vertibot/src/STM32F30x_StdPeriph_Driver/src/stm32f30x_usart.c ****   /* Check the parameters */
 632:/home/user/Desktop/STM32-Projekte/FH-Vertibot/src/STM32F30x_StdPeriph_Driver/src/stm32f30x_usart.c ****   assert_param(IS_USART_ALL_PERIPH(USARTx));
 633:/home/user/Desktop/STM32-Projekte/FH-Vertibot/src/STM32F30x_StdPeriph_Driver/src/stm32f30x_usart.c ****   assert_param(IS_FUNCTIONAL_STATE(NewState));
 634:/home/user/Desktop/STM32-Projekte/FH-Vertibot/src/STM32F30x_StdPeriph_Driver/src/stm32f30x_usart.c **** 
 635:/home/user/Desktop/STM32-Projekte/FH-Vertibot/src/STM32F30x_StdPeriph_Driver/src/stm32f30x_usart.c ****   if (NewState != DISABLE)
 636:/home/user/Desktop/STM32-Projekte/FH-Vertibot/src/STM32F30x_StdPeriph_Driver/src/stm32f30x_usart.c ****   {
 637:/home/user/Desktop/STM32-Projekte/FH-Vertibot/src/STM32F30x_StdPeriph_Driver/src/stm32f30x_usart.c ****     /* Enable the SWAP feature by setting the SWAP bit in the CR2 register */
 638:/home/user/Desktop/STM32-Projekte/FH-Vertibot/src/STM32F30x_StdPeriph_Driver/src/stm32f30x_usart.c ****     USARTx->CR2 |= USART_CR2_SWAP;
 640              		.loc 1 638 0
 641 0208 4368     		ldr	r3, [r0, #4]
 635:/home/user/Desktop/STM32-Projekte/FH-Vertibot/src/STM32F30x_StdPeriph_Driver/src/stm32f30x_usart.c ****   if (NewState != DISABLE)
 642              		.loc 1 635 0
 643 020a 11B1     		cbz	r1, .L58
 644              		.loc 1 638 0
 645 020c 43F40043 		orr	r3, r3, #32768
 646 0210 01E0     		b	.L60
 647              	.L58:
 639:/home/user/Desktop/STM32-Projekte/FH-Vertibot/src/STM32F30x_StdPeriph_Driver/src/stm32f30x_usart.c ****   }
 640:/home/user/Desktop/STM32-Projekte/FH-Vertibot/src/STM32F30x_StdPeriph_Driver/src/stm32f30x_usart.c ****   else
 641:/home/user/Desktop/STM32-Projekte/FH-Vertibot/src/STM32F30x_StdPeriph_Driver/src/stm32f30x_usart.c ****   {
 642:/home/user/Desktop/STM32-Projekte/FH-Vertibot/src/STM32F30x_StdPeriph_Driver/src/stm32f30x_usart.c ****     /* Disable the SWAP feature by clearing the SWAP bit in the CR2 register */
 643:/home/user/Desktop/STM32-Projekte/FH-Vertibot/src/STM32F30x_StdPeriph_Driver/src/stm32f30x_usart.c ****     USARTx->CR2 &= (uint32_t)~((uint32_t)USART_CR2_SWAP);
 648              		.loc 1 643 0
 649 0212 23F40043 		bic	r3, r3, #32768
 650              	.L60:
 651 0216 4360     		str	r3, [r0, #4]
 652 0218 7047     		bx	lr
 653              		.cfi_endproc
 654              	.LFE123:
 656              		.align	1
 657              		.global	USART_ReceiverTimeOutCmd
 658              		.thumb
 659              		.thumb_func
 661              	USART_ReceiverTimeOutCmd:
 662              	.LFB124:
 644:/home/user/Desktop/STM32-Projekte/FH-Vertibot/src/STM32F30x_StdPeriph_Driver/src/stm32f30x_usart.c ****   }
 645:/home/user/Desktop/STM32-Projekte/FH-Vertibot/src/STM32F30x_StdPeriph_Driver/src/stm32f30x_usart.c **** }
 646:/home/user/Desktop/STM32-Projekte/FH-Vertibot/src/STM32F30x_StdPeriph_Driver/src/stm32f30x_usart.c **** 
 647:/home/user/Desktop/STM32-Projekte/FH-Vertibot/src/STM32F30x_StdPeriph_Driver/src/stm32f30x_usart.c **** /**
 648:/home/user/Desktop/STM32-Projekte/FH-Vertibot/src/STM32F30x_StdPeriph_Driver/src/stm32f30x_usart.c ****   * @brief  Enables or disables the receiver Time Out feature.
 649:/home/user/Desktop/STM32-Projekte/FH-Vertibot/src/STM32F30x_StdPeriph_Driver/src/stm32f30x_usart.c ****   * @param  USARTx: Select the USART peripheral. This parameter can be one of the 
 650:/home/user/Desktop/STM32-Projekte/FH-Vertibot/src/STM32F30x_StdPeriph_Driver/src/stm32f30x_usart.c ****   *         following values: USART1 or USART2 or USART3 or UART4 or UART5.
 651:/home/user/Desktop/STM32-Projekte/FH-Vertibot/src/STM32F30x_StdPeriph_Driver/src/stm32f30x_usart.c ****   * @param  NewState: new state of the USARTx receiver Time Out.
 652:/home/user/Desktop/STM32-Projekte/FH-Vertibot/src/STM32F30x_StdPeriph_Driver/src/stm32f30x_usart.c ****   *         This parameter can be: ENABLE or DISABLE.
 653:/home/user/Desktop/STM32-Projekte/FH-Vertibot/src/STM32F30x_StdPeriph_Driver/src/stm32f30x_usart.c ****   * @retval None
 654:/home/user/Desktop/STM32-Projekte/FH-Vertibot/src/STM32F30x_StdPeriph_Driver/src/stm32f30x_usart.c ****   */
 655:/home/user/Desktop/STM32-Projekte/FH-Vertibot/src/STM32F30x_StdPeriph_Driver/src/stm32f30x_usart.c **** void USART_ReceiverTimeOutCmd(USART_TypeDef* USARTx, FunctionalState NewState)
 656:/home/user/Desktop/STM32-Projekte/FH-Vertibot/src/STM32F30x_StdPeriph_Driver/src/stm32f30x_usart.c **** {
 663              		.loc 1 656 0
 664              		.cfi_startproc
 665              		@ args = 0, pretend = 0, frame = 0
 666              		@ frame_needed = 0, uses_anonymous_args = 0
 667              		@ link register save eliminated.
 668              	.LVL68:
 657:/home/user/Desktop/STM32-Projekte/FH-Vertibot/src/STM32F30x_StdPeriph_Driver/src/stm32f30x_usart.c ****   /* Check the parameters */
 658:/home/user/Desktop/STM32-Projekte/FH-Vertibot/src/STM32F30x_StdPeriph_Driver/src/stm32f30x_usart.c ****   assert_param(IS_USART_ALL_PERIPH(USARTx));
 659:/home/user/Desktop/STM32-Projekte/FH-Vertibot/src/STM32F30x_StdPeriph_Driver/src/stm32f30x_usart.c ****   assert_param(IS_FUNCTIONAL_STATE(NewState));
 660:/home/user/Desktop/STM32-Projekte/FH-Vertibot/src/STM32F30x_StdPeriph_Driver/src/stm32f30x_usart.c **** 
 661:/home/user/Desktop/STM32-Projekte/FH-Vertibot/src/STM32F30x_StdPeriph_Driver/src/stm32f30x_usart.c ****   if (NewState != DISABLE)
 662:/home/user/Desktop/STM32-Projekte/FH-Vertibot/src/STM32F30x_StdPeriph_Driver/src/stm32f30x_usart.c ****   {
 663:/home/user/Desktop/STM32-Projekte/FH-Vertibot/src/STM32F30x_StdPeriph_Driver/src/stm32f30x_usart.c ****     /* Enable the receiver time out feature by setting the RTOEN bit in the CR2 
 664:/home/user/Desktop/STM32-Projekte/FH-Vertibot/src/STM32F30x_StdPeriph_Driver/src/stm32f30x_usart.c ****        register */
 665:/home/user/Desktop/STM32-Projekte/FH-Vertibot/src/STM32F30x_StdPeriph_Driver/src/stm32f30x_usart.c ****     USARTx->CR2 |= USART_CR2_RTOEN;
 669              		.loc 1 665 0
 670 021a 4368     		ldr	r3, [r0, #4]
 661:/home/user/Desktop/STM32-Projekte/FH-Vertibot/src/STM32F30x_StdPeriph_Driver/src/stm32f30x_usart.c ****   if (NewState != DISABLE)
 671              		.loc 1 661 0
 672 021c 11B1     		cbz	r1, .L62
 673              		.loc 1 665 0
 674 021e 43F40003 		orr	r3, r3, #8388608
 675 0222 01E0     		b	.L64
 676              	.L62:
 666:/home/user/Desktop/STM32-Projekte/FH-Vertibot/src/STM32F30x_StdPeriph_Driver/src/stm32f30x_usart.c ****   }
 667:/home/user/Desktop/STM32-Projekte/FH-Vertibot/src/STM32F30x_StdPeriph_Driver/src/stm32f30x_usart.c ****   else
 668:/home/user/Desktop/STM32-Projekte/FH-Vertibot/src/STM32F30x_StdPeriph_Driver/src/stm32f30x_usart.c ****   {
 669:/home/user/Desktop/STM32-Projekte/FH-Vertibot/src/STM32F30x_StdPeriph_Driver/src/stm32f30x_usart.c ****     /* Disable the receiver time out feature by clearing the RTOEN bit in the CR2 
 670:/home/user/Desktop/STM32-Projekte/FH-Vertibot/src/STM32F30x_StdPeriph_Driver/src/stm32f30x_usart.c ****        register */
 671:/home/user/Desktop/STM32-Projekte/FH-Vertibot/src/STM32F30x_StdPeriph_Driver/src/stm32f30x_usart.c ****     USARTx->CR2 &= (uint32_t)~((uint32_t)USART_CR2_RTOEN);
 677              		.loc 1 671 0
 678 0224 23F40003 		bic	r3, r3, #8388608
 679              	.L64:
 680 0228 4360     		str	r3, [r0, #4]
 681 022a 7047     		bx	lr
 682              		.cfi_endproc
 683              	.LFE124:
 685              		.align	1
 686              		.global	USART_SetReceiverTimeOut
 687              		.thumb
 688              		.thumb_func
 690              	USART_SetReceiverTimeOut:
 691              	.LFB125:
 672:/home/user/Desktop/STM32-Projekte/FH-Vertibot/src/STM32F30x_StdPeriph_Driver/src/stm32f30x_usart.c ****   }
 673:/home/user/Desktop/STM32-Projekte/FH-Vertibot/src/STM32F30x_StdPeriph_Driver/src/stm32f30x_usart.c **** }
 674:/home/user/Desktop/STM32-Projekte/FH-Vertibot/src/STM32F30x_StdPeriph_Driver/src/stm32f30x_usart.c **** 
 675:/home/user/Desktop/STM32-Projekte/FH-Vertibot/src/STM32F30x_StdPeriph_Driver/src/stm32f30x_usart.c **** /**
 676:/home/user/Desktop/STM32-Projekte/FH-Vertibot/src/STM32F30x_StdPeriph_Driver/src/stm32f30x_usart.c ****   * @brief  Sets the receiver Time Out value.
 677:/home/user/Desktop/STM32-Projekte/FH-Vertibot/src/STM32F30x_StdPeriph_Driver/src/stm32f30x_usart.c ****   * @param  USARTx: Select the USART peripheral. This parameter can be one of the 
 678:/home/user/Desktop/STM32-Projekte/FH-Vertibot/src/STM32F30x_StdPeriph_Driver/src/stm32f30x_usart.c ****   *         following values: USART1 or USART2 or USART3 or UART4 or UART5.
 679:/home/user/Desktop/STM32-Projekte/FH-Vertibot/src/STM32F30x_StdPeriph_Driver/src/stm32f30x_usart.c ****   * @param  USART_ReceiverTimeOut: specifies the Receiver Time Out value.
 680:/home/user/Desktop/STM32-Projekte/FH-Vertibot/src/STM32F30x_StdPeriph_Driver/src/stm32f30x_usart.c ****   * @retval None
 681:/home/user/Desktop/STM32-Projekte/FH-Vertibot/src/STM32F30x_StdPeriph_Driver/src/stm32f30x_usart.c ****   */
 682:/home/user/Desktop/STM32-Projekte/FH-Vertibot/src/STM32F30x_StdPeriph_Driver/src/stm32f30x_usart.c **** void USART_SetReceiverTimeOut(USART_TypeDef* USARTx, uint32_t USART_ReceiverTimeOut)
 683:/home/user/Desktop/STM32-Projekte/FH-Vertibot/src/STM32F30x_StdPeriph_Driver/src/stm32f30x_usart.c **** {    
 692              		.loc 1 683 0
 693              		.cfi_startproc
 694              		@ args = 0, pretend = 0, frame = 0
 695              		@ frame_needed = 0, uses_anonymous_args = 0
 696              		@ link register save eliminated.
 697              	.LVL69:
 684:/home/user/Desktop/STM32-Projekte/FH-Vertibot/src/STM32F30x_StdPeriph_Driver/src/stm32f30x_usart.c ****   /* Check the parameters */
 685:/home/user/Desktop/STM32-Projekte/FH-Vertibot/src/STM32F30x_StdPeriph_Driver/src/stm32f30x_usart.c ****   assert_param(IS_USART_ALL_PERIPH(USARTx));
 686:/home/user/Desktop/STM32-Projekte/FH-Vertibot/src/STM32F30x_StdPeriph_Driver/src/stm32f30x_usart.c ****   assert_param(IS_USART_TIMEOUT(USART_ReceiverTimeOut));
 687:/home/user/Desktop/STM32-Projekte/FH-Vertibot/src/STM32F30x_StdPeriph_Driver/src/stm32f30x_usart.c **** 
 688:/home/user/Desktop/STM32-Projekte/FH-Vertibot/src/STM32F30x_StdPeriph_Driver/src/stm32f30x_usart.c ****   /* Clear the receiver Time Out value by clearing the RTO[23:0] bits in the RTOR
 689:/home/user/Desktop/STM32-Projekte/FH-Vertibot/src/STM32F30x_StdPeriph_Driver/src/stm32f30x_usart.c ****      register  */
 690:/home/user/Desktop/STM32-Projekte/FH-Vertibot/src/STM32F30x_StdPeriph_Driver/src/stm32f30x_usart.c ****   USARTx->RTOR &= (uint32_t)~((uint32_t)USART_RTOR_RTO);
 698              		.loc 1 690 0
 699 022c 4369     		ldr	r3, [r0, #20]
 700 022e 03F07F43 		and	r3, r3, #-16777216
 701 0232 4361     		str	r3, [r0, #20]
 691:/home/user/Desktop/STM32-Projekte/FH-Vertibot/src/STM32F30x_StdPeriph_Driver/src/stm32f30x_usart.c ****   /* Set the receiver Time Out value by setting the RTO[23:0] bits in the RTOR
 692:/home/user/Desktop/STM32-Projekte/FH-Vertibot/src/STM32F30x_StdPeriph_Driver/src/stm32f30x_usart.c ****      register  */
 693:/home/user/Desktop/STM32-Projekte/FH-Vertibot/src/STM32F30x_StdPeriph_Driver/src/stm32f30x_usart.c ****   USARTx->RTOR |= USART_ReceiverTimeOut;
 702              		.loc 1 693 0
 703 0234 4369     		ldr	r3, [r0, #20]
 704 0236 1943     		orrs	r1, r1, r3
 705              	.LVL70:
 706 0238 4161     		str	r1, [r0, #20]
 707 023a 7047     		bx	lr
 708              		.cfi_endproc
 709              	.LFE125:
 711              		.align	1
 712              		.global	USART_SetPrescaler
 713              		.thumb
 714              		.thumb_func
 716              	USART_SetPrescaler:
 717              	.LFB126:
 694:/home/user/Desktop/STM32-Projekte/FH-Vertibot/src/STM32F30x_StdPeriph_Driver/src/stm32f30x_usart.c **** }
 695:/home/user/Desktop/STM32-Projekte/FH-Vertibot/src/STM32F30x_StdPeriph_Driver/src/stm32f30x_usart.c **** 
 696:/home/user/Desktop/STM32-Projekte/FH-Vertibot/src/STM32F30x_StdPeriph_Driver/src/stm32f30x_usart.c **** /**
 697:/home/user/Desktop/STM32-Projekte/FH-Vertibot/src/STM32F30x_StdPeriph_Driver/src/stm32f30x_usart.c ****   * @brief  Sets the system clock prescaler.
 698:/home/user/Desktop/STM32-Projekte/FH-Vertibot/src/STM32F30x_StdPeriph_Driver/src/stm32f30x_usart.c ****   * @param  USARTx: Select the USART peripheral. This parameter can be one of the
 699:/home/user/Desktop/STM32-Projekte/FH-Vertibot/src/STM32F30x_StdPeriph_Driver/src/stm32f30x_usart.c ****   *         following values: USART1 or USART2 or USART3 or UART4 or UART5.
 700:/home/user/Desktop/STM32-Projekte/FH-Vertibot/src/STM32F30x_StdPeriph_Driver/src/stm32f30x_usart.c ****   * @param  USART_Prescaler: specifies the prescaler clock.  
 701:/home/user/Desktop/STM32-Projekte/FH-Vertibot/src/STM32F30x_StdPeriph_Driver/src/stm32f30x_usart.c ****   * @note
 702:/home/user/Desktop/STM32-Projekte/FH-Vertibot/src/STM32F30x_StdPeriph_Driver/src/stm32f30x_usart.c ****   *   This function has to be called before calling USART_Cmd() function.  
 703:/home/user/Desktop/STM32-Projekte/FH-Vertibot/src/STM32F30x_StdPeriph_Driver/src/stm32f30x_usart.c ****   * @retval None
 704:/home/user/Desktop/STM32-Projekte/FH-Vertibot/src/STM32F30x_StdPeriph_Driver/src/stm32f30x_usart.c ****   */
 705:/home/user/Desktop/STM32-Projekte/FH-Vertibot/src/STM32F30x_StdPeriph_Driver/src/stm32f30x_usart.c **** void USART_SetPrescaler(USART_TypeDef* USARTx, uint8_t USART_Prescaler)
 706:/home/user/Desktop/STM32-Projekte/FH-Vertibot/src/STM32F30x_StdPeriph_Driver/src/stm32f30x_usart.c **** {
 718              		.loc 1 706 0
 719              		.cfi_startproc
 720              		@ args = 0, pretend = 0, frame = 0
 721              		@ frame_needed = 0, uses_anonymous_args = 0
 722              		@ link register save eliminated.
 723              	.LVL71:
 707:/home/user/Desktop/STM32-Projekte/FH-Vertibot/src/STM32F30x_StdPeriph_Driver/src/stm32f30x_usart.c ****   /* Check the parameters */
 708:/home/user/Desktop/STM32-Projekte/FH-Vertibot/src/STM32F30x_StdPeriph_Driver/src/stm32f30x_usart.c ****   assert_param(IS_USART_ALL_PERIPH(USARTx));
 709:/home/user/Desktop/STM32-Projekte/FH-Vertibot/src/STM32F30x_StdPeriph_Driver/src/stm32f30x_usart.c **** 
 710:/home/user/Desktop/STM32-Projekte/FH-Vertibot/src/STM32F30x_StdPeriph_Driver/src/stm32f30x_usart.c ****   /* Clear the USART prescaler */
 711:/home/user/Desktop/STM32-Projekte/FH-Vertibot/src/STM32F30x_StdPeriph_Driver/src/stm32f30x_usart.c ****   USARTx->GTPR &= USART_GTPR_GT;
 724              		.loc 1 711 0
 725 023c 038A     		ldrh	r3, [r0, #16]
 726 023e 03F47F43 		and	r3, r3, #65280
 727 0242 0382     		strh	r3, [r0, #16]	@ movhi
 712:/home/user/Desktop/STM32-Projekte/FH-Vertibot/src/STM32F30x_StdPeriph_Driver/src/stm32f30x_usart.c ****   /* Set the USART prescaler */
 713:/home/user/Desktop/STM32-Projekte/FH-Vertibot/src/STM32F30x_StdPeriph_Driver/src/stm32f30x_usart.c ****   USARTx->GTPR |= USART_Prescaler;
 728              		.loc 1 713 0
 729 0244 038A     		ldrh	r3, [r0, #16]
 730 0246 9BB2     		uxth	r3, r3
 731 0248 1943     		orrs	r1, r1, r3
 732              	.LVL72:
 733 024a 0182     		strh	r1, [r0, #16]	@ movhi
 734 024c 7047     		bx	lr
 735              		.cfi_endproc
 736              	.LFE126:
 738              		.align	1
 739              		.global	USART_STOPModeCmd
 740              		.thumb
 741              		.thumb_func
 743              	USART_STOPModeCmd:
 744              	.LFB127:
 714:/home/user/Desktop/STM32-Projekte/FH-Vertibot/src/STM32F30x_StdPeriph_Driver/src/stm32f30x_usart.c **** }
 715:/home/user/Desktop/STM32-Projekte/FH-Vertibot/src/STM32F30x_StdPeriph_Driver/src/stm32f30x_usart.c **** 
 716:/home/user/Desktop/STM32-Projekte/FH-Vertibot/src/STM32F30x_StdPeriph_Driver/src/stm32f30x_usart.c **** /**
 717:/home/user/Desktop/STM32-Projekte/FH-Vertibot/src/STM32F30x_StdPeriph_Driver/src/stm32f30x_usart.c ****   * @}
 718:/home/user/Desktop/STM32-Projekte/FH-Vertibot/src/STM32F30x_StdPeriph_Driver/src/stm32f30x_usart.c ****   */
 719:/home/user/Desktop/STM32-Projekte/FH-Vertibot/src/STM32F30x_StdPeriph_Driver/src/stm32f30x_usart.c **** 
 720:/home/user/Desktop/STM32-Projekte/FH-Vertibot/src/STM32F30x_StdPeriph_Driver/src/stm32f30x_usart.c **** 
 721:/home/user/Desktop/STM32-Projekte/FH-Vertibot/src/STM32F30x_StdPeriph_Driver/src/stm32f30x_usart.c **** /** @defgroup USART_Group2 STOP Mode functions
 722:/home/user/Desktop/STM32-Projekte/FH-Vertibot/src/STM32F30x_StdPeriph_Driver/src/stm32f30x_usart.c ****  *  @brief   STOP Mode functions
 723:/home/user/Desktop/STM32-Projekte/FH-Vertibot/src/STM32F30x_StdPeriph_Driver/src/stm32f30x_usart.c ****  *
 724:/home/user/Desktop/STM32-Projekte/FH-Vertibot/src/STM32F30x_StdPeriph_Driver/src/stm32f30x_usart.c **** @verbatim
 725:/home/user/Desktop/STM32-Projekte/FH-Vertibot/src/STM32F30x_StdPeriph_Driver/src/stm32f30x_usart.c ****  ===============================================================================
 726:/home/user/Desktop/STM32-Projekte/FH-Vertibot/src/STM32F30x_StdPeriph_Driver/src/stm32f30x_usart.c ****                         ##### STOP Mode functions #####
 727:/home/user/Desktop/STM32-Projekte/FH-Vertibot/src/STM32F30x_StdPeriph_Driver/src/stm32f30x_usart.c ****  ===============================================================================
 728:/home/user/Desktop/STM32-Projekte/FH-Vertibot/src/STM32F30x_StdPeriph_Driver/src/stm32f30x_usart.c ****     [..] This subsection provides a set of functions allowing to manage 
 729:/home/user/Desktop/STM32-Projekte/FH-Vertibot/src/STM32F30x_StdPeriph_Driver/src/stm32f30x_usart.c ****          WakeUp from STOP mode.
 730:/home/user/Desktop/STM32-Projekte/FH-Vertibot/src/STM32F30x_StdPeriph_Driver/src/stm32f30x_usart.c **** 
 731:/home/user/Desktop/STM32-Projekte/FH-Vertibot/src/STM32F30x_StdPeriph_Driver/src/stm32f30x_usart.c ****     [..] The USART is able to WakeUp from Stop Mode if USART clock is set to HSI
 732:/home/user/Desktop/STM32-Projekte/FH-Vertibot/src/STM32F30x_StdPeriph_Driver/src/stm32f30x_usart.c ****          or LSI.
 733:/home/user/Desktop/STM32-Projekte/FH-Vertibot/src/STM32F30x_StdPeriph_Driver/src/stm32f30x_usart.c ****          
 734:/home/user/Desktop/STM32-Projekte/FH-Vertibot/src/STM32F30x_StdPeriph_Driver/src/stm32f30x_usart.c ****     [..] The WakeUp source is configured by calling USART_StopModeWakeUpSourceConfig()
 735:/home/user/Desktop/STM32-Projekte/FH-Vertibot/src/STM32F30x_StdPeriph_Driver/src/stm32f30x_usart.c ****          function.
 736:/home/user/Desktop/STM32-Projekte/FH-Vertibot/src/STM32F30x_StdPeriph_Driver/src/stm32f30x_usart.c ****          
 737:/home/user/Desktop/STM32-Projekte/FH-Vertibot/src/STM32F30x_StdPeriph_Driver/src/stm32f30x_usart.c ****     [..] After configuring the source of WakeUp and before entering in Stop Mode 
 738:/home/user/Desktop/STM32-Projekte/FH-Vertibot/src/STM32F30x_StdPeriph_Driver/src/stm32f30x_usart.c ****          USART_STOPModeCmd() function should be called to allow USART WakeUp.
 739:/home/user/Desktop/STM32-Projekte/FH-Vertibot/src/STM32F30x_StdPeriph_Driver/src/stm32f30x_usart.c ****                            
 740:/home/user/Desktop/STM32-Projekte/FH-Vertibot/src/STM32F30x_StdPeriph_Driver/src/stm32f30x_usart.c **** @endverbatim
 741:/home/user/Desktop/STM32-Projekte/FH-Vertibot/src/STM32F30x_StdPeriph_Driver/src/stm32f30x_usart.c ****   * @{
 742:/home/user/Desktop/STM32-Projekte/FH-Vertibot/src/STM32F30x_StdPeriph_Driver/src/stm32f30x_usart.c ****   */
 743:/home/user/Desktop/STM32-Projekte/FH-Vertibot/src/STM32F30x_StdPeriph_Driver/src/stm32f30x_usart.c ****   
 744:/home/user/Desktop/STM32-Projekte/FH-Vertibot/src/STM32F30x_StdPeriph_Driver/src/stm32f30x_usart.c **** /**
 745:/home/user/Desktop/STM32-Projekte/FH-Vertibot/src/STM32F30x_StdPeriph_Driver/src/stm32f30x_usart.c ****   * @brief  Enables or disables the specified USART peripheral in STOP Mode.
 746:/home/user/Desktop/STM32-Projekte/FH-Vertibot/src/STM32F30x_StdPeriph_Driver/src/stm32f30x_usart.c ****   * @param  USARTx: Select the USART peripheral. This parameter can be one of the
 747:/home/user/Desktop/STM32-Projekte/FH-Vertibot/src/STM32F30x_StdPeriph_Driver/src/stm32f30x_usart.c ****   *         following values: USART1 or USART2 or USART3 or UART4 or UART5.
 748:/home/user/Desktop/STM32-Projekte/FH-Vertibot/src/STM32F30x_StdPeriph_Driver/src/stm32f30x_usart.c ****   * @param  NewState: new state of the USARTx peripheral state in stop mode.
 749:/home/user/Desktop/STM32-Projekte/FH-Vertibot/src/STM32F30x_StdPeriph_Driver/src/stm32f30x_usart.c ****   *         This parameter can be: ENABLE or DISABLE.
 750:/home/user/Desktop/STM32-Projekte/FH-Vertibot/src/STM32F30x_StdPeriph_Driver/src/stm32f30x_usart.c ****   * @note
 751:/home/user/Desktop/STM32-Projekte/FH-Vertibot/src/STM32F30x_StdPeriph_Driver/src/stm32f30x_usart.c ****   *   This function has to be called when USART clock is set to HSI or LSE.
 752:/home/user/Desktop/STM32-Projekte/FH-Vertibot/src/STM32F30x_StdPeriph_Driver/src/stm32f30x_usart.c ****   * @retval None
 753:/home/user/Desktop/STM32-Projekte/FH-Vertibot/src/STM32F30x_StdPeriph_Driver/src/stm32f30x_usart.c ****   */
 754:/home/user/Desktop/STM32-Projekte/FH-Vertibot/src/STM32F30x_StdPeriph_Driver/src/stm32f30x_usart.c **** void USART_STOPModeCmd(USART_TypeDef* USARTx, FunctionalState NewState)
 755:/home/user/Desktop/STM32-Projekte/FH-Vertibot/src/STM32F30x_StdPeriph_Driver/src/stm32f30x_usart.c **** {
 745              		.loc 1 755 0
 746              		.cfi_startproc
 747              		@ args = 0, pretend = 0, frame = 0
 748              		@ frame_needed = 0, uses_anonymous_args = 0
 749              		@ link register save eliminated.
 750              	.LVL73:
 756:/home/user/Desktop/STM32-Projekte/FH-Vertibot/src/STM32F30x_StdPeriph_Driver/src/stm32f30x_usart.c ****   /* Check the parameters */
 757:/home/user/Desktop/STM32-Projekte/FH-Vertibot/src/STM32F30x_StdPeriph_Driver/src/stm32f30x_usart.c ****   assert_param(IS_USART_ALL_PERIPH(USARTx));
 758:/home/user/Desktop/STM32-Projekte/FH-Vertibot/src/STM32F30x_StdPeriph_Driver/src/stm32f30x_usart.c ****   assert_param(IS_FUNCTIONAL_STATE(NewState));
 759:/home/user/Desktop/STM32-Projekte/FH-Vertibot/src/STM32F30x_StdPeriph_Driver/src/stm32f30x_usart.c ****   
 760:/home/user/Desktop/STM32-Projekte/FH-Vertibot/src/STM32F30x_StdPeriph_Driver/src/stm32f30x_usart.c ****   if (NewState != DISABLE)
 761:/home/user/Desktop/STM32-Projekte/FH-Vertibot/src/STM32F30x_StdPeriph_Driver/src/stm32f30x_usart.c ****   {
 762:/home/user/Desktop/STM32-Projekte/FH-Vertibot/src/STM32F30x_StdPeriph_Driver/src/stm32f30x_usart.c ****     /* Enable the selected USART in STOP mode by setting the UESM bit in the CR1
 763:/home/user/Desktop/STM32-Projekte/FH-Vertibot/src/STM32F30x_StdPeriph_Driver/src/stm32f30x_usart.c ****        register */
 764:/home/user/Desktop/STM32-Projekte/FH-Vertibot/src/STM32F30x_StdPeriph_Driver/src/stm32f30x_usart.c ****     USARTx->CR1 |= USART_CR1_UESM;
 751              		.loc 1 764 0
 752 024e 0368     		ldr	r3, [r0]
 760:/home/user/Desktop/STM32-Projekte/FH-Vertibot/src/STM32F30x_StdPeriph_Driver/src/stm32f30x_usart.c ****   if (NewState != DISABLE)
 753              		.loc 1 760 0
 754 0250 11B1     		cbz	r1, .L68
 755              		.loc 1 764 0
 756 0252 43F00203 		orr	r3, r3, #2
 757 0256 01E0     		b	.L70
 758              	.L68:
 765:/home/user/Desktop/STM32-Projekte/FH-Vertibot/src/STM32F30x_StdPeriph_Driver/src/stm32f30x_usart.c ****   }
 766:/home/user/Desktop/STM32-Projekte/FH-Vertibot/src/STM32F30x_StdPeriph_Driver/src/stm32f30x_usart.c ****   else
 767:/home/user/Desktop/STM32-Projekte/FH-Vertibot/src/STM32F30x_StdPeriph_Driver/src/stm32f30x_usart.c ****   {
 768:/home/user/Desktop/STM32-Projekte/FH-Vertibot/src/STM32F30x_StdPeriph_Driver/src/stm32f30x_usart.c ****     /* Disable the selected USART in STOP mode by clearing the UE bit in the CR1
 769:/home/user/Desktop/STM32-Projekte/FH-Vertibot/src/STM32F30x_StdPeriph_Driver/src/stm32f30x_usart.c ****        register */
 770:/home/user/Desktop/STM32-Projekte/FH-Vertibot/src/STM32F30x_StdPeriph_Driver/src/stm32f30x_usart.c ****     USARTx->CR1 &= (uint32_t)~((uint32_t)USART_CR1_UESM);
 759              		.loc 1 770 0
 760 0258 23F00203 		bic	r3, r3, #2
 761              	.L70:
 762 025c 0360     		str	r3, [r0]
 763 025e 7047     		bx	lr
 764              		.cfi_endproc
 765              	.LFE127:
 767              		.align	1
 768              		.global	USART_StopModeWakeUpSourceConfig
 769              		.thumb
 770              		.thumb_func
 772              	USART_StopModeWakeUpSourceConfig:
 773              	.LFB128:
 771:/home/user/Desktop/STM32-Projekte/FH-Vertibot/src/STM32F30x_StdPeriph_Driver/src/stm32f30x_usart.c ****   }
 772:/home/user/Desktop/STM32-Projekte/FH-Vertibot/src/STM32F30x_StdPeriph_Driver/src/stm32f30x_usart.c **** }
 773:/home/user/Desktop/STM32-Projekte/FH-Vertibot/src/STM32F30x_StdPeriph_Driver/src/stm32f30x_usart.c **** 
 774:/home/user/Desktop/STM32-Projekte/FH-Vertibot/src/STM32F30x_StdPeriph_Driver/src/stm32f30x_usart.c **** /**
 775:/home/user/Desktop/STM32-Projekte/FH-Vertibot/src/STM32F30x_StdPeriph_Driver/src/stm32f30x_usart.c ****   * @brief  Selects the USART WakeUp method form stop mode.
 776:/home/user/Desktop/STM32-Projekte/FH-Vertibot/src/STM32F30x_StdPeriph_Driver/src/stm32f30x_usart.c ****   * @param  USARTx: Select the USART peripheral. This parameter can be one of the 
 777:/home/user/Desktop/STM32-Projekte/FH-Vertibot/src/STM32F30x_StdPeriph_Driver/src/stm32f30x_usart.c ****   *         following values: USART1 or USART2 or USART3 or UART4 or UART5.
 778:/home/user/Desktop/STM32-Projekte/FH-Vertibot/src/STM32F30x_StdPeriph_Driver/src/stm32f30x_usart.c ****   * @param  USART_WakeUp: specifies the selected USART wakeup method.
 779:/home/user/Desktop/STM32-Projekte/FH-Vertibot/src/STM32F30x_StdPeriph_Driver/src/stm32f30x_usart.c ****   *         This parameter can be one of the following values:
 780:/home/user/Desktop/STM32-Projekte/FH-Vertibot/src/STM32F30x_StdPeriph_Driver/src/stm32f30x_usart.c ****   *         @arg USART_WakeUpSource_AddressMatch: WUF active on address match.
 781:/home/user/Desktop/STM32-Projekte/FH-Vertibot/src/STM32F30x_StdPeriph_Driver/src/stm32f30x_usart.c ****   *         @arg USART_WakeUpSource_StartBit: WUF active on Start bit detection.
 782:/home/user/Desktop/STM32-Projekte/FH-Vertibot/src/STM32F30x_StdPeriph_Driver/src/stm32f30x_usart.c ****   *         @arg USART_WakeUpSource_RXNE: WUF active on RXNE.
 783:/home/user/Desktop/STM32-Projekte/FH-Vertibot/src/STM32F30x_StdPeriph_Driver/src/stm32f30x_usart.c ****   * @note
 784:/home/user/Desktop/STM32-Projekte/FH-Vertibot/src/STM32F30x_StdPeriph_Driver/src/stm32f30x_usart.c ****   *   This function has to be called before calling USART_Cmd() function.  
 785:/home/user/Desktop/STM32-Projekte/FH-Vertibot/src/STM32F30x_StdPeriph_Driver/src/stm32f30x_usart.c ****   * @retval None
 786:/home/user/Desktop/STM32-Projekte/FH-Vertibot/src/STM32F30x_StdPeriph_Driver/src/stm32f30x_usart.c ****   */
 787:/home/user/Desktop/STM32-Projekte/FH-Vertibot/src/STM32F30x_StdPeriph_Driver/src/stm32f30x_usart.c **** void USART_StopModeWakeUpSourceConfig(USART_TypeDef* USARTx, uint32_t USART_WakeUpSource)
 788:/home/user/Desktop/STM32-Projekte/FH-Vertibot/src/STM32F30x_StdPeriph_Driver/src/stm32f30x_usart.c **** {
 774              		.loc 1 788 0
 775              		.cfi_startproc
 776              		@ args = 0, pretend = 0, frame = 0
 777              		@ frame_needed = 0, uses_anonymous_args = 0
 778              		@ link register save eliminated.
 779              	.LVL74:
 789:/home/user/Desktop/STM32-Projekte/FH-Vertibot/src/STM32F30x_StdPeriph_Driver/src/stm32f30x_usart.c ****   /* Check the parameters */
 790:/home/user/Desktop/STM32-Projekte/FH-Vertibot/src/STM32F30x_StdPeriph_Driver/src/stm32f30x_usart.c ****   assert_param(IS_USART_ALL_PERIPH(USARTx));
 791:/home/user/Desktop/STM32-Projekte/FH-Vertibot/src/STM32F30x_StdPeriph_Driver/src/stm32f30x_usart.c ****   assert_param(IS_USART_STOPMODE_WAKEUPSOURCE(USART_WakeUpSource));
 792:/home/user/Desktop/STM32-Projekte/FH-Vertibot/src/STM32F30x_StdPeriph_Driver/src/stm32f30x_usart.c **** 
 793:/home/user/Desktop/STM32-Projekte/FH-Vertibot/src/STM32F30x_StdPeriph_Driver/src/stm32f30x_usart.c ****   USARTx->CR3 &= (uint32_t)~((uint32_t)USART_CR3_WUS);
 780              		.loc 1 793 0
 781 0260 8368     		ldr	r3, [r0, #8]
 782 0262 23F44013 		bic	r3, r3, #3145728
 783 0266 8360     		str	r3, [r0, #8]
 794:/home/user/Desktop/STM32-Projekte/FH-Vertibot/src/STM32F30x_StdPeriph_Driver/src/stm32f30x_usart.c ****   USARTx->CR3 |= USART_WakeUpSource;
 784              		.loc 1 794 0
 785 0268 8368     		ldr	r3, [r0, #8]
 786 026a 1943     		orrs	r1, r1, r3
 787              	.LVL75:
 788 026c 8160     		str	r1, [r0, #8]
 789 026e 7047     		bx	lr
 790              		.cfi_endproc
 791              	.LFE128:
 793              		.align	1
 794              		.global	USART_AutoBaudRateCmd
 795              		.thumb
 796              		.thumb_func
 798              	USART_AutoBaudRateCmd:
 799              	.LFB129:
 795:/home/user/Desktop/STM32-Projekte/FH-Vertibot/src/STM32F30x_StdPeriph_Driver/src/stm32f30x_usart.c **** }
 796:/home/user/Desktop/STM32-Projekte/FH-Vertibot/src/STM32F30x_StdPeriph_Driver/src/stm32f30x_usart.c **** 
 797:/home/user/Desktop/STM32-Projekte/FH-Vertibot/src/STM32F30x_StdPeriph_Driver/src/stm32f30x_usart.c **** /**
 798:/home/user/Desktop/STM32-Projekte/FH-Vertibot/src/STM32F30x_StdPeriph_Driver/src/stm32f30x_usart.c ****   * @}
 799:/home/user/Desktop/STM32-Projekte/FH-Vertibot/src/STM32F30x_StdPeriph_Driver/src/stm32f30x_usart.c ****   */
 800:/home/user/Desktop/STM32-Projekte/FH-Vertibot/src/STM32F30x_StdPeriph_Driver/src/stm32f30x_usart.c **** 
 801:/home/user/Desktop/STM32-Projekte/FH-Vertibot/src/STM32F30x_StdPeriph_Driver/src/stm32f30x_usart.c **** 
 802:/home/user/Desktop/STM32-Projekte/FH-Vertibot/src/STM32F30x_StdPeriph_Driver/src/stm32f30x_usart.c **** /** @defgroup USART_Group3 AutoBaudRate functions
 803:/home/user/Desktop/STM32-Projekte/FH-Vertibot/src/STM32F30x_StdPeriph_Driver/src/stm32f30x_usart.c ****  *  @brief   AutoBaudRate functions 
 804:/home/user/Desktop/STM32-Projekte/FH-Vertibot/src/STM32F30x_StdPeriph_Driver/src/stm32f30x_usart.c ****  *
 805:/home/user/Desktop/STM32-Projekte/FH-Vertibot/src/STM32F30x_StdPeriph_Driver/src/stm32f30x_usart.c **** @verbatim
 806:/home/user/Desktop/STM32-Projekte/FH-Vertibot/src/STM32F30x_StdPeriph_Driver/src/stm32f30x_usart.c ****  ===============================================================================
 807:/home/user/Desktop/STM32-Projekte/FH-Vertibot/src/STM32F30x_StdPeriph_Driver/src/stm32f30x_usart.c ****                        ##### AutoBaudRate functions #####
 808:/home/user/Desktop/STM32-Projekte/FH-Vertibot/src/STM32F30x_StdPeriph_Driver/src/stm32f30x_usart.c ****  ===============================================================================
 809:/home/user/Desktop/STM32-Projekte/FH-Vertibot/src/STM32F30x_StdPeriph_Driver/src/stm32f30x_usart.c ****     [..] This subsection provides a set of functions allowing to manage 
 810:/home/user/Desktop/STM32-Projekte/FH-Vertibot/src/STM32F30x_StdPeriph_Driver/src/stm32f30x_usart.c ****          the AutoBaudRate detections.
 811:/home/user/Desktop/STM32-Projekte/FH-Vertibot/src/STM32F30x_StdPeriph_Driver/src/stm32f30x_usart.c ****          
 812:/home/user/Desktop/STM32-Projekte/FH-Vertibot/src/STM32F30x_StdPeriph_Driver/src/stm32f30x_usart.c ****     [..] Before Enabling AutoBaudRate detection using USART_AutoBaudRateCmd ()
 813:/home/user/Desktop/STM32-Projekte/FH-Vertibot/src/STM32F30x_StdPeriph_Driver/src/stm32f30x_usart.c ****          The character patterns used to calculate baudrate must be chosen by calling 
 814:/home/user/Desktop/STM32-Projekte/FH-Vertibot/src/STM32F30x_StdPeriph_Driver/src/stm32f30x_usart.c ****          USART_AutoBaudRateConfig() function. These function take as parameter :
 815:/home/user/Desktop/STM32-Projekte/FH-Vertibot/src/STM32F30x_StdPeriph_Driver/src/stm32f30x_usart.c ****         (#)USART_AutoBaudRate_StartBit : any character starting with a bit 1.
 816:/home/user/Desktop/STM32-Projekte/FH-Vertibot/src/STM32F30x_StdPeriph_Driver/src/stm32f30x_usart.c ****         (#)USART_AutoBaudRate_FallingEdge : any character starting with a 10xx bit pattern. 
 817:/home/user/Desktop/STM32-Projekte/FH-Vertibot/src/STM32F30x_StdPeriph_Driver/src/stm32f30x_usart.c ****                           
 818:/home/user/Desktop/STM32-Projekte/FH-Vertibot/src/STM32F30x_StdPeriph_Driver/src/stm32f30x_usart.c ****     [..] At any later time, another request for AutoBaudRate detection can be performed
 819:/home/user/Desktop/STM32-Projekte/FH-Vertibot/src/STM32F30x_StdPeriph_Driver/src/stm32f30x_usart.c ****          using USART_RequestCmd() function.
 820:/home/user/Desktop/STM32-Projekte/FH-Vertibot/src/STM32F30x_StdPeriph_Driver/src/stm32f30x_usart.c ****          
 821:/home/user/Desktop/STM32-Projekte/FH-Vertibot/src/STM32F30x_StdPeriph_Driver/src/stm32f30x_usart.c ****     [..] The AutoBaudRate detection is monitored by the status of ABRF flag which indicate
 822:/home/user/Desktop/STM32-Projekte/FH-Vertibot/src/STM32F30x_StdPeriph_Driver/src/stm32f30x_usart.c ****          that the AutoBaudRate detection is completed. In addition to ABRF flag, the ABRE flag
 823:/home/user/Desktop/STM32-Projekte/FH-Vertibot/src/STM32F30x_StdPeriph_Driver/src/stm32f30x_usart.c ****          indicate that this procedure is completed without success. USART_GetFlagStatus () 
 824:/home/user/Desktop/STM32-Projekte/FH-Vertibot/src/STM32F30x_StdPeriph_Driver/src/stm32f30x_usart.c ****          function should be used to monitor the status of these flags.  
 825:/home/user/Desktop/STM32-Projekte/FH-Vertibot/src/STM32F30x_StdPeriph_Driver/src/stm32f30x_usart.c ****              
 826:/home/user/Desktop/STM32-Projekte/FH-Vertibot/src/STM32F30x_StdPeriph_Driver/src/stm32f30x_usart.c **** @endverbatim
 827:/home/user/Desktop/STM32-Projekte/FH-Vertibot/src/STM32F30x_StdPeriph_Driver/src/stm32f30x_usart.c ****   * @{
 828:/home/user/Desktop/STM32-Projekte/FH-Vertibot/src/STM32F30x_StdPeriph_Driver/src/stm32f30x_usart.c ****   */
 829:/home/user/Desktop/STM32-Projekte/FH-Vertibot/src/STM32F30x_StdPeriph_Driver/src/stm32f30x_usart.c ****   
 830:/home/user/Desktop/STM32-Projekte/FH-Vertibot/src/STM32F30x_StdPeriph_Driver/src/stm32f30x_usart.c **** /**
 831:/home/user/Desktop/STM32-Projekte/FH-Vertibot/src/STM32F30x_StdPeriph_Driver/src/stm32f30x_usart.c ****   * @brief  Enables or disables the Auto Baud Rate.
 832:/home/user/Desktop/STM32-Projekte/FH-Vertibot/src/STM32F30x_StdPeriph_Driver/src/stm32f30x_usart.c ****   * @param  USARTx: Select the USART peripheral. This parameter can be one of the 
 833:/home/user/Desktop/STM32-Projekte/FH-Vertibot/src/STM32F30x_StdPeriph_Driver/src/stm32f30x_usart.c ****   *         following values: USART1 or USART2 or USART3 or UART4 or UART5.
 834:/home/user/Desktop/STM32-Projekte/FH-Vertibot/src/STM32F30x_StdPeriph_Driver/src/stm32f30x_usart.c ****   * @param  NewState: new state of the USARTx auto baud rate.
 835:/home/user/Desktop/STM32-Projekte/FH-Vertibot/src/STM32F30x_StdPeriph_Driver/src/stm32f30x_usart.c ****   *         This parameter can be: ENABLE or DISABLE.
 836:/home/user/Desktop/STM32-Projekte/FH-Vertibot/src/STM32F30x_StdPeriph_Driver/src/stm32f30x_usart.c ****   * @retval None
 837:/home/user/Desktop/STM32-Projekte/FH-Vertibot/src/STM32F30x_StdPeriph_Driver/src/stm32f30x_usart.c ****   */
 838:/home/user/Desktop/STM32-Projekte/FH-Vertibot/src/STM32F30x_StdPeriph_Driver/src/stm32f30x_usart.c **** void USART_AutoBaudRateCmd(USART_TypeDef* USARTx, FunctionalState NewState)
 839:/home/user/Desktop/STM32-Projekte/FH-Vertibot/src/STM32F30x_StdPeriph_Driver/src/stm32f30x_usart.c **** {
 800              		.loc 1 839 0
 801              		.cfi_startproc
 802              		@ args = 0, pretend = 0, frame = 0
 803              		@ frame_needed = 0, uses_anonymous_args = 0
 804              		@ link register save eliminated.
 805              	.LVL76:
 840:/home/user/Desktop/STM32-Projekte/FH-Vertibot/src/STM32F30x_StdPeriph_Driver/src/stm32f30x_usart.c ****   /* Check the parameters */
 841:/home/user/Desktop/STM32-Projekte/FH-Vertibot/src/STM32F30x_StdPeriph_Driver/src/stm32f30x_usart.c ****   assert_param(IS_USART_ALL_PERIPH(USARTx));
 842:/home/user/Desktop/STM32-Projekte/FH-Vertibot/src/STM32F30x_StdPeriph_Driver/src/stm32f30x_usart.c ****   assert_param(IS_FUNCTIONAL_STATE(NewState));
 843:/home/user/Desktop/STM32-Projekte/FH-Vertibot/src/STM32F30x_StdPeriph_Driver/src/stm32f30x_usart.c **** 
 844:/home/user/Desktop/STM32-Projekte/FH-Vertibot/src/STM32F30x_StdPeriph_Driver/src/stm32f30x_usart.c ****   if (NewState != DISABLE)
 845:/home/user/Desktop/STM32-Projekte/FH-Vertibot/src/STM32F30x_StdPeriph_Driver/src/stm32f30x_usart.c ****   {
 846:/home/user/Desktop/STM32-Projekte/FH-Vertibot/src/STM32F30x_StdPeriph_Driver/src/stm32f30x_usart.c ****     /* Enable the auto baud rate feature by setting the ABREN bit in the CR2 
 847:/home/user/Desktop/STM32-Projekte/FH-Vertibot/src/STM32F30x_StdPeriph_Driver/src/stm32f30x_usart.c ****        register */
 848:/home/user/Desktop/STM32-Projekte/FH-Vertibot/src/STM32F30x_StdPeriph_Driver/src/stm32f30x_usart.c ****     USARTx->CR2 |= USART_CR2_ABREN;
 806              		.loc 1 848 0
 807 0270 4368     		ldr	r3, [r0, #4]
 844:/home/user/Desktop/STM32-Projekte/FH-Vertibot/src/STM32F30x_StdPeriph_Driver/src/stm32f30x_usart.c ****   if (NewState != DISABLE)
 808              		.loc 1 844 0
 809 0272 11B1     		cbz	r1, .L73
 810              		.loc 1 848 0
 811 0274 43F48013 		orr	r3, r3, #1048576
 812 0278 01E0     		b	.L75
 813              	.L73:
 849:/home/user/Desktop/STM32-Projekte/FH-Vertibot/src/STM32F30x_StdPeriph_Driver/src/stm32f30x_usart.c ****   }
 850:/home/user/Desktop/STM32-Projekte/FH-Vertibot/src/STM32F30x_StdPeriph_Driver/src/stm32f30x_usart.c ****   else
 851:/home/user/Desktop/STM32-Projekte/FH-Vertibot/src/STM32F30x_StdPeriph_Driver/src/stm32f30x_usart.c ****   {
 852:/home/user/Desktop/STM32-Projekte/FH-Vertibot/src/STM32F30x_StdPeriph_Driver/src/stm32f30x_usart.c ****     /* Disable the auto baud rate feature by clearing the ABREN bit in the CR2 
 853:/home/user/Desktop/STM32-Projekte/FH-Vertibot/src/STM32F30x_StdPeriph_Driver/src/stm32f30x_usart.c ****        register */
 854:/home/user/Desktop/STM32-Projekte/FH-Vertibot/src/STM32F30x_StdPeriph_Driver/src/stm32f30x_usart.c ****     USARTx->CR2 &= (uint32_t)~((uint32_t)USART_CR2_ABREN);
 814              		.loc 1 854 0
 815 027a 23F48013 		bic	r3, r3, #1048576
 816              	.L75:
 817 027e 4360     		str	r3, [r0, #4]
 818 0280 7047     		bx	lr
 819              		.cfi_endproc
 820              	.LFE129:
 822              		.align	1
 823              		.global	USART_AutoBaudRateConfig
 824              		.thumb
 825              		.thumb_func
 827              	USART_AutoBaudRateConfig:
 828              	.LFB130:
 855:/home/user/Desktop/STM32-Projekte/FH-Vertibot/src/STM32F30x_StdPeriph_Driver/src/stm32f30x_usart.c ****   }
 856:/home/user/Desktop/STM32-Projekte/FH-Vertibot/src/STM32F30x_StdPeriph_Driver/src/stm32f30x_usart.c **** }
 857:/home/user/Desktop/STM32-Projekte/FH-Vertibot/src/STM32F30x_StdPeriph_Driver/src/stm32f30x_usart.c **** 
 858:/home/user/Desktop/STM32-Projekte/FH-Vertibot/src/STM32F30x_StdPeriph_Driver/src/stm32f30x_usart.c **** /**
 859:/home/user/Desktop/STM32-Projekte/FH-Vertibot/src/STM32F30x_StdPeriph_Driver/src/stm32f30x_usart.c ****   * @brief  Selects the USART auto baud rate method.
 860:/home/user/Desktop/STM32-Projekte/FH-Vertibot/src/STM32F30x_StdPeriph_Driver/src/stm32f30x_usart.c ****   * @param  USARTx: Select the USART peripheral. This parameter can be one of the 
 861:/home/user/Desktop/STM32-Projekte/FH-Vertibot/src/STM32F30x_StdPeriph_Driver/src/stm32f30x_usart.c ****   *         following values: USART1 or USART2 or USART3 or UART4 or UART5.
 862:/home/user/Desktop/STM32-Projekte/FH-Vertibot/src/STM32F30x_StdPeriph_Driver/src/stm32f30x_usart.c ****   * @param  USART_AutoBaudRate: specifies the selected USART auto baud rate method.
 863:/home/user/Desktop/STM32-Projekte/FH-Vertibot/src/STM32F30x_StdPeriph_Driver/src/stm32f30x_usart.c ****   *         This parameter can be one of the following values:
 864:/home/user/Desktop/STM32-Projekte/FH-Vertibot/src/STM32F30x_StdPeriph_Driver/src/stm32f30x_usart.c ****   *         @arg USART_AutoBaudRate_StartBit: Start Bit duration measurement.
 865:/home/user/Desktop/STM32-Projekte/FH-Vertibot/src/STM32F30x_StdPeriph_Driver/src/stm32f30x_usart.c ****   *         @arg USART_AutoBaudRate_FallingEdge: Falling edge to falling edge measurement.
 866:/home/user/Desktop/STM32-Projekte/FH-Vertibot/src/STM32F30x_StdPeriph_Driver/src/stm32f30x_usart.c ****   *         @arg USART_AutoBaudRate_0x7FFrame: 0x7F frame.
 867:/home/user/Desktop/STM32-Projekte/FH-Vertibot/src/STM32F30x_StdPeriph_Driver/src/stm32f30x_usart.c ****   *         @arg USART_AutoBaudRate_0x55Frame: 0x55 frame.
 868:/home/user/Desktop/STM32-Projekte/FH-Vertibot/src/STM32F30x_StdPeriph_Driver/src/stm32f30x_usart.c ****   * @note
 869:/home/user/Desktop/STM32-Projekte/FH-Vertibot/src/STM32F30x_StdPeriph_Driver/src/stm32f30x_usart.c ****   *   This function has to be called before calling USART_Cmd() function. 
 870:/home/user/Desktop/STM32-Projekte/FH-Vertibot/src/STM32F30x_StdPeriph_Driver/src/stm32f30x_usart.c ****   * @retval None
 871:/home/user/Desktop/STM32-Projekte/FH-Vertibot/src/STM32F30x_StdPeriph_Driver/src/stm32f30x_usart.c ****   */
 872:/home/user/Desktop/STM32-Projekte/FH-Vertibot/src/STM32F30x_StdPeriph_Driver/src/stm32f30x_usart.c **** void USART_AutoBaudRateConfig(USART_TypeDef* USARTx, uint32_t USART_AutoBaudRate)
 873:/home/user/Desktop/STM32-Projekte/FH-Vertibot/src/STM32F30x_StdPeriph_Driver/src/stm32f30x_usart.c **** {
 829              		.loc 1 873 0
 830              		.cfi_startproc
 831              		@ args = 0, pretend = 0, frame = 0
 832              		@ frame_needed = 0, uses_anonymous_args = 0
 833              		@ link register save eliminated.
 834              	.LVL77:
 874:/home/user/Desktop/STM32-Projekte/FH-Vertibot/src/STM32F30x_StdPeriph_Driver/src/stm32f30x_usart.c ****   /* Check the parameters */
 875:/home/user/Desktop/STM32-Projekte/FH-Vertibot/src/STM32F30x_StdPeriph_Driver/src/stm32f30x_usart.c ****   assert_param(IS_USART_ALL_PERIPH(USARTx));
 876:/home/user/Desktop/STM32-Projekte/FH-Vertibot/src/STM32F30x_StdPeriph_Driver/src/stm32f30x_usart.c ****   assert_param(IS_USART_AUTOBAUDRATE_MODE(USART_AutoBaudRate));
 877:/home/user/Desktop/STM32-Projekte/FH-Vertibot/src/STM32F30x_StdPeriph_Driver/src/stm32f30x_usart.c **** 
 878:/home/user/Desktop/STM32-Projekte/FH-Vertibot/src/STM32F30x_StdPeriph_Driver/src/stm32f30x_usart.c ****   USARTx->CR2 &= (uint32_t)~((uint32_t)USART_CR2_ABRMODE);
 835              		.loc 1 878 0
 836 0282 4368     		ldr	r3, [r0, #4]
 837 0284 23F4C003 		bic	r3, r3, #6291456
 838 0288 4360     		str	r3, [r0, #4]
 879:/home/user/Desktop/STM32-Projekte/FH-Vertibot/src/STM32F30x_StdPeriph_Driver/src/stm32f30x_usart.c ****   USARTx->CR2 |= USART_AutoBaudRate;
 839              		.loc 1 879 0
 840 028a 4368     		ldr	r3, [r0, #4]
 841 028c 1943     		orrs	r1, r1, r3
 842              	.LVL78:
 843 028e 4160     		str	r1, [r0, #4]
 844 0290 7047     		bx	lr
 845              		.cfi_endproc
 846              	.LFE130:
 848              		.align	1
 849              		.global	USART_SendData
 850              		.thumb
 851              		.thumb_func
 853              	USART_SendData:
 854              	.LFB131:
 880:/home/user/Desktop/STM32-Projekte/FH-Vertibot/src/STM32F30x_StdPeriph_Driver/src/stm32f30x_usart.c **** }
 881:/home/user/Desktop/STM32-Projekte/FH-Vertibot/src/STM32F30x_StdPeriph_Driver/src/stm32f30x_usart.c **** 
 882:/home/user/Desktop/STM32-Projekte/FH-Vertibot/src/STM32F30x_StdPeriph_Driver/src/stm32f30x_usart.c **** /**
 883:/home/user/Desktop/STM32-Projekte/FH-Vertibot/src/STM32F30x_StdPeriph_Driver/src/stm32f30x_usart.c ****   * @}
 884:/home/user/Desktop/STM32-Projekte/FH-Vertibot/src/STM32F30x_StdPeriph_Driver/src/stm32f30x_usart.c ****   */
 885:/home/user/Desktop/STM32-Projekte/FH-Vertibot/src/STM32F30x_StdPeriph_Driver/src/stm32f30x_usart.c **** 
 886:/home/user/Desktop/STM32-Projekte/FH-Vertibot/src/STM32F30x_StdPeriph_Driver/src/stm32f30x_usart.c **** 
 887:/home/user/Desktop/STM32-Projekte/FH-Vertibot/src/STM32F30x_StdPeriph_Driver/src/stm32f30x_usart.c **** /** @defgroup USART_Group4 Data transfers functions
 888:/home/user/Desktop/STM32-Projekte/FH-Vertibot/src/STM32F30x_StdPeriph_Driver/src/stm32f30x_usart.c ****  *  @brief   Data transfers functions 
 889:/home/user/Desktop/STM32-Projekte/FH-Vertibot/src/STM32F30x_StdPeriph_Driver/src/stm32f30x_usart.c ****  *
 890:/home/user/Desktop/STM32-Projekte/FH-Vertibot/src/STM32F30x_StdPeriph_Driver/src/stm32f30x_usart.c **** @verbatim
 891:/home/user/Desktop/STM32-Projekte/FH-Vertibot/src/STM32F30x_StdPeriph_Driver/src/stm32f30x_usart.c ****  ===============================================================================
 892:/home/user/Desktop/STM32-Projekte/FH-Vertibot/src/STM32F30x_StdPeriph_Driver/src/stm32f30x_usart.c ****                     ##### Data transfers functions #####
 893:/home/user/Desktop/STM32-Projekte/FH-Vertibot/src/STM32F30x_StdPeriph_Driver/src/stm32f30x_usart.c ****  ===============================================================================
 894:/home/user/Desktop/STM32-Projekte/FH-Vertibot/src/STM32F30x_StdPeriph_Driver/src/stm32f30x_usart.c ****     [..] This subsection provides a set of functions allowing to manage 
 895:/home/user/Desktop/STM32-Projekte/FH-Vertibot/src/STM32F30x_StdPeriph_Driver/src/stm32f30x_usart.c ****          the USART data transfers.
 896:/home/user/Desktop/STM32-Projekte/FH-Vertibot/src/STM32F30x_StdPeriph_Driver/src/stm32f30x_usart.c ****     [..] During an USART reception, data shifts in least significant bit first 
 897:/home/user/Desktop/STM32-Projekte/FH-Vertibot/src/STM32F30x_StdPeriph_Driver/src/stm32f30x_usart.c ****          through the RX pin. When a transmission is taking place, a write instruction to 
 898:/home/user/Desktop/STM32-Projekte/FH-Vertibot/src/STM32F30x_StdPeriph_Driver/src/stm32f30x_usart.c ****          the USART_TDR register stores the data in the shift register.
 899:/home/user/Desktop/STM32-Projekte/FH-Vertibot/src/STM32F30x_StdPeriph_Driver/src/stm32f30x_usart.c ****     [..] The read access of the USART_RDR register can be done using 
 900:/home/user/Desktop/STM32-Projekte/FH-Vertibot/src/STM32F30x_StdPeriph_Driver/src/stm32f30x_usart.c ****          the USART_ReceiveData() function and returns the RDR value.
 901:/home/user/Desktop/STM32-Projekte/FH-Vertibot/src/STM32F30x_StdPeriph_Driver/src/stm32f30x_usart.c ****          Whereas a write access to the USART_TDR can be done using USART_SendData()
 902:/home/user/Desktop/STM32-Projekte/FH-Vertibot/src/STM32F30x_StdPeriph_Driver/src/stm32f30x_usart.c ****          function and stores the written data into TDR.
 903:/home/user/Desktop/STM32-Projekte/FH-Vertibot/src/STM32F30x_StdPeriph_Driver/src/stm32f30x_usart.c **** 
 904:/home/user/Desktop/STM32-Projekte/FH-Vertibot/src/STM32F30x_StdPeriph_Driver/src/stm32f30x_usart.c **** @endverbatim
 905:/home/user/Desktop/STM32-Projekte/FH-Vertibot/src/STM32F30x_StdPeriph_Driver/src/stm32f30x_usart.c ****   * @{
 906:/home/user/Desktop/STM32-Projekte/FH-Vertibot/src/STM32F30x_StdPeriph_Driver/src/stm32f30x_usart.c ****   */
 907:/home/user/Desktop/STM32-Projekte/FH-Vertibot/src/STM32F30x_StdPeriph_Driver/src/stm32f30x_usart.c **** 
 908:/home/user/Desktop/STM32-Projekte/FH-Vertibot/src/STM32F30x_StdPeriph_Driver/src/stm32f30x_usart.c **** /**
 909:/home/user/Desktop/STM32-Projekte/FH-Vertibot/src/STM32F30x_StdPeriph_Driver/src/stm32f30x_usart.c ****   * @brief  Transmits single data through the USARTx peripheral.
 910:/home/user/Desktop/STM32-Projekte/FH-Vertibot/src/STM32F30x_StdPeriph_Driver/src/stm32f30x_usart.c ****   * @param  USARTx: Select the USART peripheral. This parameter can be one of the 
 911:/home/user/Desktop/STM32-Projekte/FH-Vertibot/src/STM32F30x_StdPeriph_Driver/src/stm32f30x_usart.c ****   *         following values: USART1 or USART2 or USART3 or UART4 or UART5.
 912:/home/user/Desktop/STM32-Projekte/FH-Vertibot/src/STM32F30x_StdPeriph_Driver/src/stm32f30x_usart.c ****   * @param  Data: the data to transmit.
 913:/home/user/Desktop/STM32-Projekte/FH-Vertibot/src/STM32F30x_StdPeriph_Driver/src/stm32f30x_usart.c ****   * @retval None
 914:/home/user/Desktop/STM32-Projekte/FH-Vertibot/src/STM32F30x_StdPeriph_Driver/src/stm32f30x_usart.c ****   */
 915:/home/user/Desktop/STM32-Projekte/FH-Vertibot/src/STM32F30x_StdPeriph_Driver/src/stm32f30x_usart.c **** void USART_SendData(USART_TypeDef* USARTx, uint16_t Data)
 916:/home/user/Desktop/STM32-Projekte/FH-Vertibot/src/STM32F30x_StdPeriph_Driver/src/stm32f30x_usart.c **** {
 855              		.loc 1 916 0
 856              		.cfi_startproc
 857              		@ args = 0, pretend = 0, frame = 0
 858              		@ frame_needed = 0, uses_anonymous_args = 0
 859              		@ link register save eliminated.
 860              	.LVL79:
 917:/home/user/Desktop/STM32-Projekte/FH-Vertibot/src/STM32F30x_StdPeriph_Driver/src/stm32f30x_usart.c ****   /* Check the parameters */
 918:/home/user/Desktop/STM32-Projekte/FH-Vertibot/src/STM32F30x_StdPeriph_Driver/src/stm32f30x_usart.c ****   assert_param(IS_USART_ALL_PERIPH(USARTx));
 919:/home/user/Desktop/STM32-Projekte/FH-Vertibot/src/STM32F30x_StdPeriph_Driver/src/stm32f30x_usart.c ****   assert_param(IS_USART_DATA(Data)); 
 920:/home/user/Desktop/STM32-Projekte/FH-Vertibot/src/STM32F30x_StdPeriph_Driver/src/stm32f30x_usart.c **** 
 921:/home/user/Desktop/STM32-Projekte/FH-Vertibot/src/STM32F30x_StdPeriph_Driver/src/stm32f30x_usart.c ****   /* Transmit Data */
 922:/home/user/Desktop/STM32-Projekte/FH-Vertibot/src/STM32F30x_StdPeriph_Driver/src/stm32f30x_usart.c ****   USARTx->TDR = (Data & (uint16_t)0x01FF);
 861              		.loc 1 922 0
 862 0292 C1F30801 		ubfx	r1, r1, #0, #9
 863              	.LVL80:
 864 0296 0185     		strh	r1, [r0, #40]	@ movhi
 865 0298 7047     		bx	lr
 866              		.cfi_endproc
 867              	.LFE131:
 869              		.align	1
 870              		.global	USART_ReceiveData
 871              		.thumb
 872              		.thumb_func
 874              	USART_ReceiveData:
 875              	.LFB132:
 923:/home/user/Desktop/STM32-Projekte/FH-Vertibot/src/STM32F30x_StdPeriph_Driver/src/stm32f30x_usart.c **** }
 924:/home/user/Desktop/STM32-Projekte/FH-Vertibot/src/STM32F30x_StdPeriph_Driver/src/stm32f30x_usart.c **** 
 925:/home/user/Desktop/STM32-Projekte/FH-Vertibot/src/STM32F30x_StdPeriph_Driver/src/stm32f30x_usart.c **** /**
 926:/home/user/Desktop/STM32-Projekte/FH-Vertibot/src/STM32F30x_StdPeriph_Driver/src/stm32f30x_usart.c ****   * @brief  Returns the most recent received data by the USARTx peripheral.
 927:/home/user/Desktop/STM32-Projekte/FH-Vertibot/src/STM32F30x_StdPeriph_Driver/src/stm32f30x_usart.c ****   * @param  USARTx: Select the USART peripheral. This parameter can be one of the 
 928:/home/user/Desktop/STM32-Projekte/FH-Vertibot/src/STM32F30x_StdPeriph_Driver/src/stm32f30x_usart.c ****   *         following values: USART1 or USART2 or USART3 or UART4 or UART5.
 929:/home/user/Desktop/STM32-Projekte/FH-Vertibot/src/STM32F30x_StdPeriph_Driver/src/stm32f30x_usart.c ****   * @retval The received data.
 930:/home/user/Desktop/STM32-Projekte/FH-Vertibot/src/STM32F30x_StdPeriph_Driver/src/stm32f30x_usart.c ****   */
 931:/home/user/Desktop/STM32-Projekte/FH-Vertibot/src/STM32F30x_StdPeriph_Driver/src/stm32f30x_usart.c **** uint16_t USART_ReceiveData(USART_TypeDef* USARTx)
 932:/home/user/Desktop/STM32-Projekte/FH-Vertibot/src/STM32F30x_StdPeriph_Driver/src/stm32f30x_usart.c **** {
 876              		.loc 1 932 0
 877              		.cfi_startproc
 878              		@ args = 0, pretend = 0, frame = 0
 879              		@ frame_needed = 0, uses_anonymous_args = 0
 880              		@ link register save eliminated.
 881              	.LVL81:
 933:/home/user/Desktop/STM32-Projekte/FH-Vertibot/src/STM32F30x_StdPeriph_Driver/src/stm32f30x_usart.c ****   /* Check the parameters */
 934:/home/user/Desktop/STM32-Projekte/FH-Vertibot/src/STM32F30x_StdPeriph_Driver/src/stm32f30x_usart.c ****   assert_param(IS_USART_ALL_PERIPH(USARTx));
 935:/home/user/Desktop/STM32-Projekte/FH-Vertibot/src/STM32F30x_StdPeriph_Driver/src/stm32f30x_usart.c **** 
 936:/home/user/Desktop/STM32-Projekte/FH-Vertibot/src/STM32F30x_StdPeriph_Driver/src/stm32f30x_usart.c ****   /* Receive Data */
 937:/home/user/Desktop/STM32-Projekte/FH-Vertibot/src/STM32F30x_StdPeriph_Driver/src/stm32f30x_usart.c ****   return (uint16_t)(USARTx->RDR & (uint16_t)0x01FF);
 882              		.loc 1 937 0
 883 029a 808C     		ldrh	r0, [r0, #36]
 884              	.LVL82:
 938:/home/user/Desktop/STM32-Projekte/FH-Vertibot/src/STM32F30x_StdPeriph_Driver/src/stm32f30x_usart.c **** }
 885              		.loc 1 938 0
 886 029c C0F30800 		ubfx	r0, r0, #0, #9
 887 02a0 7047     		bx	lr
 888              		.cfi_endproc
 889              	.LFE132:
 891              		.align	1
 892              		.global	USART_SetAddress
 893              		.thumb
 894              		.thumb_func
 896              	USART_SetAddress:
 897              	.LFB133:
 939:/home/user/Desktop/STM32-Projekte/FH-Vertibot/src/STM32F30x_StdPeriph_Driver/src/stm32f30x_usart.c **** 
 940:/home/user/Desktop/STM32-Projekte/FH-Vertibot/src/STM32F30x_StdPeriph_Driver/src/stm32f30x_usart.c **** /**
 941:/home/user/Desktop/STM32-Projekte/FH-Vertibot/src/STM32F30x_StdPeriph_Driver/src/stm32f30x_usart.c ****   * @}
 942:/home/user/Desktop/STM32-Projekte/FH-Vertibot/src/STM32F30x_StdPeriph_Driver/src/stm32f30x_usart.c ****   */
 943:/home/user/Desktop/STM32-Projekte/FH-Vertibot/src/STM32F30x_StdPeriph_Driver/src/stm32f30x_usart.c **** 
 944:/home/user/Desktop/STM32-Projekte/FH-Vertibot/src/STM32F30x_StdPeriph_Driver/src/stm32f30x_usart.c **** /** @defgroup USART_Group5 MultiProcessor Communication functions
 945:/home/user/Desktop/STM32-Projekte/FH-Vertibot/src/STM32F30x_StdPeriph_Driver/src/stm32f30x_usart.c ****  *  @brief   Multi-Processor Communication functions 
 946:/home/user/Desktop/STM32-Projekte/FH-Vertibot/src/STM32F30x_StdPeriph_Driver/src/stm32f30x_usart.c ****  *
 947:/home/user/Desktop/STM32-Projekte/FH-Vertibot/src/STM32F30x_StdPeriph_Driver/src/stm32f30x_usart.c **** @verbatim   
 948:/home/user/Desktop/STM32-Projekte/FH-Vertibot/src/STM32F30x_StdPeriph_Driver/src/stm32f30x_usart.c ****  ===============================================================================
 949:/home/user/Desktop/STM32-Projekte/FH-Vertibot/src/STM32F30x_StdPeriph_Driver/src/stm32f30x_usart.c ****              ##### Multi-Processor Communication functions #####
 950:/home/user/Desktop/STM32-Projekte/FH-Vertibot/src/STM32F30x_StdPeriph_Driver/src/stm32f30x_usart.c ****  ===============================================================================
 951:/home/user/Desktop/STM32-Projekte/FH-Vertibot/src/STM32F30x_StdPeriph_Driver/src/stm32f30x_usart.c ****     [..] This subsection provides a set of functions allowing to manage the USART
 952:/home/user/Desktop/STM32-Projekte/FH-Vertibot/src/STM32F30x_StdPeriph_Driver/src/stm32f30x_usart.c ****          multiprocessor communication.
 953:/home/user/Desktop/STM32-Projekte/FH-Vertibot/src/STM32F30x_StdPeriph_Driver/src/stm32f30x_usart.c ****     [..] For instance one of the USARTs can be the master, its TX output is
 954:/home/user/Desktop/STM32-Projekte/FH-Vertibot/src/STM32F30x_StdPeriph_Driver/src/stm32f30x_usart.c ****          connected to the RX input of the other USART. The others are slaves,
 955:/home/user/Desktop/STM32-Projekte/FH-Vertibot/src/STM32F30x_StdPeriph_Driver/src/stm32f30x_usart.c ****          their respective TX outputs are logically ANDed together and connected 
 956:/home/user/Desktop/STM32-Projekte/FH-Vertibot/src/STM32F30x_StdPeriph_Driver/src/stm32f30x_usart.c ****          to the RX input of the master. USART multiprocessor communication is 
 957:/home/user/Desktop/STM32-Projekte/FH-Vertibot/src/STM32F30x_StdPeriph_Driver/src/stm32f30x_usart.c ****          possible through the following procedure:
 958:/home/user/Desktop/STM32-Projekte/FH-Vertibot/src/STM32F30x_StdPeriph_Driver/src/stm32f30x_usart.c ****          (#) Program the Baud rate, Word length = 9 bits, Stop bits, Parity, 
 959:/home/user/Desktop/STM32-Projekte/FH-Vertibot/src/STM32F30x_StdPeriph_Driver/src/stm32f30x_usart.c ****              Mode transmitter or Mode receiver and hardware flow control values 
 960:/home/user/Desktop/STM32-Projekte/FH-Vertibot/src/STM32F30x_StdPeriph_Driver/src/stm32f30x_usart.c ****              using the USART_Init() function.
 961:/home/user/Desktop/STM32-Projekte/FH-Vertibot/src/STM32F30x_StdPeriph_Driver/src/stm32f30x_usart.c ****          (#) Configures the USART address using the USART_SetAddress() function.
 962:/home/user/Desktop/STM32-Projekte/FH-Vertibot/src/STM32F30x_StdPeriph_Driver/src/stm32f30x_usart.c ****          (#) Configures the wake up methode (USART_WakeUp_IdleLine or 
 963:/home/user/Desktop/STM32-Projekte/FH-Vertibot/src/STM32F30x_StdPeriph_Driver/src/stm32f30x_usart.c ****              USART_WakeUp_AddressMark) using USART_WakeUpConfig() function only 
 964:/home/user/Desktop/STM32-Projekte/FH-Vertibot/src/STM32F30x_StdPeriph_Driver/src/stm32f30x_usart.c ****              for the slaves.
 965:/home/user/Desktop/STM32-Projekte/FH-Vertibot/src/STM32F30x_StdPeriph_Driver/src/stm32f30x_usart.c ****          (#) Enable the USART using the USART_Cmd() function.
 966:/home/user/Desktop/STM32-Projekte/FH-Vertibot/src/STM32F30x_StdPeriph_Driver/src/stm32f30x_usart.c ****          (#) Enter the USART slaves in mute mode using USART_ReceiverWakeUpCmd() 
 967:/home/user/Desktop/STM32-Projekte/FH-Vertibot/src/STM32F30x_StdPeriph_Driver/src/stm32f30x_usart.c ****              function.
 968:/home/user/Desktop/STM32-Projekte/FH-Vertibot/src/STM32F30x_StdPeriph_Driver/src/stm32f30x_usart.c ****     [..] The USART Slave exit from mute mode when receive the wake up condition.
 969:/home/user/Desktop/STM32-Projekte/FH-Vertibot/src/STM32F30x_StdPeriph_Driver/src/stm32f30x_usart.c **** 
 970:/home/user/Desktop/STM32-Projekte/FH-Vertibot/src/STM32F30x_StdPeriph_Driver/src/stm32f30x_usart.c **** @endverbatim
 971:/home/user/Desktop/STM32-Projekte/FH-Vertibot/src/STM32F30x_StdPeriph_Driver/src/stm32f30x_usart.c ****   * @{
 972:/home/user/Desktop/STM32-Projekte/FH-Vertibot/src/STM32F30x_StdPeriph_Driver/src/stm32f30x_usart.c ****   */
 973:/home/user/Desktop/STM32-Projekte/FH-Vertibot/src/STM32F30x_StdPeriph_Driver/src/stm32f30x_usart.c **** 
 974:/home/user/Desktop/STM32-Projekte/FH-Vertibot/src/STM32F30x_StdPeriph_Driver/src/stm32f30x_usart.c **** /**
 975:/home/user/Desktop/STM32-Projekte/FH-Vertibot/src/STM32F30x_StdPeriph_Driver/src/stm32f30x_usart.c ****   * @brief  Sets the address of the USART node.
 976:/home/user/Desktop/STM32-Projekte/FH-Vertibot/src/STM32F30x_StdPeriph_Driver/src/stm32f30x_usart.c ****   * @param  USARTx: Select the USART peripheral. This parameter can be one of the 
 977:/home/user/Desktop/STM32-Projekte/FH-Vertibot/src/STM32F30x_StdPeriph_Driver/src/stm32f30x_usart.c ****   *         following values: USART1 or USART2 or USART3 or UART4 or UART5.
 978:/home/user/Desktop/STM32-Projekte/FH-Vertibot/src/STM32F30x_StdPeriph_Driver/src/stm32f30x_usart.c ****   * @param  USART_Address: Indicates the address of the USART node.
 979:/home/user/Desktop/STM32-Projekte/FH-Vertibot/src/STM32F30x_StdPeriph_Driver/src/stm32f30x_usart.c ****   * @retval None
 980:/home/user/Desktop/STM32-Projekte/FH-Vertibot/src/STM32F30x_StdPeriph_Driver/src/stm32f30x_usart.c ****   */
 981:/home/user/Desktop/STM32-Projekte/FH-Vertibot/src/STM32F30x_StdPeriph_Driver/src/stm32f30x_usart.c **** void USART_SetAddress(USART_TypeDef* USARTx, uint8_t USART_Address)
 982:/home/user/Desktop/STM32-Projekte/FH-Vertibot/src/STM32F30x_StdPeriph_Driver/src/stm32f30x_usart.c **** {
 898              		.loc 1 982 0
 899              		.cfi_startproc
 900              		@ args = 0, pretend = 0, frame = 0
 901              		@ frame_needed = 0, uses_anonymous_args = 0
 902              		@ link register save eliminated.
 903              	.LVL83:
 983:/home/user/Desktop/STM32-Projekte/FH-Vertibot/src/STM32F30x_StdPeriph_Driver/src/stm32f30x_usart.c ****   /* Check the parameters */
 984:/home/user/Desktop/STM32-Projekte/FH-Vertibot/src/STM32F30x_StdPeriph_Driver/src/stm32f30x_usart.c ****   assert_param(IS_USART_ALL_PERIPH(USARTx));
 985:/home/user/Desktop/STM32-Projekte/FH-Vertibot/src/STM32F30x_StdPeriph_Driver/src/stm32f30x_usart.c **** 
 986:/home/user/Desktop/STM32-Projekte/FH-Vertibot/src/STM32F30x_StdPeriph_Driver/src/stm32f30x_usart.c ****   /* Clear the USART address */
 987:/home/user/Desktop/STM32-Projekte/FH-Vertibot/src/STM32F30x_StdPeriph_Driver/src/stm32f30x_usart.c ****   USARTx->CR2 &= (uint32_t)~((uint32_t)USART_CR2_ADD);
 904              		.loc 1 987 0
 905 02a2 4368     		ldr	r3, [r0, #4]
 906 02a4 23F07F43 		bic	r3, r3, #-16777216
 907 02a8 4360     		str	r3, [r0, #4]
 988:/home/user/Desktop/STM32-Projekte/FH-Vertibot/src/STM32F30x_StdPeriph_Driver/src/stm32f30x_usart.c ****   /* Set the USART address node */
 989:/home/user/Desktop/STM32-Projekte/FH-Vertibot/src/STM32F30x_StdPeriph_Driver/src/stm32f30x_usart.c ****   USARTx->CR2 |=((uint32_t)USART_Address << (uint32_t)0x18);
 908              		.loc 1 989 0
 909 02aa 4368     		ldr	r3, [r0, #4]
 910 02ac 43EA0161 		orr	r1, r3, r1, lsl #24
 911              	.LVL84:
 912 02b0 4160     		str	r1, [r0, #4]
 913 02b2 7047     		bx	lr
 914              		.cfi_endproc
 915              	.LFE133:
 917              		.align	1
 918              		.global	USART_MuteModeCmd
 919              		.thumb
 920              		.thumb_func
 922              	USART_MuteModeCmd:
 923              	.LFB134:
 990:/home/user/Desktop/STM32-Projekte/FH-Vertibot/src/STM32F30x_StdPeriph_Driver/src/stm32f30x_usart.c **** }
 991:/home/user/Desktop/STM32-Projekte/FH-Vertibot/src/STM32F30x_StdPeriph_Driver/src/stm32f30x_usart.c **** 
 992:/home/user/Desktop/STM32-Projekte/FH-Vertibot/src/STM32F30x_StdPeriph_Driver/src/stm32f30x_usart.c **** /**
 993:/home/user/Desktop/STM32-Projekte/FH-Vertibot/src/STM32F30x_StdPeriph_Driver/src/stm32f30x_usart.c ****   * @brief  Enables or disables the USART's mute mode.
 994:/home/user/Desktop/STM32-Projekte/FH-Vertibot/src/STM32F30x_StdPeriph_Driver/src/stm32f30x_usart.c ****   * @param  USARTx: Select the USART peripheral. This parameter can be one of the 
 995:/home/user/Desktop/STM32-Projekte/FH-Vertibot/src/STM32F30x_StdPeriph_Driver/src/stm32f30x_usart.c ****   *         following values: USART1 or USART2 or USART3 or UART4 or UART5.
 996:/home/user/Desktop/STM32-Projekte/FH-Vertibot/src/STM32F30x_StdPeriph_Driver/src/stm32f30x_usart.c ****   * @param  NewState: new state of the USART mute mode.
 997:/home/user/Desktop/STM32-Projekte/FH-Vertibot/src/STM32F30x_StdPeriph_Driver/src/stm32f30x_usart.c ****   *         This parameter can be: ENABLE or DISABLE.
 998:/home/user/Desktop/STM32-Projekte/FH-Vertibot/src/STM32F30x_StdPeriph_Driver/src/stm32f30x_usart.c ****   * @retval None
 999:/home/user/Desktop/STM32-Projekte/FH-Vertibot/src/STM32F30x_StdPeriph_Driver/src/stm32f30x_usart.c ****   */
1000:/home/user/Desktop/STM32-Projekte/FH-Vertibot/src/STM32F30x_StdPeriph_Driver/src/stm32f30x_usart.c **** void USART_MuteModeCmd(USART_TypeDef* USARTx, FunctionalState NewState)
1001:/home/user/Desktop/STM32-Projekte/FH-Vertibot/src/STM32F30x_StdPeriph_Driver/src/stm32f30x_usart.c **** {
 924              		.loc 1 1001 0
 925              		.cfi_startproc
 926              		@ args = 0, pretend = 0, frame = 0
 927              		@ frame_needed = 0, uses_anonymous_args = 0
 928              		@ link register save eliminated.
 929              	.LVL85:
1002:/home/user/Desktop/STM32-Projekte/FH-Vertibot/src/STM32F30x_StdPeriph_Driver/src/stm32f30x_usart.c ****   /* Check the parameters */
1003:/home/user/Desktop/STM32-Projekte/FH-Vertibot/src/STM32F30x_StdPeriph_Driver/src/stm32f30x_usart.c ****   assert_param(IS_USART_ALL_PERIPH(USARTx));
1004:/home/user/Desktop/STM32-Projekte/FH-Vertibot/src/STM32F30x_StdPeriph_Driver/src/stm32f30x_usart.c ****   assert_param(IS_FUNCTIONAL_STATE(NewState)); 
1005:/home/user/Desktop/STM32-Projekte/FH-Vertibot/src/STM32F30x_StdPeriph_Driver/src/stm32f30x_usart.c **** 
1006:/home/user/Desktop/STM32-Projekte/FH-Vertibot/src/STM32F30x_StdPeriph_Driver/src/stm32f30x_usart.c ****   if (NewState != DISABLE)
1007:/home/user/Desktop/STM32-Projekte/FH-Vertibot/src/STM32F30x_StdPeriph_Driver/src/stm32f30x_usart.c ****   {
1008:/home/user/Desktop/STM32-Projekte/FH-Vertibot/src/STM32F30x_StdPeriph_Driver/src/stm32f30x_usart.c ****     /* Enable the USART mute mode by setting the MME bit in the CR1 register */
1009:/home/user/Desktop/STM32-Projekte/FH-Vertibot/src/STM32F30x_StdPeriph_Driver/src/stm32f30x_usart.c ****     USARTx->CR1 |= USART_CR1_MME;
 930              		.loc 1 1009 0
 931 02b4 0368     		ldr	r3, [r0]
1006:/home/user/Desktop/STM32-Projekte/FH-Vertibot/src/STM32F30x_StdPeriph_Driver/src/stm32f30x_usart.c ****   if (NewState != DISABLE)
 932              		.loc 1 1006 0
 933 02b6 11B1     		cbz	r1, .L81
 934              		.loc 1 1009 0
 935 02b8 43F40053 		orr	r3, r3, #8192
 936 02bc 01E0     		b	.L83
 937              	.L81:
1010:/home/user/Desktop/STM32-Projekte/FH-Vertibot/src/STM32F30x_StdPeriph_Driver/src/stm32f30x_usart.c ****   }
1011:/home/user/Desktop/STM32-Projekte/FH-Vertibot/src/STM32F30x_StdPeriph_Driver/src/stm32f30x_usart.c ****   else
1012:/home/user/Desktop/STM32-Projekte/FH-Vertibot/src/STM32F30x_StdPeriph_Driver/src/stm32f30x_usart.c ****   {
1013:/home/user/Desktop/STM32-Projekte/FH-Vertibot/src/STM32F30x_StdPeriph_Driver/src/stm32f30x_usart.c ****     /* Disable the USART mute mode by clearing the MME bit in the CR1 register */
1014:/home/user/Desktop/STM32-Projekte/FH-Vertibot/src/STM32F30x_StdPeriph_Driver/src/stm32f30x_usart.c ****     USARTx->CR1 &= (uint32_t)~((uint32_t)USART_CR1_MME);
 938              		.loc 1 1014 0
 939 02be 23F40053 		bic	r3, r3, #8192
 940              	.L83:
 941 02c2 0360     		str	r3, [r0]
 942 02c4 7047     		bx	lr
 943              		.cfi_endproc
 944              	.LFE134:
 946              		.align	1
 947              		.global	USART_MuteModeWakeUpConfig
 948              		.thumb
 949              		.thumb_func
 951              	USART_MuteModeWakeUpConfig:
 952              	.LFB135:
1015:/home/user/Desktop/STM32-Projekte/FH-Vertibot/src/STM32F30x_StdPeriph_Driver/src/stm32f30x_usart.c ****   }
1016:/home/user/Desktop/STM32-Projekte/FH-Vertibot/src/STM32F30x_StdPeriph_Driver/src/stm32f30x_usart.c **** }
1017:/home/user/Desktop/STM32-Projekte/FH-Vertibot/src/STM32F30x_StdPeriph_Driver/src/stm32f30x_usart.c **** 
1018:/home/user/Desktop/STM32-Projekte/FH-Vertibot/src/STM32F30x_StdPeriph_Driver/src/stm32f30x_usart.c **** /**
1019:/home/user/Desktop/STM32-Projekte/FH-Vertibot/src/STM32F30x_StdPeriph_Driver/src/stm32f30x_usart.c ****   * @brief  Selects the USART WakeUp method from mute mode.
1020:/home/user/Desktop/STM32-Projekte/FH-Vertibot/src/STM32F30x_StdPeriph_Driver/src/stm32f30x_usart.c ****   * @param  USARTx: Select the USART peripheral. This parameter can be one of the 
1021:/home/user/Desktop/STM32-Projekte/FH-Vertibot/src/STM32F30x_StdPeriph_Driver/src/stm32f30x_usart.c ****   *         following values: USART1 or USART2 or USART3 or UART4 or UART5.
1022:/home/user/Desktop/STM32-Projekte/FH-Vertibot/src/STM32F30x_StdPeriph_Driver/src/stm32f30x_usart.c ****   * @param  USART_WakeUp: specifies the USART wakeup method.
1023:/home/user/Desktop/STM32-Projekte/FH-Vertibot/src/STM32F30x_StdPeriph_Driver/src/stm32f30x_usart.c ****   *         This parameter can be one of the following values:
1024:/home/user/Desktop/STM32-Projekte/FH-Vertibot/src/STM32F30x_StdPeriph_Driver/src/stm32f30x_usart.c ****   *         @arg USART_WakeUp_IdleLine: WakeUp by an idle line detection
1025:/home/user/Desktop/STM32-Projekte/FH-Vertibot/src/STM32F30x_StdPeriph_Driver/src/stm32f30x_usart.c ****   *         @arg USART_WakeUp_AddressMark: WakeUp by an address mark
1026:/home/user/Desktop/STM32-Projekte/FH-Vertibot/src/STM32F30x_StdPeriph_Driver/src/stm32f30x_usart.c ****   * @retval None
1027:/home/user/Desktop/STM32-Projekte/FH-Vertibot/src/STM32F30x_StdPeriph_Driver/src/stm32f30x_usart.c ****   */
1028:/home/user/Desktop/STM32-Projekte/FH-Vertibot/src/STM32F30x_StdPeriph_Driver/src/stm32f30x_usart.c **** void USART_MuteModeWakeUpConfig(USART_TypeDef* USARTx, uint32_t USART_WakeUp)
1029:/home/user/Desktop/STM32-Projekte/FH-Vertibot/src/STM32F30x_StdPeriph_Driver/src/stm32f30x_usart.c **** {
 953              		.loc 1 1029 0
 954              		.cfi_startproc
 955              		@ args = 0, pretend = 0, frame = 0
 956              		@ frame_needed = 0, uses_anonymous_args = 0
 957              		@ link register save eliminated.
 958              	.LVL86:
1030:/home/user/Desktop/STM32-Projekte/FH-Vertibot/src/STM32F30x_StdPeriph_Driver/src/stm32f30x_usart.c ****   /* Check the parameters */
1031:/home/user/Desktop/STM32-Projekte/FH-Vertibot/src/STM32F30x_StdPeriph_Driver/src/stm32f30x_usart.c ****   assert_param(IS_USART_ALL_PERIPH(USARTx));
1032:/home/user/Desktop/STM32-Projekte/FH-Vertibot/src/STM32F30x_StdPeriph_Driver/src/stm32f30x_usart.c ****   assert_param(IS_USART_MUTEMODE_WAKEUP(USART_WakeUp));
1033:/home/user/Desktop/STM32-Projekte/FH-Vertibot/src/STM32F30x_StdPeriph_Driver/src/stm32f30x_usart.c **** 
1034:/home/user/Desktop/STM32-Projekte/FH-Vertibot/src/STM32F30x_StdPeriph_Driver/src/stm32f30x_usart.c ****   USARTx->CR1 &= (uint32_t)~((uint32_t)USART_CR1_WAKE);
 959              		.loc 1 1034 0
 960 02c6 0368     		ldr	r3, [r0]
 961 02c8 23F40063 		bic	r3, r3, #2048
 962 02cc 0360     		str	r3, [r0]
1035:/home/user/Desktop/STM32-Projekte/FH-Vertibot/src/STM32F30x_StdPeriph_Driver/src/stm32f30x_usart.c ****   USARTx->CR1 |= USART_WakeUp;
 963              		.loc 1 1035 0
 964 02ce 0368     		ldr	r3, [r0]
 965 02d0 1943     		orrs	r1, r1, r3
 966              	.LVL87:
 967 02d2 0160     		str	r1, [r0]
 968 02d4 7047     		bx	lr
 969              		.cfi_endproc
 970              	.LFE135:
 972              		.align	1
 973              		.global	USART_AddressDetectionConfig
 974              		.thumb
 975              		.thumb_func
 977              	USART_AddressDetectionConfig:
 978              	.LFB136:
1036:/home/user/Desktop/STM32-Projekte/FH-Vertibot/src/STM32F30x_StdPeriph_Driver/src/stm32f30x_usart.c **** }
1037:/home/user/Desktop/STM32-Projekte/FH-Vertibot/src/STM32F30x_StdPeriph_Driver/src/stm32f30x_usart.c **** 
1038:/home/user/Desktop/STM32-Projekte/FH-Vertibot/src/STM32F30x_StdPeriph_Driver/src/stm32f30x_usart.c **** /**
1039:/home/user/Desktop/STM32-Projekte/FH-Vertibot/src/STM32F30x_StdPeriph_Driver/src/stm32f30x_usart.c ****   * @brief  Configure the the USART Address detection length.
1040:/home/user/Desktop/STM32-Projekte/FH-Vertibot/src/STM32F30x_StdPeriph_Driver/src/stm32f30x_usart.c ****   * @param  USARTx: Select the USART peripheral. This parameter can be one of the 
1041:/home/user/Desktop/STM32-Projekte/FH-Vertibot/src/STM32F30x_StdPeriph_Driver/src/stm32f30x_usart.c ****   *         following values: USART1 or USART2 or USART3 or UART4 or UART5.
1042:/home/user/Desktop/STM32-Projekte/FH-Vertibot/src/STM32F30x_StdPeriph_Driver/src/stm32f30x_usart.c ****   * @param  USART_AddressLength: specifies the USART address length detection.
1043:/home/user/Desktop/STM32-Projekte/FH-Vertibot/src/STM32F30x_StdPeriph_Driver/src/stm32f30x_usart.c ****   *         This parameter can be one of the following values:
1044:/home/user/Desktop/STM32-Projekte/FH-Vertibot/src/STM32F30x_StdPeriph_Driver/src/stm32f30x_usart.c ****   *         @arg USART_AddressLength_4b: 4-bit address length detection 
1045:/home/user/Desktop/STM32-Projekte/FH-Vertibot/src/STM32F30x_StdPeriph_Driver/src/stm32f30x_usart.c ****   *         @arg USART_AddressLength_7b: 7-bit address length detection 
1046:/home/user/Desktop/STM32-Projekte/FH-Vertibot/src/STM32F30x_StdPeriph_Driver/src/stm32f30x_usart.c ****   * @retval None
1047:/home/user/Desktop/STM32-Projekte/FH-Vertibot/src/STM32F30x_StdPeriph_Driver/src/stm32f30x_usart.c ****   */
1048:/home/user/Desktop/STM32-Projekte/FH-Vertibot/src/STM32F30x_StdPeriph_Driver/src/stm32f30x_usart.c **** void USART_AddressDetectionConfig(USART_TypeDef* USARTx, uint32_t USART_AddressLength)
1049:/home/user/Desktop/STM32-Projekte/FH-Vertibot/src/STM32F30x_StdPeriph_Driver/src/stm32f30x_usart.c **** {
 979              		.loc 1 1049 0
 980              		.cfi_startproc
 981              		@ args = 0, pretend = 0, frame = 0
 982              		@ frame_needed = 0, uses_anonymous_args = 0
 983              		@ link register save eliminated.
 984              	.LVL88:
1050:/home/user/Desktop/STM32-Projekte/FH-Vertibot/src/STM32F30x_StdPeriph_Driver/src/stm32f30x_usart.c ****   /* Check the parameters */
1051:/home/user/Desktop/STM32-Projekte/FH-Vertibot/src/STM32F30x_StdPeriph_Driver/src/stm32f30x_usart.c ****   assert_param(IS_USART_ALL_PERIPH(USARTx));
1052:/home/user/Desktop/STM32-Projekte/FH-Vertibot/src/STM32F30x_StdPeriph_Driver/src/stm32f30x_usart.c ****   assert_param(IS_USART_ADDRESS_DETECTION(USART_AddressLength));
1053:/home/user/Desktop/STM32-Projekte/FH-Vertibot/src/STM32F30x_StdPeriph_Driver/src/stm32f30x_usart.c **** 
1054:/home/user/Desktop/STM32-Projekte/FH-Vertibot/src/STM32F30x_StdPeriph_Driver/src/stm32f30x_usart.c ****   USARTx->CR2 &= (uint32_t)~((uint32_t)USART_CR2_ADDM7);
 985              		.loc 1 1054 0
 986 02d6 4368     		ldr	r3, [r0, #4]
 987 02d8 23F01003 		bic	r3, r3, #16
 988 02dc 4360     		str	r3, [r0, #4]
1055:/home/user/Desktop/STM32-Projekte/FH-Vertibot/src/STM32F30x_StdPeriph_Driver/src/stm32f30x_usart.c ****   USARTx->CR2 |= USART_AddressLength;
 989              		.loc 1 1055 0
 990 02de 4368     		ldr	r3, [r0, #4]
 991 02e0 1943     		orrs	r1, r1, r3
 992              	.LVL89:
 993 02e2 4160     		str	r1, [r0, #4]
 994 02e4 7047     		bx	lr
 995              		.cfi_endproc
 996              	.LFE136:
 998              		.align	1
 999              		.global	USART_LINBreakDetectLengthConfig
 1000              		.thumb
 1001              		.thumb_func
 1003              	USART_LINBreakDetectLengthConfig:
 1004              	.LFB137:
1056:/home/user/Desktop/STM32-Projekte/FH-Vertibot/src/STM32F30x_StdPeriph_Driver/src/stm32f30x_usart.c **** }
1057:/home/user/Desktop/STM32-Projekte/FH-Vertibot/src/STM32F30x_StdPeriph_Driver/src/stm32f30x_usart.c **** 
1058:/home/user/Desktop/STM32-Projekte/FH-Vertibot/src/STM32F30x_StdPeriph_Driver/src/stm32f30x_usart.c **** /**
1059:/home/user/Desktop/STM32-Projekte/FH-Vertibot/src/STM32F30x_StdPeriph_Driver/src/stm32f30x_usart.c ****   * @}
1060:/home/user/Desktop/STM32-Projekte/FH-Vertibot/src/STM32F30x_StdPeriph_Driver/src/stm32f30x_usart.c ****   */
1061:/home/user/Desktop/STM32-Projekte/FH-Vertibot/src/STM32F30x_StdPeriph_Driver/src/stm32f30x_usart.c **** 
1062:/home/user/Desktop/STM32-Projekte/FH-Vertibot/src/STM32F30x_StdPeriph_Driver/src/stm32f30x_usart.c **** /** @defgroup USART_Group6 LIN mode functions
1063:/home/user/Desktop/STM32-Projekte/FH-Vertibot/src/STM32F30x_StdPeriph_Driver/src/stm32f30x_usart.c ****  *  @brief   LIN mode functions 
1064:/home/user/Desktop/STM32-Projekte/FH-Vertibot/src/STM32F30x_StdPeriph_Driver/src/stm32f30x_usart.c ****  *
1065:/home/user/Desktop/STM32-Projekte/FH-Vertibot/src/STM32F30x_StdPeriph_Driver/src/stm32f30x_usart.c **** @verbatim   
1066:/home/user/Desktop/STM32-Projekte/FH-Vertibot/src/STM32F30x_StdPeriph_Driver/src/stm32f30x_usart.c ****  ===============================================================================
1067:/home/user/Desktop/STM32-Projekte/FH-Vertibot/src/STM32F30x_StdPeriph_Driver/src/stm32f30x_usart.c ****                        ##### LIN mode functions #####
1068:/home/user/Desktop/STM32-Projekte/FH-Vertibot/src/STM32F30x_StdPeriph_Driver/src/stm32f30x_usart.c ****  ===============================================================================
1069:/home/user/Desktop/STM32-Projekte/FH-Vertibot/src/STM32F30x_StdPeriph_Driver/src/stm32f30x_usart.c ****     [..] This subsection provides a set of functions allowing to manage the USART 
1070:/home/user/Desktop/STM32-Projekte/FH-Vertibot/src/STM32F30x_StdPeriph_Driver/src/stm32f30x_usart.c ****          LIN Mode communication.
1071:/home/user/Desktop/STM32-Projekte/FH-Vertibot/src/STM32F30x_StdPeriph_Driver/src/stm32f30x_usart.c ****     [..] In LIN mode, 8-bit data format with 1 stop bit is required in accordance 
1072:/home/user/Desktop/STM32-Projekte/FH-Vertibot/src/STM32F30x_StdPeriph_Driver/src/stm32f30x_usart.c ****          with the LIN standard.
1073:/home/user/Desktop/STM32-Projekte/FH-Vertibot/src/STM32F30x_StdPeriph_Driver/src/stm32f30x_usart.c ****     [..] Only this LIN Feature is supported by the USART IP:
1074:/home/user/Desktop/STM32-Projekte/FH-Vertibot/src/STM32F30x_StdPeriph_Driver/src/stm32f30x_usart.c ****          (+) LIN Master Synchronous Break send capability and LIN slave break 
1075:/home/user/Desktop/STM32-Projekte/FH-Vertibot/src/STM32F30x_StdPeriph_Driver/src/stm32f30x_usart.c ****              detection capability :  13-bit break generation and 10/11 bit break 
1076:/home/user/Desktop/STM32-Projekte/FH-Vertibot/src/STM32F30x_StdPeriph_Driver/src/stm32f30x_usart.c ****              detection.
1077:/home/user/Desktop/STM32-Projekte/FH-Vertibot/src/STM32F30x_StdPeriph_Driver/src/stm32f30x_usart.c ****     [..] USART LIN Master transmitter communication is possible through the 
1078:/home/user/Desktop/STM32-Projekte/FH-Vertibot/src/STM32F30x_StdPeriph_Driver/src/stm32f30x_usart.c ****          following procedure:
1079:/home/user/Desktop/STM32-Projekte/FH-Vertibot/src/STM32F30x_StdPeriph_Driver/src/stm32f30x_usart.c ****          (#) Program the Baud rate, Word length = 8bits, Stop bits = 1bit, Parity, 
1080:/home/user/Desktop/STM32-Projekte/FH-Vertibot/src/STM32F30x_StdPeriph_Driver/src/stm32f30x_usart.c ****              Mode transmitter or Mode receiver and hardware flow control values 
1081:/home/user/Desktop/STM32-Projekte/FH-Vertibot/src/STM32F30x_StdPeriph_Driver/src/stm32f30x_usart.c ****              using the USART_Init() function.
1082:/home/user/Desktop/STM32-Projekte/FH-Vertibot/src/STM32F30x_StdPeriph_Driver/src/stm32f30x_usart.c ****          (#) Enable the LIN mode using the USART_LINCmd() function.
1083:/home/user/Desktop/STM32-Projekte/FH-Vertibot/src/STM32F30x_StdPeriph_Driver/src/stm32f30x_usart.c ****          (#) Enable the USART using the USART_Cmd() function.
1084:/home/user/Desktop/STM32-Projekte/FH-Vertibot/src/STM32F30x_StdPeriph_Driver/src/stm32f30x_usart.c ****          (#) Send the break character using USART_SendBreak() function.
1085:/home/user/Desktop/STM32-Projekte/FH-Vertibot/src/STM32F30x_StdPeriph_Driver/src/stm32f30x_usart.c ****     [..] USART LIN Master receiver communication is possible through the 
1086:/home/user/Desktop/STM32-Projekte/FH-Vertibot/src/STM32F30x_StdPeriph_Driver/src/stm32f30x_usart.c ****          following procedure:
1087:/home/user/Desktop/STM32-Projekte/FH-Vertibot/src/STM32F30x_StdPeriph_Driver/src/stm32f30x_usart.c ****          (#) Program the Baud rate, Word length = 8bits, Stop bits = 1bit, Parity, 
1088:/home/user/Desktop/STM32-Projekte/FH-Vertibot/src/STM32F30x_StdPeriph_Driver/src/stm32f30x_usart.c ****              Mode transmitter or Mode receiver and hardware flow control values 
1089:/home/user/Desktop/STM32-Projekte/FH-Vertibot/src/STM32F30x_StdPeriph_Driver/src/stm32f30x_usart.c ****              using the USART_Init() function.
1090:/home/user/Desktop/STM32-Projekte/FH-Vertibot/src/STM32F30x_StdPeriph_Driver/src/stm32f30x_usart.c ****          (#) Configures the break detection length 
1091:/home/user/Desktop/STM32-Projekte/FH-Vertibot/src/STM32F30x_StdPeriph_Driver/src/stm32f30x_usart.c ****              using the USART_LINBreakDetectLengthConfig() function.
1092:/home/user/Desktop/STM32-Projekte/FH-Vertibot/src/STM32F30x_StdPeriph_Driver/src/stm32f30x_usart.c ****          (#) Enable the LIN mode using the USART_LINCmd() function.
1093:/home/user/Desktop/STM32-Projekte/FH-Vertibot/src/STM32F30x_StdPeriph_Driver/src/stm32f30x_usart.c ****          (#) Enable the USART using the USART_Cmd() function.
1094:/home/user/Desktop/STM32-Projekte/FH-Vertibot/src/STM32F30x_StdPeriph_Driver/src/stm32f30x_usart.c ****          [..]
1095:/home/user/Desktop/STM32-Projekte/FH-Vertibot/src/STM32F30x_StdPeriph_Driver/src/stm32f30x_usart.c ****          (@) In LIN mode, the following bits must be kept cleared:
1096:/home/user/Desktop/STM32-Projekte/FH-Vertibot/src/STM32F30x_StdPeriph_Driver/src/stm32f30x_usart.c ****              (+@) CLKEN in the USART_CR2 register.
1097:/home/user/Desktop/STM32-Projekte/FH-Vertibot/src/STM32F30x_StdPeriph_Driver/src/stm32f30x_usart.c ****              (+@) STOP[1:0], SCEN, HDSEL and IREN in the USART_CR3 register.
1098:/home/user/Desktop/STM32-Projekte/FH-Vertibot/src/STM32F30x_StdPeriph_Driver/src/stm32f30x_usart.c **** 
1099:/home/user/Desktop/STM32-Projekte/FH-Vertibot/src/STM32F30x_StdPeriph_Driver/src/stm32f30x_usart.c **** @endverbatim
1100:/home/user/Desktop/STM32-Projekte/FH-Vertibot/src/STM32F30x_StdPeriph_Driver/src/stm32f30x_usart.c ****   * @{
1101:/home/user/Desktop/STM32-Projekte/FH-Vertibot/src/STM32F30x_StdPeriph_Driver/src/stm32f30x_usart.c ****   */
1102:/home/user/Desktop/STM32-Projekte/FH-Vertibot/src/STM32F30x_StdPeriph_Driver/src/stm32f30x_usart.c **** 
1103:/home/user/Desktop/STM32-Projekte/FH-Vertibot/src/STM32F30x_StdPeriph_Driver/src/stm32f30x_usart.c **** /**
1104:/home/user/Desktop/STM32-Projekte/FH-Vertibot/src/STM32F30x_StdPeriph_Driver/src/stm32f30x_usart.c ****   * @brief  Sets the USART LIN Break detection length.
1105:/home/user/Desktop/STM32-Projekte/FH-Vertibot/src/STM32F30x_StdPeriph_Driver/src/stm32f30x_usart.c ****   * @param  USARTx: Select the USART peripheral. This parameter can be one of the 
1106:/home/user/Desktop/STM32-Projekte/FH-Vertibot/src/STM32F30x_StdPeriph_Driver/src/stm32f30x_usart.c ****   *         following values: USART1 or USART2 or USART3 or UART4 or UART5.
1107:/home/user/Desktop/STM32-Projekte/FH-Vertibot/src/STM32F30x_StdPeriph_Driver/src/stm32f30x_usart.c ****   * @param  USART_LINBreakDetectLength: specifies the LIN break detection length.
1108:/home/user/Desktop/STM32-Projekte/FH-Vertibot/src/STM32F30x_StdPeriph_Driver/src/stm32f30x_usart.c ****   *         This parameter can be one of the following values:
1109:/home/user/Desktop/STM32-Projekte/FH-Vertibot/src/STM32F30x_StdPeriph_Driver/src/stm32f30x_usart.c ****   *         @arg USART_LINBreakDetectLength_10b: 10-bit break detection
1110:/home/user/Desktop/STM32-Projekte/FH-Vertibot/src/STM32F30x_StdPeriph_Driver/src/stm32f30x_usart.c ****   *         @arg USART_LINBreakDetectLength_11b: 11-bit break detection
1111:/home/user/Desktop/STM32-Projekte/FH-Vertibot/src/STM32F30x_StdPeriph_Driver/src/stm32f30x_usart.c ****   * @retval None
1112:/home/user/Desktop/STM32-Projekte/FH-Vertibot/src/STM32F30x_StdPeriph_Driver/src/stm32f30x_usart.c ****   */
1113:/home/user/Desktop/STM32-Projekte/FH-Vertibot/src/STM32F30x_StdPeriph_Driver/src/stm32f30x_usart.c **** void USART_LINBreakDetectLengthConfig(USART_TypeDef* USARTx, uint32_t USART_LINBreakDetectLength)
1114:/home/user/Desktop/STM32-Projekte/FH-Vertibot/src/STM32F30x_StdPeriph_Driver/src/stm32f30x_usart.c **** {
 1005              		.loc 1 1114 0
 1006              		.cfi_startproc
 1007              		@ args = 0, pretend = 0, frame = 0
 1008              		@ frame_needed = 0, uses_anonymous_args = 0
 1009              		@ link register save eliminated.
 1010              	.LVL90:
1115:/home/user/Desktop/STM32-Projekte/FH-Vertibot/src/STM32F30x_StdPeriph_Driver/src/stm32f30x_usart.c ****   /* Check the parameters */
1116:/home/user/Desktop/STM32-Projekte/FH-Vertibot/src/STM32F30x_StdPeriph_Driver/src/stm32f30x_usart.c ****   assert_param(IS_USART_ALL_PERIPH(USARTx));
1117:/home/user/Desktop/STM32-Projekte/FH-Vertibot/src/STM32F30x_StdPeriph_Driver/src/stm32f30x_usart.c ****   assert_param(IS_USART_LIN_BREAK_DETECT_LENGTH(USART_LINBreakDetectLength));
1118:/home/user/Desktop/STM32-Projekte/FH-Vertibot/src/STM32F30x_StdPeriph_Driver/src/stm32f30x_usart.c **** 
1119:/home/user/Desktop/STM32-Projekte/FH-Vertibot/src/STM32F30x_StdPeriph_Driver/src/stm32f30x_usart.c ****   USARTx->CR2 &= (uint32_t)~((uint32_t)USART_CR2_LBDL);
 1011              		.loc 1 1119 0
 1012 02e6 4368     		ldr	r3, [r0, #4]
 1013 02e8 23F02003 		bic	r3, r3, #32
 1014 02ec 4360     		str	r3, [r0, #4]
1120:/home/user/Desktop/STM32-Projekte/FH-Vertibot/src/STM32F30x_StdPeriph_Driver/src/stm32f30x_usart.c ****   USARTx->CR2 |= USART_LINBreakDetectLength;  
 1015              		.loc 1 1120 0
 1016 02ee 4368     		ldr	r3, [r0, #4]
 1017 02f0 1943     		orrs	r1, r1, r3
 1018              	.LVL91:
 1019 02f2 4160     		str	r1, [r0, #4]
 1020 02f4 7047     		bx	lr
 1021              		.cfi_endproc
 1022              	.LFE137:
 1024              		.align	1
 1025              		.global	USART_LINCmd
 1026              		.thumb
 1027              		.thumb_func
 1029              	USART_LINCmd:
 1030              	.LFB138:
1121:/home/user/Desktop/STM32-Projekte/FH-Vertibot/src/STM32F30x_StdPeriph_Driver/src/stm32f30x_usart.c **** }
1122:/home/user/Desktop/STM32-Projekte/FH-Vertibot/src/STM32F30x_StdPeriph_Driver/src/stm32f30x_usart.c **** 
1123:/home/user/Desktop/STM32-Projekte/FH-Vertibot/src/STM32F30x_StdPeriph_Driver/src/stm32f30x_usart.c **** /**
1124:/home/user/Desktop/STM32-Projekte/FH-Vertibot/src/STM32F30x_StdPeriph_Driver/src/stm32f30x_usart.c ****   * @brief  Enables or disables the USART's LIN mode.
1125:/home/user/Desktop/STM32-Projekte/FH-Vertibot/src/STM32F30x_StdPeriph_Driver/src/stm32f30x_usart.c ****   * @param  USARTx: Select the USART peripheral. This parameter can be one of the 
1126:/home/user/Desktop/STM32-Projekte/FH-Vertibot/src/STM32F30x_StdPeriph_Driver/src/stm32f30x_usart.c ****   *         following values: USART1 or USART2 or USART3 or UART4 or UART5.
1127:/home/user/Desktop/STM32-Projekte/FH-Vertibot/src/STM32F30x_StdPeriph_Driver/src/stm32f30x_usart.c ****   * @param  NewState: new state of the USART LIN mode.
1128:/home/user/Desktop/STM32-Projekte/FH-Vertibot/src/STM32F30x_StdPeriph_Driver/src/stm32f30x_usart.c ****   *         This parameter can be: ENABLE or DISABLE.
1129:/home/user/Desktop/STM32-Projekte/FH-Vertibot/src/STM32F30x_StdPeriph_Driver/src/stm32f30x_usart.c ****   * @retval None
1130:/home/user/Desktop/STM32-Projekte/FH-Vertibot/src/STM32F30x_StdPeriph_Driver/src/stm32f30x_usart.c ****   */
1131:/home/user/Desktop/STM32-Projekte/FH-Vertibot/src/STM32F30x_StdPeriph_Driver/src/stm32f30x_usart.c **** void USART_LINCmd(USART_TypeDef* USARTx, FunctionalState NewState)
1132:/home/user/Desktop/STM32-Projekte/FH-Vertibot/src/STM32F30x_StdPeriph_Driver/src/stm32f30x_usart.c **** {
 1031              		.loc 1 1132 0
 1032              		.cfi_startproc
 1033              		@ args = 0, pretend = 0, frame = 0
 1034              		@ frame_needed = 0, uses_anonymous_args = 0
 1035              		@ link register save eliminated.
 1036              	.LVL92:
1133:/home/user/Desktop/STM32-Projekte/FH-Vertibot/src/STM32F30x_StdPeriph_Driver/src/stm32f30x_usart.c ****   /* Check the parameters */
1134:/home/user/Desktop/STM32-Projekte/FH-Vertibot/src/STM32F30x_StdPeriph_Driver/src/stm32f30x_usart.c ****   assert_param(IS_USART_ALL_PERIPH(USARTx));
1135:/home/user/Desktop/STM32-Projekte/FH-Vertibot/src/STM32F30x_StdPeriph_Driver/src/stm32f30x_usart.c ****   assert_param(IS_FUNCTIONAL_STATE(NewState));
1136:/home/user/Desktop/STM32-Projekte/FH-Vertibot/src/STM32F30x_StdPeriph_Driver/src/stm32f30x_usart.c **** 
1137:/home/user/Desktop/STM32-Projekte/FH-Vertibot/src/STM32F30x_StdPeriph_Driver/src/stm32f30x_usart.c ****   if (NewState != DISABLE)
1138:/home/user/Desktop/STM32-Projekte/FH-Vertibot/src/STM32F30x_StdPeriph_Driver/src/stm32f30x_usart.c ****   {
1139:/home/user/Desktop/STM32-Projekte/FH-Vertibot/src/STM32F30x_StdPeriph_Driver/src/stm32f30x_usart.c ****     /* Enable the LIN mode by setting the LINEN bit in the CR2 register */
1140:/home/user/Desktop/STM32-Projekte/FH-Vertibot/src/STM32F30x_StdPeriph_Driver/src/stm32f30x_usart.c ****     USARTx->CR2 |= USART_CR2_LINEN;
 1037              		.loc 1 1140 0
 1038 02f6 4368     		ldr	r3, [r0, #4]
1137:/home/user/Desktop/STM32-Projekte/FH-Vertibot/src/STM32F30x_StdPeriph_Driver/src/stm32f30x_usart.c ****   if (NewState != DISABLE)
 1039              		.loc 1 1137 0
 1040 02f8 11B1     		cbz	r1, .L88
 1041              		.loc 1 1140 0
 1042 02fa 43F48043 		orr	r3, r3, #16384
 1043 02fe 01E0     		b	.L90
 1044              	.L88:
1141:/home/user/Desktop/STM32-Projekte/FH-Vertibot/src/STM32F30x_StdPeriph_Driver/src/stm32f30x_usart.c ****   }
1142:/home/user/Desktop/STM32-Projekte/FH-Vertibot/src/STM32F30x_StdPeriph_Driver/src/stm32f30x_usart.c ****   else
1143:/home/user/Desktop/STM32-Projekte/FH-Vertibot/src/STM32F30x_StdPeriph_Driver/src/stm32f30x_usart.c ****   {
1144:/home/user/Desktop/STM32-Projekte/FH-Vertibot/src/STM32F30x_StdPeriph_Driver/src/stm32f30x_usart.c ****     /* Disable the LIN mode by clearing the LINEN bit in the CR2 register */
1145:/home/user/Desktop/STM32-Projekte/FH-Vertibot/src/STM32F30x_StdPeriph_Driver/src/stm32f30x_usart.c ****     USARTx->CR2 &= (uint32_t)~((uint32_t)USART_CR2_LINEN);
 1045              		.loc 1 1145 0
 1046 0300 23F48043 		bic	r3, r3, #16384
 1047              	.L90:
 1048 0304 4360     		str	r3, [r0, #4]
 1049 0306 7047     		bx	lr
 1050              		.cfi_endproc
 1051              	.LFE138:
 1053              		.align	1
 1054              		.global	USART_HalfDuplexCmd
 1055              		.thumb
 1056              		.thumb_func
 1058              	USART_HalfDuplexCmd:
 1059              	.LFB139:
1146:/home/user/Desktop/STM32-Projekte/FH-Vertibot/src/STM32F30x_StdPeriph_Driver/src/stm32f30x_usart.c ****   }
1147:/home/user/Desktop/STM32-Projekte/FH-Vertibot/src/STM32F30x_StdPeriph_Driver/src/stm32f30x_usart.c **** }
1148:/home/user/Desktop/STM32-Projekte/FH-Vertibot/src/STM32F30x_StdPeriph_Driver/src/stm32f30x_usart.c **** 
1149:/home/user/Desktop/STM32-Projekte/FH-Vertibot/src/STM32F30x_StdPeriph_Driver/src/stm32f30x_usart.c **** /**
1150:/home/user/Desktop/STM32-Projekte/FH-Vertibot/src/STM32F30x_StdPeriph_Driver/src/stm32f30x_usart.c ****   * @}
1151:/home/user/Desktop/STM32-Projekte/FH-Vertibot/src/STM32F30x_StdPeriph_Driver/src/stm32f30x_usart.c ****   */
1152:/home/user/Desktop/STM32-Projekte/FH-Vertibot/src/STM32F30x_StdPeriph_Driver/src/stm32f30x_usart.c **** 
1153:/home/user/Desktop/STM32-Projekte/FH-Vertibot/src/STM32F30x_StdPeriph_Driver/src/stm32f30x_usart.c **** /** @defgroup USART_Group7 Halfduplex mode function
1154:/home/user/Desktop/STM32-Projekte/FH-Vertibot/src/STM32F30x_StdPeriph_Driver/src/stm32f30x_usart.c ****  *  @brief   Half-duplex mode function 
1155:/home/user/Desktop/STM32-Projekte/FH-Vertibot/src/STM32F30x_StdPeriph_Driver/src/stm32f30x_usart.c ****  *
1156:/home/user/Desktop/STM32-Projekte/FH-Vertibot/src/STM32F30x_StdPeriph_Driver/src/stm32f30x_usart.c **** @verbatim   
1157:/home/user/Desktop/STM32-Projekte/FH-Vertibot/src/STM32F30x_StdPeriph_Driver/src/stm32f30x_usart.c ****  ===============================================================================
1158:/home/user/Desktop/STM32-Projekte/FH-Vertibot/src/STM32F30x_StdPeriph_Driver/src/stm32f30x_usart.c ****                    ##### Half-duplex mode function #####
1159:/home/user/Desktop/STM32-Projekte/FH-Vertibot/src/STM32F30x_StdPeriph_Driver/src/stm32f30x_usart.c ****  ===============================================================================
1160:/home/user/Desktop/STM32-Projekte/FH-Vertibot/src/STM32F30x_StdPeriph_Driver/src/stm32f30x_usart.c ****     [..] This subsection provides a set of functions allowing to manage the USART
1161:/home/user/Desktop/STM32-Projekte/FH-Vertibot/src/STM32F30x_StdPeriph_Driver/src/stm32f30x_usart.c ****          Half-duplex communication.
1162:/home/user/Desktop/STM32-Projekte/FH-Vertibot/src/STM32F30x_StdPeriph_Driver/src/stm32f30x_usart.c ****     [..] The USART can be configured to follow a single-wire half-duplex protocol 
1163:/home/user/Desktop/STM32-Projekte/FH-Vertibot/src/STM32F30x_StdPeriph_Driver/src/stm32f30x_usart.c ****          where the TX and RX lines are internally connected.
1164:/home/user/Desktop/STM32-Projekte/FH-Vertibot/src/STM32F30x_StdPeriph_Driver/src/stm32f30x_usart.c ****     [..] USART Half duplex communication is possible through the following procedure:
1165:/home/user/Desktop/STM32-Projekte/FH-Vertibot/src/STM32F30x_StdPeriph_Driver/src/stm32f30x_usart.c ****          (#) Program the Baud rate, Word length, Stop bits, Parity, Mode transmitter 
1166:/home/user/Desktop/STM32-Projekte/FH-Vertibot/src/STM32F30x_StdPeriph_Driver/src/stm32f30x_usart.c ****              or Mode receiver and hardware flow control values using the USART_Init()
1167:/home/user/Desktop/STM32-Projekte/FH-Vertibot/src/STM32F30x_StdPeriph_Driver/src/stm32f30x_usart.c ****             function.
1168:/home/user/Desktop/STM32-Projekte/FH-Vertibot/src/STM32F30x_StdPeriph_Driver/src/stm32f30x_usart.c ****          (#) Configures the USART address using the USART_SetAddress() function.
1169:/home/user/Desktop/STM32-Projekte/FH-Vertibot/src/STM32F30x_StdPeriph_Driver/src/stm32f30x_usart.c ****          (#) Enable the half duplex mode using USART_HalfDuplexCmd() function.
1170:/home/user/Desktop/STM32-Projekte/FH-Vertibot/src/STM32F30x_StdPeriph_Driver/src/stm32f30x_usart.c ****          (#) Enable the USART using the USART_Cmd() function.
1171:/home/user/Desktop/STM32-Projekte/FH-Vertibot/src/STM32F30x_StdPeriph_Driver/src/stm32f30x_usart.c ****          [..]
1172:/home/user/Desktop/STM32-Projekte/FH-Vertibot/src/STM32F30x_StdPeriph_Driver/src/stm32f30x_usart.c ****          (@) The RX pin is no longer used.
1173:/home/user/Desktop/STM32-Projekte/FH-Vertibot/src/STM32F30x_StdPeriph_Driver/src/stm32f30x_usart.c ****          (@) In Half-duplex mode the following bits must be kept cleared:
1174:/home/user/Desktop/STM32-Projekte/FH-Vertibot/src/STM32F30x_StdPeriph_Driver/src/stm32f30x_usart.c ****              (+@) LINEN and CLKEN bits in the USART_CR2 register.
1175:/home/user/Desktop/STM32-Projekte/FH-Vertibot/src/STM32F30x_StdPeriph_Driver/src/stm32f30x_usart.c ****              (+@) SCEN and IREN bits in the USART_CR3 register.
1176:/home/user/Desktop/STM32-Projekte/FH-Vertibot/src/STM32F30x_StdPeriph_Driver/src/stm32f30x_usart.c **** 
1177:/home/user/Desktop/STM32-Projekte/FH-Vertibot/src/STM32F30x_StdPeriph_Driver/src/stm32f30x_usart.c **** @endverbatim
1178:/home/user/Desktop/STM32-Projekte/FH-Vertibot/src/STM32F30x_StdPeriph_Driver/src/stm32f30x_usart.c ****   * @{
1179:/home/user/Desktop/STM32-Projekte/FH-Vertibot/src/STM32F30x_StdPeriph_Driver/src/stm32f30x_usart.c ****   */
1180:/home/user/Desktop/STM32-Projekte/FH-Vertibot/src/STM32F30x_StdPeriph_Driver/src/stm32f30x_usart.c **** 
1181:/home/user/Desktop/STM32-Projekte/FH-Vertibot/src/STM32F30x_StdPeriph_Driver/src/stm32f30x_usart.c **** /**
1182:/home/user/Desktop/STM32-Projekte/FH-Vertibot/src/STM32F30x_StdPeriph_Driver/src/stm32f30x_usart.c ****   * @brief  Enables or disables the USART's Half Duplex communication.
1183:/home/user/Desktop/STM32-Projekte/FH-Vertibot/src/STM32F30x_StdPeriph_Driver/src/stm32f30x_usart.c ****   * @param  USARTx: Select the USART peripheral. This parameter can be one of the 
1184:/home/user/Desktop/STM32-Projekte/FH-Vertibot/src/STM32F30x_StdPeriph_Driver/src/stm32f30x_usart.c ****   *         following values: USART1 or USART2 or USART3 or UART4 or UART5.
1185:/home/user/Desktop/STM32-Projekte/FH-Vertibot/src/STM32F30x_StdPeriph_Driver/src/stm32f30x_usart.c ****   * @param  NewState: new state of the USART Communication.
1186:/home/user/Desktop/STM32-Projekte/FH-Vertibot/src/STM32F30x_StdPeriph_Driver/src/stm32f30x_usart.c ****   *         This parameter can be: ENABLE or DISABLE.
1187:/home/user/Desktop/STM32-Projekte/FH-Vertibot/src/STM32F30x_StdPeriph_Driver/src/stm32f30x_usart.c ****   * @retval None
1188:/home/user/Desktop/STM32-Projekte/FH-Vertibot/src/STM32F30x_StdPeriph_Driver/src/stm32f30x_usart.c ****   */
1189:/home/user/Desktop/STM32-Projekte/FH-Vertibot/src/STM32F30x_StdPeriph_Driver/src/stm32f30x_usart.c **** void USART_HalfDuplexCmd(USART_TypeDef* USARTx, FunctionalState NewState)
1190:/home/user/Desktop/STM32-Projekte/FH-Vertibot/src/STM32F30x_StdPeriph_Driver/src/stm32f30x_usart.c **** {
 1060              		.loc 1 1190 0
 1061              		.cfi_startproc
 1062              		@ args = 0, pretend = 0, frame = 0
 1063              		@ frame_needed = 0, uses_anonymous_args = 0
 1064              		@ link register save eliminated.
 1065              	.LVL93:
1191:/home/user/Desktop/STM32-Projekte/FH-Vertibot/src/STM32F30x_StdPeriph_Driver/src/stm32f30x_usart.c ****   /* Check the parameters */
1192:/home/user/Desktop/STM32-Projekte/FH-Vertibot/src/STM32F30x_StdPeriph_Driver/src/stm32f30x_usart.c ****   assert_param(IS_USART_ALL_PERIPH(USARTx));
1193:/home/user/Desktop/STM32-Projekte/FH-Vertibot/src/STM32F30x_StdPeriph_Driver/src/stm32f30x_usart.c ****   assert_param(IS_FUNCTIONAL_STATE(NewState));
1194:/home/user/Desktop/STM32-Projekte/FH-Vertibot/src/STM32F30x_StdPeriph_Driver/src/stm32f30x_usart.c ****   
1195:/home/user/Desktop/STM32-Projekte/FH-Vertibot/src/STM32F30x_StdPeriph_Driver/src/stm32f30x_usart.c ****   if (NewState != DISABLE)
1196:/home/user/Desktop/STM32-Projekte/FH-Vertibot/src/STM32F30x_StdPeriph_Driver/src/stm32f30x_usart.c ****   {
1197:/home/user/Desktop/STM32-Projekte/FH-Vertibot/src/STM32F30x_StdPeriph_Driver/src/stm32f30x_usart.c ****     /* Enable the Half-Duplex mode by setting the HDSEL bit in the CR3 register */
1198:/home/user/Desktop/STM32-Projekte/FH-Vertibot/src/STM32F30x_StdPeriph_Driver/src/stm32f30x_usart.c ****     USARTx->CR3 |= USART_CR3_HDSEL;
 1066              		.loc 1 1198 0
 1067 0308 8368     		ldr	r3, [r0, #8]
1195:/home/user/Desktop/STM32-Projekte/FH-Vertibot/src/STM32F30x_StdPeriph_Driver/src/stm32f30x_usart.c ****   if (NewState != DISABLE)
 1068              		.loc 1 1195 0
 1069 030a 11B1     		cbz	r1, .L92
 1070              		.loc 1 1198 0
 1071 030c 43F00803 		orr	r3, r3, #8
 1072 0310 01E0     		b	.L94
 1073              	.L92:
1199:/home/user/Desktop/STM32-Projekte/FH-Vertibot/src/STM32F30x_StdPeriph_Driver/src/stm32f30x_usart.c ****   }
1200:/home/user/Desktop/STM32-Projekte/FH-Vertibot/src/STM32F30x_StdPeriph_Driver/src/stm32f30x_usart.c ****   else
1201:/home/user/Desktop/STM32-Projekte/FH-Vertibot/src/STM32F30x_StdPeriph_Driver/src/stm32f30x_usart.c ****   {
1202:/home/user/Desktop/STM32-Projekte/FH-Vertibot/src/STM32F30x_StdPeriph_Driver/src/stm32f30x_usart.c ****     /* Disable the Half-Duplex mode by clearing the HDSEL bit in the CR3 register */
1203:/home/user/Desktop/STM32-Projekte/FH-Vertibot/src/STM32F30x_StdPeriph_Driver/src/stm32f30x_usart.c ****     USARTx->CR3 &= (uint32_t)~((uint32_t)USART_CR3_HDSEL);
 1074              		.loc 1 1203 0
 1075 0312 23F00803 		bic	r3, r3, #8
 1076              	.L94:
 1077 0316 8360     		str	r3, [r0, #8]
 1078 0318 7047     		bx	lr
 1079              		.cfi_endproc
 1080              	.LFE139:
 1082              		.align	1
 1083              		.global	USART_SetGuardTime
 1084              		.thumb
 1085              		.thumb_func
 1087              	USART_SetGuardTime:
 1088              	.LFB140:
1204:/home/user/Desktop/STM32-Projekte/FH-Vertibot/src/STM32F30x_StdPeriph_Driver/src/stm32f30x_usart.c ****   }
1205:/home/user/Desktop/STM32-Projekte/FH-Vertibot/src/STM32F30x_StdPeriph_Driver/src/stm32f30x_usart.c **** }
1206:/home/user/Desktop/STM32-Projekte/FH-Vertibot/src/STM32F30x_StdPeriph_Driver/src/stm32f30x_usart.c **** 
1207:/home/user/Desktop/STM32-Projekte/FH-Vertibot/src/STM32F30x_StdPeriph_Driver/src/stm32f30x_usart.c **** /**
1208:/home/user/Desktop/STM32-Projekte/FH-Vertibot/src/STM32F30x_StdPeriph_Driver/src/stm32f30x_usart.c ****   * @}
1209:/home/user/Desktop/STM32-Projekte/FH-Vertibot/src/STM32F30x_StdPeriph_Driver/src/stm32f30x_usart.c ****   */
1210:/home/user/Desktop/STM32-Projekte/FH-Vertibot/src/STM32F30x_StdPeriph_Driver/src/stm32f30x_usart.c **** 
1211:/home/user/Desktop/STM32-Projekte/FH-Vertibot/src/STM32F30x_StdPeriph_Driver/src/stm32f30x_usart.c **** 
1212:/home/user/Desktop/STM32-Projekte/FH-Vertibot/src/STM32F30x_StdPeriph_Driver/src/stm32f30x_usart.c **** /** @defgroup USART_Group8 Smartcard mode functions
1213:/home/user/Desktop/STM32-Projekte/FH-Vertibot/src/STM32F30x_StdPeriph_Driver/src/stm32f30x_usart.c ****  *  @brief   Smartcard mode functions 
1214:/home/user/Desktop/STM32-Projekte/FH-Vertibot/src/STM32F30x_StdPeriph_Driver/src/stm32f30x_usart.c ****  *
1215:/home/user/Desktop/STM32-Projekte/FH-Vertibot/src/STM32F30x_StdPeriph_Driver/src/stm32f30x_usart.c **** @verbatim   
1216:/home/user/Desktop/STM32-Projekte/FH-Vertibot/src/STM32F30x_StdPeriph_Driver/src/stm32f30x_usart.c ****  ===============================================================================
1217:/home/user/Desktop/STM32-Projekte/FH-Vertibot/src/STM32F30x_StdPeriph_Driver/src/stm32f30x_usart.c ****                      ##### Smartcard mode functions #####
1218:/home/user/Desktop/STM32-Projekte/FH-Vertibot/src/STM32F30x_StdPeriph_Driver/src/stm32f30x_usart.c ****  ===============================================================================
1219:/home/user/Desktop/STM32-Projekte/FH-Vertibot/src/STM32F30x_StdPeriph_Driver/src/stm32f30x_usart.c ****     [..] This subsection provides a set of functions allowing to manage the USART
1220:/home/user/Desktop/STM32-Projekte/FH-Vertibot/src/STM32F30x_StdPeriph_Driver/src/stm32f30x_usart.c ****          Smartcard communication.
1221:/home/user/Desktop/STM32-Projekte/FH-Vertibot/src/STM32F30x_StdPeriph_Driver/src/stm32f30x_usart.c ****     [..] The Smartcard interface is designed to support asynchronous protocol 
1222:/home/user/Desktop/STM32-Projekte/FH-Vertibot/src/STM32F30x_StdPeriph_Driver/src/stm32f30x_usart.c ****          Smartcards as defined in the ISO 7816-3 standard. The USART can provide 
1223:/home/user/Desktop/STM32-Projekte/FH-Vertibot/src/STM32F30x_StdPeriph_Driver/src/stm32f30x_usart.c ****          a clock to the smartcard through the SCLK output. In smartcard mode, 
1224:/home/user/Desktop/STM32-Projekte/FH-Vertibot/src/STM32F30x_StdPeriph_Driver/src/stm32f30x_usart.c ****          SCLK is not associated to the communication but is simply derived from 
1225:/home/user/Desktop/STM32-Projekte/FH-Vertibot/src/STM32F30x_StdPeriph_Driver/src/stm32f30x_usart.c ****          the internal peripheral input clock through a 5-bit prescaler.
1226:/home/user/Desktop/STM32-Projekte/FH-Vertibot/src/STM32F30x_StdPeriph_Driver/src/stm32f30x_usart.c ****     [..] Smartcard communication is possible through the following procedure:
1227:/home/user/Desktop/STM32-Projekte/FH-Vertibot/src/STM32F30x_StdPeriph_Driver/src/stm32f30x_usart.c ****          (#) Configures the Smartcard Prsecaler using the USART_SetPrescaler() 
1228:/home/user/Desktop/STM32-Projekte/FH-Vertibot/src/STM32F30x_StdPeriph_Driver/src/stm32f30x_usart.c ****              function.
1229:/home/user/Desktop/STM32-Projekte/FH-Vertibot/src/STM32F30x_StdPeriph_Driver/src/stm32f30x_usart.c ****          (#) Configures the Smartcard Guard Time using the USART_SetGuardTime() 
1230:/home/user/Desktop/STM32-Projekte/FH-Vertibot/src/STM32F30x_StdPeriph_Driver/src/stm32f30x_usart.c ****              function.
1231:/home/user/Desktop/STM32-Projekte/FH-Vertibot/src/STM32F30x_StdPeriph_Driver/src/stm32f30x_usart.c ****          (#) Program the USART clock using the USART_ClockInit() function as following:
1232:/home/user/Desktop/STM32-Projekte/FH-Vertibot/src/STM32F30x_StdPeriph_Driver/src/stm32f30x_usart.c ****              (++) USART Clock enabled.
1233:/home/user/Desktop/STM32-Projekte/FH-Vertibot/src/STM32F30x_StdPeriph_Driver/src/stm32f30x_usart.c ****              (++) USART CPOL Low.
1234:/home/user/Desktop/STM32-Projekte/FH-Vertibot/src/STM32F30x_StdPeriph_Driver/src/stm32f30x_usart.c ****              (++) USART CPHA on first edge.
1235:/home/user/Desktop/STM32-Projekte/FH-Vertibot/src/STM32F30x_StdPeriph_Driver/src/stm32f30x_usart.c ****              (++) USART Last Bit Clock Enabled.
1236:/home/user/Desktop/STM32-Projekte/FH-Vertibot/src/STM32F30x_StdPeriph_Driver/src/stm32f30x_usart.c ****          (#) Program the Smartcard interface using the USART_Init() function as 
1237:/home/user/Desktop/STM32-Projekte/FH-Vertibot/src/STM32F30x_StdPeriph_Driver/src/stm32f30x_usart.c ****              following:
1238:/home/user/Desktop/STM32-Projekte/FH-Vertibot/src/STM32F30x_StdPeriph_Driver/src/stm32f30x_usart.c ****              (++) Word Length = 9 Bits.
1239:/home/user/Desktop/STM32-Projekte/FH-Vertibot/src/STM32F30x_StdPeriph_Driver/src/stm32f30x_usart.c ****              (++) 1.5 Stop Bit.
1240:/home/user/Desktop/STM32-Projekte/FH-Vertibot/src/STM32F30x_StdPeriph_Driver/src/stm32f30x_usart.c ****              (++) Even parity.
1241:/home/user/Desktop/STM32-Projekte/FH-Vertibot/src/STM32F30x_StdPeriph_Driver/src/stm32f30x_usart.c ****              (++) BaudRate = 12096 baud.
1242:/home/user/Desktop/STM32-Projekte/FH-Vertibot/src/STM32F30x_StdPeriph_Driver/src/stm32f30x_usart.c ****              (++) Hardware flow control disabled (RTS and CTS signals).
1243:/home/user/Desktop/STM32-Projekte/FH-Vertibot/src/STM32F30x_StdPeriph_Driver/src/stm32f30x_usart.c ****              (++) Tx and Rx enabled
1244:/home/user/Desktop/STM32-Projekte/FH-Vertibot/src/STM32F30x_StdPeriph_Driver/src/stm32f30x_usart.c ****          (#) Optionally you can enable the parity error interrupt using 
1245:/home/user/Desktop/STM32-Projekte/FH-Vertibot/src/STM32F30x_StdPeriph_Driver/src/stm32f30x_usart.c ****              the USART_ITConfig() function.
1246:/home/user/Desktop/STM32-Projekte/FH-Vertibot/src/STM32F30x_StdPeriph_Driver/src/stm32f30x_usart.c ****          (#) Enable the Smartcard NACK using the USART_SmartCardNACKCmd() function.
1247:/home/user/Desktop/STM32-Projekte/FH-Vertibot/src/STM32F30x_StdPeriph_Driver/src/stm32f30x_usart.c ****          (#) Enable the Smartcard interface using the USART_SmartCardCmd() function.
1248:/home/user/Desktop/STM32-Projekte/FH-Vertibot/src/STM32F30x_StdPeriph_Driver/src/stm32f30x_usart.c ****          (#) Enable the USART using the USART_Cmd() function.
1249:/home/user/Desktop/STM32-Projekte/FH-Vertibot/src/STM32F30x_StdPeriph_Driver/src/stm32f30x_usart.c ****     [..] 
1250:/home/user/Desktop/STM32-Projekte/FH-Vertibot/src/STM32F30x_StdPeriph_Driver/src/stm32f30x_usart.c ****   Please refer to the ISO 7816-3 specification for more details.
1251:/home/user/Desktop/STM32-Projekte/FH-Vertibot/src/STM32F30x_StdPeriph_Driver/src/stm32f30x_usart.c ****     [..] 
1252:/home/user/Desktop/STM32-Projekte/FH-Vertibot/src/STM32F30x_StdPeriph_Driver/src/stm32f30x_usart.c ****          (@) It is also possible to choose 0.5 stop bit for receiving but it is 
1253:/home/user/Desktop/STM32-Projekte/FH-Vertibot/src/STM32F30x_StdPeriph_Driver/src/stm32f30x_usart.c ****              recommended to use 1.5 stop bits for both transmitting and receiving 
1254:/home/user/Desktop/STM32-Projekte/FH-Vertibot/src/STM32F30x_StdPeriph_Driver/src/stm32f30x_usart.c ****              to avoid switching between the two configurations.
1255:/home/user/Desktop/STM32-Projekte/FH-Vertibot/src/STM32F30x_StdPeriph_Driver/src/stm32f30x_usart.c ****          (@) In smartcard mode, the following bits must be kept cleared:
1256:/home/user/Desktop/STM32-Projekte/FH-Vertibot/src/STM32F30x_StdPeriph_Driver/src/stm32f30x_usart.c ****              (+@) LINEN bit in the USART_CR2 register.
1257:/home/user/Desktop/STM32-Projekte/FH-Vertibot/src/STM32F30x_StdPeriph_Driver/src/stm32f30x_usart.c ****              (+@) HDSEL and IREN bits in the USART_CR3 register.
1258:/home/user/Desktop/STM32-Projekte/FH-Vertibot/src/STM32F30x_StdPeriph_Driver/src/stm32f30x_usart.c **** 
1259:/home/user/Desktop/STM32-Projekte/FH-Vertibot/src/STM32F30x_StdPeriph_Driver/src/stm32f30x_usart.c **** @endverbatim
1260:/home/user/Desktop/STM32-Projekte/FH-Vertibot/src/STM32F30x_StdPeriph_Driver/src/stm32f30x_usart.c ****   * @{
1261:/home/user/Desktop/STM32-Projekte/FH-Vertibot/src/STM32F30x_StdPeriph_Driver/src/stm32f30x_usart.c ****   */
1262:/home/user/Desktop/STM32-Projekte/FH-Vertibot/src/STM32F30x_StdPeriph_Driver/src/stm32f30x_usart.c **** 
1263:/home/user/Desktop/STM32-Projekte/FH-Vertibot/src/STM32F30x_StdPeriph_Driver/src/stm32f30x_usart.c **** /**
1264:/home/user/Desktop/STM32-Projekte/FH-Vertibot/src/STM32F30x_StdPeriph_Driver/src/stm32f30x_usart.c ****   * @brief  Sets the specified USART guard time.
1265:/home/user/Desktop/STM32-Projekte/FH-Vertibot/src/STM32F30x_StdPeriph_Driver/src/stm32f30x_usart.c ****   * @param  USARTx: Select the USART peripheral. This parameter can be one of the 
1266:/home/user/Desktop/STM32-Projekte/FH-Vertibot/src/STM32F30x_StdPeriph_Driver/src/stm32f30x_usart.c ****   *         following values: USART1 or USART2 or USART3.
1267:/home/user/Desktop/STM32-Projekte/FH-Vertibot/src/STM32F30x_StdPeriph_Driver/src/stm32f30x_usart.c ****   * @param  USART_GuardTime: specifies the guard time.
1268:/home/user/Desktop/STM32-Projekte/FH-Vertibot/src/STM32F30x_StdPeriph_Driver/src/stm32f30x_usart.c ****   * @retval None
1269:/home/user/Desktop/STM32-Projekte/FH-Vertibot/src/STM32F30x_StdPeriph_Driver/src/stm32f30x_usart.c ****   */
1270:/home/user/Desktop/STM32-Projekte/FH-Vertibot/src/STM32F30x_StdPeriph_Driver/src/stm32f30x_usart.c **** void USART_SetGuardTime(USART_TypeDef* USARTx, uint8_t USART_GuardTime)
1271:/home/user/Desktop/STM32-Projekte/FH-Vertibot/src/STM32F30x_StdPeriph_Driver/src/stm32f30x_usart.c **** {    
 1089              		.loc 1 1271 0
 1090              		.cfi_startproc
 1091              		@ args = 0, pretend = 0, frame = 0
 1092              		@ frame_needed = 0, uses_anonymous_args = 0
 1093              		@ link register save eliminated.
 1094              	.LVL94:
1272:/home/user/Desktop/STM32-Projekte/FH-Vertibot/src/STM32F30x_StdPeriph_Driver/src/stm32f30x_usart.c ****   /* Check the parameters */
1273:/home/user/Desktop/STM32-Projekte/FH-Vertibot/src/STM32F30x_StdPeriph_Driver/src/stm32f30x_usart.c ****   assert_param(IS_USART_123_PERIPH(USARTx));
1274:/home/user/Desktop/STM32-Projekte/FH-Vertibot/src/STM32F30x_StdPeriph_Driver/src/stm32f30x_usart.c **** 
1275:/home/user/Desktop/STM32-Projekte/FH-Vertibot/src/STM32F30x_StdPeriph_Driver/src/stm32f30x_usart.c ****   /* Clear the USART Guard time */
1276:/home/user/Desktop/STM32-Projekte/FH-Vertibot/src/STM32F30x_StdPeriph_Driver/src/stm32f30x_usart.c ****   USARTx->GTPR &= USART_GTPR_PSC;
 1095              		.loc 1 1276 0
 1096 031a 038A     		ldrh	r3, [r0, #16]
 1097 031c DBB2     		uxtb	r3, r3
 1098 031e 0382     		strh	r3, [r0, #16]	@ movhi
1277:/home/user/Desktop/STM32-Projekte/FH-Vertibot/src/STM32F30x_StdPeriph_Driver/src/stm32f30x_usart.c ****   /* Set the USART guard time */
1278:/home/user/Desktop/STM32-Projekte/FH-Vertibot/src/STM32F30x_StdPeriph_Driver/src/stm32f30x_usart.c ****   USARTx->GTPR |= (uint16_t)((uint16_t)USART_GuardTime << 0x08);
 1099              		.loc 1 1278 0
 1100 0320 038A     		ldrh	r3, [r0, #16]
 1101 0322 9BB2     		uxth	r3, r3
 1102 0324 43EA0121 		orr	r1, r3, r1, lsl #8
 1103              	.LVL95:
 1104 0328 0182     		strh	r1, [r0, #16]	@ movhi
 1105 032a 7047     		bx	lr
 1106              		.cfi_endproc
 1107              	.LFE140:
 1109              		.align	1
 1110              		.global	USART_SmartCardCmd
 1111              		.thumb
 1112              		.thumb_func
 1114              	USART_SmartCardCmd:
 1115              	.LFB141:
1279:/home/user/Desktop/STM32-Projekte/FH-Vertibot/src/STM32F30x_StdPeriph_Driver/src/stm32f30x_usart.c **** }
1280:/home/user/Desktop/STM32-Projekte/FH-Vertibot/src/STM32F30x_StdPeriph_Driver/src/stm32f30x_usart.c **** 
1281:/home/user/Desktop/STM32-Projekte/FH-Vertibot/src/STM32F30x_StdPeriph_Driver/src/stm32f30x_usart.c **** /**
1282:/home/user/Desktop/STM32-Projekte/FH-Vertibot/src/STM32F30x_StdPeriph_Driver/src/stm32f30x_usart.c ****   * @brief  Enables or disables the USART's Smart Card mode.
1283:/home/user/Desktop/STM32-Projekte/FH-Vertibot/src/STM32F30x_StdPeriph_Driver/src/stm32f30x_usart.c ****   * @param  USARTx: Select the USART peripheral. This parameter can be one of the 
1284:/home/user/Desktop/STM32-Projekte/FH-Vertibot/src/STM32F30x_StdPeriph_Driver/src/stm32f30x_usart.c ****   *         following values: USART1 or USART2 or USART3.
1285:/home/user/Desktop/STM32-Projekte/FH-Vertibot/src/STM32F30x_StdPeriph_Driver/src/stm32f30x_usart.c ****   * @param  NewState: new state of the Smart Card mode.
1286:/home/user/Desktop/STM32-Projekte/FH-Vertibot/src/STM32F30x_StdPeriph_Driver/src/stm32f30x_usart.c ****   *         This parameter can be: ENABLE or DISABLE.      
1287:/home/user/Desktop/STM32-Projekte/FH-Vertibot/src/STM32F30x_StdPeriph_Driver/src/stm32f30x_usart.c ****   * @retval None
1288:/home/user/Desktop/STM32-Projekte/FH-Vertibot/src/STM32F30x_StdPeriph_Driver/src/stm32f30x_usart.c ****   */
1289:/home/user/Desktop/STM32-Projekte/FH-Vertibot/src/STM32F30x_StdPeriph_Driver/src/stm32f30x_usart.c **** void USART_SmartCardCmd(USART_TypeDef* USARTx, FunctionalState NewState)
1290:/home/user/Desktop/STM32-Projekte/FH-Vertibot/src/STM32F30x_StdPeriph_Driver/src/stm32f30x_usart.c **** {
 1116              		.loc 1 1290 0
 1117              		.cfi_startproc
 1118              		@ args = 0, pretend = 0, frame = 0
 1119              		@ frame_needed = 0, uses_anonymous_args = 0
 1120              		@ link register save eliminated.
 1121              	.LVL96:
1291:/home/user/Desktop/STM32-Projekte/FH-Vertibot/src/STM32F30x_StdPeriph_Driver/src/stm32f30x_usart.c ****   /* Check the parameters */
1292:/home/user/Desktop/STM32-Projekte/FH-Vertibot/src/STM32F30x_StdPeriph_Driver/src/stm32f30x_usart.c ****   assert_param(IS_USART_123_PERIPH(USARTx));
1293:/home/user/Desktop/STM32-Projekte/FH-Vertibot/src/STM32F30x_StdPeriph_Driver/src/stm32f30x_usart.c ****   assert_param(IS_FUNCTIONAL_STATE(NewState));
1294:/home/user/Desktop/STM32-Projekte/FH-Vertibot/src/STM32F30x_StdPeriph_Driver/src/stm32f30x_usart.c ****   if (NewState != DISABLE)
1295:/home/user/Desktop/STM32-Projekte/FH-Vertibot/src/STM32F30x_StdPeriph_Driver/src/stm32f30x_usart.c ****   {
1296:/home/user/Desktop/STM32-Projekte/FH-Vertibot/src/STM32F30x_StdPeriph_Driver/src/stm32f30x_usart.c ****     /* Enable the SC mode by setting the SCEN bit in the CR3 register */
1297:/home/user/Desktop/STM32-Projekte/FH-Vertibot/src/STM32F30x_StdPeriph_Driver/src/stm32f30x_usart.c ****     USARTx->CR3 |= USART_CR3_SCEN;
 1122              		.loc 1 1297 0
 1123 032c 8368     		ldr	r3, [r0, #8]
1294:/home/user/Desktop/STM32-Projekte/FH-Vertibot/src/STM32F30x_StdPeriph_Driver/src/stm32f30x_usart.c ****   if (NewState != DISABLE)
 1124              		.loc 1 1294 0
 1125 032e 11B1     		cbz	r1, .L97
 1126              		.loc 1 1297 0
 1127 0330 43F02003 		orr	r3, r3, #32
 1128 0334 01E0     		b	.L99
 1129              	.L97:
1298:/home/user/Desktop/STM32-Projekte/FH-Vertibot/src/STM32F30x_StdPeriph_Driver/src/stm32f30x_usart.c ****   }
1299:/home/user/Desktop/STM32-Projekte/FH-Vertibot/src/STM32F30x_StdPeriph_Driver/src/stm32f30x_usart.c ****   else
1300:/home/user/Desktop/STM32-Projekte/FH-Vertibot/src/STM32F30x_StdPeriph_Driver/src/stm32f30x_usart.c ****   {
1301:/home/user/Desktop/STM32-Projekte/FH-Vertibot/src/STM32F30x_StdPeriph_Driver/src/stm32f30x_usart.c ****     /* Disable the SC mode by clearing the SCEN bit in the CR3 register */
1302:/home/user/Desktop/STM32-Projekte/FH-Vertibot/src/STM32F30x_StdPeriph_Driver/src/stm32f30x_usart.c ****     USARTx->CR3 &= (uint32_t)~((uint32_t)USART_CR3_SCEN);
 1130              		.loc 1 1302 0
 1131 0336 23F02003 		bic	r3, r3, #32
 1132              	.L99:
 1133 033a 8360     		str	r3, [r0, #8]
 1134 033c 7047     		bx	lr
 1135              		.cfi_endproc
 1136              	.LFE141:
 1138              		.align	1
 1139              		.global	USART_SmartCardNACKCmd
 1140              		.thumb
 1141              		.thumb_func
 1143              	USART_SmartCardNACKCmd:
 1144              	.LFB142:
1303:/home/user/Desktop/STM32-Projekte/FH-Vertibot/src/STM32F30x_StdPeriph_Driver/src/stm32f30x_usart.c ****   }
1304:/home/user/Desktop/STM32-Projekte/FH-Vertibot/src/STM32F30x_StdPeriph_Driver/src/stm32f30x_usart.c **** }
1305:/home/user/Desktop/STM32-Projekte/FH-Vertibot/src/STM32F30x_StdPeriph_Driver/src/stm32f30x_usart.c **** 
1306:/home/user/Desktop/STM32-Projekte/FH-Vertibot/src/STM32F30x_StdPeriph_Driver/src/stm32f30x_usart.c **** /**
1307:/home/user/Desktop/STM32-Projekte/FH-Vertibot/src/STM32F30x_StdPeriph_Driver/src/stm32f30x_usart.c ****   * @brief  Enables or disables NACK transmission.
1308:/home/user/Desktop/STM32-Projekte/FH-Vertibot/src/STM32F30x_StdPeriph_Driver/src/stm32f30x_usart.c ****   * @param  USARTx: Select the USART peripheral. This parameter can be one of the 
1309:/home/user/Desktop/STM32-Projekte/FH-Vertibot/src/STM32F30x_StdPeriph_Driver/src/stm32f30x_usart.c ****   *         following values: USART1 or USART2 or USART3.
1310:/home/user/Desktop/STM32-Projekte/FH-Vertibot/src/STM32F30x_StdPeriph_Driver/src/stm32f30x_usart.c ****   * @param  NewState: new state of the NACK transmission.
1311:/home/user/Desktop/STM32-Projekte/FH-Vertibot/src/STM32F30x_StdPeriph_Driver/src/stm32f30x_usart.c ****   *         This parameter can be: ENABLE or DISABLE.  
1312:/home/user/Desktop/STM32-Projekte/FH-Vertibot/src/STM32F30x_StdPeriph_Driver/src/stm32f30x_usart.c ****   * @retval None
1313:/home/user/Desktop/STM32-Projekte/FH-Vertibot/src/STM32F30x_StdPeriph_Driver/src/stm32f30x_usart.c ****   */
1314:/home/user/Desktop/STM32-Projekte/FH-Vertibot/src/STM32F30x_StdPeriph_Driver/src/stm32f30x_usart.c **** void USART_SmartCardNACKCmd(USART_TypeDef* USARTx, FunctionalState NewState)
1315:/home/user/Desktop/STM32-Projekte/FH-Vertibot/src/STM32F30x_StdPeriph_Driver/src/stm32f30x_usart.c **** {
 1145              		.loc 1 1315 0
 1146              		.cfi_startproc
 1147              		@ args = 0, pretend = 0, frame = 0
 1148              		@ frame_needed = 0, uses_anonymous_args = 0
 1149              		@ link register save eliminated.
 1150              	.LVL97:
1316:/home/user/Desktop/STM32-Projekte/FH-Vertibot/src/STM32F30x_StdPeriph_Driver/src/stm32f30x_usart.c ****   /* Check the parameters */
1317:/home/user/Desktop/STM32-Projekte/FH-Vertibot/src/STM32F30x_StdPeriph_Driver/src/stm32f30x_usart.c ****   assert_param(IS_USART_123_PERIPH(USARTx)); 
1318:/home/user/Desktop/STM32-Projekte/FH-Vertibot/src/STM32F30x_StdPeriph_Driver/src/stm32f30x_usart.c ****   assert_param(IS_FUNCTIONAL_STATE(NewState));
1319:/home/user/Desktop/STM32-Projekte/FH-Vertibot/src/STM32F30x_StdPeriph_Driver/src/stm32f30x_usart.c ****   if (NewState != DISABLE)
1320:/home/user/Desktop/STM32-Projekte/FH-Vertibot/src/STM32F30x_StdPeriph_Driver/src/stm32f30x_usart.c ****   {
1321:/home/user/Desktop/STM32-Projekte/FH-Vertibot/src/STM32F30x_StdPeriph_Driver/src/stm32f30x_usart.c ****     /* Enable the NACK transmission by setting the NACK bit in the CR3 register */
1322:/home/user/Desktop/STM32-Projekte/FH-Vertibot/src/STM32F30x_StdPeriph_Driver/src/stm32f30x_usart.c ****     USARTx->CR3 |= USART_CR3_NACK;
 1151              		.loc 1 1322 0
 1152 033e 8368     		ldr	r3, [r0, #8]
1319:/home/user/Desktop/STM32-Projekte/FH-Vertibot/src/STM32F30x_StdPeriph_Driver/src/stm32f30x_usart.c ****   if (NewState != DISABLE)
 1153              		.loc 1 1319 0
 1154 0340 11B1     		cbz	r1, .L101
 1155              		.loc 1 1322 0
 1156 0342 43F01003 		orr	r3, r3, #16
 1157 0346 01E0     		b	.L103
 1158              	.L101:
1323:/home/user/Desktop/STM32-Projekte/FH-Vertibot/src/STM32F30x_StdPeriph_Driver/src/stm32f30x_usart.c ****   }
1324:/home/user/Desktop/STM32-Projekte/FH-Vertibot/src/STM32F30x_StdPeriph_Driver/src/stm32f30x_usart.c ****   else
1325:/home/user/Desktop/STM32-Projekte/FH-Vertibot/src/STM32F30x_StdPeriph_Driver/src/stm32f30x_usart.c ****   {
1326:/home/user/Desktop/STM32-Projekte/FH-Vertibot/src/STM32F30x_StdPeriph_Driver/src/stm32f30x_usart.c ****     /* Disable the NACK transmission by clearing the NACK bit in the CR3 register */
1327:/home/user/Desktop/STM32-Projekte/FH-Vertibot/src/STM32F30x_StdPeriph_Driver/src/stm32f30x_usart.c ****     USARTx->CR3 &= (uint32_t)~((uint32_t)USART_CR3_NACK);
 1159              		.loc 1 1327 0
 1160 0348 23F01003 		bic	r3, r3, #16
 1161              	.L103:
 1162 034c 8360     		str	r3, [r0, #8]
 1163 034e 7047     		bx	lr
 1164              		.cfi_endproc
 1165              	.LFE142:
 1167              		.align	1
 1168              		.global	USART_SetAutoRetryCount
 1169              		.thumb
 1170              		.thumb_func
 1172              	USART_SetAutoRetryCount:
 1173              	.LFB143:
1328:/home/user/Desktop/STM32-Projekte/FH-Vertibot/src/STM32F30x_StdPeriph_Driver/src/stm32f30x_usart.c ****   }
1329:/home/user/Desktop/STM32-Projekte/FH-Vertibot/src/STM32F30x_StdPeriph_Driver/src/stm32f30x_usart.c **** }
1330:/home/user/Desktop/STM32-Projekte/FH-Vertibot/src/STM32F30x_StdPeriph_Driver/src/stm32f30x_usart.c **** 
1331:/home/user/Desktop/STM32-Projekte/FH-Vertibot/src/STM32F30x_StdPeriph_Driver/src/stm32f30x_usart.c **** /**
1332:/home/user/Desktop/STM32-Projekte/FH-Vertibot/src/STM32F30x_StdPeriph_Driver/src/stm32f30x_usart.c ****   * @brief  Sets the Smart Card number of retries in transmit and receive.
1333:/home/user/Desktop/STM32-Projekte/FH-Vertibot/src/STM32F30x_StdPeriph_Driver/src/stm32f30x_usart.c ****   * @param  USARTx: Select the USART peripheral. This parameter can be one of the 
1334:/home/user/Desktop/STM32-Projekte/FH-Vertibot/src/STM32F30x_StdPeriph_Driver/src/stm32f30x_usart.c ****   *         following values: USART1 or USART2 or USART3.
1335:/home/user/Desktop/STM32-Projekte/FH-Vertibot/src/STM32F30x_StdPeriph_Driver/src/stm32f30x_usart.c ****   * @param  USART_AutoCount: specifies the Smart Card auto retry count.
1336:/home/user/Desktop/STM32-Projekte/FH-Vertibot/src/STM32F30x_StdPeriph_Driver/src/stm32f30x_usart.c ****   * @retval None
1337:/home/user/Desktop/STM32-Projekte/FH-Vertibot/src/STM32F30x_StdPeriph_Driver/src/stm32f30x_usart.c ****   */
1338:/home/user/Desktop/STM32-Projekte/FH-Vertibot/src/STM32F30x_StdPeriph_Driver/src/stm32f30x_usart.c **** void USART_SetAutoRetryCount(USART_TypeDef* USARTx, uint8_t USART_AutoCount)
1339:/home/user/Desktop/STM32-Projekte/FH-Vertibot/src/STM32F30x_StdPeriph_Driver/src/stm32f30x_usart.c **** {    
 1174              		.loc 1 1339 0
 1175              		.cfi_startproc
 1176              		@ args = 0, pretend = 0, frame = 0
 1177              		@ frame_needed = 0, uses_anonymous_args = 0
 1178              		@ link register save eliminated.
 1179              	.LVL98:
1340:/home/user/Desktop/STM32-Projekte/FH-Vertibot/src/STM32F30x_StdPeriph_Driver/src/stm32f30x_usart.c ****   /* Check the parameters */
1341:/home/user/Desktop/STM32-Projekte/FH-Vertibot/src/STM32F30x_StdPeriph_Driver/src/stm32f30x_usart.c ****   assert_param(IS_USART_123_PERIPH(USARTx));
1342:/home/user/Desktop/STM32-Projekte/FH-Vertibot/src/STM32F30x_StdPeriph_Driver/src/stm32f30x_usart.c ****   assert_param(IS_USART_AUTO_RETRY_COUNTER(USART_AutoCount));
1343:/home/user/Desktop/STM32-Projekte/FH-Vertibot/src/STM32F30x_StdPeriph_Driver/src/stm32f30x_usart.c ****   /* Clear the USART auto retry count */
1344:/home/user/Desktop/STM32-Projekte/FH-Vertibot/src/STM32F30x_StdPeriph_Driver/src/stm32f30x_usart.c ****   USARTx->CR3 &= (uint32_t)~((uint32_t)USART_CR3_SCARCNT);
 1180              		.loc 1 1344 0
 1181 0350 8368     		ldr	r3, [r0, #8]
 1182 0352 23F46023 		bic	r3, r3, #917504
 1183 0356 8360     		str	r3, [r0, #8]
1345:/home/user/Desktop/STM32-Projekte/FH-Vertibot/src/STM32F30x_StdPeriph_Driver/src/stm32f30x_usart.c ****   /* Set the USART auto retry count*/
1346:/home/user/Desktop/STM32-Projekte/FH-Vertibot/src/STM32F30x_StdPeriph_Driver/src/stm32f30x_usart.c ****   USARTx->CR3 |= (uint32_t)((uint32_t)USART_AutoCount << 0x11);
 1184              		.loc 1 1346 0
 1185 0358 8368     		ldr	r3, [r0, #8]
 1186 035a 43EA4141 		orr	r1, r3, r1, lsl #17
 1187              	.LVL99:
 1188 035e 8160     		str	r1, [r0, #8]
 1189 0360 7047     		bx	lr
 1190              		.cfi_endproc
 1191              	.LFE143:
 1193              		.align	1
 1194              		.global	USART_SetBlockLength
 1195              		.thumb
 1196              		.thumb_func
 1198              	USART_SetBlockLength:
 1199              	.LFB144:
1347:/home/user/Desktop/STM32-Projekte/FH-Vertibot/src/STM32F30x_StdPeriph_Driver/src/stm32f30x_usart.c **** }
1348:/home/user/Desktop/STM32-Projekte/FH-Vertibot/src/STM32F30x_StdPeriph_Driver/src/stm32f30x_usart.c **** 
1349:/home/user/Desktop/STM32-Projekte/FH-Vertibot/src/STM32F30x_StdPeriph_Driver/src/stm32f30x_usart.c **** /**
1350:/home/user/Desktop/STM32-Projekte/FH-Vertibot/src/STM32F30x_StdPeriph_Driver/src/stm32f30x_usart.c ****   * @brief  Sets the Smart Card Block length.
1351:/home/user/Desktop/STM32-Projekte/FH-Vertibot/src/STM32F30x_StdPeriph_Driver/src/stm32f30x_usart.c ****   * @param  USARTx: Select the USART peripheral. This parameter can be one of the 
1352:/home/user/Desktop/STM32-Projekte/FH-Vertibot/src/STM32F30x_StdPeriph_Driver/src/stm32f30x_usart.c ****   *         following values: USART1 or USART2 or USART3.
1353:/home/user/Desktop/STM32-Projekte/FH-Vertibot/src/STM32F30x_StdPeriph_Driver/src/stm32f30x_usart.c ****   * @param  USART_BlockLength: specifies the Smart Card block length.
1354:/home/user/Desktop/STM32-Projekte/FH-Vertibot/src/STM32F30x_StdPeriph_Driver/src/stm32f30x_usart.c ****   * @retval None
1355:/home/user/Desktop/STM32-Projekte/FH-Vertibot/src/STM32F30x_StdPeriph_Driver/src/stm32f30x_usart.c ****   */
1356:/home/user/Desktop/STM32-Projekte/FH-Vertibot/src/STM32F30x_StdPeriph_Driver/src/stm32f30x_usart.c **** void USART_SetBlockLength(USART_TypeDef* USARTx, uint8_t USART_BlockLength)
1357:/home/user/Desktop/STM32-Projekte/FH-Vertibot/src/STM32F30x_StdPeriph_Driver/src/stm32f30x_usart.c **** {    
 1200              		.loc 1 1357 0
 1201              		.cfi_startproc
 1202              		@ args = 0, pretend = 0, frame = 0
 1203              		@ frame_needed = 0, uses_anonymous_args = 0
 1204              		@ link register save eliminated.
 1205              	.LVL100:
1358:/home/user/Desktop/STM32-Projekte/FH-Vertibot/src/STM32F30x_StdPeriph_Driver/src/stm32f30x_usart.c ****   /* Check the parameters */
1359:/home/user/Desktop/STM32-Projekte/FH-Vertibot/src/STM32F30x_StdPeriph_Driver/src/stm32f30x_usart.c ****   assert_param(IS_USART_123_PERIPH(USARTx));
1360:/home/user/Desktop/STM32-Projekte/FH-Vertibot/src/STM32F30x_StdPeriph_Driver/src/stm32f30x_usart.c **** 
1361:/home/user/Desktop/STM32-Projekte/FH-Vertibot/src/STM32F30x_StdPeriph_Driver/src/stm32f30x_usart.c ****   /* Clear the Smart card block length */
1362:/home/user/Desktop/STM32-Projekte/FH-Vertibot/src/STM32F30x_StdPeriph_Driver/src/stm32f30x_usart.c ****   USARTx->RTOR &= (uint32_t)~((uint32_t)USART_RTOR_BLEN);
 1206              		.loc 1 1362 0
 1207 0362 4369     		ldr	r3, [r0, #20]
 1208 0364 23F07F43 		bic	r3, r3, #-16777216
 1209 0368 4361     		str	r3, [r0, #20]
1363:/home/user/Desktop/STM32-Projekte/FH-Vertibot/src/STM32F30x_StdPeriph_Driver/src/stm32f30x_usart.c ****   /* Set the Smart Card block length */
1364:/home/user/Desktop/STM32-Projekte/FH-Vertibot/src/STM32F30x_StdPeriph_Driver/src/stm32f30x_usart.c ****   USARTx->RTOR |= (uint32_t)((uint32_t)USART_BlockLength << 0x18);
 1210              		.loc 1 1364 0
 1211 036a 4369     		ldr	r3, [r0, #20]
 1212 036c 43EA0161 		orr	r1, r3, r1, lsl #24
 1213              	.LVL101:
 1214 0370 4161     		str	r1, [r0, #20]
 1215 0372 7047     		bx	lr
 1216              		.cfi_endproc
 1217              	.LFE144:
 1219              		.align	1
 1220              		.global	USART_IrDAConfig
 1221              		.thumb
 1222              		.thumb_func
 1224              	USART_IrDAConfig:
 1225              	.LFB145:
1365:/home/user/Desktop/STM32-Projekte/FH-Vertibot/src/STM32F30x_StdPeriph_Driver/src/stm32f30x_usart.c **** }
1366:/home/user/Desktop/STM32-Projekte/FH-Vertibot/src/STM32F30x_StdPeriph_Driver/src/stm32f30x_usart.c **** 
1367:/home/user/Desktop/STM32-Projekte/FH-Vertibot/src/STM32F30x_StdPeriph_Driver/src/stm32f30x_usart.c **** /**
1368:/home/user/Desktop/STM32-Projekte/FH-Vertibot/src/STM32F30x_StdPeriph_Driver/src/stm32f30x_usart.c ****   * @}
1369:/home/user/Desktop/STM32-Projekte/FH-Vertibot/src/STM32F30x_StdPeriph_Driver/src/stm32f30x_usart.c ****   */
1370:/home/user/Desktop/STM32-Projekte/FH-Vertibot/src/STM32F30x_StdPeriph_Driver/src/stm32f30x_usart.c **** 
1371:/home/user/Desktop/STM32-Projekte/FH-Vertibot/src/STM32F30x_StdPeriph_Driver/src/stm32f30x_usart.c **** /** @defgroup USART_Group9 IrDA mode functions
1372:/home/user/Desktop/STM32-Projekte/FH-Vertibot/src/STM32F30x_StdPeriph_Driver/src/stm32f30x_usart.c ****  *  @brief   IrDA mode functions 
1373:/home/user/Desktop/STM32-Projekte/FH-Vertibot/src/STM32F30x_StdPeriph_Driver/src/stm32f30x_usart.c ****  *
1374:/home/user/Desktop/STM32-Projekte/FH-Vertibot/src/STM32F30x_StdPeriph_Driver/src/stm32f30x_usart.c **** @verbatim   
1375:/home/user/Desktop/STM32-Projekte/FH-Vertibot/src/STM32F30x_StdPeriph_Driver/src/stm32f30x_usart.c ****  ===============================================================================
1376:/home/user/Desktop/STM32-Projekte/FH-Vertibot/src/STM32F30x_StdPeriph_Driver/src/stm32f30x_usart.c ****                         ##### IrDA mode functions #####
1377:/home/user/Desktop/STM32-Projekte/FH-Vertibot/src/STM32F30x_StdPeriph_Driver/src/stm32f30x_usart.c ****  ===============================================================================
1378:/home/user/Desktop/STM32-Projekte/FH-Vertibot/src/STM32F30x_StdPeriph_Driver/src/stm32f30x_usart.c ****     [..] This subsection provides a set of functions allowing to manage the USART
1379:/home/user/Desktop/STM32-Projekte/FH-Vertibot/src/STM32F30x_StdPeriph_Driver/src/stm32f30x_usart.c ****          IrDA communication.
1380:/home/user/Desktop/STM32-Projekte/FH-Vertibot/src/STM32F30x_StdPeriph_Driver/src/stm32f30x_usart.c ****     [..] IrDA is a half duplex communication protocol. If the Transmitter is busy, 
1381:/home/user/Desktop/STM32-Projekte/FH-Vertibot/src/STM32F30x_StdPeriph_Driver/src/stm32f30x_usart.c ****          any data on the IrDA receive line will be ignored by the IrDA decoder 
1382:/home/user/Desktop/STM32-Projekte/FH-Vertibot/src/STM32F30x_StdPeriph_Driver/src/stm32f30x_usart.c ****          and if the Receiver is busy, data on the TX from the USART to IrDA will 
1383:/home/user/Desktop/STM32-Projekte/FH-Vertibot/src/STM32F30x_StdPeriph_Driver/src/stm32f30x_usart.c ****          not be encoded by IrDA. While receiving data, transmission should be 
1384:/home/user/Desktop/STM32-Projekte/FH-Vertibot/src/STM32F30x_StdPeriph_Driver/src/stm32f30x_usart.c ****          avoided as the data to be transmitted could be corrupted.
1385:/home/user/Desktop/STM32-Projekte/FH-Vertibot/src/STM32F30x_StdPeriph_Driver/src/stm32f30x_usart.c ****     [..] IrDA communication is possible through the following procedure:
1386:/home/user/Desktop/STM32-Projekte/FH-Vertibot/src/STM32F30x_StdPeriph_Driver/src/stm32f30x_usart.c ****          (#) Program the Baud rate, Word length = 8 bits, Stop bits, Parity, 
1387:/home/user/Desktop/STM32-Projekte/FH-Vertibot/src/STM32F30x_StdPeriph_Driver/src/stm32f30x_usart.c ****              Transmitter/Receiver modes and hardware flow control values using 
1388:/home/user/Desktop/STM32-Projekte/FH-Vertibot/src/STM32F30x_StdPeriph_Driver/src/stm32f30x_usart.c ****              the USART_Init() function.
1389:/home/user/Desktop/STM32-Projekte/FH-Vertibot/src/STM32F30x_StdPeriph_Driver/src/stm32f30x_usart.c ****          (#) Configures the IrDA pulse width by configuring the prescaler using  
1390:/home/user/Desktop/STM32-Projekte/FH-Vertibot/src/STM32F30x_StdPeriph_Driver/src/stm32f30x_usart.c ****              the USART_SetPrescaler() function.
1391:/home/user/Desktop/STM32-Projekte/FH-Vertibot/src/STM32F30x_StdPeriph_Driver/src/stm32f30x_usart.c ****          (#) Configures the IrDA  USART_IrDAMode_LowPower or USART_IrDAMode_Normal 
1392:/home/user/Desktop/STM32-Projekte/FH-Vertibot/src/STM32F30x_StdPeriph_Driver/src/stm32f30x_usart.c ****              mode using the USART_IrDAConfig() function.
1393:/home/user/Desktop/STM32-Projekte/FH-Vertibot/src/STM32F30x_StdPeriph_Driver/src/stm32f30x_usart.c ****          (#) Enable the IrDA using the USART_IrDACmd() function.
1394:/home/user/Desktop/STM32-Projekte/FH-Vertibot/src/STM32F30x_StdPeriph_Driver/src/stm32f30x_usart.c ****          (#) Enable the USART using the USART_Cmd() function.         
1395:/home/user/Desktop/STM32-Projekte/FH-Vertibot/src/STM32F30x_StdPeriph_Driver/src/stm32f30x_usart.c ****     [..]
1396:/home/user/Desktop/STM32-Projekte/FH-Vertibot/src/STM32F30x_StdPeriph_Driver/src/stm32f30x_usart.c ****     (@) A pulse of width less than two and greater than one PSC period(s) may or 
1397:/home/user/Desktop/STM32-Projekte/FH-Vertibot/src/STM32F30x_StdPeriph_Driver/src/stm32f30x_usart.c ****         may not be rejected.
1398:/home/user/Desktop/STM32-Projekte/FH-Vertibot/src/STM32F30x_StdPeriph_Driver/src/stm32f30x_usart.c ****     (@) The receiver set up time should be managed by software. The IrDA physical 
1399:/home/user/Desktop/STM32-Projekte/FH-Vertibot/src/STM32F30x_StdPeriph_Driver/src/stm32f30x_usart.c ****         layer specification specifies a minimum of 10 ms delay between 
1400:/home/user/Desktop/STM32-Projekte/FH-Vertibot/src/STM32F30x_StdPeriph_Driver/src/stm32f30x_usart.c ****         transmission and reception (IrDA is a half duplex protocol).
1401:/home/user/Desktop/STM32-Projekte/FH-Vertibot/src/STM32F30x_StdPeriph_Driver/src/stm32f30x_usart.c ****     (@) In IrDA mode, the following bits must be kept cleared:
1402:/home/user/Desktop/STM32-Projekte/FH-Vertibot/src/STM32F30x_StdPeriph_Driver/src/stm32f30x_usart.c ****         (+@) LINEN, STOP and CLKEN bits in the USART_CR2 register.
1403:/home/user/Desktop/STM32-Projekte/FH-Vertibot/src/STM32F30x_StdPeriph_Driver/src/stm32f30x_usart.c ****         (+@) SCEN and HDSEL bits in the USART_CR3 register.
1404:/home/user/Desktop/STM32-Projekte/FH-Vertibot/src/STM32F30x_StdPeriph_Driver/src/stm32f30x_usart.c **** 
1405:/home/user/Desktop/STM32-Projekte/FH-Vertibot/src/STM32F30x_StdPeriph_Driver/src/stm32f30x_usart.c **** @endverbatim
1406:/home/user/Desktop/STM32-Projekte/FH-Vertibot/src/STM32F30x_StdPeriph_Driver/src/stm32f30x_usart.c ****   * @{
1407:/home/user/Desktop/STM32-Projekte/FH-Vertibot/src/STM32F30x_StdPeriph_Driver/src/stm32f30x_usart.c ****   */
1408:/home/user/Desktop/STM32-Projekte/FH-Vertibot/src/STM32F30x_StdPeriph_Driver/src/stm32f30x_usart.c **** 
1409:/home/user/Desktop/STM32-Projekte/FH-Vertibot/src/STM32F30x_StdPeriph_Driver/src/stm32f30x_usart.c **** /**
1410:/home/user/Desktop/STM32-Projekte/FH-Vertibot/src/STM32F30x_StdPeriph_Driver/src/stm32f30x_usart.c ****   * @brief  Configures the USART's IrDA interface.
1411:/home/user/Desktop/STM32-Projekte/FH-Vertibot/src/STM32F30x_StdPeriph_Driver/src/stm32f30x_usart.c ****   * @param  USARTx: Select the USART peripheral. This parameter can be one of the 
1412:/home/user/Desktop/STM32-Projekte/FH-Vertibot/src/STM32F30x_StdPeriph_Driver/src/stm32f30x_usart.c ****   *         following values: USART1 or USART2 or USART3 or UART4 or UART5.
1413:/home/user/Desktop/STM32-Projekte/FH-Vertibot/src/STM32F30x_StdPeriph_Driver/src/stm32f30x_usart.c ****   * @param  USART_IrDAMode: specifies the IrDA mode.
1414:/home/user/Desktop/STM32-Projekte/FH-Vertibot/src/STM32F30x_StdPeriph_Driver/src/stm32f30x_usart.c ****   *         This parameter can be one of the following values:
1415:/home/user/Desktop/STM32-Projekte/FH-Vertibot/src/STM32F30x_StdPeriph_Driver/src/stm32f30x_usart.c ****   *         @arg USART_IrDAMode_LowPower
1416:/home/user/Desktop/STM32-Projekte/FH-Vertibot/src/STM32F30x_StdPeriph_Driver/src/stm32f30x_usart.c ****   *         @arg USART_IrDAMode_Normal
1417:/home/user/Desktop/STM32-Projekte/FH-Vertibot/src/STM32F30x_StdPeriph_Driver/src/stm32f30x_usart.c ****   * @retval None
1418:/home/user/Desktop/STM32-Projekte/FH-Vertibot/src/STM32F30x_StdPeriph_Driver/src/stm32f30x_usart.c ****   */
1419:/home/user/Desktop/STM32-Projekte/FH-Vertibot/src/STM32F30x_StdPeriph_Driver/src/stm32f30x_usart.c **** void USART_IrDAConfig(USART_TypeDef* USARTx, uint32_t USART_IrDAMode)
1420:/home/user/Desktop/STM32-Projekte/FH-Vertibot/src/STM32F30x_StdPeriph_Driver/src/stm32f30x_usart.c **** {
 1226              		.loc 1 1420 0
 1227              		.cfi_startproc
 1228              		@ args = 0, pretend = 0, frame = 0
 1229              		@ frame_needed = 0, uses_anonymous_args = 0
 1230              		@ link register save eliminated.
 1231              	.LVL102:
1421:/home/user/Desktop/STM32-Projekte/FH-Vertibot/src/STM32F30x_StdPeriph_Driver/src/stm32f30x_usart.c ****   /* Check the parameters */
1422:/home/user/Desktop/STM32-Projekte/FH-Vertibot/src/STM32F30x_StdPeriph_Driver/src/stm32f30x_usart.c ****   assert_param(IS_USART_ALL_PERIPH(USARTx));
1423:/home/user/Desktop/STM32-Projekte/FH-Vertibot/src/STM32F30x_StdPeriph_Driver/src/stm32f30x_usart.c ****   assert_param(IS_USART_IRDA_MODE(USART_IrDAMode));
1424:/home/user/Desktop/STM32-Projekte/FH-Vertibot/src/STM32F30x_StdPeriph_Driver/src/stm32f30x_usart.c **** 
1425:/home/user/Desktop/STM32-Projekte/FH-Vertibot/src/STM32F30x_StdPeriph_Driver/src/stm32f30x_usart.c ****   USARTx->CR3 &= (uint32_t)~((uint32_t)USART_CR3_IRLP);
 1232              		.loc 1 1425 0
 1233 0374 8368     		ldr	r3, [r0, #8]
 1234 0376 23F00403 		bic	r3, r3, #4
 1235 037a 8360     		str	r3, [r0, #8]
1426:/home/user/Desktop/STM32-Projekte/FH-Vertibot/src/STM32F30x_StdPeriph_Driver/src/stm32f30x_usart.c ****   USARTx->CR3 |= USART_IrDAMode;
 1236              		.loc 1 1426 0
 1237 037c 8368     		ldr	r3, [r0, #8]
 1238 037e 1943     		orrs	r1, r1, r3
 1239              	.LVL103:
 1240 0380 8160     		str	r1, [r0, #8]
 1241 0382 7047     		bx	lr
 1242              		.cfi_endproc
 1243              	.LFE145:
 1245              		.align	1
 1246              		.global	USART_IrDACmd
 1247              		.thumb
 1248              		.thumb_func
 1250              	USART_IrDACmd:
 1251              	.LFB146:
1427:/home/user/Desktop/STM32-Projekte/FH-Vertibot/src/STM32F30x_StdPeriph_Driver/src/stm32f30x_usart.c **** }
1428:/home/user/Desktop/STM32-Projekte/FH-Vertibot/src/STM32F30x_StdPeriph_Driver/src/stm32f30x_usart.c **** 
1429:/home/user/Desktop/STM32-Projekte/FH-Vertibot/src/STM32F30x_StdPeriph_Driver/src/stm32f30x_usart.c **** /**
1430:/home/user/Desktop/STM32-Projekte/FH-Vertibot/src/STM32F30x_StdPeriph_Driver/src/stm32f30x_usart.c ****   * @brief  Enables or disables the USART's IrDA interface. 
1431:/home/user/Desktop/STM32-Projekte/FH-Vertibot/src/STM32F30x_StdPeriph_Driver/src/stm32f30x_usart.c ****   * @param  USARTx: Select the USART peripheral. This parameter can be one of the 
1432:/home/user/Desktop/STM32-Projekte/FH-Vertibot/src/STM32F30x_StdPeriph_Driver/src/stm32f30x_usart.c ****   *         following values: USART1 or USART2 or USART3 or UART4 or UART5.
1433:/home/user/Desktop/STM32-Projekte/FH-Vertibot/src/STM32F30x_StdPeriph_Driver/src/stm32f30x_usart.c ****   * @param  NewState: new state of the IrDA mode.
1434:/home/user/Desktop/STM32-Projekte/FH-Vertibot/src/STM32F30x_StdPeriph_Driver/src/stm32f30x_usart.c ****   *         This parameter can be: ENABLE or DISABLE.
1435:/home/user/Desktop/STM32-Projekte/FH-Vertibot/src/STM32F30x_StdPeriph_Driver/src/stm32f30x_usart.c ****   * @retval None
1436:/home/user/Desktop/STM32-Projekte/FH-Vertibot/src/STM32F30x_StdPeriph_Driver/src/stm32f30x_usart.c ****   */
1437:/home/user/Desktop/STM32-Projekte/FH-Vertibot/src/STM32F30x_StdPeriph_Driver/src/stm32f30x_usart.c **** void USART_IrDACmd(USART_TypeDef* USARTx, FunctionalState NewState)
1438:/home/user/Desktop/STM32-Projekte/FH-Vertibot/src/STM32F30x_StdPeriph_Driver/src/stm32f30x_usart.c **** {
 1252              		.loc 1 1438 0
 1253              		.cfi_startproc
 1254              		@ args = 0, pretend = 0, frame = 0
 1255              		@ frame_needed = 0, uses_anonymous_args = 0
 1256              		@ link register save eliminated.
 1257              	.LVL104:
1439:/home/user/Desktop/STM32-Projekte/FH-Vertibot/src/STM32F30x_StdPeriph_Driver/src/stm32f30x_usart.c ****   /* Check the parameters */
1440:/home/user/Desktop/STM32-Projekte/FH-Vertibot/src/STM32F30x_StdPeriph_Driver/src/stm32f30x_usart.c ****   assert_param(IS_USART_ALL_PERIPH(USARTx));
1441:/home/user/Desktop/STM32-Projekte/FH-Vertibot/src/STM32F30x_StdPeriph_Driver/src/stm32f30x_usart.c ****   assert_param(IS_FUNCTIONAL_STATE(NewState));
1442:/home/user/Desktop/STM32-Projekte/FH-Vertibot/src/STM32F30x_StdPeriph_Driver/src/stm32f30x_usart.c **** 
1443:/home/user/Desktop/STM32-Projekte/FH-Vertibot/src/STM32F30x_StdPeriph_Driver/src/stm32f30x_usart.c ****   if (NewState != DISABLE)
1444:/home/user/Desktop/STM32-Projekte/FH-Vertibot/src/STM32F30x_StdPeriph_Driver/src/stm32f30x_usart.c ****   {
1445:/home/user/Desktop/STM32-Projekte/FH-Vertibot/src/STM32F30x_StdPeriph_Driver/src/stm32f30x_usart.c ****     /* Enable the IrDA mode by setting the IREN bit in the CR3 register */
1446:/home/user/Desktop/STM32-Projekte/FH-Vertibot/src/STM32F30x_StdPeriph_Driver/src/stm32f30x_usart.c ****     USARTx->CR3 |= USART_CR3_IREN;
 1258              		.loc 1 1446 0
 1259 0384 8368     		ldr	r3, [r0, #8]
1443:/home/user/Desktop/STM32-Projekte/FH-Vertibot/src/STM32F30x_StdPeriph_Driver/src/stm32f30x_usart.c ****   if (NewState != DISABLE)
 1260              		.loc 1 1443 0
 1261 0386 11B1     		cbz	r1, .L108
 1262              		.loc 1 1446 0
 1263 0388 43F00203 		orr	r3, r3, #2
 1264 038c 01E0     		b	.L110
 1265              	.L108:
1447:/home/user/Desktop/STM32-Projekte/FH-Vertibot/src/STM32F30x_StdPeriph_Driver/src/stm32f30x_usart.c ****   }
1448:/home/user/Desktop/STM32-Projekte/FH-Vertibot/src/STM32F30x_StdPeriph_Driver/src/stm32f30x_usart.c ****   else
1449:/home/user/Desktop/STM32-Projekte/FH-Vertibot/src/STM32F30x_StdPeriph_Driver/src/stm32f30x_usart.c ****   {
1450:/home/user/Desktop/STM32-Projekte/FH-Vertibot/src/STM32F30x_StdPeriph_Driver/src/stm32f30x_usart.c ****     /* Disable the IrDA mode by clearing the IREN bit in the CR3 register */
1451:/home/user/Desktop/STM32-Projekte/FH-Vertibot/src/STM32F30x_StdPeriph_Driver/src/stm32f30x_usart.c ****     USARTx->CR3 &= (uint32_t)~((uint32_t)USART_CR3_IREN);
 1266              		.loc 1 1451 0
 1267 038e 23F00203 		bic	r3, r3, #2
 1268              	.L110:
 1269 0392 8360     		str	r3, [r0, #8]
 1270 0394 7047     		bx	lr
 1271              		.cfi_endproc
 1272              	.LFE146:
 1274              		.align	1
 1275              		.global	USART_DECmd
 1276              		.thumb
 1277              		.thumb_func
 1279              	USART_DECmd:
 1280              	.LFB147:
1452:/home/user/Desktop/STM32-Projekte/FH-Vertibot/src/STM32F30x_StdPeriph_Driver/src/stm32f30x_usart.c ****   }
1453:/home/user/Desktop/STM32-Projekte/FH-Vertibot/src/STM32F30x_StdPeriph_Driver/src/stm32f30x_usart.c **** }
1454:/home/user/Desktop/STM32-Projekte/FH-Vertibot/src/STM32F30x_StdPeriph_Driver/src/stm32f30x_usart.c **** /**
1455:/home/user/Desktop/STM32-Projekte/FH-Vertibot/src/STM32F30x_StdPeriph_Driver/src/stm32f30x_usart.c ****   * @}
1456:/home/user/Desktop/STM32-Projekte/FH-Vertibot/src/STM32F30x_StdPeriph_Driver/src/stm32f30x_usart.c ****   */
1457:/home/user/Desktop/STM32-Projekte/FH-Vertibot/src/STM32F30x_StdPeriph_Driver/src/stm32f30x_usart.c **** 
1458:/home/user/Desktop/STM32-Projekte/FH-Vertibot/src/STM32F30x_StdPeriph_Driver/src/stm32f30x_usart.c **** /** @defgroup USART_Group10 RS485 mode function
1459:/home/user/Desktop/STM32-Projekte/FH-Vertibot/src/STM32F30x_StdPeriph_Driver/src/stm32f30x_usart.c ****  *  @brief   RS485 mode function 
1460:/home/user/Desktop/STM32-Projekte/FH-Vertibot/src/STM32F30x_StdPeriph_Driver/src/stm32f30x_usart.c ****  *
1461:/home/user/Desktop/STM32-Projekte/FH-Vertibot/src/STM32F30x_StdPeriph_Driver/src/stm32f30x_usart.c **** @verbatim  
1462:/home/user/Desktop/STM32-Projekte/FH-Vertibot/src/STM32F30x_StdPeriph_Driver/src/stm32f30x_usart.c ****  ===============================================================================
1463:/home/user/Desktop/STM32-Projekte/FH-Vertibot/src/STM32F30x_StdPeriph_Driver/src/stm32f30x_usart.c ****                         ##### RS485 mode functions #####
1464:/home/user/Desktop/STM32-Projekte/FH-Vertibot/src/STM32F30x_StdPeriph_Driver/src/stm32f30x_usart.c ****  ===============================================================================
1465:/home/user/Desktop/STM32-Projekte/FH-Vertibot/src/STM32F30x_StdPeriph_Driver/src/stm32f30x_usart.c ****     [..] This subsection provides a set of functions allowing to manage the USART
1466:/home/user/Desktop/STM32-Projekte/FH-Vertibot/src/STM32F30x_StdPeriph_Driver/src/stm32f30x_usart.c ****          RS485 flow control.
1467:/home/user/Desktop/STM32-Projekte/FH-Vertibot/src/STM32F30x_StdPeriph_Driver/src/stm32f30x_usart.c ****     [..] RS485 flow control (Driver enable feature) handling is possible through
1468:/home/user/Desktop/STM32-Projekte/FH-Vertibot/src/STM32F30x_StdPeriph_Driver/src/stm32f30x_usart.c ****          the following procedure:
1469:/home/user/Desktop/STM32-Projekte/FH-Vertibot/src/STM32F30x_StdPeriph_Driver/src/stm32f30x_usart.c ****          (#) Program the Baud rate, Word length = 8 bits, Stop bits, Parity, 
1470:/home/user/Desktop/STM32-Projekte/FH-Vertibot/src/STM32F30x_StdPeriph_Driver/src/stm32f30x_usart.c ****              Transmitter/Receiver modes and hardware flow control values using 
1471:/home/user/Desktop/STM32-Projekte/FH-Vertibot/src/STM32F30x_StdPeriph_Driver/src/stm32f30x_usart.c ****              the USART_Init() function.
1472:/home/user/Desktop/STM32-Projekte/FH-Vertibot/src/STM32F30x_StdPeriph_Driver/src/stm32f30x_usart.c ****          (#) Enable the Driver Enable using the USART_DECmd() function.
1473:/home/user/Desktop/STM32-Projekte/FH-Vertibot/src/STM32F30x_StdPeriph_Driver/src/stm32f30x_usart.c ****          (#) Configures the Driver Enable polarity using the USART_DEPolarityConfig()
1474:/home/user/Desktop/STM32-Projekte/FH-Vertibot/src/STM32F30x_StdPeriph_Driver/src/stm32f30x_usart.c ****              function.
1475:/home/user/Desktop/STM32-Projekte/FH-Vertibot/src/STM32F30x_StdPeriph_Driver/src/stm32f30x_usart.c ****          (#) Configures the Driver Enable assertion time using USART_SetDEAssertionTime() 
1476:/home/user/Desktop/STM32-Projekte/FH-Vertibot/src/STM32F30x_StdPeriph_Driver/src/stm32f30x_usart.c ****              function and deassertion time using the USART_SetDEDeassertionTime()
1477:/home/user/Desktop/STM32-Projekte/FH-Vertibot/src/STM32F30x_StdPeriph_Driver/src/stm32f30x_usart.c ****              function.    
1478:/home/user/Desktop/STM32-Projekte/FH-Vertibot/src/STM32F30x_StdPeriph_Driver/src/stm32f30x_usart.c ****          (#) Enable the USART using the USART_Cmd() function.
1479:/home/user/Desktop/STM32-Projekte/FH-Vertibot/src/STM32F30x_StdPeriph_Driver/src/stm32f30x_usart.c ****       [..]  
1480:/home/user/Desktop/STM32-Projekte/FH-Vertibot/src/STM32F30x_StdPeriph_Driver/src/stm32f30x_usart.c ****        (@) The assertion and dessertion times are expressed in sample time units (1/8 or 
1481:/home/user/Desktop/STM32-Projekte/FH-Vertibot/src/STM32F30x_StdPeriph_Driver/src/stm32f30x_usart.c ****             1/16 bit time, depending on the oversampling rate).
1482:/home/user/Desktop/STM32-Projekte/FH-Vertibot/src/STM32F30x_StdPeriph_Driver/src/stm32f30x_usart.c ****        
1483:/home/user/Desktop/STM32-Projekte/FH-Vertibot/src/STM32F30x_StdPeriph_Driver/src/stm32f30x_usart.c **** @endverbatim
1484:/home/user/Desktop/STM32-Projekte/FH-Vertibot/src/STM32F30x_StdPeriph_Driver/src/stm32f30x_usart.c ****   * @{
1485:/home/user/Desktop/STM32-Projekte/FH-Vertibot/src/STM32F30x_StdPeriph_Driver/src/stm32f30x_usart.c ****   */
1486:/home/user/Desktop/STM32-Projekte/FH-Vertibot/src/STM32F30x_StdPeriph_Driver/src/stm32f30x_usart.c **** 
1487:/home/user/Desktop/STM32-Projekte/FH-Vertibot/src/STM32F30x_StdPeriph_Driver/src/stm32f30x_usart.c **** /**
1488:/home/user/Desktop/STM32-Projekte/FH-Vertibot/src/STM32F30x_StdPeriph_Driver/src/stm32f30x_usart.c ****   * @brief  Enables or disables the USART's DE functionality.
1489:/home/user/Desktop/STM32-Projekte/FH-Vertibot/src/STM32F30x_StdPeriph_Driver/src/stm32f30x_usart.c ****   * @param  USARTx: Select the USART peripheral. This parameter can be one of the 
1490:/home/user/Desktop/STM32-Projekte/FH-Vertibot/src/STM32F30x_StdPeriph_Driver/src/stm32f30x_usart.c ****   *         following values: USART1 or USART2 or USART3 or UART4 or UART5.
1491:/home/user/Desktop/STM32-Projekte/FH-Vertibot/src/STM32F30x_StdPeriph_Driver/src/stm32f30x_usart.c ****   * @param  NewState: new state of the driver enable mode.
1492:/home/user/Desktop/STM32-Projekte/FH-Vertibot/src/STM32F30x_StdPeriph_Driver/src/stm32f30x_usart.c ****   *         This parameter can be: ENABLE or DISABLE.      
1493:/home/user/Desktop/STM32-Projekte/FH-Vertibot/src/STM32F30x_StdPeriph_Driver/src/stm32f30x_usart.c ****   * @retval None
1494:/home/user/Desktop/STM32-Projekte/FH-Vertibot/src/STM32F30x_StdPeriph_Driver/src/stm32f30x_usart.c ****   */
1495:/home/user/Desktop/STM32-Projekte/FH-Vertibot/src/STM32F30x_StdPeriph_Driver/src/stm32f30x_usart.c **** void USART_DECmd(USART_TypeDef* USARTx, FunctionalState NewState)
1496:/home/user/Desktop/STM32-Projekte/FH-Vertibot/src/STM32F30x_StdPeriph_Driver/src/stm32f30x_usart.c **** {
 1281              		.loc 1 1496 0
 1282              		.cfi_startproc
 1283              		@ args = 0, pretend = 0, frame = 0
 1284              		@ frame_needed = 0, uses_anonymous_args = 0
 1285              		@ link register save eliminated.
 1286              	.LVL105:
1497:/home/user/Desktop/STM32-Projekte/FH-Vertibot/src/STM32F30x_StdPeriph_Driver/src/stm32f30x_usart.c ****   /* Check the parameters */
1498:/home/user/Desktop/STM32-Projekte/FH-Vertibot/src/STM32F30x_StdPeriph_Driver/src/stm32f30x_usart.c ****   assert_param(IS_USART_ALL_PERIPH(USARTx));
1499:/home/user/Desktop/STM32-Projekte/FH-Vertibot/src/STM32F30x_StdPeriph_Driver/src/stm32f30x_usart.c ****   assert_param(IS_FUNCTIONAL_STATE(NewState));
1500:/home/user/Desktop/STM32-Projekte/FH-Vertibot/src/STM32F30x_StdPeriph_Driver/src/stm32f30x_usart.c ****   if (NewState != DISABLE)
1501:/home/user/Desktop/STM32-Projekte/FH-Vertibot/src/STM32F30x_StdPeriph_Driver/src/stm32f30x_usart.c ****   {
1502:/home/user/Desktop/STM32-Projekte/FH-Vertibot/src/STM32F30x_StdPeriph_Driver/src/stm32f30x_usart.c ****     /* Enable the DE functionality by setting the DEM bit in the CR3 register */
1503:/home/user/Desktop/STM32-Projekte/FH-Vertibot/src/STM32F30x_StdPeriph_Driver/src/stm32f30x_usart.c ****     USARTx->CR3 |= USART_CR3_DEM;
 1287              		.loc 1 1503 0
 1288 0396 8368     		ldr	r3, [r0, #8]
1500:/home/user/Desktop/STM32-Projekte/FH-Vertibot/src/STM32F30x_StdPeriph_Driver/src/stm32f30x_usart.c ****   if (NewState != DISABLE)
 1289              		.loc 1 1500 0
 1290 0398 11B1     		cbz	r1, .L112
 1291              		.loc 1 1503 0
 1292 039a 43F48043 		orr	r3, r3, #16384
 1293 039e 01E0     		b	.L114
 1294              	.L112:
1504:/home/user/Desktop/STM32-Projekte/FH-Vertibot/src/STM32F30x_StdPeriph_Driver/src/stm32f30x_usart.c ****   }
1505:/home/user/Desktop/STM32-Projekte/FH-Vertibot/src/STM32F30x_StdPeriph_Driver/src/stm32f30x_usart.c ****   else
1506:/home/user/Desktop/STM32-Projekte/FH-Vertibot/src/STM32F30x_StdPeriph_Driver/src/stm32f30x_usart.c ****   {
1507:/home/user/Desktop/STM32-Projekte/FH-Vertibot/src/STM32F30x_StdPeriph_Driver/src/stm32f30x_usart.c ****     /* Disable the DE functionality by clearing the DEM bit in the CR3 register */
1508:/home/user/Desktop/STM32-Projekte/FH-Vertibot/src/STM32F30x_StdPeriph_Driver/src/stm32f30x_usart.c ****     USARTx->CR3 &= (uint32_t)~((uint32_t)USART_CR3_DEM);
 1295              		.loc 1 1508 0
 1296 03a0 23F48043 		bic	r3, r3, #16384
 1297              	.L114:
 1298 03a4 8360     		str	r3, [r0, #8]
 1299 03a6 7047     		bx	lr
 1300              		.cfi_endproc
 1301              	.LFE147:
 1303              		.align	1
 1304              		.global	USART_DEPolarityConfig
 1305              		.thumb
 1306              		.thumb_func
 1308              	USART_DEPolarityConfig:
 1309              	.LFB148:
1509:/home/user/Desktop/STM32-Projekte/FH-Vertibot/src/STM32F30x_StdPeriph_Driver/src/stm32f30x_usart.c ****   }
1510:/home/user/Desktop/STM32-Projekte/FH-Vertibot/src/STM32F30x_StdPeriph_Driver/src/stm32f30x_usart.c **** }
1511:/home/user/Desktop/STM32-Projekte/FH-Vertibot/src/STM32F30x_StdPeriph_Driver/src/stm32f30x_usart.c **** 
1512:/home/user/Desktop/STM32-Projekte/FH-Vertibot/src/STM32F30x_StdPeriph_Driver/src/stm32f30x_usart.c **** /**
1513:/home/user/Desktop/STM32-Projekte/FH-Vertibot/src/STM32F30x_StdPeriph_Driver/src/stm32f30x_usart.c ****   * @brief  Configures the USART's DE polarity
1514:/home/user/Desktop/STM32-Projekte/FH-Vertibot/src/STM32F30x_StdPeriph_Driver/src/stm32f30x_usart.c ****   * @param  USARTx: Select the USART peripheral. This parameter can be one of the 
1515:/home/user/Desktop/STM32-Projekte/FH-Vertibot/src/STM32F30x_StdPeriph_Driver/src/stm32f30x_usart.c ****   *         following values: USART1 or USART2 or USART3 or UART4 or UART5.
1516:/home/user/Desktop/STM32-Projekte/FH-Vertibot/src/STM32F30x_StdPeriph_Driver/src/stm32f30x_usart.c ****   * @param  USART_DEPolarity: specifies the DE polarity.
1517:/home/user/Desktop/STM32-Projekte/FH-Vertibot/src/STM32F30x_StdPeriph_Driver/src/stm32f30x_usart.c ****   *         This parameter can be one of the following values:
1518:/home/user/Desktop/STM32-Projekte/FH-Vertibot/src/STM32F30x_StdPeriph_Driver/src/stm32f30x_usart.c ****   *         @arg USART_DEPolarity_Low
1519:/home/user/Desktop/STM32-Projekte/FH-Vertibot/src/STM32F30x_StdPeriph_Driver/src/stm32f30x_usart.c ****   *         @arg USART_DEPolarity_High
1520:/home/user/Desktop/STM32-Projekte/FH-Vertibot/src/STM32F30x_StdPeriph_Driver/src/stm32f30x_usart.c ****   * @retval None
1521:/home/user/Desktop/STM32-Projekte/FH-Vertibot/src/STM32F30x_StdPeriph_Driver/src/stm32f30x_usart.c ****   */
1522:/home/user/Desktop/STM32-Projekte/FH-Vertibot/src/STM32F30x_StdPeriph_Driver/src/stm32f30x_usart.c **** void USART_DEPolarityConfig(USART_TypeDef* USARTx, uint32_t USART_DEPolarity)
1523:/home/user/Desktop/STM32-Projekte/FH-Vertibot/src/STM32F30x_StdPeriph_Driver/src/stm32f30x_usart.c **** {
 1310              		.loc 1 1523 0
 1311              		.cfi_startproc
 1312              		@ args = 0, pretend = 0, frame = 0
 1313              		@ frame_needed = 0, uses_anonymous_args = 0
 1314              		@ link register save eliminated.
 1315              	.LVL106:
1524:/home/user/Desktop/STM32-Projekte/FH-Vertibot/src/STM32F30x_StdPeriph_Driver/src/stm32f30x_usart.c ****   /* Check the parameters */
1525:/home/user/Desktop/STM32-Projekte/FH-Vertibot/src/STM32F30x_StdPeriph_Driver/src/stm32f30x_usart.c ****   assert_param(IS_USART_ALL_PERIPH(USARTx));
1526:/home/user/Desktop/STM32-Projekte/FH-Vertibot/src/STM32F30x_StdPeriph_Driver/src/stm32f30x_usart.c ****   assert_param(IS_USART_DE_POLARITY(USART_DEPolarity));
1527:/home/user/Desktop/STM32-Projekte/FH-Vertibot/src/STM32F30x_StdPeriph_Driver/src/stm32f30x_usart.c **** 
1528:/home/user/Desktop/STM32-Projekte/FH-Vertibot/src/STM32F30x_StdPeriph_Driver/src/stm32f30x_usart.c ****   USARTx->CR3 &= (uint32_t)~((uint32_t)USART_CR3_DEP);
 1316              		.loc 1 1528 0
 1317 03a8 8368     		ldr	r3, [r0, #8]
 1318 03aa 23F40043 		bic	r3, r3, #32768
 1319 03ae 8360     		str	r3, [r0, #8]
1529:/home/user/Desktop/STM32-Projekte/FH-Vertibot/src/STM32F30x_StdPeriph_Driver/src/stm32f30x_usart.c ****   USARTx->CR3 |= USART_DEPolarity;
 1320              		.loc 1 1529 0
 1321 03b0 8368     		ldr	r3, [r0, #8]
 1322 03b2 1943     		orrs	r1, r1, r3
 1323              	.LVL107:
 1324 03b4 8160     		str	r1, [r0, #8]
 1325 03b6 7047     		bx	lr
 1326              		.cfi_endproc
 1327              	.LFE148:
 1329              		.align	1
 1330              		.global	USART_SetDEAssertionTime
 1331              		.thumb
 1332              		.thumb_func
 1334              	USART_SetDEAssertionTime:
 1335              	.LFB149:
1530:/home/user/Desktop/STM32-Projekte/FH-Vertibot/src/STM32F30x_StdPeriph_Driver/src/stm32f30x_usart.c **** }
1531:/home/user/Desktop/STM32-Projekte/FH-Vertibot/src/STM32F30x_StdPeriph_Driver/src/stm32f30x_usart.c **** 
1532:/home/user/Desktop/STM32-Projekte/FH-Vertibot/src/STM32F30x_StdPeriph_Driver/src/stm32f30x_usart.c **** /**
1533:/home/user/Desktop/STM32-Projekte/FH-Vertibot/src/STM32F30x_StdPeriph_Driver/src/stm32f30x_usart.c ****   * @brief  Sets the specified RS485 DE assertion time
1534:/home/user/Desktop/STM32-Projekte/FH-Vertibot/src/STM32F30x_StdPeriph_Driver/src/stm32f30x_usart.c ****   * @param  USARTx: Select the USART peripheral. This parameter can be one of the 
1535:/home/user/Desktop/STM32-Projekte/FH-Vertibot/src/STM32F30x_StdPeriph_Driver/src/stm32f30x_usart.c ****   *         following values: USART1 or USART2 or USART3 or UART4 or UART5.
1536:/home/user/Desktop/STM32-Projekte/FH-Vertibot/src/STM32F30x_StdPeriph_Driver/src/stm32f30x_usart.c ****   * @param  USART_AssertionTime: specifies the time between the activation of the DE
1537:/home/user/Desktop/STM32-Projekte/FH-Vertibot/src/STM32F30x_StdPeriph_Driver/src/stm32f30x_usart.c ****   *          signal and the beginning of the start bit
1538:/home/user/Desktop/STM32-Projekte/FH-Vertibot/src/STM32F30x_StdPeriph_Driver/src/stm32f30x_usart.c ****   * @retval None
1539:/home/user/Desktop/STM32-Projekte/FH-Vertibot/src/STM32F30x_StdPeriph_Driver/src/stm32f30x_usart.c ****   */
1540:/home/user/Desktop/STM32-Projekte/FH-Vertibot/src/STM32F30x_StdPeriph_Driver/src/stm32f30x_usart.c **** void USART_SetDEAssertionTime(USART_TypeDef* USARTx, uint32_t USART_DEAssertionTime)
1541:/home/user/Desktop/STM32-Projekte/FH-Vertibot/src/STM32F30x_StdPeriph_Driver/src/stm32f30x_usart.c **** {
 1336              		.loc 1 1541 0
 1337              		.cfi_startproc
 1338              		@ args = 0, pretend = 0, frame = 0
 1339              		@ frame_needed = 0, uses_anonymous_args = 0
 1340              		@ link register save eliminated.
 1341              	.LVL108:
1542:/home/user/Desktop/STM32-Projekte/FH-Vertibot/src/STM32F30x_StdPeriph_Driver/src/stm32f30x_usart.c ****   /* Check the parameters */
1543:/home/user/Desktop/STM32-Projekte/FH-Vertibot/src/STM32F30x_StdPeriph_Driver/src/stm32f30x_usart.c ****   assert_param(IS_USART_ALL_PERIPH(USARTx));
1544:/home/user/Desktop/STM32-Projekte/FH-Vertibot/src/STM32F30x_StdPeriph_Driver/src/stm32f30x_usart.c ****   assert_param(IS_USART_DE_ASSERTION_DEASSERTION_TIME(USART_DEAssertionTime)); 
1545:/home/user/Desktop/STM32-Projekte/FH-Vertibot/src/STM32F30x_StdPeriph_Driver/src/stm32f30x_usart.c **** 
1546:/home/user/Desktop/STM32-Projekte/FH-Vertibot/src/STM32F30x_StdPeriph_Driver/src/stm32f30x_usart.c ****   /* Clear the DE assertion time */
1547:/home/user/Desktop/STM32-Projekte/FH-Vertibot/src/STM32F30x_StdPeriph_Driver/src/stm32f30x_usart.c ****   USARTx->CR1 &= (uint32_t)~((uint32_t)USART_CR1_DEAT);
 1342              		.loc 1 1547 0
 1343 03b8 0368     		ldr	r3, [r0]
 1344 03ba 23F07873 		bic	r3, r3, #65011712
 1345 03be 0360     		str	r3, [r0]
1548:/home/user/Desktop/STM32-Projekte/FH-Vertibot/src/STM32F30x_StdPeriph_Driver/src/stm32f30x_usart.c ****   /* Set the new value for the DE assertion time */
1549:/home/user/Desktop/STM32-Projekte/FH-Vertibot/src/STM32F30x_StdPeriph_Driver/src/stm32f30x_usart.c ****   USARTx->CR1 |=((uint32_t)USART_DEAssertionTime << (uint32_t)0x15);
 1346              		.loc 1 1549 0
 1347 03c0 0368     		ldr	r3, [r0]
 1348 03c2 43EA4151 		orr	r1, r3, r1, lsl #21
 1349              	.LVL109:
 1350 03c6 0160     		str	r1, [r0]
 1351 03c8 7047     		bx	lr
 1352              		.cfi_endproc
 1353              	.LFE149:
 1355              		.align	1
 1356              		.global	USART_SetDEDeassertionTime
 1357              		.thumb
 1358              		.thumb_func
 1360              	USART_SetDEDeassertionTime:
 1361              	.LFB150:
1550:/home/user/Desktop/STM32-Projekte/FH-Vertibot/src/STM32F30x_StdPeriph_Driver/src/stm32f30x_usart.c **** }
1551:/home/user/Desktop/STM32-Projekte/FH-Vertibot/src/STM32F30x_StdPeriph_Driver/src/stm32f30x_usart.c **** 
1552:/home/user/Desktop/STM32-Projekte/FH-Vertibot/src/STM32F30x_StdPeriph_Driver/src/stm32f30x_usart.c **** /**
1553:/home/user/Desktop/STM32-Projekte/FH-Vertibot/src/STM32F30x_StdPeriph_Driver/src/stm32f30x_usart.c ****   * @brief  Sets the specified RS485 DE deassertion time
1554:/home/user/Desktop/STM32-Projekte/FH-Vertibot/src/STM32F30x_StdPeriph_Driver/src/stm32f30x_usart.c ****   * @param  USARTx: Select the USART peripheral. This parameter can be one of the 
1555:/home/user/Desktop/STM32-Projekte/FH-Vertibot/src/STM32F30x_StdPeriph_Driver/src/stm32f30x_usart.c ****   *         following values: USART1 or USART2 or USART3 or UART4 or UART5.
1556:/home/user/Desktop/STM32-Projekte/FH-Vertibot/src/STM32F30x_StdPeriph_Driver/src/stm32f30x_usart.c ****   * @param  USART_DeassertionTime: specifies the time between the middle of the last 
1557:/home/user/Desktop/STM32-Projekte/FH-Vertibot/src/STM32F30x_StdPeriph_Driver/src/stm32f30x_usart.c ****   *         stop bit in a transmitted message and the de-activation of the DE signal
1558:/home/user/Desktop/STM32-Projekte/FH-Vertibot/src/STM32F30x_StdPeriph_Driver/src/stm32f30x_usart.c ****   * @retval None
1559:/home/user/Desktop/STM32-Projekte/FH-Vertibot/src/STM32F30x_StdPeriph_Driver/src/stm32f30x_usart.c ****   */
1560:/home/user/Desktop/STM32-Projekte/FH-Vertibot/src/STM32F30x_StdPeriph_Driver/src/stm32f30x_usart.c **** void USART_SetDEDeassertionTime(USART_TypeDef* USARTx, uint32_t USART_DEDeassertionTime)
1561:/home/user/Desktop/STM32-Projekte/FH-Vertibot/src/STM32F30x_StdPeriph_Driver/src/stm32f30x_usart.c **** {
 1362              		.loc 1 1561 0
 1363              		.cfi_startproc
 1364              		@ args = 0, pretend = 0, frame = 0
 1365              		@ frame_needed = 0, uses_anonymous_args = 0
 1366              		@ link register save eliminated.
 1367              	.LVL110:
1562:/home/user/Desktop/STM32-Projekte/FH-Vertibot/src/STM32F30x_StdPeriph_Driver/src/stm32f30x_usart.c ****   /* Check the parameters */
1563:/home/user/Desktop/STM32-Projekte/FH-Vertibot/src/STM32F30x_StdPeriph_Driver/src/stm32f30x_usart.c ****   assert_param(IS_USART_ALL_PERIPH(USARTx));
1564:/home/user/Desktop/STM32-Projekte/FH-Vertibot/src/STM32F30x_StdPeriph_Driver/src/stm32f30x_usart.c ****   assert_param(IS_USART_DE_ASSERTION_DEASSERTION_TIME(USART_DEDeassertionTime)); 
1565:/home/user/Desktop/STM32-Projekte/FH-Vertibot/src/STM32F30x_StdPeriph_Driver/src/stm32f30x_usart.c **** 
1566:/home/user/Desktop/STM32-Projekte/FH-Vertibot/src/STM32F30x_StdPeriph_Driver/src/stm32f30x_usart.c ****   /* Clear the DE deassertion time */
1567:/home/user/Desktop/STM32-Projekte/FH-Vertibot/src/STM32F30x_StdPeriph_Driver/src/stm32f30x_usart.c ****   USARTx->CR1 &= (uint32_t)~((uint32_t)USART_CR1_DEDT);
 1368              		.loc 1 1567 0
 1369 03ca 0368     		ldr	r3, [r0]
 1370 03cc 23F4F813 		bic	r3, r3, #2031616
 1371 03d0 0360     		str	r3, [r0]
1568:/home/user/Desktop/STM32-Projekte/FH-Vertibot/src/STM32F30x_StdPeriph_Driver/src/stm32f30x_usart.c ****   /* Set the new value for the DE deassertion time */
1569:/home/user/Desktop/STM32-Projekte/FH-Vertibot/src/STM32F30x_StdPeriph_Driver/src/stm32f30x_usart.c ****   USARTx->CR1 |=((uint32_t)USART_DEDeassertionTime << (uint32_t)0x10);
 1372              		.loc 1 1569 0
 1373 03d2 0368     		ldr	r3, [r0]
 1374 03d4 43EA0141 		orr	r1, r3, r1, lsl #16
 1375              	.LVL111:
 1376 03d8 0160     		str	r1, [r0]
 1377 03da 7047     		bx	lr
 1378              		.cfi_endproc
 1379              	.LFE150:
 1381              		.align	1
 1382              		.global	USART_DMACmd
 1383              		.thumb
 1384              		.thumb_func
 1386              	USART_DMACmd:
 1387              	.LFB151:
1570:/home/user/Desktop/STM32-Projekte/FH-Vertibot/src/STM32F30x_StdPeriph_Driver/src/stm32f30x_usart.c **** }
1571:/home/user/Desktop/STM32-Projekte/FH-Vertibot/src/STM32F30x_StdPeriph_Driver/src/stm32f30x_usart.c **** 
1572:/home/user/Desktop/STM32-Projekte/FH-Vertibot/src/STM32F30x_StdPeriph_Driver/src/stm32f30x_usart.c **** /**
1573:/home/user/Desktop/STM32-Projekte/FH-Vertibot/src/STM32F30x_StdPeriph_Driver/src/stm32f30x_usart.c ****   * @}
1574:/home/user/Desktop/STM32-Projekte/FH-Vertibot/src/STM32F30x_StdPeriph_Driver/src/stm32f30x_usart.c ****   */
1575:/home/user/Desktop/STM32-Projekte/FH-Vertibot/src/STM32F30x_StdPeriph_Driver/src/stm32f30x_usart.c **** 
1576:/home/user/Desktop/STM32-Projekte/FH-Vertibot/src/STM32F30x_StdPeriph_Driver/src/stm32f30x_usart.c **** /** @defgroup USART_Group11 DMA transfers management functions
1577:/home/user/Desktop/STM32-Projekte/FH-Vertibot/src/STM32F30x_StdPeriph_Driver/src/stm32f30x_usart.c ****  *  @brief   DMA transfers management functions
1578:/home/user/Desktop/STM32-Projekte/FH-Vertibot/src/STM32F30x_StdPeriph_Driver/src/stm32f30x_usart.c ****  *
1579:/home/user/Desktop/STM32-Projekte/FH-Vertibot/src/STM32F30x_StdPeriph_Driver/src/stm32f30x_usart.c **** @verbatim   
1580:/home/user/Desktop/STM32-Projekte/FH-Vertibot/src/STM32F30x_StdPeriph_Driver/src/stm32f30x_usart.c ****  ===============================================================================
1581:/home/user/Desktop/STM32-Projekte/FH-Vertibot/src/STM32F30x_StdPeriph_Driver/src/stm32f30x_usart.c ****                ##### DMA transfers management functions #####
1582:/home/user/Desktop/STM32-Projekte/FH-Vertibot/src/STM32F30x_StdPeriph_Driver/src/stm32f30x_usart.c ****  ===============================================================================
1583:/home/user/Desktop/STM32-Projekte/FH-Vertibot/src/STM32F30x_StdPeriph_Driver/src/stm32f30x_usart.c ****     [..] This section provides two functions that can be used only in DMA mode.
1584:/home/user/Desktop/STM32-Projekte/FH-Vertibot/src/STM32F30x_StdPeriph_Driver/src/stm32f30x_usart.c ****     [..] In DMA Mode, the USART communication can be managed by 2 DMA Channel 
1585:/home/user/Desktop/STM32-Projekte/FH-Vertibot/src/STM32F30x_StdPeriph_Driver/src/stm32f30x_usart.c ****          requests:
1586:/home/user/Desktop/STM32-Projekte/FH-Vertibot/src/STM32F30x_StdPeriph_Driver/src/stm32f30x_usart.c ****          (#) USART_DMAReq_Tx: specifies the Tx buffer DMA transfer request.
1587:/home/user/Desktop/STM32-Projekte/FH-Vertibot/src/STM32F30x_StdPeriph_Driver/src/stm32f30x_usart.c ****          (#) USART_DMAReq_Rx: specifies the Rx buffer DMA transfer request.
1588:/home/user/Desktop/STM32-Projekte/FH-Vertibot/src/STM32F30x_StdPeriph_Driver/src/stm32f30x_usart.c ****     [..] In this Mode it is advised to use the following function:
1589:/home/user/Desktop/STM32-Projekte/FH-Vertibot/src/STM32F30x_StdPeriph_Driver/src/stm32f30x_usart.c ****          (+) void USART_DMACmd(USART_TypeDef* USARTx, uint16_t USART_DMAReq, 
1590:/home/user/Desktop/STM32-Projekte/FH-Vertibot/src/STM32F30x_StdPeriph_Driver/src/stm32f30x_usart.c ****              FunctionalState NewState).
1591:/home/user/Desktop/STM32-Projekte/FH-Vertibot/src/STM32F30x_StdPeriph_Driver/src/stm32f30x_usart.c **** @endverbatim
1592:/home/user/Desktop/STM32-Projekte/FH-Vertibot/src/STM32F30x_StdPeriph_Driver/src/stm32f30x_usart.c ****   * @{
1593:/home/user/Desktop/STM32-Projekte/FH-Vertibot/src/STM32F30x_StdPeriph_Driver/src/stm32f30x_usart.c ****   */
1594:/home/user/Desktop/STM32-Projekte/FH-Vertibot/src/STM32F30x_StdPeriph_Driver/src/stm32f30x_usart.c **** 
1595:/home/user/Desktop/STM32-Projekte/FH-Vertibot/src/STM32F30x_StdPeriph_Driver/src/stm32f30x_usart.c **** /**
1596:/home/user/Desktop/STM32-Projekte/FH-Vertibot/src/STM32F30x_StdPeriph_Driver/src/stm32f30x_usart.c ****   * @brief  Enables or disables the USART's DMA interface.
1597:/home/user/Desktop/STM32-Projekte/FH-Vertibot/src/STM32F30x_StdPeriph_Driver/src/stm32f30x_usart.c ****   * @param  USARTx: Select the USART peripheral. This parameter can be one of the 
1598:/home/user/Desktop/STM32-Projekte/FH-Vertibot/src/STM32F30x_StdPeriph_Driver/src/stm32f30x_usart.c ****   *         following values: USART1 or USART2 or USART3 or UART4.
1599:/home/user/Desktop/STM32-Projekte/FH-Vertibot/src/STM32F30x_StdPeriph_Driver/src/stm32f30x_usart.c ****   * @param  USART_DMAReq: specifies the DMA request.
1600:/home/user/Desktop/STM32-Projekte/FH-Vertibot/src/STM32F30x_StdPeriph_Driver/src/stm32f30x_usart.c ****   *         This parameter can be any combination of the following values:
1601:/home/user/Desktop/STM32-Projekte/FH-Vertibot/src/STM32F30x_StdPeriph_Driver/src/stm32f30x_usart.c ****   *         @arg USART_DMAReq_Tx: USART DMA transmit request
1602:/home/user/Desktop/STM32-Projekte/FH-Vertibot/src/STM32F30x_StdPeriph_Driver/src/stm32f30x_usart.c ****   *         @arg USART_DMAReq_Rx: USART DMA receive request
1603:/home/user/Desktop/STM32-Projekte/FH-Vertibot/src/STM32F30x_StdPeriph_Driver/src/stm32f30x_usart.c ****   * @param  NewState: new state of the DMA Request sources.
1604:/home/user/Desktop/STM32-Projekte/FH-Vertibot/src/STM32F30x_StdPeriph_Driver/src/stm32f30x_usart.c ****   *         This parameter can be: ENABLE or DISABLE.  
1605:/home/user/Desktop/STM32-Projekte/FH-Vertibot/src/STM32F30x_StdPeriph_Driver/src/stm32f30x_usart.c ****   * @retval None
1606:/home/user/Desktop/STM32-Projekte/FH-Vertibot/src/STM32F30x_StdPeriph_Driver/src/stm32f30x_usart.c ****   */
1607:/home/user/Desktop/STM32-Projekte/FH-Vertibot/src/STM32F30x_StdPeriph_Driver/src/stm32f30x_usart.c **** void USART_DMACmd(USART_TypeDef* USARTx, uint32_t USART_DMAReq, FunctionalState NewState)
1608:/home/user/Desktop/STM32-Projekte/FH-Vertibot/src/STM32F30x_StdPeriph_Driver/src/stm32f30x_usart.c **** {
 1388              		.loc 1 1608 0
 1389              		.cfi_startproc
 1390              		@ args = 0, pretend = 0, frame = 0
 1391              		@ frame_needed = 0, uses_anonymous_args = 0
 1392              		@ link register save eliminated.
 1393              	.LVL112:
1609:/home/user/Desktop/STM32-Projekte/FH-Vertibot/src/STM32F30x_StdPeriph_Driver/src/stm32f30x_usart.c ****   /* Check the parameters */
1610:/home/user/Desktop/STM32-Projekte/FH-Vertibot/src/STM32F30x_StdPeriph_Driver/src/stm32f30x_usart.c ****   assert_param(IS_USART_1234_PERIPH(USARTx));
1611:/home/user/Desktop/STM32-Projekte/FH-Vertibot/src/STM32F30x_StdPeriph_Driver/src/stm32f30x_usart.c ****   assert_param(IS_USART_DMAREQ(USART_DMAReq));  
1612:/home/user/Desktop/STM32-Projekte/FH-Vertibot/src/STM32F30x_StdPeriph_Driver/src/stm32f30x_usart.c ****   assert_param(IS_FUNCTIONAL_STATE(NewState)); 
1613:/home/user/Desktop/STM32-Projekte/FH-Vertibot/src/STM32F30x_StdPeriph_Driver/src/stm32f30x_usart.c **** 
1614:/home/user/Desktop/STM32-Projekte/FH-Vertibot/src/STM32F30x_StdPeriph_Driver/src/stm32f30x_usart.c ****   if (NewState != DISABLE)
1615:/home/user/Desktop/STM32-Projekte/FH-Vertibot/src/STM32F30x_StdPeriph_Driver/src/stm32f30x_usart.c ****   {
1616:/home/user/Desktop/STM32-Projekte/FH-Vertibot/src/STM32F30x_StdPeriph_Driver/src/stm32f30x_usart.c ****     /* Enable the DMA transfer for selected requests by setting the DMAT and/or
1617:/home/user/Desktop/STM32-Projekte/FH-Vertibot/src/STM32F30x_StdPeriph_Driver/src/stm32f30x_usart.c ****        DMAR bits in the USART CR3 register */
1618:/home/user/Desktop/STM32-Projekte/FH-Vertibot/src/STM32F30x_StdPeriph_Driver/src/stm32f30x_usart.c ****     USARTx->CR3 |= USART_DMAReq;
 1394              		.loc 1 1618 0
 1395 03dc 8368     		ldr	r3, [r0, #8]
1614:/home/user/Desktop/STM32-Projekte/FH-Vertibot/src/STM32F30x_StdPeriph_Driver/src/stm32f30x_usart.c ****   if (NewState != DISABLE)
 1396              		.loc 1 1614 0
 1397 03de 0AB1     		cbz	r2, .L119
 1398              		.loc 1 1618 0
 1399 03e0 1943     		orrs	r1, r1, r3
 1400              	.LVL113:
 1401 03e2 01E0     		b	.L121
 1402              	.LVL114:
 1403              	.L119:
1619:/home/user/Desktop/STM32-Projekte/FH-Vertibot/src/STM32F30x_StdPeriph_Driver/src/stm32f30x_usart.c ****   }
1620:/home/user/Desktop/STM32-Projekte/FH-Vertibot/src/STM32F30x_StdPeriph_Driver/src/stm32f30x_usart.c ****   else
1621:/home/user/Desktop/STM32-Projekte/FH-Vertibot/src/STM32F30x_StdPeriph_Driver/src/stm32f30x_usart.c ****   {
1622:/home/user/Desktop/STM32-Projekte/FH-Vertibot/src/STM32F30x_StdPeriph_Driver/src/stm32f30x_usart.c ****     /* Disable the DMA transfer for selected requests by clearing the DMAT and/or
1623:/home/user/Desktop/STM32-Projekte/FH-Vertibot/src/STM32F30x_StdPeriph_Driver/src/stm32f30x_usart.c ****        DMAR bits in the USART CR3 register */
1624:/home/user/Desktop/STM32-Projekte/FH-Vertibot/src/STM32F30x_StdPeriph_Driver/src/stm32f30x_usart.c ****     USARTx->CR3 &= (uint32_t)~USART_DMAReq;
 1404              		.loc 1 1624 0
 1405 03e4 23EA0101 		bic	r1, r3, r1
 1406              	.LVL115:
 1407              	.L121:
 1408 03e8 8160     		str	r1, [r0, #8]
 1409 03ea 7047     		bx	lr
 1410              		.cfi_endproc
 1411              	.LFE151:
 1413              		.align	1
 1414              		.global	USART_DMAReceptionErrorConfig
 1415              		.thumb
 1416              		.thumb_func
 1418              	USART_DMAReceptionErrorConfig:
 1419              	.LFB152:
1625:/home/user/Desktop/STM32-Projekte/FH-Vertibot/src/STM32F30x_StdPeriph_Driver/src/stm32f30x_usart.c ****   }
1626:/home/user/Desktop/STM32-Projekte/FH-Vertibot/src/STM32F30x_StdPeriph_Driver/src/stm32f30x_usart.c **** }
1627:/home/user/Desktop/STM32-Projekte/FH-Vertibot/src/STM32F30x_StdPeriph_Driver/src/stm32f30x_usart.c **** 
1628:/home/user/Desktop/STM32-Projekte/FH-Vertibot/src/STM32F30x_StdPeriph_Driver/src/stm32f30x_usart.c **** /**
1629:/home/user/Desktop/STM32-Projekte/FH-Vertibot/src/STM32F30x_StdPeriph_Driver/src/stm32f30x_usart.c ****   * @brief  Enables or disables the USART's DMA interface when reception error occurs.
1630:/home/user/Desktop/STM32-Projekte/FH-Vertibot/src/STM32F30x_StdPeriph_Driver/src/stm32f30x_usart.c ****   * @param  USARTx: Select the USART peripheral. This parameter can be one of the 
1631:/home/user/Desktop/STM32-Projekte/FH-Vertibot/src/STM32F30x_StdPeriph_Driver/src/stm32f30x_usart.c ****   *         following values: USART1 or USART2 or USART3 or UART4.
1632:/home/user/Desktop/STM32-Projekte/FH-Vertibot/src/STM32F30x_StdPeriph_Driver/src/stm32f30x_usart.c ****   * @param  USART_DMAOnError: specifies the DMA status in case of reception error.
1633:/home/user/Desktop/STM32-Projekte/FH-Vertibot/src/STM32F30x_StdPeriph_Driver/src/stm32f30x_usart.c ****   *         This parameter can be any combination of the following values:
1634:/home/user/Desktop/STM32-Projekte/FH-Vertibot/src/STM32F30x_StdPeriph_Driver/src/stm32f30x_usart.c ****   *         @arg USART_DMAOnError_Enable: DMA receive request enabled when the USART DMA  
1635:/home/user/Desktop/STM32-Projekte/FH-Vertibot/src/STM32F30x_StdPeriph_Driver/src/stm32f30x_usart.c ****   *          reception error is asserted.
1636:/home/user/Desktop/STM32-Projekte/FH-Vertibot/src/STM32F30x_StdPeriph_Driver/src/stm32f30x_usart.c ****   *         @arg USART_DMAOnError_Disable: DMA receive request disabled when the USART DMA 
1637:/home/user/Desktop/STM32-Projekte/FH-Vertibot/src/STM32F30x_StdPeriph_Driver/src/stm32f30x_usart.c ****   *          reception error is asserted.
1638:/home/user/Desktop/STM32-Projekte/FH-Vertibot/src/STM32F30x_StdPeriph_Driver/src/stm32f30x_usart.c ****   * @retval None
1639:/home/user/Desktop/STM32-Projekte/FH-Vertibot/src/STM32F30x_StdPeriph_Driver/src/stm32f30x_usart.c ****   */
1640:/home/user/Desktop/STM32-Projekte/FH-Vertibot/src/STM32F30x_StdPeriph_Driver/src/stm32f30x_usart.c **** void USART_DMAReceptionErrorConfig(USART_TypeDef* USARTx, uint32_t USART_DMAOnError)
1641:/home/user/Desktop/STM32-Projekte/FH-Vertibot/src/STM32F30x_StdPeriph_Driver/src/stm32f30x_usart.c **** {
 1420              		.loc 1 1641 0
 1421              		.cfi_startproc
 1422              		@ args = 0, pretend = 0, frame = 0
 1423              		@ frame_needed = 0, uses_anonymous_args = 0
 1424              		@ link register save eliminated.
 1425              	.LVL116:
1642:/home/user/Desktop/STM32-Projekte/FH-Vertibot/src/STM32F30x_StdPeriph_Driver/src/stm32f30x_usart.c ****   /* Check the parameters */
1643:/home/user/Desktop/STM32-Projekte/FH-Vertibot/src/STM32F30x_StdPeriph_Driver/src/stm32f30x_usart.c ****   assert_param(IS_USART_1234_PERIPH(USARTx));
1644:/home/user/Desktop/STM32-Projekte/FH-Vertibot/src/STM32F30x_StdPeriph_Driver/src/stm32f30x_usart.c ****   assert_param(IS_USART_DMAONERROR(USART_DMAOnError)); 
1645:/home/user/Desktop/STM32-Projekte/FH-Vertibot/src/STM32F30x_StdPeriph_Driver/src/stm32f30x_usart.c ****   
1646:/home/user/Desktop/STM32-Projekte/FH-Vertibot/src/STM32F30x_StdPeriph_Driver/src/stm32f30x_usart.c ****   /* Clear the DMA Reception error detection bit */
1647:/home/user/Desktop/STM32-Projekte/FH-Vertibot/src/STM32F30x_StdPeriph_Driver/src/stm32f30x_usart.c ****   USARTx->CR3 &= (uint32_t)~((uint32_t)USART_CR3_DDRE);
 1426              		.loc 1 1647 0
 1427 03ec 8368     		ldr	r3, [r0, #8]
 1428 03ee 23F40053 		bic	r3, r3, #8192
 1429 03f2 8360     		str	r3, [r0, #8]
1648:/home/user/Desktop/STM32-Projekte/FH-Vertibot/src/STM32F30x_StdPeriph_Driver/src/stm32f30x_usart.c ****   /* Set the new value for the DMA Reception error detection bit */
1649:/home/user/Desktop/STM32-Projekte/FH-Vertibot/src/STM32F30x_StdPeriph_Driver/src/stm32f30x_usart.c ****   USARTx->CR3 |= USART_DMAOnError;
 1430              		.loc 1 1649 0
 1431 03f4 8368     		ldr	r3, [r0, #8]
 1432 03f6 1943     		orrs	r1, r1, r3
 1433              	.LVL117:
 1434 03f8 8160     		str	r1, [r0, #8]
 1435 03fa 7047     		bx	lr
 1436              		.cfi_endproc
 1437              	.LFE152:
 1439              		.align	1
 1440              		.global	USART_ITConfig
 1441              		.thumb
 1442              		.thumb_func
 1444              	USART_ITConfig:
 1445              	.LFB153:
1650:/home/user/Desktop/STM32-Projekte/FH-Vertibot/src/STM32F30x_StdPeriph_Driver/src/stm32f30x_usart.c **** }
1651:/home/user/Desktop/STM32-Projekte/FH-Vertibot/src/STM32F30x_StdPeriph_Driver/src/stm32f30x_usart.c **** 
1652:/home/user/Desktop/STM32-Projekte/FH-Vertibot/src/STM32F30x_StdPeriph_Driver/src/stm32f30x_usart.c **** /**
1653:/home/user/Desktop/STM32-Projekte/FH-Vertibot/src/STM32F30x_StdPeriph_Driver/src/stm32f30x_usart.c ****   * @}
1654:/home/user/Desktop/STM32-Projekte/FH-Vertibot/src/STM32F30x_StdPeriph_Driver/src/stm32f30x_usart.c ****   */
1655:/home/user/Desktop/STM32-Projekte/FH-Vertibot/src/STM32F30x_StdPeriph_Driver/src/stm32f30x_usart.c ****   
1656:/home/user/Desktop/STM32-Projekte/FH-Vertibot/src/STM32F30x_StdPeriph_Driver/src/stm32f30x_usart.c **** /** @defgroup USART_Group12 Interrupts and flags management functions
1657:/home/user/Desktop/STM32-Projekte/FH-Vertibot/src/STM32F30x_StdPeriph_Driver/src/stm32f30x_usart.c ****  *  @brief   Interrupts and flags management functions 
1658:/home/user/Desktop/STM32-Projekte/FH-Vertibot/src/STM32F30x_StdPeriph_Driver/src/stm32f30x_usart.c ****  *
1659:/home/user/Desktop/STM32-Projekte/FH-Vertibot/src/STM32F30x_StdPeriph_Driver/src/stm32f30x_usart.c **** @verbatim   
1660:/home/user/Desktop/STM32-Projekte/FH-Vertibot/src/STM32F30x_StdPeriph_Driver/src/stm32f30x_usart.c ****  ===============================================================================
1661:/home/user/Desktop/STM32-Projekte/FH-Vertibot/src/STM32F30x_StdPeriph_Driver/src/stm32f30x_usart.c ****             ##### Interrupts and flags management functions #####
1662:/home/user/Desktop/STM32-Projekte/FH-Vertibot/src/STM32F30x_StdPeriph_Driver/src/stm32f30x_usart.c ****  ===============================================================================
1663:/home/user/Desktop/STM32-Projekte/FH-Vertibot/src/STM32F30x_StdPeriph_Driver/src/stm32f30x_usart.c ****     [..] This subsection provides a set of functions allowing to configure the 
1664:/home/user/Desktop/STM32-Projekte/FH-Vertibot/src/STM32F30x_StdPeriph_Driver/src/stm32f30x_usart.c ****          USART Interrupts sources, Requests and check or clear the flags or pending bits status. 
1665:/home/user/Desktop/STM32-Projekte/FH-Vertibot/src/STM32F30x_StdPeriph_Driver/src/stm32f30x_usart.c ****          The user should identify which mode will be used in his application to 
1666:/home/user/Desktop/STM32-Projekte/FH-Vertibot/src/STM32F30x_StdPeriph_Driver/src/stm32f30x_usart.c ****          manage the communication: Polling mode, Interrupt mode.
1667:/home/user/Desktop/STM32-Projekte/FH-Vertibot/src/STM32F30x_StdPeriph_Driver/src/stm32f30x_usart.c ****          
1668:/home/user/Desktop/STM32-Projekte/FH-Vertibot/src/STM32F30x_StdPeriph_Driver/src/stm32f30x_usart.c ****  *** Polling Mode ***
1669:/home/user/Desktop/STM32-Projekte/FH-Vertibot/src/STM32F30x_StdPeriph_Driver/src/stm32f30x_usart.c ****  ====================
1670:/home/user/Desktop/STM32-Projekte/FH-Vertibot/src/STM32F30x_StdPeriph_Driver/src/stm32f30x_usart.c ****     [..] In Polling Mode, the SPI communication can be managed by these flags:
1671:/home/user/Desktop/STM32-Projekte/FH-Vertibot/src/STM32F30x_StdPeriph_Driver/src/stm32f30x_usart.c ****          (#) USART_FLAG_REACK: to indicate the status of the Receive Enable 
1672:/home/user/Desktop/STM32-Projekte/FH-Vertibot/src/STM32F30x_StdPeriph_Driver/src/stm32f30x_usart.c ****              acknowledge flag
1673:/home/user/Desktop/STM32-Projekte/FH-Vertibot/src/STM32F30x_StdPeriph_Driver/src/stm32f30x_usart.c ****          (#) USART_FLAG_TEACK: to indicate the status of the Transmit Enable 
1674:/home/user/Desktop/STM32-Projekte/FH-Vertibot/src/STM32F30x_StdPeriph_Driver/src/stm32f30x_usart.c ****              acknowledge flag.
1675:/home/user/Desktop/STM32-Projekte/FH-Vertibot/src/STM32F30x_StdPeriph_Driver/src/stm32f30x_usart.c ****          (#) USART_FLAG_WUF: to indicate the status of the Wake up flag.
1676:/home/user/Desktop/STM32-Projekte/FH-Vertibot/src/STM32F30x_StdPeriph_Driver/src/stm32f30x_usart.c ****          (#) USART_FLAG_RWU: to indicate the status of the Receive Wake up flag.
1677:/home/user/Desktop/STM32-Projekte/FH-Vertibot/src/STM32F30x_StdPeriph_Driver/src/stm32f30x_usart.c ****          (#) USART_FLAG_SBK: to indicate the status of the Send Break flag.
1678:/home/user/Desktop/STM32-Projekte/FH-Vertibot/src/STM32F30x_StdPeriph_Driver/src/stm32f30x_usart.c ****          (#) USART_FLAG_CMF: to indicate the status of the Character match flag.
1679:/home/user/Desktop/STM32-Projekte/FH-Vertibot/src/STM32F30x_StdPeriph_Driver/src/stm32f30x_usart.c ****          (#) USART_FLAG_BUSY: to indicate the status of the Busy flag.
1680:/home/user/Desktop/STM32-Projekte/FH-Vertibot/src/STM32F30x_StdPeriph_Driver/src/stm32f30x_usart.c ****          (#) USART_FLAG_ABRF: to indicate the status of the Auto baud rate flag.
1681:/home/user/Desktop/STM32-Projekte/FH-Vertibot/src/STM32F30x_StdPeriph_Driver/src/stm32f30x_usart.c ****          (#) USART_FLAG_ABRE: to indicate the status of the Auto baud rate error flag.
1682:/home/user/Desktop/STM32-Projekte/FH-Vertibot/src/STM32F30x_StdPeriph_Driver/src/stm32f30x_usart.c ****          (#) USART_FLAG_EOBF: to indicate the status of the End of block flag.
1683:/home/user/Desktop/STM32-Projekte/FH-Vertibot/src/STM32F30x_StdPeriph_Driver/src/stm32f30x_usart.c ****          (#) USART_FLAG_RTOF: to indicate the status of the Receive time out flag.
1684:/home/user/Desktop/STM32-Projekte/FH-Vertibot/src/STM32F30x_StdPeriph_Driver/src/stm32f30x_usart.c ****          (#) USART_FLAG_nCTSS: to indicate the status of the Inverted nCTS input 
1685:/home/user/Desktop/STM32-Projekte/FH-Vertibot/src/STM32F30x_StdPeriph_Driver/src/stm32f30x_usart.c ****              bit status.
1686:/home/user/Desktop/STM32-Projekte/FH-Vertibot/src/STM32F30x_StdPeriph_Driver/src/stm32f30x_usart.c ****          (#) USART_FLAG_TXE: to indicate the status of the transmit buffer register.
1687:/home/user/Desktop/STM32-Projekte/FH-Vertibot/src/STM32F30x_StdPeriph_Driver/src/stm32f30x_usart.c ****          (#) USART_FLAG_RXNE: to indicate the status of the receive buffer register.
1688:/home/user/Desktop/STM32-Projekte/FH-Vertibot/src/STM32F30x_StdPeriph_Driver/src/stm32f30x_usart.c ****          (#) USART_FLAG_TC: to indicate the status of the transmit operation.
1689:/home/user/Desktop/STM32-Projekte/FH-Vertibot/src/STM32F30x_StdPeriph_Driver/src/stm32f30x_usart.c ****          (#) USART_FLAG_IDLE: to indicate the status of the Idle Line.
1690:/home/user/Desktop/STM32-Projekte/FH-Vertibot/src/STM32F30x_StdPeriph_Driver/src/stm32f30x_usart.c ****          (#) USART_FLAG_CTS: to indicate the status of the nCTS input.
1691:/home/user/Desktop/STM32-Projekte/FH-Vertibot/src/STM32F30x_StdPeriph_Driver/src/stm32f30x_usart.c ****          (#) USART_FLAG_LBD: to indicate the status of the LIN break detection.
1692:/home/user/Desktop/STM32-Projekte/FH-Vertibot/src/STM32F30x_StdPeriph_Driver/src/stm32f30x_usart.c ****          (#) USART_FLAG_NE: to indicate if a noise error occur.
1693:/home/user/Desktop/STM32-Projekte/FH-Vertibot/src/STM32F30x_StdPeriph_Driver/src/stm32f30x_usart.c ****          (#) USART_FLAG_FE: to indicate if a frame error occur.
1694:/home/user/Desktop/STM32-Projekte/FH-Vertibot/src/STM32F30x_StdPeriph_Driver/src/stm32f30x_usart.c ****          (#) USART_FLAG_PE: to indicate if a parity error occur.
1695:/home/user/Desktop/STM32-Projekte/FH-Vertibot/src/STM32F30x_StdPeriph_Driver/src/stm32f30x_usart.c ****          (#) USART_FLAG_ORE: to indicate if an Overrun error occur.
1696:/home/user/Desktop/STM32-Projekte/FH-Vertibot/src/STM32F30x_StdPeriph_Driver/src/stm32f30x_usart.c ****     [..] In this Mode it is advised to use the following functions:
1697:/home/user/Desktop/STM32-Projekte/FH-Vertibot/src/STM32F30x_StdPeriph_Driver/src/stm32f30x_usart.c ****          (+) FlagStatus USART_GetFlagStatus(USART_TypeDef* USARTx, uint16_t USART_FLAG).
1698:/home/user/Desktop/STM32-Projekte/FH-Vertibot/src/STM32F30x_StdPeriph_Driver/src/stm32f30x_usart.c ****          (+) void USART_ClearFlag(USART_TypeDef* USARTx, uint16_t USART_FLAG).
1699:/home/user/Desktop/STM32-Projekte/FH-Vertibot/src/STM32F30x_StdPeriph_Driver/src/stm32f30x_usart.c ****                
1700:/home/user/Desktop/STM32-Projekte/FH-Vertibot/src/STM32F30x_StdPeriph_Driver/src/stm32f30x_usart.c ****  *** Interrupt Mode ***
1701:/home/user/Desktop/STM32-Projekte/FH-Vertibot/src/STM32F30x_StdPeriph_Driver/src/stm32f30x_usart.c ****  ======================
1702:/home/user/Desktop/STM32-Projekte/FH-Vertibot/src/STM32F30x_StdPeriph_Driver/src/stm32f30x_usart.c ****     [..] In Interrupt Mode, the USART communication can be managed by 8 interrupt 
1703:/home/user/Desktop/STM32-Projekte/FH-Vertibot/src/STM32F30x_StdPeriph_Driver/src/stm32f30x_usart.c ****          sources and 10 pending bits:
1704:/home/user/Desktop/STM32-Projekte/FH-Vertibot/src/STM32F30x_StdPeriph_Driver/src/stm32f30x_usart.c ****          (+) Pending Bits:
1705:/home/user/Desktop/STM32-Projekte/FH-Vertibot/src/STM32F30x_StdPeriph_Driver/src/stm32f30x_usart.c ****              (##) USART_IT_WU: to indicate the status of the Wake up interrupt.
1706:/home/user/Desktop/STM32-Projekte/FH-Vertibot/src/STM32F30x_StdPeriph_Driver/src/stm32f30x_usart.c ****              (##) USART_IT_CM: to indicate the status of Character match interrupt.
1707:/home/user/Desktop/STM32-Projekte/FH-Vertibot/src/STM32F30x_StdPeriph_Driver/src/stm32f30x_usart.c ****              (##) USART_IT_EOB: to indicate the status of End of block interrupt.
1708:/home/user/Desktop/STM32-Projekte/FH-Vertibot/src/STM32F30x_StdPeriph_Driver/src/stm32f30x_usart.c ****              (##) USART_IT_RTO: to indicate the status of Receive time out interrupt.
1709:/home/user/Desktop/STM32-Projekte/FH-Vertibot/src/STM32F30x_StdPeriph_Driver/src/stm32f30x_usart.c ****              (##) USART_IT_CTS: to indicate the status of CTS change interrupt.
1710:/home/user/Desktop/STM32-Projekte/FH-Vertibot/src/STM32F30x_StdPeriph_Driver/src/stm32f30x_usart.c ****              (##) USART_IT_LBD: to indicate the status of LIN Break detection interrupt.
1711:/home/user/Desktop/STM32-Projekte/FH-Vertibot/src/STM32F30x_StdPeriph_Driver/src/stm32f30x_usart.c ****              (##) USART_IT_TC: to indicate the status of Transmission complete interrupt.
1712:/home/user/Desktop/STM32-Projekte/FH-Vertibot/src/STM32F30x_StdPeriph_Driver/src/stm32f30x_usart.c ****              (##) USART_IT_IDLE: to indicate the status of IDLE line detected interrupt.
1713:/home/user/Desktop/STM32-Projekte/FH-Vertibot/src/STM32F30x_StdPeriph_Driver/src/stm32f30x_usart.c ****              (##) USART_IT_ORE: to indicate the status of OverRun Error interrupt.
1714:/home/user/Desktop/STM32-Projekte/FH-Vertibot/src/STM32F30x_StdPeriph_Driver/src/stm32f30x_usart.c ****              (##) USART_IT_NE: to indicate the status of Noise Error interrupt.
1715:/home/user/Desktop/STM32-Projekte/FH-Vertibot/src/STM32F30x_StdPeriph_Driver/src/stm32f30x_usart.c ****              (##) USART_IT_FE: to indicate the status of Framing Error interrupt.
1716:/home/user/Desktop/STM32-Projekte/FH-Vertibot/src/STM32F30x_StdPeriph_Driver/src/stm32f30x_usart.c ****              (##) USART_IT_PE: to indicate the status of Parity Error interrupt.  
1717:/home/user/Desktop/STM32-Projekte/FH-Vertibot/src/STM32F30x_StdPeriph_Driver/src/stm32f30x_usart.c ****               
1718:/home/user/Desktop/STM32-Projekte/FH-Vertibot/src/STM32F30x_StdPeriph_Driver/src/stm32f30x_usart.c ****          (+) Interrupt Source:
1719:/home/user/Desktop/STM32-Projekte/FH-Vertibot/src/STM32F30x_StdPeriph_Driver/src/stm32f30x_usart.c ****              (##) USART_IT_WU: specifies the interrupt source for Wake up interrupt.
1720:/home/user/Desktop/STM32-Projekte/FH-Vertibot/src/STM32F30x_StdPeriph_Driver/src/stm32f30x_usart.c ****              (##) USART_IT_CM: specifies the interrupt source for Character match 
1721:/home/user/Desktop/STM32-Projekte/FH-Vertibot/src/STM32F30x_StdPeriph_Driver/src/stm32f30x_usart.c ****                   interrupt.
1722:/home/user/Desktop/STM32-Projekte/FH-Vertibot/src/STM32F30x_StdPeriph_Driver/src/stm32f30x_usart.c ****              (##) USART_IT_EOB: specifies the interrupt source for End of block
1723:/home/user/Desktop/STM32-Projekte/FH-Vertibot/src/STM32F30x_StdPeriph_Driver/src/stm32f30x_usart.c ****                   interrupt.
1724:/home/user/Desktop/STM32-Projekte/FH-Vertibot/src/STM32F30x_StdPeriph_Driver/src/stm32f30x_usart.c ****              (##) USART_IT_RTO: specifies the interrupt source for Receive time-out
1725:/home/user/Desktop/STM32-Projekte/FH-Vertibot/src/STM32F30x_StdPeriph_Driver/src/stm32f30x_usart.c ****                   interrupt.
1726:/home/user/Desktop/STM32-Projekte/FH-Vertibot/src/STM32F30x_StdPeriph_Driver/src/stm32f30x_usart.c ****              (##) USART_IT_CTS: specifies the interrupt source for CTS change interrupt.
1727:/home/user/Desktop/STM32-Projekte/FH-Vertibot/src/STM32F30x_StdPeriph_Driver/src/stm32f30x_usart.c ****              (##) USART_IT_LBD: specifies the interrupt source for LIN Break 
1728:/home/user/Desktop/STM32-Projekte/FH-Vertibot/src/STM32F30x_StdPeriph_Driver/src/stm32f30x_usart.c ****                   detection interrupt.
1729:/home/user/Desktop/STM32-Projekte/FH-Vertibot/src/STM32F30x_StdPeriph_Driver/src/stm32f30x_usart.c ****              (##) USART_IT_TXE: specifies the interrupt source for Tansmit Data 
1730:/home/user/Desktop/STM32-Projekte/FH-Vertibot/src/STM32F30x_StdPeriph_Driver/src/stm32f30x_usart.c ****                   Register empty interrupt.
1731:/home/user/Desktop/STM32-Projekte/FH-Vertibot/src/STM32F30x_StdPeriph_Driver/src/stm32f30x_usart.c ****              (##) USART_IT_TC: specifies the interrupt source for Transmission 
1732:/home/user/Desktop/STM32-Projekte/FH-Vertibot/src/STM32F30x_StdPeriph_Driver/src/stm32f30x_usart.c ****                   complete interrupt.
1733:/home/user/Desktop/STM32-Projekte/FH-Vertibot/src/STM32F30x_StdPeriph_Driver/src/stm32f30x_usart.c ****              (##) USART_IT_RXNE: specifies the interrupt source for Receive Data 
1734:/home/user/Desktop/STM32-Projekte/FH-Vertibot/src/STM32F30x_StdPeriph_Driver/src/stm32f30x_usart.c ****                   register not empty interrupt.
1735:/home/user/Desktop/STM32-Projekte/FH-Vertibot/src/STM32F30x_StdPeriph_Driver/src/stm32f30x_usart.c ****              (##) USART_IT_IDLE: specifies the interrupt source for Idle line 
1736:/home/user/Desktop/STM32-Projekte/FH-Vertibot/src/STM32F30x_StdPeriph_Driver/src/stm32f30x_usart.c ****                   detection interrupt.
1737:/home/user/Desktop/STM32-Projekte/FH-Vertibot/src/STM32F30x_StdPeriph_Driver/src/stm32f30x_usart.c ****              (##) USART_IT_PE: specifies the interrupt source for Parity Error interrupt.
1738:/home/user/Desktop/STM32-Projekte/FH-Vertibot/src/STM32F30x_StdPeriph_Driver/src/stm32f30x_usart.c ****              (##) USART_IT_ERR: specifies the interrupt source for Error interrupt
1739:/home/user/Desktop/STM32-Projekte/FH-Vertibot/src/STM32F30x_StdPeriph_Driver/src/stm32f30x_usart.c ****                   (Frame error, noise error, overrun error)
1740:/home/user/Desktop/STM32-Projekte/FH-Vertibot/src/STM32F30x_StdPeriph_Driver/src/stm32f30x_usart.c ****              -@@- Some parameters are coded in order to use them as interrupt 
1741:/home/user/Desktop/STM32-Projekte/FH-Vertibot/src/STM32F30x_StdPeriph_Driver/src/stm32f30x_usart.c ****                  source or as pending bits.
1742:/home/user/Desktop/STM32-Projekte/FH-Vertibot/src/STM32F30x_StdPeriph_Driver/src/stm32f30x_usart.c ****     [..] In this Mode it is advised to use the following functions:
1743:/home/user/Desktop/STM32-Projekte/FH-Vertibot/src/STM32F30x_StdPeriph_Driver/src/stm32f30x_usart.c ****          (+) void USART_ITConfig(USART_TypeDef* USARTx, uint16_t USART_IT, FunctionalState NewState
1744:/home/user/Desktop/STM32-Projekte/FH-Vertibot/src/STM32F30x_StdPeriph_Driver/src/stm32f30x_usart.c ****          (+) ITStatus USART_GetITStatus(USART_TypeDef* USARTx, uint16_t USART_IT).
1745:/home/user/Desktop/STM32-Projekte/FH-Vertibot/src/STM32F30x_StdPeriph_Driver/src/stm32f30x_usart.c ****          (+) void USART_ClearITPendingBit(USART_TypeDef* USARTx, uint16_t USART_IT).
1746:/home/user/Desktop/STM32-Projekte/FH-Vertibot/src/STM32F30x_StdPeriph_Driver/src/stm32f30x_usart.c **** 
1747:/home/user/Desktop/STM32-Projekte/FH-Vertibot/src/STM32F30x_StdPeriph_Driver/src/stm32f30x_usart.c **** @endverbatim
1748:/home/user/Desktop/STM32-Projekte/FH-Vertibot/src/STM32F30x_StdPeriph_Driver/src/stm32f30x_usart.c ****   * @{
1749:/home/user/Desktop/STM32-Projekte/FH-Vertibot/src/STM32F30x_StdPeriph_Driver/src/stm32f30x_usart.c ****   */
1750:/home/user/Desktop/STM32-Projekte/FH-Vertibot/src/STM32F30x_StdPeriph_Driver/src/stm32f30x_usart.c **** 
1751:/home/user/Desktop/STM32-Projekte/FH-Vertibot/src/STM32F30x_StdPeriph_Driver/src/stm32f30x_usart.c **** /**
1752:/home/user/Desktop/STM32-Projekte/FH-Vertibot/src/STM32F30x_StdPeriph_Driver/src/stm32f30x_usart.c ****   * @brief  Enables or disables the specified USART interrupts.
1753:/home/user/Desktop/STM32-Projekte/FH-Vertibot/src/STM32F30x_StdPeriph_Driver/src/stm32f30x_usart.c ****   * @param  USARTx: Select the USART peripheral. This parameter can be one of the 
1754:/home/user/Desktop/STM32-Projekte/FH-Vertibot/src/STM32F30x_StdPeriph_Driver/src/stm32f30x_usart.c ****   *         following values: USART1 or USART2 or USART3 or UART4 or UART5.
1755:/home/user/Desktop/STM32-Projekte/FH-Vertibot/src/STM32F30x_StdPeriph_Driver/src/stm32f30x_usart.c ****   * @param  USART_IT: specifies the USART interrupt sources to be enabled or disabled.
1756:/home/user/Desktop/STM32-Projekte/FH-Vertibot/src/STM32F30x_StdPeriph_Driver/src/stm32f30x_usart.c ****   *         This parameter can be one of the following values:
1757:/home/user/Desktop/STM32-Projekte/FH-Vertibot/src/STM32F30x_StdPeriph_Driver/src/stm32f30x_usart.c ****   *         @arg USART_IT_WU:  Wake up interrupt.
1758:/home/user/Desktop/STM32-Projekte/FH-Vertibot/src/STM32F30x_StdPeriph_Driver/src/stm32f30x_usart.c ****   *         @arg USART_IT_CM:  Character match interrupt.
1759:/home/user/Desktop/STM32-Projekte/FH-Vertibot/src/STM32F30x_StdPeriph_Driver/src/stm32f30x_usart.c ****   *         @arg USART_IT_EOB:  End of block interrupt.
1760:/home/user/Desktop/STM32-Projekte/FH-Vertibot/src/STM32F30x_StdPeriph_Driver/src/stm32f30x_usart.c ****   *         @arg USART_IT_RTO:  Receive time out interrupt.
1761:/home/user/Desktop/STM32-Projekte/FH-Vertibot/src/STM32F30x_StdPeriph_Driver/src/stm32f30x_usart.c ****   *         @arg USART_IT_CTS:  CTS change interrupt.
1762:/home/user/Desktop/STM32-Projekte/FH-Vertibot/src/STM32F30x_StdPeriph_Driver/src/stm32f30x_usart.c ****   *         @arg USART_IT_LBD:  LIN Break detection interrupt.
1763:/home/user/Desktop/STM32-Projekte/FH-Vertibot/src/STM32F30x_StdPeriph_Driver/src/stm32f30x_usart.c ****   *         @arg USART_IT_TXE:  Tansmit Data Register empty interrupt.
1764:/home/user/Desktop/STM32-Projekte/FH-Vertibot/src/STM32F30x_StdPeriph_Driver/src/stm32f30x_usart.c ****   *         @arg USART_IT_TC:  Transmission complete interrupt.
1765:/home/user/Desktop/STM32-Projekte/FH-Vertibot/src/STM32F30x_StdPeriph_Driver/src/stm32f30x_usart.c ****   *         @arg USART_IT_RXNE:  Receive Data register not empty interrupt.
1766:/home/user/Desktop/STM32-Projekte/FH-Vertibot/src/STM32F30x_StdPeriph_Driver/src/stm32f30x_usart.c ****   *         @arg USART_IT_IDLE:  Idle line detection interrupt.
1767:/home/user/Desktop/STM32-Projekte/FH-Vertibot/src/STM32F30x_StdPeriph_Driver/src/stm32f30x_usart.c ****   *         @arg USART_IT_PE:  Parity Error interrupt.
1768:/home/user/Desktop/STM32-Projekte/FH-Vertibot/src/STM32F30x_StdPeriph_Driver/src/stm32f30x_usart.c ****   *         @arg USART_IT_ERR:  Error interrupt(Frame error, noise error, overrun error)
1769:/home/user/Desktop/STM32-Projekte/FH-Vertibot/src/STM32F30x_StdPeriph_Driver/src/stm32f30x_usart.c ****   * @param  NewState: new state of the specified USARTx interrupts.
1770:/home/user/Desktop/STM32-Projekte/FH-Vertibot/src/STM32F30x_StdPeriph_Driver/src/stm32f30x_usart.c ****   *         This parameter can be: ENABLE or DISABLE.
1771:/home/user/Desktop/STM32-Projekte/FH-Vertibot/src/STM32F30x_StdPeriph_Driver/src/stm32f30x_usart.c ****   * @retval None
1772:/home/user/Desktop/STM32-Projekte/FH-Vertibot/src/STM32F30x_StdPeriph_Driver/src/stm32f30x_usart.c ****   */
1773:/home/user/Desktop/STM32-Projekte/FH-Vertibot/src/STM32F30x_StdPeriph_Driver/src/stm32f30x_usart.c **** void USART_ITConfig(USART_TypeDef* USARTx, uint32_t USART_IT, FunctionalState NewState)
1774:/home/user/Desktop/STM32-Projekte/FH-Vertibot/src/STM32F30x_StdPeriph_Driver/src/stm32f30x_usart.c **** {
 1446              		.loc 1 1774 0
 1447              		.cfi_startproc
 1448              		@ args = 0, pretend = 0, frame = 0
 1449              		@ frame_needed = 0, uses_anonymous_args = 0
 1450              	.LVL118:
1775:/home/user/Desktop/STM32-Projekte/FH-Vertibot/src/STM32F30x_StdPeriph_Driver/src/stm32f30x_usart.c ****   uint32_t usartreg = 0, itpos = 0, itmask = 0;
1776:/home/user/Desktop/STM32-Projekte/FH-Vertibot/src/STM32F30x_StdPeriph_Driver/src/stm32f30x_usart.c ****   uint32_t usartxbase = 0;
1777:/home/user/Desktop/STM32-Projekte/FH-Vertibot/src/STM32F30x_StdPeriph_Driver/src/stm32f30x_usart.c ****   /* Check the parameters */
1778:/home/user/Desktop/STM32-Projekte/FH-Vertibot/src/STM32F30x_StdPeriph_Driver/src/stm32f30x_usart.c ****   assert_param(IS_USART_ALL_PERIPH(USARTx));
1779:/home/user/Desktop/STM32-Projekte/FH-Vertibot/src/STM32F30x_StdPeriph_Driver/src/stm32f30x_usart.c ****   assert_param(IS_USART_CONFIG_IT(USART_IT));
1780:/home/user/Desktop/STM32-Projekte/FH-Vertibot/src/STM32F30x_StdPeriph_Driver/src/stm32f30x_usart.c ****   assert_param(IS_FUNCTIONAL_STATE(NewState));
1781:/home/user/Desktop/STM32-Projekte/FH-Vertibot/src/STM32F30x_StdPeriph_Driver/src/stm32f30x_usart.c ****   
1782:/home/user/Desktop/STM32-Projekte/FH-Vertibot/src/STM32F30x_StdPeriph_Driver/src/stm32f30x_usart.c ****   usartxbase = (uint32_t)USARTx;
1783:/home/user/Desktop/STM32-Projekte/FH-Vertibot/src/STM32F30x_StdPeriph_Driver/src/stm32f30x_usart.c **** 
1784:/home/user/Desktop/STM32-Projekte/FH-Vertibot/src/STM32F30x_StdPeriph_Driver/src/stm32f30x_usart.c ****   /* Get the USART register index */
1785:/home/user/Desktop/STM32-Projekte/FH-Vertibot/src/STM32F30x_StdPeriph_Driver/src/stm32f30x_usart.c ****   usartreg = (((uint16_t)USART_IT) >> 0x08);
 1451              		.loc 1 1785 0
 1452 03fc C1F30723 		ubfx	r3, r1, #8, #8
 1453              	.LVL119:
1774:/home/user/Desktop/STM32-Projekte/FH-Vertibot/src/STM32F30x_StdPeriph_Driver/src/stm32f30x_usart.c **** {
 1454              		.loc 1 1774 0
 1455 0400 10B5     		push	{r4, lr}
 1456              	.LCFI4:
 1457              		.cfi_def_cfa_offset 8
 1458              		.cfi_offset 4, -8
 1459              		.cfi_offset 14, -4
1786:/home/user/Desktop/STM32-Projekte/FH-Vertibot/src/STM32F30x_StdPeriph_Driver/src/stm32f30x_usart.c **** 
1787:/home/user/Desktop/STM32-Projekte/FH-Vertibot/src/STM32F30x_StdPeriph_Driver/src/stm32f30x_usart.c ****   /* Get the interrupt position */
1788:/home/user/Desktop/STM32-Projekte/FH-Vertibot/src/STM32F30x_StdPeriph_Driver/src/stm32f30x_usart.c ****   itpos = USART_IT & IT_MASK;
 1460              		.loc 1 1788 0
 1461 0402 C9B2     		uxtb	r1, r1
 1462              	.LVL120:
1789:/home/user/Desktop/STM32-Projekte/FH-Vertibot/src/STM32F30x_StdPeriph_Driver/src/stm32f30x_usart.c ****   itmask = (((uint32_t)0x01) << itpos);
 1463              		.loc 1 1789 0
 1464 0404 0124     		movs	r4, #1
1790:/home/user/Desktop/STM32-Projekte/FH-Vertibot/src/STM32F30x_StdPeriph_Driver/src/stm32f30x_usart.c **** 
1791:/home/user/Desktop/STM32-Projekte/FH-Vertibot/src/STM32F30x_StdPeriph_Driver/src/stm32f30x_usart.c ****   if (usartreg == 0x02) /* The IT is in CR2 register */
 1465              		.loc 1 1791 0
 1466 0406 022B     		cmp	r3, #2
1789:/home/user/Desktop/STM32-Projekte/FH-Vertibot/src/STM32F30x_StdPeriph_Driver/src/stm32f30x_usart.c ****   itmask = (((uint32_t)0x01) << itpos);
 1467              		.loc 1 1789 0
 1468 0408 04FA01F1 		lsl	r1, r4, r1
 1469              	.LVL121:
 1470              		.loc 1 1791 0
 1471 040c 01D1     		bne	.L124
1792:/home/user/Desktop/STM32-Projekte/FH-Vertibot/src/STM32F30x_StdPeriph_Driver/src/stm32f30x_usart.c ****   {
1793:/home/user/Desktop/STM32-Projekte/FH-Vertibot/src/STM32F30x_StdPeriph_Driver/src/stm32f30x_usart.c ****     usartxbase += 0x04;
 1472              		.loc 1 1793 0
 1473 040e 0430     		adds	r0, r0, #4
 1474              	.LVL122:
 1475 0410 02E0     		b	.L125
 1476              	.LVL123:
 1477              	.L124:
1794:/home/user/Desktop/STM32-Projekte/FH-Vertibot/src/STM32F30x_StdPeriph_Driver/src/stm32f30x_usart.c ****   }
1795:/home/user/Desktop/STM32-Projekte/FH-Vertibot/src/STM32F30x_StdPeriph_Driver/src/stm32f30x_usart.c ****   else if (usartreg == 0x03) /* The IT is in CR3 register */
 1478              		.loc 1 1795 0
 1479 0412 032B     		cmp	r3, #3
1796:/home/user/Desktop/STM32-Projekte/FH-Vertibot/src/STM32F30x_StdPeriph_Driver/src/stm32f30x_usart.c ****   {
1797:/home/user/Desktop/STM32-Projekte/FH-Vertibot/src/STM32F30x_StdPeriph_Driver/src/stm32f30x_usart.c ****     usartxbase += 0x08;
 1480              		.loc 1 1797 0
 1481 0414 08BF     		it	eq
 1482 0416 0830     		addeq	r0, r0, #8
 1483              	.LVL124:
 1484              	.L125:
1798:/home/user/Desktop/STM32-Projekte/FH-Vertibot/src/STM32F30x_StdPeriph_Driver/src/stm32f30x_usart.c ****   }
1799:/home/user/Desktop/STM32-Projekte/FH-Vertibot/src/STM32F30x_StdPeriph_Driver/src/stm32f30x_usart.c ****   else /* The IT is in CR1 register */
1800:/home/user/Desktop/STM32-Projekte/FH-Vertibot/src/STM32F30x_StdPeriph_Driver/src/stm32f30x_usart.c ****   {
1801:/home/user/Desktop/STM32-Projekte/FH-Vertibot/src/STM32F30x_StdPeriph_Driver/src/stm32f30x_usart.c ****   }
1802:/home/user/Desktop/STM32-Projekte/FH-Vertibot/src/STM32F30x_StdPeriph_Driver/src/stm32f30x_usart.c ****   if (NewState != DISABLE)
1803:/home/user/Desktop/STM32-Projekte/FH-Vertibot/src/STM32F30x_StdPeriph_Driver/src/stm32f30x_usart.c ****   {
1804:/home/user/Desktop/STM32-Projekte/FH-Vertibot/src/STM32F30x_StdPeriph_Driver/src/stm32f30x_usart.c ****     *(__IO uint32_t*)usartxbase  |= itmask;
 1485              		.loc 1 1804 0
 1486 0418 0368     		ldr	r3, [r0]
 1487              	.LVL125:
1802:/home/user/Desktop/STM32-Projekte/FH-Vertibot/src/STM32F30x_StdPeriph_Driver/src/stm32f30x_usart.c ****   if (NewState != DISABLE)
 1488              		.loc 1 1802 0
 1489 041a 0AB1     		cbz	r2, .L126
 1490              		.loc 1 1804 0
 1491 041c 1943     		orrs	r1, r1, r3
 1492              	.LVL126:
 1493 041e 01E0     		b	.L128
 1494              	.LVL127:
 1495              	.L126:
1805:/home/user/Desktop/STM32-Projekte/FH-Vertibot/src/STM32F30x_StdPeriph_Driver/src/stm32f30x_usart.c ****   }
1806:/home/user/Desktop/STM32-Projekte/FH-Vertibot/src/STM32F30x_StdPeriph_Driver/src/stm32f30x_usart.c ****   else
1807:/home/user/Desktop/STM32-Projekte/FH-Vertibot/src/STM32F30x_StdPeriph_Driver/src/stm32f30x_usart.c ****   {
1808:/home/user/Desktop/STM32-Projekte/FH-Vertibot/src/STM32F30x_StdPeriph_Driver/src/stm32f30x_usart.c ****     *(__IO uint32_t*)usartxbase &= ~itmask;
 1496              		.loc 1 1808 0
 1497 0420 23EA0101 		bic	r1, r3, r1
 1498              	.LVL128:
 1499              	.L128:
 1500 0424 0160     		str	r1, [r0]
 1501 0426 10BD     		pop	{r4, pc}
 1502              		.cfi_endproc
 1503              	.LFE153:
 1505              		.align	1
 1506              		.global	USART_RequestCmd
 1507              		.thumb
 1508              		.thumb_func
 1510              	USART_RequestCmd:
 1511              	.LFB154:
1809:/home/user/Desktop/STM32-Projekte/FH-Vertibot/src/STM32F30x_StdPeriph_Driver/src/stm32f30x_usart.c ****   }
1810:/home/user/Desktop/STM32-Projekte/FH-Vertibot/src/STM32F30x_StdPeriph_Driver/src/stm32f30x_usart.c **** }
1811:/home/user/Desktop/STM32-Projekte/FH-Vertibot/src/STM32F30x_StdPeriph_Driver/src/stm32f30x_usart.c **** 
1812:/home/user/Desktop/STM32-Projekte/FH-Vertibot/src/STM32F30x_StdPeriph_Driver/src/stm32f30x_usart.c **** /**
1813:/home/user/Desktop/STM32-Projekte/FH-Vertibot/src/STM32F30x_StdPeriph_Driver/src/stm32f30x_usart.c ****   * @brief  Enables the specified USART's Request.
1814:/home/user/Desktop/STM32-Projekte/FH-Vertibot/src/STM32F30x_StdPeriph_Driver/src/stm32f30x_usart.c ****   * @param  USARTx: Select the USART peripheral. This parameter can be one of the 
1815:/home/user/Desktop/STM32-Projekte/FH-Vertibot/src/STM32F30x_StdPeriph_Driver/src/stm32f30x_usart.c ****   *         following values: USART1 or USART2 or USART3 or UART4 or UART5.
1816:/home/user/Desktop/STM32-Projekte/FH-Vertibot/src/STM32F30x_StdPeriph_Driver/src/stm32f30x_usart.c ****   * @param  USART_Request: specifies the USART request.
1817:/home/user/Desktop/STM32-Projekte/FH-Vertibot/src/STM32F30x_StdPeriph_Driver/src/stm32f30x_usart.c ****   *         This parameter can be any combination of the following values:
1818:/home/user/Desktop/STM32-Projekte/FH-Vertibot/src/STM32F30x_StdPeriph_Driver/src/stm32f30x_usart.c ****   *         @arg USART_Request_TXFRQ: Transmit data flush ReQuest
1819:/home/user/Desktop/STM32-Projekte/FH-Vertibot/src/STM32F30x_StdPeriph_Driver/src/stm32f30x_usart.c ****   *         @arg USART_Request_RXFRQ: Receive data flush ReQuest
1820:/home/user/Desktop/STM32-Projekte/FH-Vertibot/src/STM32F30x_StdPeriph_Driver/src/stm32f30x_usart.c ****   *         @arg USART_Request_MMRQ: Mute Mode ReQuest
1821:/home/user/Desktop/STM32-Projekte/FH-Vertibot/src/STM32F30x_StdPeriph_Driver/src/stm32f30x_usart.c ****   *         @arg USART_Request_SBKRQ: Send Break ReQuest
1822:/home/user/Desktop/STM32-Projekte/FH-Vertibot/src/STM32F30x_StdPeriph_Driver/src/stm32f30x_usart.c ****   *         @arg USART_Request_ABRRQ: Auto Baud Rate ReQuest
1823:/home/user/Desktop/STM32-Projekte/FH-Vertibot/src/STM32F30x_StdPeriph_Driver/src/stm32f30x_usart.c ****   * @param  NewState: new state of the DMA interface when reception error occurs.
1824:/home/user/Desktop/STM32-Projekte/FH-Vertibot/src/STM32F30x_StdPeriph_Driver/src/stm32f30x_usart.c ****   *         This parameter can be: ENABLE or DISABLE.  
1825:/home/user/Desktop/STM32-Projekte/FH-Vertibot/src/STM32F30x_StdPeriph_Driver/src/stm32f30x_usart.c ****   * @retval None
1826:/home/user/Desktop/STM32-Projekte/FH-Vertibot/src/STM32F30x_StdPeriph_Driver/src/stm32f30x_usart.c ****   */
1827:/home/user/Desktop/STM32-Projekte/FH-Vertibot/src/STM32F30x_StdPeriph_Driver/src/stm32f30x_usart.c **** void USART_RequestCmd(USART_TypeDef* USARTx, uint32_t USART_Request, FunctionalState NewState)
1828:/home/user/Desktop/STM32-Projekte/FH-Vertibot/src/STM32F30x_StdPeriph_Driver/src/stm32f30x_usart.c **** {
 1512              		.loc 1 1828 0
 1513              		.cfi_startproc
 1514              		@ args = 0, pretend = 0, frame = 0
 1515              		@ frame_needed = 0, uses_anonymous_args = 0
 1516              		@ link register save eliminated.
 1517              	.LVL129:
1829:/home/user/Desktop/STM32-Projekte/FH-Vertibot/src/STM32F30x_StdPeriph_Driver/src/stm32f30x_usart.c ****   /* Check the parameters */
1830:/home/user/Desktop/STM32-Projekte/FH-Vertibot/src/STM32F30x_StdPeriph_Driver/src/stm32f30x_usart.c ****   assert_param(IS_USART_ALL_PERIPH(USARTx));
1831:/home/user/Desktop/STM32-Projekte/FH-Vertibot/src/STM32F30x_StdPeriph_Driver/src/stm32f30x_usart.c ****   assert_param(IS_USART_REQUEST(USART_Request));
1832:/home/user/Desktop/STM32-Projekte/FH-Vertibot/src/STM32F30x_StdPeriph_Driver/src/stm32f30x_usart.c ****   assert_param(IS_FUNCTIONAL_STATE(NewState)); 
1833:/home/user/Desktop/STM32-Projekte/FH-Vertibot/src/STM32F30x_StdPeriph_Driver/src/stm32f30x_usart.c **** 
1834:/home/user/Desktop/STM32-Projekte/FH-Vertibot/src/STM32F30x_StdPeriph_Driver/src/stm32f30x_usart.c ****   if (NewState != DISABLE)
1835:/home/user/Desktop/STM32-Projekte/FH-Vertibot/src/STM32F30x_StdPeriph_Driver/src/stm32f30x_usart.c ****   {
1836:/home/user/Desktop/STM32-Projekte/FH-Vertibot/src/STM32F30x_StdPeriph_Driver/src/stm32f30x_usart.c ****     /* Enable the USART ReQuest by setting the dedicated request bit in the RQR
1837:/home/user/Desktop/STM32-Projekte/FH-Vertibot/src/STM32F30x_StdPeriph_Driver/src/stm32f30x_usart.c ****        register.*/
1838:/home/user/Desktop/STM32-Projekte/FH-Vertibot/src/STM32F30x_StdPeriph_Driver/src/stm32f30x_usart.c ****     USARTx->RQR |= USART_Request;
 1518              		.loc 1 1838 0
 1519 0428 038B     		ldrh	r3, [r0, #24]
1834:/home/user/Desktop/STM32-Projekte/FH-Vertibot/src/STM32F30x_StdPeriph_Driver/src/stm32f30x_usart.c ****   if (NewState != DISABLE)
 1520              		.loc 1 1834 0
 1521 042a 12B1     		cbz	r2, .L130
 1522              		.loc 1 1838 0
 1523 042c 1943     		orrs	r1, r1, r3
 1524              	.LVL130:
 1525 042e 89B2     		uxth	r1, r1
 1526 0430 02E0     		b	.L132
 1527              	.LVL131:
 1528              	.L130:
1839:/home/user/Desktop/STM32-Projekte/FH-Vertibot/src/STM32F30x_StdPeriph_Driver/src/stm32f30x_usart.c ****   }
1840:/home/user/Desktop/STM32-Projekte/FH-Vertibot/src/STM32F30x_StdPeriph_Driver/src/stm32f30x_usart.c ****   else
1841:/home/user/Desktop/STM32-Projekte/FH-Vertibot/src/STM32F30x_StdPeriph_Driver/src/stm32f30x_usart.c ****   {
1842:/home/user/Desktop/STM32-Projekte/FH-Vertibot/src/STM32F30x_StdPeriph_Driver/src/stm32f30x_usart.c ****     /* Disable the USART ReQuest by clearing the dedicated request bit in the RQR
1843:/home/user/Desktop/STM32-Projekte/FH-Vertibot/src/STM32F30x_StdPeriph_Driver/src/stm32f30x_usart.c ****        register.*/
1844:/home/user/Desktop/STM32-Projekte/FH-Vertibot/src/STM32F30x_StdPeriph_Driver/src/stm32f30x_usart.c ****     USARTx->RQR &= (uint32_t)~USART_Request;
 1529              		.loc 1 1844 0
 1530 0432 9BB2     		uxth	r3, r3
 1531 0434 23EA0101 		bic	r1, r3, r1
 1532              	.LVL132:
 1533              	.L132:
 1534 0438 0183     		strh	r1, [r0, #24]	@ movhi
 1535 043a 7047     		bx	lr
 1536              		.cfi_endproc
 1537              	.LFE154:
 1539              		.align	1
 1540              		.global	USART_OverrunDetectionConfig
 1541              		.thumb
 1542              		.thumb_func
 1544              	USART_OverrunDetectionConfig:
 1545              	.LFB155:
1845:/home/user/Desktop/STM32-Projekte/FH-Vertibot/src/STM32F30x_StdPeriph_Driver/src/stm32f30x_usart.c ****   }
1846:/home/user/Desktop/STM32-Projekte/FH-Vertibot/src/STM32F30x_StdPeriph_Driver/src/stm32f30x_usart.c **** }
1847:/home/user/Desktop/STM32-Projekte/FH-Vertibot/src/STM32F30x_StdPeriph_Driver/src/stm32f30x_usart.c **** 
1848:/home/user/Desktop/STM32-Projekte/FH-Vertibot/src/STM32F30x_StdPeriph_Driver/src/stm32f30x_usart.c **** /**
1849:/home/user/Desktop/STM32-Projekte/FH-Vertibot/src/STM32F30x_StdPeriph_Driver/src/stm32f30x_usart.c ****   * @brief  Enables or disables the USART's Overrun detection.
1850:/home/user/Desktop/STM32-Projekte/FH-Vertibot/src/STM32F30x_StdPeriph_Driver/src/stm32f30x_usart.c ****   * @param  USARTx: Select the USART peripheral. This parameter can be one of the 
1851:/home/user/Desktop/STM32-Projekte/FH-Vertibot/src/STM32F30x_StdPeriph_Driver/src/stm32f30x_usart.c ****   *         following values: USART1 or USART2 or USART3 or UART4 or UART5.
1852:/home/user/Desktop/STM32-Projekte/FH-Vertibot/src/STM32F30x_StdPeriph_Driver/src/stm32f30x_usart.c ****   * @param  USART_OVRDetection: specifies the OVR detection status in case of OVR error.
1853:/home/user/Desktop/STM32-Projekte/FH-Vertibot/src/STM32F30x_StdPeriph_Driver/src/stm32f30x_usart.c ****   *         This parameter can be any combination of the following values:
1854:/home/user/Desktop/STM32-Projekte/FH-Vertibot/src/STM32F30x_StdPeriph_Driver/src/stm32f30x_usart.c ****   *         @arg USART_OVRDetection_Enable: OVR error detection enabled when the USART OVR error 
1855:/home/user/Desktop/STM32-Projekte/FH-Vertibot/src/STM32F30x_StdPeriph_Driver/src/stm32f30x_usart.c ****   *          is asserted.
1856:/home/user/Desktop/STM32-Projekte/FH-Vertibot/src/STM32F30x_StdPeriph_Driver/src/stm32f30x_usart.c ****   *         @arg USART_OVRDetection_Disable: OVR error detection disabled when the USART OVR error 
1857:/home/user/Desktop/STM32-Projekte/FH-Vertibot/src/STM32F30x_StdPeriph_Driver/src/stm32f30x_usart.c ****   *          is asserted.
1858:/home/user/Desktop/STM32-Projekte/FH-Vertibot/src/STM32F30x_StdPeriph_Driver/src/stm32f30x_usart.c ****   * @retval None
1859:/home/user/Desktop/STM32-Projekte/FH-Vertibot/src/STM32F30x_StdPeriph_Driver/src/stm32f30x_usart.c ****   */
1860:/home/user/Desktop/STM32-Projekte/FH-Vertibot/src/STM32F30x_StdPeriph_Driver/src/stm32f30x_usart.c **** void USART_OverrunDetectionConfig(USART_TypeDef* USARTx, uint32_t USART_OVRDetection)
1861:/home/user/Desktop/STM32-Projekte/FH-Vertibot/src/STM32F30x_StdPeriph_Driver/src/stm32f30x_usart.c **** {
 1546              		.loc 1 1861 0
 1547              		.cfi_startproc
 1548              		@ args = 0, pretend = 0, frame = 0
 1549              		@ frame_needed = 0, uses_anonymous_args = 0
 1550              		@ link register save eliminated.
 1551              	.LVL133:
1862:/home/user/Desktop/STM32-Projekte/FH-Vertibot/src/STM32F30x_StdPeriph_Driver/src/stm32f30x_usart.c ****   /* Check the parameters */
1863:/home/user/Desktop/STM32-Projekte/FH-Vertibot/src/STM32F30x_StdPeriph_Driver/src/stm32f30x_usart.c ****   assert_param(IS_USART_ALL_PERIPH(USARTx));
1864:/home/user/Desktop/STM32-Projekte/FH-Vertibot/src/STM32F30x_StdPeriph_Driver/src/stm32f30x_usart.c ****   assert_param(IS_USART_OVRDETECTION(USART_OVRDetection));
1865:/home/user/Desktop/STM32-Projekte/FH-Vertibot/src/STM32F30x_StdPeriph_Driver/src/stm32f30x_usart.c ****   
1866:/home/user/Desktop/STM32-Projekte/FH-Vertibot/src/STM32F30x_StdPeriph_Driver/src/stm32f30x_usart.c ****   /* Clear the OVR detection bit */
1867:/home/user/Desktop/STM32-Projekte/FH-Vertibot/src/STM32F30x_StdPeriph_Driver/src/stm32f30x_usart.c ****   USARTx->CR3 &= (uint32_t)~((uint32_t)USART_CR3_OVRDIS);
 1552              		.loc 1 1867 0
 1553 043c 8368     		ldr	r3, [r0, #8]
 1554 043e 23F48053 		bic	r3, r3, #4096
 1555 0442 8360     		str	r3, [r0, #8]
1868:/home/user/Desktop/STM32-Projekte/FH-Vertibot/src/STM32F30x_StdPeriph_Driver/src/stm32f30x_usart.c ****   /* Set the new value for the OVR detection bit */
1869:/home/user/Desktop/STM32-Projekte/FH-Vertibot/src/STM32F30x_StdPeriph_Driver/src/stm32f30x_usart.c ****   USARTx->CR3 |= USART_OVRDetection;
 1556              		.loc 1 1869 0
 1557 0444 8368     		ldr	r3, [r0, #8]
 1558 0446 1943     		orrs	r1, r1, r3
 1559              	.LVL134:
 1560 0448 8160     		str	r1, [r0, #8]
 1561 044a 7047     		bx	lr
 1562              		.cfi_endproc
 1563              	.LFE155:
 1565              		.align	1
 1566              		.global	USART_GetFlagStatus
 1567              		.thumb
 1568              		.thumb_func
 1570              	USART_GetFlagStatus:
 1571              	.LFB156:
1870:/home/user/Desktop/STM32-Projekte/FH-Vertibot/src/STM32F30x_StdPeriph_Driver/src/stm32f30x_usart.c **** }
1871:/home/user/Desktop/STM32-Projekte/FH-Vertibot/src/STM32F30x_StdPeriph_Driver/src/stm32f30x_usart.c **** 
1872:/home/user/Desktop/STM32-Projekte/FH-Vertibot/src/STM32F30x_StdPeriph_Driver/src/stm32f30x_usart.c **** /**
1873:/home/user/Desktop/STM32-Projekte/FH-Vertibot/src/STM32F30x_StdPeriph_Driver/src/stm32f30x_usart.c ****   * @brief  Checks whether the specified USART flag is set or not.
1874:/home/user/Desktop/STM32-Projekte/FH-Vertibot/src/STM32F30x_StdPeriph_Driver/src/stm32f30x_usart.c ****   * @param  USARTx: Select the USART peripheral. This parameter can be one of the 
1875:/home/user/Desktop/STM32-Projekte/FH-Vertibot/src/STM32F30x_StdPeriph_Driver/src/stm32f30x_usart.c ****   *         following values: USART1 or USART2 or USART3 or UART4 or UART5.
1876:/home/user/Desktop/STM32-Projekte/FH-Vertibot/src/STM32F30x_StdPeriph_Driver/src/stm32f30x_usart.c ****   * @param  USART_FLAG: specifies the flag to check.
1877:/home/user/Desktop/STM32-Projekte/FH-Vertibot/src/STM32F30x_StdPeriph_Driver/src/stm32f30x_usart.c ****   *         This parameter can be one of the following values:
1878:/home/user/Desktop/STM32-Projekte/FH-Vertibot/src/STM32F30x_StdPeriph_Driver/src/stm32f30x_usart.c ****   *         @arg USART_FLAG_REACK:  Receive Enable acknowledge flag.
1879:/home/user/Desktop/STM32-Projekte/FH-Vertibot/src/STM32F30x_StdPeriph_Driver/src/stm32f30x_usart.c ****   *         @arg USART_FLAG_TEACK:  Transmit Enable acknowledge flag.
1880:/home/user/Desktop/STM32-Projekte/FH-Vertibot/src/STM32F30x_StdPeriph_Driver/src/stm32f30x_usart.c ****   *         @arg USART_FLAG_WUF:  Wake up flag.
1881:/home/user/Desktop/STM32-Projekte/FH-Vertibot/src/STM32F30x_StdPeriph_Driver/src/stm32f30x_usart.c ****   *         @arg USART_FLAG_RWU:  Receive Wake up flag.
1882:/home/user/Desktop/STM32-Projekte/FH-Vertibot/src/STM32F30x_StdPeriph_Driver/src/stm32f30x_usart.c ****   *         @arg USART_FLAG_SBK:  Send Break flag.
1883:/home/user/Desktop/STM32-Projekte/FH-Vertibot/src/STM32F30x_StdPeriph_Driver/src/stm32f30x_usart.c ****   *         @arg USART_FLAG_CMF:  Character match flag.
1884:/home/user/Desktop/STM32-Projekte/FH-Vertibot/src/STM32F30x_StdPeriph_Driver/src/stm32f30x_usart.c ****   *         @arg USART_FLAG_BUSY:  Busy flag.
1885:/home/user/Desktop/STM32-Projekte/FH-Vertibot/src/STM32F30x_StdPeriph_Driver/src/stm32f30x_usart.c ****   *         @arg USART_FLAG_ABRF:  Auto baud rate flag.
1886:/home/user/Desktop/STM32-Projekte/FH-Vertibot/src/STM32F30x_StdPeriph_Driver/src/stm32f30x_usart.c ****   *         @arg USART_FLAG_ABRE:  Auto baud rate error flag.
1887:/home/user/Desktop/STM32-Projekte/FH-Vertibot/src/STM32F30x_StdPeriph_Driver/src/stm32f30x_usart.c ****   *         @arg USART_FLAG_EOBF:  End of block flag.
1888:/home/user/Desktop/STM32-Projekte/FH-Vertibot/src/STM32F30x_StdPeriph_Driver/src/stm32f30x_usart.c ****   *         @arg USART_FLAG_RTOF:  Receive time out flag.
1889:/home/user/Desktop/STM32-Projekte/FH-Vertibot/src/STM32F30x_StdPeriph_Driver/src/stm32f30x_usart.c ****   *         @arg USART_FLAG_nCTSS:  Inverted nCTS input bit status.
1890:/home/user/Desktop/STM32-Projekte/FH-Vertibot/src/STM32F30x_StdPeriph_Driver/src/stm32f30x_usart.c ****   *         @arg USART_FLAG_CTS:  CTS Change flag.
1891:/home/user/Desktop/STM32-Projekte/FH-Vertibot/src/STM32F30x_StdPeriph_Driver/src/stm32f30x_usart.c ****   *         @arg USART_FLAG_LBD:  LIN Break detection flag.
1892:/home/user/Desktop/STM32-Projekte/FH-Vertibot/src/STM32F30x_StdPeriph_Driver/src/stm32f30x_usart.c ****   *         @arg USART_FLAG_TXE:  Transmit data register empty flag.
1893:/home/user/Desktop/STM32-Projekte/FH-Vertibot/src/STM32F30x_StdPeriph_Driver/src/stm32f30x_usart.c ****   *         @arg USART_FLAG_TC:  Transmission Complete flag.
1894:/home/user/Desktop/STM32-Projekte/FH-Vertibot/src/STM32F30x_StdPeriph_Driver/src/stm32f30x_usart.c ****   *         @arg USART_FLAG_RXNE:  Receive data register not empty flag.
1895:/home/user/Desktop/STM32-Projekte/FH-Vertibot/src/STM32F30x_StdPeriph_Driver/src/stm32f30x_usart.c ****   *         @arg USART_FLAG_IDLE:  Idle Line detection flag.
1896:/home/user/Desktop/STM32-Projekte/FH-Vertibot/src/STM32F30x_StdPeriph_Driver/src/stm32f30x_usart.c ****   *         @arg USART_FLAG_ORE:  OverRun Error flag.
1897:/home/user/Desktop/STM32-Projekte/FH-Vertibot/src/STM32F30x_StdPeriph_Driver/src/stm32f30x_usart.c ****   *         @arg USART_FLAG_NE:  Noise Error flag.
1898:/home/user/Desktop/STM32-Projekte/FH-Vertibot/src/STM32F30x_StdPeriph_Driver/src/stm32f30x_usart.c ****   *         @arg USART_FLAG_FE:  Framing Error flag.
1899:/home/user/Desktop/STM32-Projekte/FH-Vertibot/src/STM32F30x_StdPeriph_Driver/src/stm32f30x_usart.c ****   *         @arg USART_FLAG_PE:  Parity Error flag.
1900:/home/user/Desktop/STM32-Projekte/FH-Vertibot/src/STM32F30x_StdPeriph_Driver/src/stm32f30x_usart.c ****   * @retval The new state of USART_FLAG (SET or RESET).
1901:/home/user/Desktop/STM32-Projekte/FH-Vertibot/src/STM32F30x_StdPeriph_Driver/src/stm32f30x_usart.c ****   */
1902:/home/user/Desktop/STM32-Projekte/FH-Vertibot/src/STM32F30x_StdPeriph_Driver/src/stm32f30x_usart.c **** FlagStatus USART_GetFlagStatus(USART_TypeDef* USARTx, uint32_t USART_FLAG)
1903:/home/user/Desktop/STM32-Projekte/FH-Vertibot/src/STM32F30x_StdPeriph_Driver/src/stm32f30x_usart.c **** {
 1572              		.loc 1 1903 0
 1573              		.cfi_startproc
 1574              		@ args = 0, pretend = 0, frame = 0
 1575              		@ frame_needed = 0, uses_anonymous_args = 0
 1576              		@ link register save eliminated.
 1577              	.LVL135:
1904:/home/user/Desktop/STM32-Projekte/FH-Vertibot/src/STM32F30x_StdPeriph_Driver/src/stm32f30x_usart.c ****   FlagStatus bitstatus = RESET;
1905:/home/user/Desktop/STM32-Projekte/FH-Vertibot/src/STM32F30x_StdPeriph_Driver/src/stm32f30x_usart.c ****   /* Check the parameters */
1906:/home/user/Desktop/STM32-Projekte/FH-Vertibot/src/STM32F30x_StdPeriph_Driver/src/stm32f30x_usart.c ****   assert_param(IS_USART_ALL_PERIPH(USARTx));
1907:/home/user/Desktop/STM32-Projekte/FH-Vertibot/src/STM32F30x_StdPeriph_Driver/src/stm32f30x_usart.c ****   assert_param(IS_USART_FLAG(USART_FLAG));
1908:/home/user/Desktop/STM32-Projekte/FH-Vertibot/src/STM32F30x_StdPeriph_Driver/src/stm32f30x_usart.c ****   
1909:/home/user/Desktop/STM32-Projekte/FH-Vertibot/src/STM32F30x_StdPeriph_Driver/src/stm32f30x_usart.c ****   if ((USARTx->ISR & USART_FLAG) != (uint16_t)RESET)
 1578              		.loc 1 1909 0
 1579 044c C369     		ldr	r3, [r0, #28]
 1580              	.LVL136:
 1581 044e 1942     		tst	r1, r3
1910:/home/user/Desktop/STM32-Projekte/FH-Vertibot/src/STM32F30x_StdPeriph_Driver/src/stm32f30x_usart.c ****   {
1911:/home/user/Desktop/STM32-Projekte/FH-Vertibot/src/STM32F30x_StdPeriph_Driver/src/stm32f30x_usart.c ****     bitstatus = SET;
1912:/home/user/Desktop/STM32-Projekte/FH-Vertibot/src/STM32F30x_StdPeriph_Driver/src/stm32f30x_usart.c ****   }
1913:/home/user/Desktop/STM32-Projekte/FH-Vertibot/src/STM32F30x_StdPeriph_Driver/src/stm32f30x_usart.c ****   else
1914:/home/user/Desktop/STM32-Projekte/FH-Vertibot/src/STM32F30x_StdPeriph_Driver/src/stm32f30x_usart.c ****   {
1915:/home/user/Desktop/STM32-Projekte/FH-Vertibot/src/STM32F30x_StdPeriph_Driver/src/stm32f30x_usart.c ****     bitstatus = RESET;
1916:/home/user/Desktop/STM32-Projekte/FH-Vertibot/src/STM32F30x_StdPeriph_Driver/src/stm32f30x_usart.c ****   }
1917:/home/user/Desktop/STM32-Projekte/FH-Vertibot/src/STM32F30x_StdPeriph_Driver/src/stm32f30x_usart.c ****   return bitstatus;
1918:/home/user/Desktop/STM32-Projekte/FH-Vertibot/src/STM32F30x_StdPeriph_Driver/src/stm32f30x_usart.c **** }
 1582              		.loc 1 1918 0
 1583 0450 0CBF     		ite	eq
 1584 0452 0020     		moveq	r0, #0
 1585 0454 0120     		movne	r0, #1
 1586              	.LVL137:
 1587 0456 7047     		bx	lr
 1588              		.cfi_endproc
 1589              	.LFE156:
 1591              		.align	1
 1592              		.global	USART_ClearFlag
 1593              		.thumb
 1594              		.thumb_func
 1596              	USART_ClearFlag:
 1597              	.LFB157:
1919:/home/user/Desktop/STM32-Projekte/FH-Vertibot/src/STM32F30x_StdPeriph_Driver/src/stm32f30x_usart.c **** 
1920:/home/user/Desktop/STM32-Projekte/FH-Vertibot/src/STM32F30x_StdPeriph_Driver/src/stm32f30x_usart.c **** /**
1921:/home/user/Desktop/STM32-Projekte/FH-Vertibot/src/STM32F30x_StdPeriph_Driver/src/stm32f30x_usart.c ****   * @brief  Clears the USARTx's pending flags.
1922:/home/user/Desktop/STM32-Projekte/FH-Vertibot/src/STM32F30x_StdPeriph_Driver/src/stm32f30x_usart.c ****   * @param  USARTx: Select the USART peripheral. This parameter can be one of the 
1923:/home/user/Desktop/STM32-Projekte/FH-Vertibot/src/STM32F30x_StdPeriph_Driver/src/stm32f30x_usart.c ****   *         following values: USART1 or USART2 or USART3 or UART4 or UART5.
1924:/home/user/Desktop/STM32-Projekte/FH-Vertibot/src/STM32F30x_StdPeriph_Driver/src/stm32f30x_usart.c ****   * @param  USART_FLAG: specifies the flag to clear.
1925:/home/user/Desktop/STM32-Projekte/FH-Vertibot/src/STM32F30x_StdPeriph_Driver/src/stm32f30x_usart.c ****   *         This parameter can be any combination of the following values:
1926:/home/user/Desktop/STM32-Projekte/FH-Vertibot/src/STM32F30x_StdPeriph_Driver/src/stm32f30x_usart.c ****   *         @arg USART_FLAG_WUF:  Wake up flag.
1927:/home/user/Desktop/STM32-Projekte/FH-Vertibot/src/STM32F30x_StdPeriph_Driver/src/stm32f30x_usart.c ****   *         @arg USART_FLAG_CMF:  Character match flag.
1928:/home/user/Desktop/STM32-Projekte/FH-Vertibot/src/STM32F30x_StdPeriph_Driver/src/stm32f30x_usart.c ****   *         @arg USART_FLAG_EOBF:  End of block flag.
1929:/home/user/Desktop/STM32-Projekte/FH-Vertibot/src/STM32F30x_StdPeriph_Driver/src/stm32f30x_usart.c ****   *         @arg USART_FLAG_RTOF:  Receive time out flag.
1930:/home/user/Desktop/STM32-Projekte/FH-Vertibot/src/STM32F30x_StdPeriph_Driver/src/stm32f30x_usart.c ****   *         @arg USART_FLAG_CTS:  CTS Change flag.
1931:/home/user/Desktop/STM32-Projekte/FH-Vertibot/src/STM32F30x_StdPeriph_Driver/src/stm32f30x_usart.c ****   *         @arg USART_FLAG_LBD:  LIN Break detection flag.
1932:/home/user/Desktop/STM32-Projekte/FH-Vertibot/src/STM32F30x_StdPeriph_Driver/src/stm32f30x_usart.c ****   *         @arg USART_FLAG_TC:  Transmission Complete flag.
1933:/home/user/Desktop/STM32-Projekte/FH-Vertibot/src/STM32F30x_StdPeriph_Driver/src/stm32f30x_usart.c ****   *         @arg USART_FLAG_IDLE:  IDLE line detected flag.
1934:/home/user/Desktop/STM32-Projekte/FH-Vertibot/src/STM32F30x_StdPeriph_Driver/src/stm32f30x_usart.c ****   *         @arg USART_FLAG_ORE:  OverRun Error flag.
1935:/home/user/Desktop/STM32-Projekte/FH-Vertibot/src/STM32F30x_StdPeriph_Driver/src/stm32f30x_usart.c ****   *         @arg USART_FLAG_NE: Noise Error flag.
1936:/home/user/Desktop/STM32-Projekte/FH-Vertibot/src/STM32F30x_StdPeriph_Driver/src/stm32f30x_usart.c ****   *         @arg USART_FLAG_FE: Framing Error flag.
1937:/home/user/Desktop/STM32-Projekte/FH-Vertibot/src/STM32F30x_StdPeriph_Driver/src/stm32f30x_usart.c ****   *         @arg USART_FLAG_PE:   Parity Errorflag.
1938:/home/user/Desktop/STM32-Projekte/FH-Vertibot/src/STM32F30x_StdPeriph_Driver/src/stm32f30x_usart.c ****   *
1939:/home/user/Desktop/STM32-Projekte/FH-Vertibot/src/STM32F30x_StdPeriph_Driver/src/stm32f30x_usart.c ****   * @note
1940:/home/user/Desktop/STM32-Projekte/FH-Vertibot/src/STM32F30x_StdPeriph_Driver/src/stm32f30x_usart.c ****   *   - RXNE pending bit is cleared by a read to the USART_RDR register 
1941:/home/user/Desktop/STM32-Projekte/FH-Vertibot/src/STM32F30x_StdPeriph_Driver/src/stm32f30x_usart.c ****   *     (USART_ReceiveData()) or by writing 1 to the RXFRQ in the register USART_RQR
1942:/home/user/Desktop/STM32-Projekte/FH-Vertibot/src/STM32F30x_StdPeriph_Driver/src/stm32f30x_usart.c ****   *     (USART_RequestCmd()).
1943:/home/user/Desktop/STM32-Projekte/FH-Vertibot/src/STM32F30x_StdPeriph_Driver/src/stm32f30x_usart.c ****   *   - TC flag can be also cleared by software sequence: a read operation to 
1944:/home/user/Desktop/STM32-Projekte/FH-Vertibot/src/STM32F30x_StdPeriph_Driver/src/stm32f30x_usart.c ****   *     USART_SR register (USART_GetFlagStatus()) followed by a write operation
1945:/home/user/Desktop/STM32-Projekte/FH-Vertibot/src/STM32F30x_StdPeriph_Driver/src/stm32f30x_usart.c ****   *     to USART_TDR register (USART_SendData()).
1946:/home/user/Desktop/STM32-Projekte/FH-Vertibot/src/STM32F30x_StdPeriph_Driver/src/stm32f30x_usart.c ****   *   - TXE flag is cleared by a write to the USART_TDR register 
1947:/home/user/Desktop/STM32-Projekte/FH-Vertibot/src/STM32F30x_StdPeriph_Driver/src/stm32f30x_usart.c ****   *     (USART_SendData()) or by writing 1 to the TXFRQ in the register USART_RQR
1948:/home/user/Desktop/STM32-Projekte/FH-Vertibot/src/STM32F30x_StdPeriph_Driver/src/stm32f30x_usart.c ****   *     (USART_RequestCmd()).
1949:/home/user/Desktop/STM32-Projekte/FH-Vertibot/src/STM32F30x_StdPeriph_Driver/src/stm32f30x_usart.c ****   *   - SBKF flag is cleared by 1 to the SBKRQ in the register USART_RQR
1950:/home/user/Desktop/STM32-Projekte/FH-Vertibot/src/STM32F30x_StdPeriph_Driver/src/stm32f30x_usart.c ****   *     (USART_RequestCmd()).
1951:/home/user/Desktop/STM32-Projekte/FH-Vertibot/src/STM32F30x_StdPeriph_Driver/src/stm32f30x_usart.c ****   * @retval None
1952:/home/user/Desktop/STM32-Projekte/FH-Vertibot/src/STM32F30x_StdPeriph_Driver/src/stm32f30x_usart.c ****   */
1953:/home/user/Desktop/STM32-Projekte/FH-Vertibot/src/STM32F30x_StdPeriph_Driver/src/stm32f30x_usart.c **** void USART_ClearFlag(USART_TypeDef* USARTx, uint32_t USART_FLAG)
1954:/home/user/Desktop/STM32-Projekte/FH-Vertibot/src/STM32F30x_StdPeriph_Driver/src/stm32f30x_usart.c **** {
 1598              		.loc 1 1954 0
 1599              		.cfi_startproc
 1600              		@ args = 0, pretend = 0, frame = 0
 1601              		@ frame_needed = 0, uses_anonymous_args = 0
 1602              		@ link register save eliminated.
 1603              	.LVL138:
1955:/home/user/Desktop/STM32-Projekte/FH-Vertibot/src/STM32F30x_StdPeriph_Driver/src/stm32f30x_usart.c ****   /* Check the parameters */
1956:/home/user/Desktop/STM32-Projekte/FH-Vertibot/src/STM32F30x_StdPeriph_Driver/src/stm32f30x_usart.c ****   assert_param(IS_USART_ALL_PERIPH(USARTx));
1957:/home/user/Desktop/STM32-Projekte/FH-Vertibot/src/STM32F30x_StdPeriph_Driver/src/stm32f30x_usart.c ****   assert_param(IS_USART_CLEAR_FLAG(USART_FLAG));
1958:/home/user/Desktop/STM32-Projekte/FH-Vertibot/src/STM32F30x_StdPeriph_Driver/src/stm32f30x_usart.c ****      
1959:/home/user/Desktop/STM32-Projekte/FH-Vertibot/src/STM32F30x_StdPeriph_Driver/src/stm32f30x_usart.c ****   USARTx->ICR = USART_FLAG;
 1604              		.loc 1 1959 0
 1605 0458 0162     		str	r1, [r0, #32]
 1606 045a 7047     		bx	lr
 1607              		.cfi_endproc
 1608              	.LFE157:
 1610              		.align	1
 1611              		.global	USART_GetITStatus
 1612              		.thumb
 1613              		.thumb_func
 1615              	USART_GetITStatus:
 1616              	.LFB158:
1960:/home/user/Desktop/STM32-Projekte/FH-Vertibot/src/STM32F30x_StdPeriph_Driver/src/stm32f30x_usart.c **** }
1961:/home/user/Desktop/STM32-Projekte/FH-Vertibot/src/STM32F30x_StdPeriph_Driver/src/stm32f30x_usart.c **** 
1962:/home/user/Desktop/STM32-Projekte/FH-Vertibot/src/STM32F30x_StdPeriph_Driver/src/stm32f30x_usart.c **** /**
1963:/home/user/Desktop/STM32-Projekte/FH-Vertibot/src/STM32F30x_StdPeriph_Driver/src/stm32f30x_usart.c ****   * @brief  Checks whether the specified USART interrupt has occurred or not.
1964:/home/user/Desktop/STM32-Projekte/FH-Vertibot/src/STM32F30x_StdPeriph_Driver/src/stm32f30x_usart.c ****   * @param  USARTx: Select the USART peripheral. This parameter can be one of the 
1965:/home/user/Desktop/STM32-Projekte/FH-Vertibot/src/STM32F30x_StdPeriph_Driver/src/stm32f30x_usart.c ****   *         following values: USART1 or USART2 or USART3 or UART4 or UART5.
1966:/home/user/Desktop/STM32-Projekte/FH-Vertibot/src/STM32F30x_StdPeriph_Driver/src/stm32f30x_usart.c ****   * @param  USART_IT: specifies the USART interrupt source to check.
1967:/home/user/Desktop/STM32-Projekte/FH-Vertibot/src/STM32F30x_StdPeriph_Driver/src/stm32f30x_usart.c ****   *         This parameter can be one of the following values:
1968:/home/user/Desktop/STM32-Projekte/FH-Vertibot/src/STM32F30x_StdPeriph_Driver/src/stm32f30x_usart.c ****   *         @arg USART_IT_WU:  Wake up interrupt.
1969:/home/user/Desktop/STM32-Projekte/FH-Vertibot/src/STM32F30x_StdPeriph_Driver/src/stm32f30x_usart.c ****   *         @arg USART_IT_CM:  Character match interrupt.
1970:/home/user/Desktop/STM32-Projekte/FH-Vertibot/src/STM32F30x_StdPeriph_Driver/src/stm32f30x_usart.c ****   *         @arg USART_IT_EOB:  End of block interrupt.
1971:/home/user/Desktop/STM32-Projekte/FH-Vertibot/src/STM32F30x_StdPeriph_Driver/src/stm32f30x_usart.c ****   *         @arg USART_IT_RTO:  Receive time out interrupt.
1972:/home/user/Desktop/STM32-Projekte/FH-Vertibot/src/STM32F30x_StdPeriph_Driver/src/stm32f30x_usart.c ****   *         @arg USART_IT_CTS:  CTS change interrupt.
1973:/home/user/Desktop/STM32-Projekte/FH-Vertibot/src/STM32F30x_StdPeriph_Driver/src/stm32f30x_usart.c ****   *         @arg USART_IT_LBD:  LIN Break detection interrupt.
1974:/home/user/Desktop/STM32-Projekte/FH-Vertibot/src/STM32F30x_StdPeriph_Driver/src/stm32f30x_usart.c ****   *         @arg USART_IT_TXE:  Tansmit Data Register empty interrupt.
1975:/home/user/Desktop/STM32-Projekte/FH-Vertibot/src/STM32F30x_StdPeriph_Driver/src/stm32f30x_usart.c ****   *         @arg USART_IT_TC:  Transmission complete interrupt.
1976:/home/user/Desktop/STM32-Projekte/FH-Vertibot/src/STM32F30x_StdPeriph_Driver/src/stm32f30x_usart.c ****   *         @arg USART_IT_RXNE:  Receive Data register not empty interrupt.
1977:/home/user/Desktop/STM32-Projekte/FH-Vertibot/src/STM32F30x_StdPeriph_Driver/src/stm32f30x_usart.c ****   *         @arg USART_IT_IDLE:  Idle line detection interrupt.
1978:/home/user/Desktop/STM32-Projekte/FH-Vertibot/src/STM32F30x_StdPeriph_Driver/src/stm32f30x_usart.c ****   *         @arg USART_IT_ORE:  OverRun Error interrupt.
1979:/home/user/Desktop/STM32-Projekte/FH-Vertibot/src/STM32F30x_StdPeriph_Driver/src/stm32f30x_usart.c ****   *         @arg USART_IT_NE:  Noise Error interrupt.
1980:/home/user/Desktop/STM32-Projekte/FH-Vertibot/src/STM32F30x_StdPeriph_Driver/src/stm32f30x_usart.c ****   *         @arg USART_IT_FE:  Framing Error interrupt.
1981:/home/user/Desktop/STM32-Projekte/FH-Vertibot/src/STM32F30x_StdPeriph_Driver/src/stm32f30x_usart.c ****   *         @arg USART_IT_PE:  Parity Error interrupt.
1982:/home/user/Desktop/STM32-Projekte/FH-Vertibot/src/STM32F30x_StdPeriph_Driver/src/stm32f30x_usart.c ****   * @retval The new state of USART_IT (SET or RESET).
1983:/home/user/Desktop/STM32-Projekte/FH-Vertibot/src/STM32F30x_StdPeriph_Driver/src/stm32f30x_usart.c ****   */
1984:/home/user/Desktop/STM32-Projekte/FH-Vertibot/src/STM32F30x_StdPeriph_Driver/src/stm32f30x_usart.c **** ITStatus USART_GetITStatus(USART_TypeDef* USARTx, uint32_t USART_IT)
1985:/home/user/Desktop/STM32-Projekte/FH-Vertibot/src/STM32F30x_StdPeriph_Driver/src/stm32f30x_usart.c **** {
 1617              		.loc 1 1985 0
 1618              		.cfi_startproc
 1619              		@ args = 0, pretend = 0, frame = 0
 1620              		@ frame_needed = 0, uses_anonymous_args = 0
 1621              	.LVL139:
 1622 045c 10B5     		push	{r4, lr}
 1623              	.LCFI5:
 1624              		.cfi_def_cfa_offset 8
 1625              		.cfi_offset 4, -8
 1626              		.cfi_offset 14, -4
1986:/home/user/Desktop/STM32-Projekte/FH-Vertibot/src/STM32F30x_StdPeriph_Driver/src/stm32f30x_usart.c ****   uint32_t bitpos = 0, itmask = 0, usartreg = 0;
1987:/home/user/Desktop/STM32-Projekte/FH-Vertibot/src/STM32F30x_StdPeriph_Driver/src/stm32f30x_usart.c ****   ITStatus bitstatus = RESET;
1988:/home/user/Desktop/STM32-Projekte/FH-Vertibot/src/STM32F30x_StdPeriph_Driver/src/stm32f30x_usart.c ****   /* Check the parameters */
1989:/home/user/Desktop/STM32-Projekte/FH-Vertibot/src/STM32F30x_StdPeriph_Driver/src/stm32f30x_usart.c ****   assert_param(IS_USART_ALL_PERIPH(USARTx));
1990:/home/user/Desktop/STM32-Projekte/FH-Vertibot/src/STM32F30x_StdPeriph_Driver/src/stm32f30x_usart.c ****   assert_param(IS_USART_GET_IT(USART_IT)); 
1991:/home/user/Desktop/STM32-Projekte/FH-Vertibot/src/STM32F30x_StdPeriph_Driver/src/stm32f30x_usart.c ****   
1992:/home/user/Desktop/STM32-Projekte/FH-Vertibot/src/STM32F30x_StdPeriph_Driver/src/stm32f30x_usart.c ****   /* Get the USART register index */
1993:/home/user/Desktop/STM32-Projekte/FH-Vertibot/src/STM32F30x_StdPeriph_Driver/src/stm32f30x_usart.c ****   usartreg = (((uint16_t)USART_IT) >> 0x08);
 1627              		.loc 1 1993 0
 1628 045e C1F30722 		ubfx	r2, r1, #8, #8
 1629              	.LVL140:
1994:/home/user/Desktop/STM32-Projekte/FH-Vertibot/src/STM32F30x_StdPeriph_Driver/src/stm32f30x_usart.c ****   /* Get the interrupt position */
1995:/home/user/Desktop/STM32-Projekte/FH-Vertibot/src/STM32F30x_StdPeriph_Driver/src/stm32f30x_usart.c ****   itmask = USART_IT & IT_MASK;
1996:/home/user/Desktop/STM32-Projekte/FH-Vertibot/src/STM32F30x_StdPeriph_Driver/src/stm32f30x_usart.c ****   itmask = (uint32_t)0x01 << itmask;
 1630              		.loc 1 1996 0
 1631 0462 0124     		movs	r4, #1
1995:/home/user/Desktop/STM32-Projekte/FH-Vertibot/src/STM32F30x_StdPeriph_Driver/src/stm32f30x_usart.c ****   itmask = USART_IT & IT_MASK;
 1632              		.loc 1 1995 0
 1633 0464 CBB2     		uxtb	r3, r1
1997:/home/user/Desktop/STM32-Projekte/FH-Vertibot/src/STM32F30x_StdPeriph_Driver/src/stm32f30x_usart.c ****   
1998:/home/user/Desktop/STM32-Projekte/FH-Vertibot/src/STM32F30x_StdPeriph_Driver/src/stm32f30x_usart.c ****   if (usartreg == 0x01) /* The IT  is in CR1 register */
 1634              		.loc 1 1998 0
 1635 0466 A242     		cmp	r2, r4
1996:/home/user/Desktop/STM32-Projekte/FH-Vertibot/src/STM32F30x_StdPeriph_Driver/src/stm32f30x_usart.c ****   itmask = (uint32_t)0x01 << itmask;
 1636              		.loc 1 1996 0
 1637 0468 04FA03F3 		lsl	r3, r4, r3
 1638              	.LVL141:
 1639              		.loc 1 1998 0
 1640 046c 01D1     		bne	.L137
1999:/home/user/Desktop/STM32-Projekte/FH-Vertibot/src/STM32F30x_StdPeriph_Driver/src/stm32f30x_usart.c ****   {
2000:/home/user/Desktop/STM32-Projekte/FH-Vertibot/src/STM32F30x_StdPeriph_Driver/src/stm32f30x_usart.c ****     itmask &= USARTx->CR1;
 1641              		.loc 1 2000 0
 1642 046e 0268     		ldr	r2, [r0]
 1643              	.LVL142:
 1644 0470 03E0     		b	.L142
 1645              	.LVL143:
 1646              	.L137:
2001:/home/user/Desktop/STM32-Projekte/FH-Vertibot/src/STM32F30x_StdPeriph_Driver/src/stm32f30x_usart.c ****   }
2002:/home/user/Desktop/STM32-Projekte/FH-Vertibot/src/STM32F30x_StdPeriph_Driver/src/stm32f30x_usart.c ****   else if (usartreg == 0x02) /* The IT  is in CR2 register */
 1647              		.loc 1 2002 0
 1648 0472 022A     		cmp	r2, #2
2003:/home/user/Desktop/STM32-Projekte/FH-Vertibot/src/STM32F30x_StdPeriph_Driver/src/stm32f30x_usart.c ****   {
2004:/home/user/Desktop/STM32-Projekte/FH-Vertibot/src/STM32F30x_StdPeriph_Driver/src/stm32f30x_usart.c ****     itmask &= USARTx->CR2;
 1649              		.loc 1 2004 0
 1650 0474 0CBF     		ite	eq
 1651 0476 4268     		ldreq	r2, [r0, #4]
 1652              	.LVL144:
2005:/home/user/Desktop/STM32-Projekte/FH-Vertibot/src/STM32F30x_StdPeriph_Driver/src/stm32f30x_usart.c ****   }
2006:/home/user/Desktop/STM32-Projekte/FH-Vertibot/src/STM32F30x_StdPeriph_Driver/src/stm32f30x_usart.c ****   else /* The IT  is in CR3 register */
2007:/home/user/Desktop/STM32-Projekte/FH-Vertibot/src/STM32F30x_StdPeriph_Driver/src/stm32f30x_usart.c ****   {
2008:/home/user/Desktop/STM32-Projekte/FH-Vertibot/src/STM32F30x_StdPeriph_Driver/src/stm32f30x_usart.c ****     itmask &= USARTx->CR3;
 1653              		.loc 1 2008 0
 1654 0478 8268     		ldrne	r2, [r0, #8]
 1655              	.L142:
 1656 047a 1340     		ands	r3, r3, r2
 1657              	.LVL145:
2009:/home/user/Desktop/STM32-Projekte/FH-Vertibot/src/STM32F30x_StdPeriph_Driver/src/stm32f30x_usart.c ****   }
2010:/home/user/Desktop/STM32-Projekte/FH-Vertibot/src/STM32F30x_StdPeriph_Driver/src/stm32f30x_usart.c ****   
2011:/home/user/Desktop/STM32-Projekte/FH-Vertibot/src/STM32F30x_StdPeriph_Driver/src/stm32f30x_usart.c ****   bitpos = USART_IT >> 0x10;
2012:/home/user/Desktop/STM32-Projekte/FH-Vertibot/src/STM32F30x_StdPeriph_Driver/src/stm32f30x_usart.c ****   bitpos = (uint32_t)0x01 << bitpos;
2013:/home/user/Desktop/STM32-Projekte/FH-Vertibot/src/STM32F30x_StdPeriph_Driver/src/stm32f30x_usart.c ****   bitpos &= USARTx->ISR;
 1658              		.loc 1 2013 0
 1659 047c C269     		ldr	r2, [r0, #28]
 1660              	.LVL146:
2014:/home/user/Desktop/STM32-Projekte/FH-Vertibot/src/STM32F30x_StdPeriph_Driver/src/stm32f30x_usart.c ****   if ((itmask != (uint16_t)RESET)&&(bitpos != (uint16_t)RESET))
 1661              		.loc 1 2014 0
 1662 047e 43B1     		cbz	r3, .L141
2012:/home/user/Desktop/STM32-Projekte/FH-Vertibot/src/STM32F30x_StdPeriph_Driver/src/stm32f30x_usart.c ****   bitpos = (uint32_t)0x01 << bitpos;
 1663              		.loc 1 2012 0 discriminator 1
 1664 0480 0123     		movs	r3, #1
 1665              	.LVL147:
2011:/home/user/Desktop/STM32-Projekte/FH-Vertibot/src/STM32F30x_StdPeriph_Driver/src/stm32f30x_usart.c ****   bitpos = USART_IT >> 0x10;
 1666              		.loc 1 2011 0 discriminator 1
 1667 0482 090C     		lsrs	r1, r1, #16
 1668              	.LVL148:
2012:/home/user/Desktop/STM32-Projekte/FH-Vertibot/src/STM32F30x_StdPeriph_Driver/src/stm32f30x_usart.c ****   bitpos = (uint32_t)0x01 << bitpos;
 1669              		.loc 1 2012 0 discriminator 1
 1670 0484 03FA01F1 		lsl	r1, r3, r1
 1671              	.LVL149:
 1672              		.loc 1 2014 0 discriminator 1
 1673 0488 1142     		tst	r1, r2
2015:/home/user/Desktop/STM32-Projekte/FH-Vertibot/src/STM32F30x_StdPeriph_Driver/src/stm32f30x_usart.c ****   {
2016:/home/user/Desktop/STM32-Projekte/FH-Vertibot/src/STM32F30x_StdPeriph_Driver/src/stm32f30x_usart.c ****     bitstatus = SET;
 1674              		.loc 1 2016 0 discriminator 1
 1675 048a 0CBF     		ite	eq
 1676 048c 0020     		moveq	r0, #0
 1677 048e 0120     		movne	r0, #1
 1678              	.LVL150:
 1679 0490 10BD     		pop	{r4, pc}
 1680              	.LVL151:
 1681              	.L141:
2017:/home/user/Desktop/STM32-Projekte/FH-Vertibot/src/STM32F30x_StdPeriph_Driver/src/stm32f30x_usart.c ****   }
2018:/home/user/Desktop/STM32-Projekte/FH-Vertibot/src/STM32F30x_StdPeriph_Driver/src/stm32f30x_usart.c ****   else
2019:/home/user/Desktop/STM32-Projekte/FH-Vertibot/src/STM32F30x_StdPeriph_Driver/src/stm32f30x_usart.c ****   {
2020:/home/user/Desktop/STM32-Projekte/FH-Vertibot/src/STM32F30x_StdPeriph_Driver/src/stm32f30x_usart.c ****     bitstatus = RESET;
 1682              		.loc 1 2020 0
 1683 0492 1846     		mov	r0, r3
 1684              	.LVL152:
2021:/home/user/Desktop/STM32-Projekte/FH-Vertibot/src/STM32F30x_StdPeriph_Driver/src/stm32f30x_usart.c ****   }
2022:/home/user/Desktop/STM32-Projekte/FH-Vertibot/src/STM32F30x_StdPeriph_Driver/src/stm32f30x_usart.c ****   
2023:/home/user/Desktop/STM32-Projekte/FH-Vertibot/src/STM32F30x_StdPeriph_Driver/src/stm32f30x_usart.c ****   return bitstatus;  
2024:/home/user/Desktop/STM32-Projekte/FH-Vertibot/src/STM32F30x_StdPeriph_Driver/src/stm32f30x_usart.c **** }
 1685              		.loc 1 2024 0
 1686 0494 10BD     		pop	{r4, pc}
 1687              		.cfi_endproc
 1688              	.LFE158:
 1690              		.align	1
 1691              		.global	USART_ClearITPendingBit
 1692              		.thumb
 1693              		.thumb_func
 1695              	USART_ClearITPendingBit:
 1696              	.LFB159:
2025:/home/user/Desktop/STM32-Projekte/FH-Vertibot/src/STM32F30x_StdPeriph_Driver/src/stm32f30x_usart.c **** 
2026:/home/user/Desktop/STM32-Projekte/FH-Vertibot/src/STM32F30x_StdPeriph_Driver/src/stm32f30x_usart.c **** /**
2027:/home/user/Desktop/STM32-Projekte/FH-Vertibot/src/STM32F30x_StdPeriph_Driver/src/stm32f30x_usart.c ****   * @brief  Clears the USARTx's interrupt pending bits.
2028:/home/user/Desktop/STM32-Projekte/FH-Vertibot/src/STM32F30x_StdPeriph_Driver/src/stm32f30x_usart.c ****   * @param  USARTx: Select the USART peripheral. This parameter can be one of the 
2029:/home/user/Desktop/STM32-Projekte/FH-Vertibot/src/STM32F30x_StdPeriph_Driver/src/stm32f30x_usart.c ****   *         following values: USART1 or USART2 or USART3 or UART4 or UART5.
2030:/home/user/Desktop/STM32-Projekte/FH-Vertibot/src/STM32F30x_StdPeriph_Driver/src/stm32f30x_usart.c ****   * @param  USART_IT: specifies the interrupt pending bit to clear.
2031:/home/user/Desktop/STM32-Projekte/FH-Vertibot/src/STM32F30x_StdPeriph_Driver/src/stm32f30x_usart.c ****   *         This parameter can be one of the following values:
2032:/home/user/Desktop/STM32-Projekte/FH-Vertibot/src/STM32F30x_StdPeriph_Driver/src/stm32f30x_usart.c ****   *         @arg USART_IT_WU:  Wake up interrupt.
2033:/home/user/Desktop/STM32-Projekte/FH-Vertibot/src/STM32F30x_StdPeriph_Driver/src/stm32f30x_usart.c ****   *         @arg USART_IT_CM:  Character match interrupt.
2034:/home/user/Desktop/STM32-Projekte/FH-Vertibot/src/STM32F30x_StdPeriph_Driver/src/stm32f30x_usart.c ****   *         @arg USART_IT_EOB:  End of block interrupt.
2035:/home/user/Desktop/STM32-Projekte/FH-Vertibot/src/STM32F30x_StdPeriph_Driver/src/stm32f30x_usart.c ****   *         @arg USART_IT_RTO:  Receive time out interrupt.
2036:/home/user/Desktop/STM32-Projekte/FH-Vertibot/src/STM32F30x_StdPeriph_Driver/src/stm32f30x_usart.c ****   *         @arg USART_IT_CTS:  CTS change interrupt.
2037:/home/user/Desktop/STM32-Projekte/FH-Vertibot/src/STM32F30x_StdPeriph_Driver/src/stm32f30x_usart.c ****   *         @arg USART_IT_LBD:  LIN Break detection interrupt.
2038:/home/user/Desktop/STM32-Projekte/FH-Vertibot/src/STM32F30x_StdPeriph_Driver/src/stm32f30x_usart.c ****   *         @arg USART_IT_TC:  Transmission complete interrupt.
2039:/home/user/Desktop/STM32-Projekte/FH-Vertibot/src/STM32F30x_StdPeriph_Driver/src/stm32f30x_usart.c ****   *         @arg USART_IT_IDLE:  IDLE line detected interrupt.
2040:/home/user/Desktop/STM32-Projekte/FH-Vertibot/src/STM32F30x_StdPeriph_Driver/src/stm32f30x_usart.c ****   *         @arg USART_IT_ORE:  OverRun Error interrupt.
2041:/home/user/Desktop/STM32-Projekte/FH-Vertibot/src/STM32F30x_StdPeriph_Driver/src/stm32f30x_usart.c ****   *         @arg USART_IT_NE:  Noise Error interrupt.
2042:/home/user/Desktop/STM32-Projekte/FH-Vertibot/src/STM32F30x_StdPeriph_Driver/src/stm32f30x_usart.c ****   *         @arg USART_IT_FE:  Framing Error interrupt.
2043:/home/user/Desktop/STM32-Projekte/FH-Vertibot/src/STM32F30x_StdPeriph_Driver/src/stm32f30x_usart.c ****   *         @arg USART_IT_PE:  Parity Error interrupt.
2044:/home/user/Desktop/STM32-Projekte/FH-Vertibot/src/STM32F30x_StdPeriph_Driver/src/stm32f30x_usart.c ****   * @note
2045:/home/user/Desktop/STM32-Projekte/FH-Vertibot/src/STM32F30x_StdPeriph_Driver/src/stm32f30x_usart.c ****   *   - RXNE pending bit is cleared by a read to the USART_RDR register 
2046:/home/user/Desktop/STM32-Projekte/FH-Vertibot/src/STM32F30x_StdPeriph_Driver/src/stm32f30x_usart.c ****   *     (USART_ReceiveData()) or by writing 1 to the RXFRQ in the register USART_RQR
2047:/home/user/Desktop/STM32-Projekte/FH-Vertibot/src/STM32F30x_StdPeriph_Driver/src/stm32f30x_usart.c ****   *     (USART_RequestCmd()).
2048:/home/user/Desktop/STM32-Projekte/FH-Vertibot/src/STM32F30x_StdPeriph_Driver/src/stm32f30x_usart.c ****   *   - TC pending bit can be also cleared by software sequence: a read 
2049:/home/user/Desktop/STM32-Projekte/FH-Vertibot/src/STM32F30x_StdPeriph_Driver/src/stm32f30x_usart.c ****   *     operation to USART_SR register (USART_GetITStatus()) followed by a write 
2050:/home/user/Desktop/STM32-Projekte/FH-Vertibot/src/STM32F30x_StdPeriph_Driver/src/stm32f30x_usart.c ****   *     operation to USART_TDR register (USART_SendData()).
2051:/home/user/Desktop/STM32-Projekte/FH-Vertibot/src/STM32F30x_StdPeriph_Driver/src/stm32f30x_usart.c ****   *   - TXE pending bit is cleared by a write to the USART_TDR register 
2052:/home/user/Desktop/STM32-Projekte/FH-Vertibot/src/STM32F30x_StdPeriph_Driver/src/stm32f30x_usart.c ****   *     (USART_SendData()) or by writing 1 to the TXFRQ in the register USART_RQR
2053:/home/user/Desktop/STM32-Projekte/FH-Vertibot/src/STM32F30x_StdPeriph_Driver/src/stm32f30x_usart.c ****   *     (USART_RequestCmd()).
2054:/home/user/Desktop/STM32-Projekte/FH-Vertibot/src/STM32F30x_StdPeriph_Driver/src/stm32f30x_usart.c ****   * @retval None
2055:/home/user/Desktop/STM32-Projekte/FH-Vertibot/src/STM32F30x_StdPeriph_Driver/src/stm32f30x_usart.c ****   */
2056:/home/user/Desktop/STM32-Projekte/FH-Vertibot/src/STM32F30x_StdPeriph_Driver/src/stm32f30x_usart.c **** void USART_ClearITPendingBit(USART_TypeDef* USARTx, uint32_t USART_IT)
2057:/home/user/Desktop/STM32-Projekte/FH-Vertibot/src/STM32F30x_StdPeriph_Driver/src/stm32f30x_usart.c **** {
 1697              		.loc 1 2057 0
 1698              		.cfi_startproc
 1699              		@ args = 0, pretend = 0, frame = 0
 1700              		@ frame_needed = 0, uses_anonymous_args = 0
 1701              		@ link register save eliminated.
 1702              	.LVL153:
2058:/home/user/Desktop/STM32-Projekte/FH-Vertibot/src/STM32F30x_StdPeriph_Driver/src/stm32f30x_usart.c ****   uint32_t bitpos = 0, itmask = 0;
2059:/home/user/Desktop/STM32-Projekte/FH-Vertibot/src/STM32F30x_StdPeriph_Driver/src/stm32f30x_usart.c ****   /* Check the parameters */
2060:/home/user/Desktop/STM32-Projekte/FH-Vertibot/src/STM32F30x_StdPeriph_Driver/src/stm32f30x_usart.c ****   assert_param(IS_USART_ALL_PERIPH(USARTx));
2061:/home/user/Desktop/STM32-Projekte/FH-Vertibot/src/STM32F30x_StdPeriph_Driver/src/stm32f30x_usart.c ****   assert_param(IS_USART_CLEAR_IT(USART_IT)); 
2062:/home/user/Desktop/STM32-Projekte/FH-Vertibot/src/STM32F30x_StdPeriph_Driver/src/stm32f30x_usart.c ****   
2063:/home/user/Desktop/STM32-Projekte/FH-Vertibot/src/STM32F30x_StdPeriph_Driver/src/stm32f30x_usart.c ****   bitpos = USART_IT >> 0x10;
 1703              		.loc 1 2063 0
 1704 0496 090C     		lsrs	r1, r1, #16
 1705              	.LVL154:
2064:/home/user/Desktop/STM32-Projekte/FH-Vertibot/src/STM32F30x_StdPeriph_Driver/src/stm32f30x_usart.c ****   itmask = ((uint32_t)0x01 << (uint32_t)bitpos);
 1706              		.loc 1 2064 0
 1707 0498 0123     		movs	r3, #1
 1708 049a 03FA01F1 		lsl	r1, r3, r1
 1709              	.LVL155:
2065:/home/user/Desktop/STM32-Projekte/FH-Vertibot/src/STM32F30x_StdPeriph_Driver/src/stm32f30x_usart.c ****   USARTx->ICR = (uint32_t)itmask;
 1710              		.loc 1 2065 0
 1711 049e 0162     		str	r1, [r0, #32]
 1712 04a0 7047     		bx	lr
 1713              		.cfi_endproc
 1714              	.LFE159:
 1716              	.Letext0:
 1717              		.file 2 "/home/user/gcc-arm-none-eabi-4_8-2013q4/arm-none-eabi/include/stdint.h"
 1718              		.file 3 "/home/user/Desktop/STM32-Projekte/FH-Vertibot/src/CMSIS/Device/ST/STM32F30x/Include/stm32
 1719              		.file 4 "/home/user/Desktop/STM32-Projekte/FH-Vertibot/src/STM32F30x_StdPeriph_Driver/inc/stm32f30
 1720              		.file 5 "/home/user/Desktop/STM32-Projekte/FH-Vertibot/src/STM32F30x_StdPeriph_Driver/inc/stm32f30
 1721              		.file 6 "/home/user/Desktop/STM32-Projekte/FH-Vertibot/src/CMSIS/Include/core_cm4.h"
DEFINED SYMBOLS
                            *ABS*:00000000 stm32f30x_usart.c
     /tmp/ccHkotvd.s:20     .text:00000000 $t
     /tmp/ccHkotvd.s:25     .text:00000000 USART_DeInit
     /tmp/ccHkotvd.s:126    .text:00000084 $d
     /tmp/ccHkotvd.s:134    .text:00000098 $t
     /tmp/ccHkotvd.s:139    .text:00000098 USART_Init
     /tmp/ccHkotvd.s:309    .text:00000140 $d
     /tmp/ccHkotvd.s:316    .text:00000150 $t
     /tmp/ccHkotvd.s:321    .text:00000150 USART_StructInit
     /tmp/ccHkotvd.s:354    .text:00000166 USART_ClockInit
     /tmp/ccHkotvd.s:397    .text:00000182 USART_ClockStructInit
     /tmp/ccHkotvd.s:423    .text:0000018e USART_Cmd
     /tmp/ccHkotvd.s:452    .text:000001a0 USART_DirectionModeCmd
     /tmp/ccHkotvd.s:484    .text:000001b0 USART_OverSampling8Cmd
     /tmp/ccHkotvd.s:513    .text:000001c2 USART_OneBitMethodCmd
     /tmp/ccHkotvd.s:542    .text:000001d4 USART_MSBFirstCmd
     /tmp/ccHkotvd.s:571    .text:000001e6 USART_DataInvCmd
     /tmp/ccHkotvd.s:600    .text:000001f8 USART_InvPinCmd
     /tmp/ccHkotvd.s:632    .text:00000208 USART_SWAPPinCmd
     /tmp/ccHkotvd.s:661    .text:0000021a USART_ReceiverTimeOutCmd
     /tmp/ccHkotvd.s:690    .text:0000022c USART_SetReceiverTimeOut
     /tmp/ccHkotvd.s:716    .text:0000023c USART_SetPrescaler
     /tmp/ccHkotvd.s:743    .text:0000024e USART_STOPModeCmd
     /tmp/ccHkotvd.s:772    .text:00000260 USART_StopModeWakeUpSourceConfig
     /tmp/ccHkotvd.s:798    .text:00000270 USART_AutoBaudRateCmd
     /tmp/ccHkotvd.s:827    .text:00000282 USART_AutoBaudRateConfig
     /tmp/ccHkotvd.s:853    .text:00000292 USART_SendData
     /tmp/ccHkotvd.s:874    .text:0000029a USART_ReceiveData
     /tmp/ccHkotvd.s:896    .text:000002a2 USART_SetAddress
     /tmp/ccHkotvd.s:922    .text:000002b4 USART_MuteModeCmd
     /tmp/ccHkotvd.s:951    .text:000002c6 USART_MuteModeWakeUpConfig
     /tmp/ccHkotvd.s:977    .text:000002d6 USART_AddressDetectionConfig
     /tmp/ccHkotvd.s:1003   .text:000002e6 USART_LINBreakDetectLengthConfig
     /tmp/ccHkotvd.s:1029   .text:000002f6 USART_LINCmd
     /tmp/ccHkotvd.s:1058   .text:00000308 USART_HalfDuplexCmd
     /tmp/ccHkotvd.s:1087   .text:0000031a USART_SetGuardTime
     /tmp/ccHkotvd.s:1114   .text:0000032c USART_SmartCardCmd
     /tmp/ccHkotvd.s:1143   .text:0000033e USART_SmartCardNACKCmd
     /tmp/ccHkotvd.s:1172   .text:00000350 USART_SetAutoRetryCount
     /tmp/ccHkotvd.s:1198   .text:00000362 USART_SetBlockLength
     /tmp/ccHkotvd.s:1224   .text:00000374 USART_IrDAConfig
     /tmp/ccHkotvd.s:1250   .text:00000384 USART_IrDACmd
     /tmp/ccHkotvd.s:1279   .text:00000396 USART_DECmd
     /tmp/ccHkotvd.s:1308   .text:000003a8 USART_DEPolarityConfig
     /tmp/ccHkotvd.s:1334   .text:000003b8 USART_SetDEAssertionTime
     /tmp/ccHkotvd.s:1360   .text:000003ca USART_SetDEDeassertionTime
     /tmp/ccHkotvd.s:1386   .text:000003dc USART_DMACmd
     /tmp/ccHkotvd.s:1418   .text:000003ec USART_DMAReceptionErrorConfig
     /tmp/ccHkotvd.s:1444   .text:000003fc USART_ITConfig
     /tmp/ccHkotvd.s:1510   .text:00000428 USART_RequestCmd
     /tmp/ccHkotvd.s:1544   .text:0000043c USART_OverrunDetectionConfig
     /tmp/ccHkotvd.s:1570   .text:0000044c USART_GetFlagStatus
     /tmp/ccHkotvd.s:1596   .text:00000458 USART_ClearFlag
     /tmp/ccHkotvd.s:1615   .text:0000045c USART_GetITStatus
     /tmp/ccHkotvd.s:1695   .text:00000496 USART_ClearITPendingBit
                     .debug_frame:00000010 $d
                           .group:00000000 wm4.1.e41257821655b1beb88e1ee583b76eae
                           .group:00000000 wm4.stm32f30x.h.54.c7b24f715ee55ef38656f44540ae3be6
                           .group:00000000 wm4.core_cm4.h.32.1434cd257ff5806b1b03cd32ab0641e9
                           .group:00000000 wm4.newlib.h.8.384a112feabb3bef7b573ae48cde2e3b
                           .group:00000000 wm4.features.h.22.6a4ca7cd053637cc1d0db6c16f39b2d7
                           .group:00000000 wm4.config.h.212.4163ef2871a828c674038d036b081cfd
                           .group:00000000 wm4._ansi.h.23.5644b60c990a4800b02a6e654e88f93a
                           .group:00000000 wm4.stdint.h.20.54ad762faa59e3c05491630641c8d8bf
                           .group:00000000 wm4.core_cmInstr.h.25.d8165482ef3061013a2fc83e2d85f3d9
                           .group:00000000 wm4.core_cm4_simd.h.29.013e5bcf58dba2d27c60184174208e07
                           .group:00000000 wm4.core_cm4.h.155.cf7c793e178943e1bbf613f1b21cd51a
                           .group:00000000 wm4.stm32f30x.h.292.5f9271075d54fc48f1e25ff79df85cb2
                           .group:00000000 wm4.stm32f30x_adc.h.130.cbebad91f78fb87381fe0860eea6104e
                           .group:00000000 wm4.stm32f30x_comp.h.31.9bbc5f5f1a849069ea9062fbe7b81435
                           .group:00000000 wm4.stm32f30x_dma.h.31.73d173fa6d60026d432f3cf1d2fc4407
                           .group:00000000 wm4.stm32f30x_exti.h.31.22e280aa6e095108654ac8d3c74a2409
                           .group:00000000 wm4.stm32f30x_flash.h.31.bee86dc3079b7049419bdbeec073e2cd
                           .group:00000000 wm4.stm32f30x_gpio.h.31.3745297fee3728b346ad4d2a2467e40f
                           .group:00000000 wm4.stm32f30x_syscfg.h.31.96b023b7dbc3641f358604478433eb5c
                           .group:00000000 wm4.stm32f30x_i2c.h.31.52025acd7f154308042bf46a2835e9d3
                           .group:00000000 wm4.stm32f30x_pwr.h.31.cdef322c6e7f25cfc29954045d24e9b8
                           .group:00000000 wm4.stm32f30x_rcc.h.31.3b94c1144b21d1e4fe780e4d1a02d257
                           .group:00000000 wm4.stm32f30x_spi.h.31.c1ebebab897d23cecc617ec8ad9fd534
                           .group:00000000 wm4.stm32f30x_tim.h.31.336f9cd855fb4e2cd819ac260ded6518
                           .group:00000000 wm4.stm32f30x_misc.h.31.f08b0e9f53f0471613b5131bb95f8725
                           .group:00000000 wm4.stm32f30x.h.6173.8b641ba1d9b0040eda9120fe8a414b2d
                           .group:00000000 wm4.stm32f30x_usart.h.110.c89016273702821ff4f9fe43881f70b5

UNDEFINED SYMBOLS
RCC_APB2PeriphResetCmd
RCC_APB1PeriphResetCmd
RCC_GetClocksFreq
