   1              		.syntax unified
   2              		.cpu cortex-m4
   3              		.eabi_attribute 27, 3
   4              		.eabi_attribute 28, 1
   5              		.fpu fpv4-sp-d16
   6              		.eabi_attribute 20, 1
   7              		.eabi_attribute 21, 1
   8              		.eabi_attribute 23, 3
   9              		.eabi_attribute 24, 1
  10              		.eabi_attribute 25, 1
  11              		.eabi_attribute 26, 1
  12              		.eabi_attribute 30, 4
  13              		.eabi_attribute 34, 1
  14              		.eabi_attribute 18, 4
  15              		.thumb
  16              		.file	"stm32f30x_opamp.c"
  17              		.text
  18              	.Ltext0:
  19              		.cfi_sections	.debug_frame
  20              		.align	1
  21              		.global	OPAMP_DeInit
  22              		.thumb
  23              		.thumb_func
  25              	OPAMP_DeInit:
  26              	.LFB111:
  27              		.file 1 "/home/user/Desktop/STM32-Projekte/FH-Vertibot/src/STM32F30x_StdPeriph_Driver/src/stm32f30
   1:/home/user/Desktop/STM32-Projekte/FH-Vertibot/src/STM32F30x_StdPeriph_Driver/src/stm32f30x_opamp.c **** /**
   2:/home/user/Desktop/STM32-Projekte/FH-Vertibot/src/STM32F30x_StdPeriph_Driver/src/stm32f30x_opamp.c ****   ******************************************************************************
   3:/home/user/Desktop/STM32-Projekte/FH-Vertibot/src/STM32F30x_StdPeriph_Driver/src/stm32f30x_opamp.c ****   * @file    stm32f30x_opamp.c
   4:/home/user/Desktop/STM32-Projekte/FH-Vertibot/src/STM32F30x_StdPeriph_Driver/src/stm32f30x_opamp.c ****   * @author  MCD Application Team
   5:/home/user/Desktop/STM32-Projekte/FH-Vertibot/src/STM32F30x_StdPeriph_Driver/src/stm32f30x_opamp.c ****   * @version V1.0.1
   6:/home/user/Desktop/STM32-Projekte/FH-Vertibot/src/STM32F30x_StdPeriph_Driver/src/stm32f30x_opamp.c ****   * @date    23-October-2012
   7:/home/user/Desktop/STM32-Projekte/FH-Vertibot/src/STM32F30x_StdPeriph_Driver/src/stm32f30x_opamp.c ****   * @brief   This file provides firmware functions to manage the following 
   8:/home/user/Desktop/STM32-Projekte/FH-Vertibot/src/STM32F30x_StdPeriph_Driver/src/stm32f30x_opamp.c ****   *          functionalities of the operational amplifiers (OPAMP1,...OPAMP4) peripheral: 
   9:/home/user/Desktop/STM32-Projekte/FH-Vertibot/src/STM32F30x_StdPeriph_Driver/src/stm32f30x_opamp.c ****   *           + OPAMP Configuration
  10:/home/user/Desktop/STM32-Projekte/FH-Vertibot/src/STM32F30x_StdPeriph_Driver/src/stm32f30x_opamp.c ****   *           + OPAMP calibration
  11:/home/user/Desktop/STM32-Projekte/FH-Vertibot/src/STM32F30x_StdPeriph_Driver/src/stm32f30x_opamp.c ****   *
  12:/home/user/Desktop/STM32-Projekte/FH-Vertibot/src/STM32F30x_StdPeriph_Driver/src/stm32f30x_opamp.c ****   @verbatim
  13:/home/user/Desktop/STM32-Projekte/FH-Vertibot/src/STM32F30x_StdPeriph_Driver/src/stm32f30x_opamp.c ****   
  14:/home/user/Desktop/STM32-Projekte/FH-Vertibot/src/STM32F30x_StdPeriph_Driver/src/stm32f30x_opamp.c ****   ==============================================================================
  15:/home/user/Desktop/STM32-Projekte/FH-Vertibot/src/STM32F30x_StdPeriph_Driver/src/stm32f30x_opamp.c ****                         ##### OPAMP Peripheral Features #####
  16:/home/user/Desktop/STM32-Projekte/FH-Vertibot/src/STM32F30x_StdPeriph_Driver/src/stm32f30x_opamp.c ****   ==============================================================================
  17:/home/user/Desktop/STM32-Projekte/FH-Vertibot/src/STM32F30x_StdPeriph_Driver/src/stm32f30x_opamp.c ****                    
  18:/home/user/Desktop/STM32-Projekte/FH-Vertibot/src/STM32F30x_StdPeriph_Driver/src/stm32f30x_opamp.c ****   [..]
  19:/home/user/Desktop/STM32-Projekte/FH-Vertibot/src/STM32F30x_StdPeriph_Driver/src/stm32f30x_opamp.c ****       The device integrates 4 operational amplifiers OPAMP1, OPAMP2, OPAMP3 and OPAMP4:
  20:/home/user/Desktop/STM32-Projekte/FH-Vertibot/src/STM32F30x_StdPeriph_Driver/src/stm32f30x_opamp.c ****               
  21:/home/user/Desktop/STM32-Projekte/FH-Vertibot/src/STM32F30x_StdPeriph_Driver/src/stm32f30x_opamp.c ****       (+) The OPAMPs non inverting input can be selected among the list shown by
  22:/home/user/Desktop/STM32-Projekte/FH-Vertibot/src/STM32F30x_StdPeriph_Driver/src/stm32f30x_opamp.c ****           table below.
  23:/home/user/Desktop/STM32-Projekte/FH-Vertibot/src/STM32F30x_StdPeriph_Driver/src/stm32f30x_opamp.c ****   
  24:/home/user/Desktop/STM32-Projekte/FH-Vertibot/src/STM32F30x_StdPeriph_Driver/src/stm32f30x_opamp.c ****       (+) The OPAMPs inverting input can be selected among the list shown by
  25:/home/user/Desktop/STM32-Projekte/FH-Vertibot/src/STM32F30x_StdPeriph_Driver/src/stm32f30x_opamp.c ****           table below.
  26:/home/user/Desktop/STM32-Projekte/FH-Vertibot/src/STM32F30x_StdPeriph_Driver/src/stm32f30x_opamp.c ****   
  27:/home/user/Desktop/STM32-Projekte/FH-Vertibot/src/STM32F30x_StdPeriph_Driver/src/stm32f30x_opamp.c ****       (+) The OPAMPs outputs can be internally connected to the inverting input 
  28:/home/user/Desktop/STM32-Projekte/FH-Vertibot/src/STM32F30x_StdPeriph_Driver/src/stm32f30x_opamp.c ****           (follower mode)
  29:/home/user/Desktop/STM32-Projekte/FH-Vertibot/src/STM32F30x_StdPeriph_Driver/src/stm32f30x_opamp.c ****       (+) The OPAMPs outputs can be internally connected to resistor feedback
  30:/home/user/Desktop/STM32-Projekte/FH-Vertibot/src/STM32F30x_StdPeriph_Driver/src/stm32f30x_opamp.c ****           output (Programmable Gain Amplifier mode)
  31:/home/user/Desktop/STM32-Projekte/FH-Vertibot/src/STM32F30x_StdPeriph_Driver/src/stm32f30x_opamp.c ****   
  32:/home/user/Desktop/STM32-Projekte/FH-Vertibot/src/STM32F30x_StdPeriph_Driver/src/stm32f30x_opamp.c ****       (+) The OPAMPs outputs can be internally connected to ADC
  33:/home/user/Desktop/STM32-Projekte/FH-Vertibot/src/STM32F30x_StdPeriph_Driver/src/stm32f30x_opamp.c ****   
  34:/home/user/Desktop/STM32-Projekte/FH-Vertibot/src/STM32F30x_StdPeriph_Driver/src/stm32f30x_opamp.c ****       (+) The OPAMPs can be calibrated to compensate the offset compensation
  35:/home/user/Desktop/STM32-Projekte/FH-Vertibot/src/STM32F30x_StdPeriph_Driver/src/stm32f30x_opamp.c ****   
  36:/home/user/Desktop/STM32-Projekte/FH-Vertibot/src/STM32F30x_StdPeriph_Driver/src/stm32f30x_opamp.c ****       (+) Timer-controlled Mux for automatic switch of inverting and
  37:/home/user/Desktop/STM32-Projekte/FH-Vertibot/src/STM32F30x_StdPeriph_Driver/src/stm32f30x_opamp.c ****           non-inverting input
  38:/home/user/Desktop/STM32-Projekte/FH-Vertibot/src/STM32F30x_StdPeriph_Driver/src/stm32f30x_opamp.c ****   
  39:/home/user/Desktop/STM32-Projekte/FH-Vertibot/src/STM32F30x_StdPeriph_Driver/src/stm32f30x_opamp.c ****   OPAMPs inverting/non-inverting inputs:
  40:/home/user/Desktop/STM32-Projekte/FH-Vertibot/src/STM32F30x_StdPeriph_Driver/src/stm32f30x_opamp.c ****     +--------------------------------------------------------------+     
  41:/home/user/Desktop/STM32-Projekte/FH-Vertibot/src/STM32F30x_StdPeriph_Driver/src/stm32f30x_opamp.c ****     |                 |        | OPAMP1 | OPAMP2 | OPAMP3 | OPAMP4 |
  42:/home/user/Desktop/STM32-Projekte/FH-Vertibot/src/STM32F30x_StdPeriph_Driver/src/stm32f30x_opamp.c ****     |-----------------|--------|--------|--------|--------|--------|
  43:/home/user/Desktop/STM32-Projekte/FH-Vertibot/src/STM32F30x_StdPeriph_Driver/src/stm32f30x_opamp.c ****     |                 | PGA    |  OK    |  OK    |  OK    |  OK    |
  44:/home/user/Desktop/STM32-Projekte/FH-Vertibot/src/STM32F30x_StdPeriph_Driver/src/stm32f30x_opamp.c ****     | Inverting Input | Vout   |  OK    |  OK    |  OK    |  OK    |
  45:/home/user/Desktop/STM32-Projekte/FH-Vertibot/src/STM32F30x_StdPeriph_Driver/src/stm32f30x_opamp.c ****     |                 | IO1    |  PC5   |  PC5   |  PB10  |  PB10  |
  46:/home/user/Desktop/STM32-Projekte/FH-Vertibot/src/STM32F30x_StdPeriph_Driver/src/stm32f30x_opamp.c ****     |                 | IO2    |  PA3   |  PA5   |  PB2   |  PD8   |
  47:/home/user/Desktop/STM32-Projekte/FH-Vertibot/src/STM32F30x_StdPeriph_Driver/src/stm32f30x_opamp.c ****     |-----------------|--------|--------|--------|--------|--------|
  48:/home/user/Desktop/STM32-Projekte/FH-Vertibot/src/STM32F30x_StdPeriph_Driver/src/stm32f30x_opamp.c ****     |                 | IO1    |  PA7   |  PD14  |  PB13  |  PD11  |
  49:/home/user/Desktop/STM32-Projekte/FH-Vertibot/src/STM32F30x_StdPeriph_Driver/src/stm32f30x_opamp.c ****     |  Non Inverting  | IO2    |  PA5   |  PB14  |  PA5   |  PB11  |
  50:/home/user/Desktop/STM32-Projekte/FH-Vertibot/src/STM32F30x_StdPeriph_Driver/src/stm32f30x_opamp.c ****     |    Input        | IO3    |  PA3   |  PB0   |  PA1   |  PA4   |
  51:/home/user/Desktop/STM32-Projekte/FH-Vertibot/src/STM32F30x_StdPeriph_Driver/src/stm32f30x_opamp.c ****     |                 | IO4    |  PA1   |  PA7   |  PB0   |  PB13  |
  52:/home/user/Desktop/STM32-Projekte/FH-Vertibot/src/STM32F30x_StdPeriph_Driver/src/stm32f30x_opamp.c ****     +--------------------------------------------------------------+  
  53:/home/user/Desktop/STM32-Projekte/FH-Vertibot/src/STM32F30x_StdPeriph_Driver/src/stm32f30x_opamp.c ****   
  54:/home/user/Desktop/STM32-Projekte/FH-Vertibot/src/STM32F30x_StdPeriph_Driver/src/stm32f30x_opamp.c ****                         ##### How to use this driver #####
  55:/home/user/Desktop/STM32-Projekte/FH-Vertibot/src/STM32F30x_StdPeriph_Driver/src/stm32f30x_opamp.c ****   ==============================================================================
  56:/home/user/Desktop/STM32-Projekte/FH-Vertibot/src/STM32F30x_StdPeriph_Driver/src/stm32f30x_opamp.c ****   [..]
  57:/home/user/Desktop/STM32-Projekte/FH-Vertibot/src/STM32F30x_StdPeriph_Driver/src/stm32f30x_opamp.c ****   This driver provides functions to configure and program the OPAMP 
  58:/home/user/Desktop/STM32-Projekte/FH-Vertibot/src/STM32F30x_StdPeriph_Driver/src/stm32f30x_opamp.c ****   of all STM32F30x devices.
  59:/home/user/Desktop/STM32-Projekte/FH-Vertibot/src/STM32F30x_StdPeriph_Driver/src/stm32f30x_opamp.c ****   
  60:/home/user/Desktop/STM32-Projekte/FH-Vertibot/src/STM32F30x_StdPeriph_Driver/src/stm32f30x_opamp.c ****   To use the OPAMP, perform the following steps:
  61:/home/user/Desktop/STM32-Projekte/FH-Vertibot/src/STM32F30x_StdPeriph_Driver/src/stm32f30x_opamp.c ****  
  62:/home/user/Desktop/STM32-Projekte/FH-Vertibot/src/STM32F30x_StdPeriph_Driver/src/stm32f30x_opamp.c ****   (#) Enable the SYSCFG APB clock to get write access to OPAMP
  63:/home/user/Desktop/STM32-Projekte/FH-Vertibot/src/STM32F30x_StdPeriph_Driver/src/stm32f30x_opamp.c ****       register using RCC_APB2PeriphClockCmd(RCC_APB2Periph_SYSCFG, ENABLE);
  64:/home/user/Desktop/STM32-Projekte/FH-Vertibot/src/STM32F30x_StdPeriph_Driver/src/stm32f30x_opamp.c ****   
  65:/home/user/Desktop/STM32-Projekte/FH-Vertibot/src/STM32F30x_StdPeriph_Driver/src/stm32f30x_opamp.c ****   (#) Configure the OPAMP input in analog mode using GPIO_Init()
  66:/home/user/Desktop/STM32-Projekte/FH-Vertibot/src/STM32F30x_StdPeriph_Driver/src/stm32f30x_opamp.c ****   
  67:/home/user/Desktop/STM32-Projekte/FH-Vertibot/src/STM32F30x_StdPeriph_Driver/src/stm32f30x_opamp.c ****   (#) Configure the OPAMP using OPAMP_Init() function:
  68:/home/user/Desktop/STM32-Projekte/FH-Vertibot/src/STM32F30x_StdPeriph_Driver/src/stm32f30x_opamp.c ****       (++) Select the inverting input
  69:/home/user/Desktop/STM32-Projekte/FH-Vertibot/src/STM32F30x_StdPeriph_Driver/src/stm32f30x_opamp.c ****       (++) Select the non-inverting inverting input
  70:/home/user/Desktop/STM32-Projekte/FH-Vertibot/src/STM32F30x_StdPeriph_Driver/src/stm32f30x_opamp.c ****     
  71:/home/user/Desktop/STM32-Projekte/FH-Vertibot/src/STM32F30x_StdPeriph_Driver/src/stm32f30x_opamp.c ****   (#) Enable the OPAMP using OPAMP_Cmd() function
  72:/home/user/Desktop/STM32-Projekte/FH-Vertibot/src/STM32F30x_StdPeriph_Driver/src/stm32f30x_opamp.c ****     
  73:/home/user/Desktop/STM32-Projekte/FH-Vertibot/src/STM32F30x_StdPeriph_Driver/src/stm32f30x_opamp.c ****   @endverbatim
  74:/home/user/Desktop/STM32-Projekte/FH-Vertibot/src/STM32F30x_StdPeriph_Driver/src/stm32f30x_opamp.c ****       
  75:/home/user/Desktop/STM32-Projekte/FH-Vertibot/src/STM32F30x_StdPeriph_Driver/src/stm32f30x_opamp.c ****   ******************************************************************************
  76:/home/user/Desktop/STM32-Projekte/FH-Vertibot/src/STM32F30x_StdPeriph_Driver/src/stm32f30x_opamp.c ****   * @attention
  77:/home/user/Desktop/STM32-Projekte/FH-Vertibot/src/STM32F30x_StdPeriph_Driver/src/stm32f30x_opamp.c ****   *
  78:/home/user/Desktop/STM32-Projekte/FH-Vertibot/src/STM32F30x_StdPeriph_Driver/src/stm32f30x_opamp.c ****   * <h2><center>&copy; COPYRIGHT 2012 STMicroelectronics</center></h2>
  79:/home/user/Desktop/STM32-Projekte/FH-Vertibot/src/STM32F30x_StdPeriph_Driver/src/stm32f30x_opamp.c ****   *
  80:/home/user/Desktop/STM32-Projekte/FH-Vertibot/src/STM32F30x_StdPeriph_Driver/src/stm32f30x_opamp.c ****   * Licensed under MCD-ST Liberty SW License Agreement V2, (the "License");
  81:/home/user/Desktop/STM32-Projekte/FH-Vertibot/src/STM32F30x_StdPeriph_Driver/src/stm32f30x_opamp.c ****   * You may not use this file except in compliance with the License.
  82:/home/user/Desktop/STM32-Projekte/FH-Vertibot/src/STM32F30x_StdPeriph_Driver/src/stm32f30x_opamp.c ****   * You may obtain a copy of the License at:
  83:/home/user/Desktop/STM32-Projekte/FH-Vertibot/src/STM32F30x_StdPeriph_Driver/src/stm32f30x_opamp.c ****   *
  84:/home/user/Desktop/STM32-Projekte/FH-Vertibot/src/STM32F30x_StdPeriph_Driver/src/stm32f30x_opamp.c ****   *        http://www.st.com/software_license_agreement_liberty_v2
  85:/home/user/Desktop/STM32-Projekte/FH-Vertibot/src/STM32F30x_StdPeriph_Driver/src/stm32f30x_opamp.c ****   *
  86:/home/user/Desktop/STM32-Projekte/FH-Vertibot/src/STM32F30x_StdPeriph_Driver/src/stm32f30x_opamp.c ****   * Unless required by applicable law or agreed to in writing, software 
  87:/home/user/Desktop/STM32-Projekte/FH-Vertibot/src/STM32F30x_StdPeriph_Driver/src/stm32f30x_opamp.c ****   * distributed under the License is distributed on an "AS IS" BASIS, 
  88:/home/user/Desktop/STM32-Projekte/FH-Vertibot/src/STM32F30x_StdPeriph_Driver/src/stm32f30x_opamp.c ****   * WITHOUT WARRANTIES OR CONDITIONS OF ANY KIND, either express or implied.
  89:/home/user/Desktop/STM32-Projekte/FH-Vertibot/src/STM32F30x_StdPeriph_Driver/src/stm32f30x_opamp.c ****   * See the License for the specific language governing permissions and
  90:/home/user/Desktop/STM32-Projekte/FH-Vertibot/src/STM32F30x_StdPeriph_Driver/src/stm32f30x_opamp.c ****   * limitations under the License.
  91:/home/user/Desktop/STM32-Projekte/FH-Vertibot/src/STM32F30x_StdPeriph_Driver/src/stm32f30x_opamp.c ****   *
  92:/home/user/Desktop/STM32-Projekte/FH-Vertibot/src/STM32F30x_StdPeriph_Driver/src/stm32f30x_opamp.c ****   ******************************************************************************
  93:/home/user/Desktop/STM32-Projekte/FH-Vertibot/src/STM32F30x_StdPeriph_Driver/src/stm32f30x_opamp.c ****   */ 
  94:/home/user/Desktop/STM32-Projekte/FH-Vertibot/src/STM32F30x_StdPeriph_Driver/src/stm32f30x_opamp.c **** 
  95:/home/user/Desktop/STM32-Projekte/FH-Vertibot/src/STM32F30x_StdPeriph_Driver/src/stm32f30x_opamp.c **** /* Includes ------------------------------------------------------------------*/
  96:/home/user/Desktop/STM32-Projekte/FH-Vertibot/src/STM32F30x_StdPeriph_Driver/src/stm32f30x_opamp.c **** #include "stm32f30x_opamp.h"
  97:/home/user/Desktop/STM32-Projekte/FH-Vertibot/src/STM32F30x_StdPeriph_Driver/src/stm32f30x_opamp.c **** 
  98:/home/user/Desktop/STM32-Projekte/FH-Vertibot/src/STM32F30x_StdPeriph_Driver/src/stm32f30x_opamp.c **** /** @addtogroup STM32F30x_StdPeriph_Driver
  99:/home/user/Desktop/STM32-Projekte/FH-Vertibot/src/STM32F30x_StdPeriph_Driver/src/stm32f30x_opamp.c ****   * @{
 100:/home/user/Desktop/STM32-Projekte/FH-Vertibot/src/STM32F30x_StdPeriph_Driver/src/stm32f30x_opamp.c ****   */
 101:/home/user/Desktop/STM32-Projekte/FH-Vertibot/src/STM32F30x_StdPeriph_Driver/src/stm32f30x_opamp.c **** 
 102:/home/user/Desktop/STM32-Projekte/FH-Vertibot/src/STM32F30x_StdPeriph_Driver/src/stm32f30x_opamp.c **** /** @defgroup OPAMP 
 103:/home/user/Desktop/STM32-Projekte/FH-Vertibot/src/STM32F30x_StdPeriph_Driver/src/stm32f30x_opamp.c ****   * @brief OPAMP driver modules
 104:/home/user/Desktop/STM32-Projekte/FH-Vertibot/src/STM32F30x_StdPeriph_Driver/src/stm32f30x_opamp.c ****   * @{
 105:/home/user/Desktop/STM32-Projekte/FH-Vertibot/src/STM32F30x_StdPeriph_Driver/src/stm32f30x_opamp.c ****   */ 
 106:/home/user/Desktop/STM32-Projekte/FH-Vertibot/src/STM32F30x_StdPeriph_Driver/src/stm32f30x_opamp.c **** 
 107:/home/user/Desktop/STM32-Projekte/FH-Vertibot/src/STM32F30x_StdPeriph_Driver/src/stm32f30x_opamp.c **** /* Private typedef -----------------------------------------------------------*/
 108:/home/user/Desktop/STM32-Projekte/FH-Vertibot/src/STM32F30x_StdPeriph_Driver/src/stm32f30x_opamp.c **** /* Private define ------------------------------------------------------------*/
 109:/home/user/Desktop/STM32-Projekte/FH-Vertibot/src/STM32F30x_StdPeriph_Driver/src/stm32f30x_opamp.c **** #define OPAMP_CSR_DEFAULT_MASK                    ((uint32_t)0xFFFFFF93)
 110:/home/user/Desktop/STM32-Projekte/FH-Vertibot/src/STM32F30x_StdPeriph_Driver/src/stm32f30x_opamp.c **** #define OPAMP_CSR_TIMERMUX_MASK                   ((uint32_t)0xFFFFF8FF)
 111:/home/user/Desktop/STM32-Projekte/FH-Vertibot/src/STM32F30x_StdPeriph_Driver/src/stm32f30x_opamp.c **** #define OPAMP_CSR_TRIMMING_MASK                   ((uint32_t)0x0000001F)
 112:/home/user/Desktop/STM32-Projekte/FH-Vertibot/src/STM32F30x_StdPeriph_Driver/src/stm32f30x_opamp.c **** 
 113:/home/user/Desktop/STM32-Projekte/FH-Vertibot/src/STM32F30x_StdPeriph_Driver/src/stm32f30x_opamp.c **** /* Private macro -------------------------------------------------------------*/
 114:/home/user/Desktop/STM32-Projekte/FH-Vertibot/src/STM32F30x_StdPeriph_Driver/src/stm32f30x_opamp.c **** /* Private variables ---------------------------------------------------------*/
 115:/home/user/Desktop/STM32-Projekte/FH-Vertibot/src/STM32F30x_StdPeriph_Driver/src/stm32f30x_opamp.c **** /* Private function prototypes -----------------------------------------------*/
 116:/home/user/Desktop/STM32-Projekte/FH-Vertibot/src/STM32F30x_StdPeriph_Driver/src/stm32f30x_opamp.c **** /* Private functions ---------------------------------------------------------*/
 117:/home/user/Desktop/STM32-Projekte/FH-Vertibot/src/STM32F30x_StdPeriph_Driver/src/stm32f30x_opamp.c **** 
 118:/home/user/Desktop/STM32-Projekte/FH-Vertibot/src/STM32F30x_StdPeriph_Driver/src/stm32f30x_opamp.c **** /** @defgroup OPAMP_Private_Functions
 119:/home/user/Desktop/STM32-Projekte/FH-Vertibot/src/STM32F30x_StdPeriph_Driver/src/stm32f30x_opamp.c ****   * @{
 120:/home/user/Desktop/STM32-Projekte/FH-Vertibot/src/STM32F30x_StdPeriph_Driver/src/stm32f30x_opamp.c ****   */
 121:/home/user/Desktop/STM32-Projekte/FH-Vertibot/src/STM32F30x_StdPeriph_Driver/src/stm32f30x_opamp.c **** 
 122:/home/user/Desktop/STM32-Projekte/FH-Vertibot/src/STM32F30x_StdPeriph_Driver/src/stm32f30x_opamp.c **** /** @defgroup OPAMP_Group1 Initialization and Configuration functions
 123:/home/user/Desktop/STM32-Projekte/FH-Vertibot/src/STM32F30x_StdPeriph_Driver/src/stm32f30x_opamp.c ****  *  @brief   Initialization and Configuration functions 
 124:/home/user/Desktop/STM32-Projekte/FH-Vertibot/src/STM32F30x_StdPeriph_Driver/src/stm32f30x_opamp.c ****  *
 125:/home/user/Desktop/STM32-Projekte/FH-Vertibot/src/STM32F30x_StdPeriph_Driver/src/stm32f30x_opamp.c **** @verbatim   
 126:/home/user/Desktop/STM32-Projekte/FH-Vertibot/src/STM32F30x_StdPeriph_Driver/src/stm32f30x_opamp.c ****  ===============================================================================
 127:/home/user/Desktop/STM32-Projekte/FH-Vertibot/src/STM32F30x_StdPeriph_Driver/src/stm32f30x_opamp.c ****              ##### Initialization and Configuration functions #####
 128:/home/user/Desktop/STM32-Projekte/FH-Vertibot/src/STM32F30x_StdPeriph_Driver/src/stm32f30x_opamp.c ****  ===============================================================================  
 129:/home/user/Desktop/STM32-Projekte/FH-Vertibot/src/STM32F30x_StdPeriph_Driver/src/stm32f30x_opamp.c **** 
 130:/home/user/Desktop/STM32-Projekte/FH-Vertibot/src/STM32F30x_StdPeriph_Driver/src/stm32f30x_opamp.c **** @endverbatim
 131:/home/user/Desktop/STM32-Projekte/FH-Vertibot/src/STM32F30x_StdPeriph_Driver/src/stm32f30x_opamp.c ****   * @{
 132:/home/user/Desktop/STM32-Projekte/FH-Vertibot/src/STM32F30x_StdPeriph_Driver/src/stm32f30x_opamp.c ****   */
 133:/home/user/Desktop/STM32-Projekte/FH-Vertibot/src/STM32F30x_StdPeriph_Driver/src/stm32f30x_opamp.c ****    
 134:/home/user/Desktop/STM32-Projekte/FH-Vertibot/src/STM32F30x_StdPeriph_Driver/src/stm32f30x_opamp.c **** /**
 135:/home/user/Desktop/STM32-Projekte/FH-Vertibot/src/STM32F30x_StdPeriph_Driver/src/stm32f30x_opamp.c ****   * @brief  Deinitializes OPAMP peripheral registers to their default reset values.
 136:/home/user/Desktop/STM32-Projekte/FH-Vertibot/src/STM32F30x_StdPeriph_Driver/src/stm32f30x_opamp.c ****   * @note   Deinitialization can't be performed if the OPAMP configuration is locked.
 137:/home/user/Desktop/STM32-Projekte/FH-Vertibot/src/STM32F30x_StdPeriph_Driver/src/stm32f30x_opamp.c ****   *         To unlock the configuration, perform a system reset.
 138:/home/user/Desktop/STM32-Projekte/FH-Vertibot/src/STM32F30x_StdPeriph_Driver/src/stm32f30x_opamp.c ****   * @param  OPAMP_Selection: the selected OPAMP. 
 139:/home/user/Desktop/STM32-Projekte/FH-Vertibot/src/STM32F30x_StdPeriph_Driver/src/stm32f30x_opamp.c ****   *          This parameter can be OPAMP_Selection_OPAMPx where x can be 1 to 4
 140:/home/user/Desktop/STM32-Projekte/FH-Vertibot/src/STM32F30x_StdPeriph_Driver/src/stm32f30x_opamp.c ****   *          to select the OPAMP peripheral.
 141:/home/user/Desktop/STM32-Projekte/FH-Vertibot/src/STM32F30x_StdPeriph_Driver/src/stm32f30x_opamp.c ****   * @param  None
 142:/home/user/Desktop/STM32-Projekte/FH-Vertibot/src/STM32F30x_StdPeriph_Driver/src/stm32f30x_opamp.c ****   * @retval None
 143:/home/user/Desktop/STM32-Projekte/FH-Vertibot/src/STM32F30x_StdPeriph_Driver/src/stm32f30x_opamp.c ****   */
 144:/home/user/Desktop/STM32-Projekte/FH-Vertibot/src/STM32F30x_StdPeriph_Driver/src/stm32f30x_opamp.c **** void OPAMP_DeInit(uint32_t OPAMP_Selection)
 145:/home/user/Desktop/STM32-Projekte/FH-Vertibot/src/STM32F30x_StdPeriph_Driver/src/stm32f30x_opamp.c **** {
  28              		.loc 1 145 0
  29              		.cfi_startproc
  30              		@ args = 0, pretend = 0, frame = 0
  31              		@ frame_needed = 0, uses_anonymous_args = 0
  32              		@ link register save eliminated.
  33              	.LVL0:
 146:/home/user/Desktop/STM32-Projekte/FH-Vertibot/src/STM32F30x_StdPeriph_Driver/src/stm32f30x_opamp.c ****   /*!< Set OPAMP_CSR register to reset value */
 147:/home/user/Desktop/STM32-Projekte/FH-Vertibot/src/STM32F30x_StdPeriph_Driver/src/stm32f30x_opamp.c ****   *(__IO uint32_t *) (OPAMP_BASE + OPAMP_Selection) = ((uint32_t)0x00000000);
  34              		.loc 1 147 0
  35 0000 014B     		ldr	r3, .L2
  36 0002 0022     		movs	r2, #0
  37 0004 C250     		str	r2, [r0, r3]
  38 0006 7047     		bx	lr
  39              	.L3:
  40              		.align	2
  41              	.L2:
  42 0008 38000140 		.word	1073807416
  43              		.cfi_endproc
  44              	.LFE111:
  46              		.align	1
  47              		.global	OPAMP_Init
  48              		.thumb
  49              		.thumb_func
  51              	OPAMP_Init:
  52              	.LFB112:
 148:/home/user/Desktop/STM32-Projekte/FH-Vertibot/src/STM32F30x_StdPeriph_Driver/src/stm32f30x_opamp.c **** }
 149:/home/user/Desktop/STM32-Projekte/FH-Vertibot/src/STM32F30x_StdPeriph_Driver/src/stm32f30x_opamp.c **** 
 150:/home/user/Desktop/STM32-Projekte/FH-Vertibot/src/STM32F30x_StdPeriph_Driver/src/stm32f30x_opamp.c **** /**
 151:/home/user/Desktop/STM32-Projekte/FH-Vertibot/src/STM32F30x_StdPeriph_Driver/src/stm32f30x_opamp.c ****   * @brief  Initializes the OPAMP peripheral according to the specified parameters
 152:/home/user/Desktop/STM32-Projekte/FH-Vertibot/src/STM32F30x_StdPeriph_Driver/src/stm32f30x_opamp.c ****   *         in OPAMP_InitStruct
 153:/home/user/Desktop/STM32-Projekte/FH-Vertibot/src/STM32F30x_StdPeriph_Driver/src/stm32f30x_opamp.c ****   * @note   If the selected OPAMP is locked, initialization can't be performed.
 154:/home/user/Desktop/STM32-Projekte/FH-Vertibot/src/STM32F30x_StdPeriph_Driver/src/stm32f30x_opamp.c ****   *         To unlock the configuration, perform a system reset.
 155:/home/user/Desktop/STM32-Projekte/FH-Vertibot/src/STM32F30x_StdPeriph_Driver/src/stm32f30x_opamp.c ****   * @param  OPAMP_Selection: the selected OPAMP. 
 156:/home/user/Desktop/STM32-Projekte/FH-Vertibot/src/STM32F30x_StdPeriph_Driver/src/stm32f30x_opamp.c ****   *          This parameter can be OPAMP_Selection_OPAMPx where x can be 1 to 4
 157:/home/user/Desktop/STM32-Projekte/FH-Vertibot/src/STM32F30x_StdPeriph_Driver/src/stm32f30x_opamp.c ****   *          to select the OPAMP peripheral.
 158:/home/user/Desktop/STM32-Projekte/FH-Vertibot/src/STM32F30x_StdPeriph_Driver/src/stm32f30x_opamp.c ****   * @param  OPAMP_InitStruct: pointer to an OPAMP_InitTypeDef structure that contains 
 159:/home/user/Desktop/STM32-Projekte/FH-Vertibot/src/STM32F30x_StdPeriph_Driver/src/stm32f30x_opamp.c ****   *         the configuration information for the specified OPAMP peripheral.
 160:/home/user/Desktop/STM32-Projekte/FH-Vertibot/src/STM32F30x_StdPeriph_Driver/src/stm32f30x_opamp.c ****   *           - OPAMP_InvertingInput specifies the inverting input of OPAMP
 161:/home/user/Desktop/STM32-Projekte/FH-Vertibot/src/STM32F30x_StdPeriph_Driver/src/stm32f30x_opamp.c ****   *           - OPAMP_NonInvertingInput specifies the non inverting input of OPAMP
 162:/home/user/Desktop/STM32-Projekte/FH-Vertibot/src/STM32F30x_StdPeriph_Driver/src/stm32f30x_opamp.c ****   * @retval None
 163:/home/user/Desktop/STM32-Projekte/FH-Vertibot/src/STM32F30x_StdPeriph_Driver/src/stm32f30x_opamp.c ****   */
 164:/home/user/Desktop/STM32-Projekte/FH-Vertibot/src/STM32F30x_StdPeriph_Driver/src/stm32f30x_opamp.c **** void OPAMP_Init(uint32_t OPAMP_Selection, OPAMP_InitTypeDef* OPAMP_InitStruct)
 165:/home/user/Desktop/STM32-Projekte/FH-Vertibot/src/STM32F30x_StdPeriph_Driver/src/stm32f30x_opamp.c **** {
  53              		.loc 1 165 0
  54              		.cfi_startproc
  55              		@ args = 0, pretend = 0, frame = 0
  56              		@ frame_needed = 0, uses_anonymous_args = 0
  57              	.LVL1:
 166:/home/user/Desktop/STM32-Projekte/FH-Vertibot/src/STM32F30x_StdPeriph_Driver/src/stm32f30x_opamp.c ****   uint32_t tmpreg = 0;
 167:/home/user/Desktop/STM32-Projekte/FH-Vertibot/src/STM32F30x_StdPeriph_Driver/src/stm32f30x_opamp.c **** 
 168:/home/user/Desktop/STM32-Projekte/FH-Vertibot/src/STM32F30x_StdPeriph_Driver/src/stm32f30x_opamp.c ****   /* Check the parameters */
 169:/home/user/Desktop/STM32-Projekte/FH-Vertibot/src/STM32F30x_StdPeriph_Driver/src/stm32f30x_opamp.c ****   assert_param(IS_OPAMP_ALL_PERIPH(OPAMP_Selection));
 170:/home/user/Desktop/STM32-Projekte/FH-Vertibot/src/STM32F30x_StdPeriph_Driver/src/stm32f30x_opamp.c ****   assert_param(IS_OPAMP_INVERTING_INPUT(OPAMP_InitStruct->OPAMP_InvertingInput));
 171:/home/user/Desktop/STM32-Projekte/FH-Vertibot/src/STM32F30x_StdPeriph_Driver/src/stm32f30x_opamp.c ****   assert_param(IS_OPAMP_NONINVERTING_INPUT(OPAMP_InitStruct->OPAMP_NonInvertingInput));
 172:/home/user/Desktop/STM32-Projekte/FH-Vertibot/src/STM32F30x_StdPeriph_Driver/src/stm32f30x_opamp.c **** 
 173:/home/user/Desktop/STM32-Projekte/FH-Vertibot/src/STM32F30x_StdPeriph_Driver/src/stm32f30x_opamp.c ****   /*!< Get the OPAMPx_CSR register value */
 174:/home/user/Desktop/STM32-Projekte/FH-Vertibot/src/STM32F30x_StdPeriph_Driver/src/stm32f30x_opamp.c ****   tmpreg = *(__IO uint32_t *) (OPAMP_BASE + OPAMP_Selection);
  58              		.loc 1 174 0
  59 000c 054B     		ldr	r3, .L5
 165:/home/user/Desktop/STM32-Projekte/FH-Vertibot/src/STM32F30x_StdPeriph_Driver/src/stm32f30x_opamp.c **** {
  60              		.loc 1 165 0
  61 000e 30B5     		push	{r4, r5, lr}
  62              	.LCFI0:
  63              		.cfi_def_cfa_offset 12
  64              		.cfi_offset 4, -12
  65              		.cfi_offset 5, -8
  66              		.cfi_offset 14, -4
 175:/home/user/Desktop/STM32-Projekte/FH-Vertibot/src/STM32F30x_StdPeriph_Driver/src/stm32f30x_opamp.c **** 
 176:/home/user/Desktop/STM32-Projekte/FH-Vertibot/src/STM32F30x_StdPeriph_Driver/src/stm32f30x_opamp.c ****   /*!< Clear the inverting and non inverting bits selection bits */
 177:/home/user/Desktop/STM32-Projekte/FH-Vertibot/src/STM32F30x_StdPeriph_Driver/src/stm32f30x_opamp.c ****   tmpreg &= (uint32_t) (OPAMP_CSR_DEFAULT_MASK);
 178:/home/user/Desktop/STM32-Projekte/FH-Vertibot/src/STM32F30x_StdPeriph_Driver/src/stm32f30x_opamp.c **** 
 179:/home/user/Desktop/STM32-Projekte/FH-Vertibot/src/STM32F30x_StdPeriph_Driver/src/stm32f30x_opamp.c ****   /*!< Configure OPAMP: inverting and non inverting inputs */
 180:/home/user/Desktop/STM32-Projekte/FH-Vertibot/src/STM32F30x_StdPeriph_Driver/src/stm32f30x_opamp.c ****   tmpreg |= (uint32_t)(OPAMP_InitStruct->OPAMP_InvertingInput | OPAMP_InitStruct->OPAMP_NonInvertin
  67              		.loc 1 180 0
  68 0010 91E82400 		ldmia	r1, {r2, r5}
 174:/home/user/Desktop/STM32-Projekte/FH-Vertibot/src/STM32F30x_StdPeriph_Driver/src/stm32f30x_opamp.c ****   tmpreg = *(__IO uint32_t *) (OPAMP_BASE + OPAMP_Selection);
  69              		.loc 1 174 0
  70 0014 C458     		ldr	r4, [r0, r3]
  71              	.LVL2:
  72              		.loc 1 180 0
  73 0016 2A43     		orrs	r2, r2, r5
 177:/home/user/Desktop/STM32-Projekte/FH-Vertibot/src/STM32F30x_StdPeriph_Driver/src/stm32f30x_opamp.c ****   tmpreg &= (uint32_t) (OPAMP_CSR_DEFAULT_MASK);
  74              		.loc 1 177 0
  75 0018 24F06C04 		bic	r4, r4, #108
  76              	.LVL3:
  77              		.loc 1 180 0
  78 001c 2243     		orrs	r2, r2, r4
  79              	.LVL4:
 181:/home/user/Desktop/STM32-Projekte/FH-Vertibot/src/STM32F30x_StdPeriph_Driver/src/stm32f30x_opamp.c **** 
 182:/home/user/Desktop/STM32-Projekte/FH-Vertibot/src/STM32F30x_StdPeriph_Driver/src/stm32f30x_opamp.c ****   /*!< Write to OPAMPx_CSR register */
 183:/home/user/Desktop/STM32-Projekte/FH-Vertibot/src/STM32F30x_StdPeriph_Driver/src/stm32f30x_opamp.c ****   *(__IO uint32_t *) (OPAMP_BASE + OPAMP_Selection) = tmpreg;
  80              		.loc 1 183 0
  81 001e C250     		str	r2, [r0, r3]
  82 0020 30BD     		pop	{r4, r5, pc}
  83              	.L6:
  84 0022 00BF     		.align	2
  85              	.L5:
  86 0024 38000140 		.word	1073807416
  87              		.cfi_endproc
  88              	.LFE112:
  90              		.align	1
  91              		.global	OPAMP_StructInit
  92              		.thumb
  93              		.thumb_func
  95              	OPAMP_StructInit:
  96              	.LFB113:
 184:/home/user/Desktop/STM32-Projekte/FH-Vertibot/src/STM32F30x_StdPeriph_Driver/src/stm32f30x_opamp.c **** }
 185:/home/user/Desktop/STM32-Projekte/FH-Vertibot/src/STM32F30x_StdPeriph_Driver/src/stm32f30x_opamp.c **** 
 186:/home/user/Desktop/STM32-Projekte/FH-Vertibot/src/STM32F30x_StdPeriph_Driver/src/stm32f30x_opamp.c **** /**
 187:/home/user/Desktop/STM32-Projekte/FH-Vertibot/src/STM32F30x_StdPeriph_Driver/src/stm32f30x_opamp.c ****   * @brief  Fills each OPAMP_InitStruct member with its default value.
 188:/home/user/Desktop/STM32-Projekte/FH-Vertibot/src/STM32F30x_StdPeriph_Driver/src/stm32f30x_opamp.c ****   * @param  OPAMP_InitStruct: pointer to an OPAMP_InitTypeDef structure which will 
 189:/home/user/Desktop/STM32-Projekte/FH-Vertibot/src/STM32F30x_StdPeriph_Driver/src/stm32f30x_opamp.c ****   *         be initialized.
 190:/home/user/Desktop/STM32-Projekte/FH-Vertibot/src/STM32F30x_StdPeriph_Driver/src/stm32f30x_opamp.c ****   * @retval None
 191:/home/user/Desktop/STM32-Projekte/FH-Vertibot/src/STM32F30x_StdPeriph_Driver/src/stm32f30x_opamp.c ****   */
 192:/home/user/Desktop/STM32-Projekte/FH-Vertibot/src/STM32F30x_StdPeriph_Driver/src/stm32f30x_opamp.c **** void OPAMP_StructInit(OPAMP_InitTypeDef* OPAMP_InitStruct)
 193:/home/user/Desktop/STM32-Projekte/FH-Vertibot/src/STM32F30x_StdPeriph_Driver/src/stm32f30x_opamp.c **** {
  97              		.loc 1 193 0
  98              		.cfi_startproc
  99              		@ args = 0, pretend = 0, frame = 0
 100              		@ frame_needed = 0, uses_anonymous_args = 0
 101              		@ link register save eliminated.
 102              	.LVL5:
 194:/home/user/Desktop/STM32-Projekte/FH-Vertibot/src/STM32F30x_StdPeriph_Driver/src/stm32f30x_opamp.c ****   OPAMP_InitStruct->OPAMP_NonInvertingInput = OPAMP_NonInvertingInput_IO1;
 103              		.loc 1 194 0
 104 0028 0023     		movs	r3, #0
 105 002a 4360     		str	r3, [r0, #4]
 195:/home/user/Desktop/STM32-Projekte/FH-Vertibot/src/STM32F30x_StdPeriph_Driver/src/stm32f30x_opamp.c ****   OPAMP_InitStruct->OPAMP_InvertingInput = OPAMP_InvertingInput_IO1;
 106              		.loc 1 195 0
 107 002c 0360     		str	r3, [r0]
 108 002e 7047     		bx	lr
 109              		.cfi_endproc
 110              	.LFE113:
 112              		.align	1
 113              		.global	OPAMP_PGAConfig
 114              		.thumb
 115              		.thumb_func
 117              	OPAMP_PGAConfig:
 118              	.LFB114:
 196:/home/user/Desktop/STM32-Projekte/FH-Vertibot/src/STM32F30x_StdPeriph_Driver/src/stm32f30x_opamp.c **** }
 197:/home/user/Desktop/STM32-Projekte/FH-Vertibot/src/STM32F30x_StdPeriph_Driver/src/stm32f30x_opamp.c **** 
 198:/home/user/Desktop/STM32-Projekte/FH-Vertibot/src/STM32F30x_StdPeriph_Driver/src/stm32f30x_opamp.c **** /**
 199:/home/user/Desktop/STM32-Projekte/FH-Vertibot/src/STM32F30x_StdPeriph_Driver/src/stm32f30x_opamp.c ****   * @brief  Configure the feedback resistor gain.
 200:/home/user/Desktop/STM32-Projekte/FH-Vertibot/src/STM32F30x_StdPeriph_Driver/src/stm32f30x_opamp.c ****   * @note   If the selected OPAMP is locked, gain configuration can't be performed.
 201:/home/user/Desktop/STM32-Projekte/FH-Vertibot/src/STM32F30x_StdPeriph_Driver/src/stm32f30x_opamp.c ****   *         To unlock the configuration, perform a system reset.
 202:/home/user/Desktop/STM32-Projekte/FH-Vertibot/src/STM32F30x_StdPeriph_Driver/src/stm32f30x_opamp.c ****   * @param  OPAMP_Selection: the selected OPAMP. 
 203:/home/user/Desktop/STM32-Projekte/FH-Vertibot/src/STM32F30x_StdPeriph_Driver/src/stm32f30x_opamp.c ****   *          This parameter can be OPAMP_Selection_OPAMPx where x can be 1 to 4
 204:/home/user/Desktop/STM32-Projekte/FH-Vertibot/src/STM32F30x_StdPeriph_Driver/src/stm32f30x_opamp.c ****   *          to select the OPAMP peripheral.
 205:/home/user/Desktop/STM32-Projekte/FH-Vertibot/src/STM32F30x_StdPeriph_Driver/src/stm32f30x_opamp.c ****   * @param  NewState: new state of the OPAMP peripheral.
 206:/home/user/Desktop/STM32-Projekte/FH-Vertibot/src/STM32F30x_StdPeriph_Driver/src/stm32f30x_opamp.c ****   *         This parameter can be: ENABLE or DISABLE.
 207:/home/user/Desktop/STM32-Projekte/FH-Vertibot/src/STM32F30x_StdPeriph_Driver/src/stm32f30x_opamp.c ****   * @retval None
 208:/home/user/Desktop/STM32-Projekte/FH-Vertibot/src/STM32F30x_StdPeriph_Driver/src/stm32f30x_opamp.c ****   */
 209:/home/user/Desktop/STM32-Projekte/FH-Vertibot/src/STM32F30x_StdPeriph_Driver/src/stm32f30x_opamp.c **** void OPAMP_PGAConfig(uint32_t OPAMP_Selection, uint32_t OPAMP_PGAGain, uint32_t OPAMP_PGAConnect)
 210:/home/user/Desktop/STM32-Projekte/FH-Vertibot/src/STM32F30x_StdPeriph_Driver/src/stm32f30x_opamp.c **** {
 119              		.loc 1 210 0
 120              		.cfi_startproc
 121              		@ args = 0, pretend = 0, frame = 0
 122              		@ frame_needed = 0, uses_anonymous_args = 0
 123              	.LVL6:
 211:/home/user/Desktop/STM32-Projekte/FH-Vertibot/src/STM32F30x_StdPeriph_Driver/src/stm32f30x_opamp.c ****   /* Check the parameters */
 212:/home/user/Desktop/STM32-Projekte/FH-Vertibot/src/STM32F30x_StdPeriph_Driver/src/stm32f30x_opamp.c ****   assert_param(IS_OPAMP_ALL_PERIPH(OPAMP_Selection));
 213:/home/user/Desktop/STM32-Projekte/FH-Vertibot/src/STM32F30x_StdPeriph_Driver/src/stm32f30x_opamp.c ****   assert_param(IS_OPAMP_PGAGAIN(OPAMP_PGAGain));
 214:/home/user/Desktop/STM32-Projekte/FH-Vertibot/src/STM32F30x_StdPeriph_Driver/src/stm32f30x_opamp.c ****   assert_param(IS_OPAMP_PGACONNECT(OPAMP_PGAConnect));
 215:/home/user/Desktop/STM32-Projekte/FH-Vertibot/src/STM32F30x_StdPeriph_Driver/src/stm32f30x_opamp.c **** 
 216:/home/user/Desktop/STM32-Projekte/FH-Vertibot/src/STM32F30x_StdPeriph_Driver/src/stm32f30x_opamp.c ****   /* Reset the configuration bits */
 217:/home/user/Desktop/STM32-Projekte/FH-Vertibot/src/STM32F30x_StdPeriph_Driver/src/stm32f30x_opamp.c ****   *(__IO uint32_t *) (OPAMP_BASE + OPAMP_Selection) &= (uint32_t)(~OPAMP_CSR_PGGAIN);
 124              		.loc 1 217 0
 125 0030 054B     		ldr	r3, .L9
 210:/home/user/Desktop/STM32-Projekte/FH-Vertibot/src/STM32F30x_StdPeriph_Driver/src/stm32f30x_opamp.c **** {
 126              		.loc 1 210 0
 127 0032 10B5     		push	{r4, lr}
 128              	.LCFI1:
 129              		.cfi_def_cfa_offset 8
 130              		.cfi_offset 4, -8
 131              		.cfi_offset 14, -4
 132              		.loc 1 217 0
 133 0034 C458     		ldr	r4, [r0, r3]
 134 0036 24F47034 		bic	r4, r4, #245760
 135 003a C450     		str	r4, [r0, r3]
 218:/home/user/Desktop/STM32-Projekte/FH-Vertibot/src/STM32F30x_StdPeriph_Driver/src/stm32f30x_opamp.c **** 
 219:/home/user/Desktop/STM32-Projekte/FH-Vertibot/src/STM32F30x_StdPeriph_Driver/src/stm32f30x_opamp.c ****   /* Set the new configuration */
 220:/home/user/Desktop/STM32-Projekte/FH-Vertibot/src/STM32F30x_StdPeriph_Driver/src/stm32f30x_opamp.c ****   *(__IO uint32_t *) (OPAMP_BASE + OPAMP_Selection) |= (uint32_t) (OPAMP_PGAGain | OPAMP_PGAConnect
 136              		.loc 1 220 0
 137 003c C458     		ldr	r4, [r0, r3]
 138 003e 0A43     		orrs	r2, r2, r1
 139              	.LVL7:
 140 0040 1443     		orrs	r4, r4, r2
 141 0042 C450     		str	r4, [r0, r3]
 142 0044 10BD     		pop	{r4, pc}
 143              	.L10:
 144 0046 00BF     		.align	2
 145              	.L9:
 146 0048 38000140 		.word	1073807416
 147              		.cfi_endproc
 148              	.LFE114:
 150              		.align	1
 151              		.global	OPAMP_VrefConfig
 152              		.thumb
 153              		.thumb_func
 155              	OPAMP_VrefConfig:
 156              	.LFB115:
 221:/home/user/Desktop/STM32-Projekte/FH-Vertibot/src/STM32F30x_StdPeriph_Driver/src/stm32f30x_opamp.c **** }
 222:/home/user/Desktop/STM32-Projekte/FH-Vertibot/src/STM32F30x_StdPeriph_Driver/src/stm32f30x_opamp.c **** 
 223:/home/user/Desktop/STM32-Projekte/FH-Vertibot/src/STM32F30x_StdPeriph_Driver/src/stm32f30x_opamp.c **** /**
 224:/home/user/Desktop/STM32-Projekte/FH-Vertibot/src/STM32F30x_StdPeriph_Driver/src/stm32f30x_opamp.c ****   * @brief  Configure the OPAMP's internal reference.
 225:/home/user/Desktop/STM32-Projekte/FH-Vertibot/src/STM32F30x_StdPeriph_Driver/src/stm32f30x_opamp.c ****   * @note   This feature is used when calibration enabled or OPAMP's reference
 226:/home/user/Desktop/STM32-Projekte/FH-Vertibot/src/STM32F30x_StdPeriph_Driver/src/stm32f30x_opamp.c ****   *         connected to the non inverting input.
 227:/home/user/Desktop/STM32-Projekte/FH-Vertibot/src/STM32F30x_StdPeriph_Driver/src/stm32f30x_opamp.c ****   * @note   If the selected OPAMP is locked, Vref configuration can't be performed.
 228:/home/user/Desktop/STM32-Projekte/FH-Vertibot/src/STM32F30x_StdPeriph_Driver/src/stm32f30x_opamp.c ****   *         To unlock the configuration, perform a system reset.  
 229:/home/user/Desktop/STM32-Projekte/FH-Vertibot/src/STM32F30x_StdPeriph_Driver/src/stm32f30x_opamp.c ****   * @param  OPAMP_Selection: the selected OPAMP. 
 230:/home/user/Desktop/STM32-Projekte/FH-Vertibot/src/STM32F30x_StdPeriph_Driver/src/stm32f30x_opamp.c ****   *          This parameter can be OPAMP_Selection_OPAMPx where x can be 1 to 4
 231:/home/user/Desktop/STM32-Projekte/FH-Vertibot/src/STM32F30x_StdPeriph_Driver/src/stm32f30x_opamp.c ****   *          to select the OPAMP peripheral.
 232:/home/user/Desktop/STM32-Projekte/FH-Vertibot/src/STM32F30x_StdPeriph_Driver/src/stm32f30x_opamp.c ****   * @param  OPAMP_Vref: This parameter can be:
 233:/home/user/Desktop/STM32-Projekte/FH-Vertibot/src/STM32F30x_StdPeriph_Driver/src/stm32f30x_opamp.c ****   *           OPAMP_Vref_3VDDA: OPMAP Vref = 3.3% VDDA
 234:/home/user/Desktop/STM32-Projekte/FH-Vertibot/src/STM32F30x_StdPeriph_Driver/src/stm32f30x_opamp.c ****   *           OPAMP_Vref_10VDDA: OPMAP Vref = 10% VDDA
 235:/home/user/Desktop/STM32-Projekte/FH-Vertibot/src/STM32F30x_StdPeriph_Driver/src/stm32f30x_opamp.c ****   *           OPAMP_Vref_50VDDA: OPMAP Vref = 50% VDDA
 236:/home/user/Desktop/STM32-Projekte/FH-Vertibot/src/STM32F30x_StdPeriph_Driver/src/stm32f30x_opamp.c ****   *           OPAMP_Vref_90VDDA: OPMAP Vref = 90% VDDA
 237:/home/user/Desktop/STM32-Projekte/FH-Vertibot/src/STM32F30x_StdPeriph_Driver/src/stm32f30x_opamp.c ****   * @retval None
 238:/home/user/Desktop/STM32-Projekte/FH-Vertibot/src/STM32F30x_StdPeriph_Driver/src/stm32f30x_opamp.c ****   */
 239:/home/user/Desktop/STM32-Projekte/FH-Vertibot/src/STM32F30x_StdPeriph_Driver/src/stm32f30x_opamp.c **** void OPAMP_VrefConfig(uint32_t OPAMP_Selection, uint32_t OPAMP_Vref)
 240:/home/user/Desktop/STM32-Projekte/FH-Vertibot/src/STM32F30x_StdPeriph_Driver/src/stm32f30x_opamp.c **** {
 157              		.loc 1 240 0
 158              		.cfi_startproc
 159              		@ args = 0, pretend = 0, frame = 0
 160              		@ frame_needed = 0, uses_anonymous_args = 0
 161              		@ link register save eliminated.
 162              	.LVL8:
 241:/home/user/Desktop/STM32-Projekte/FH-Vertibot/src/STM32F30x_StdPeriph_Driver/src/stm32f30x_opamp.c ****   uint32_t tmpreg = 0;
 242:/home/user/Desktop/STM32-Projekte/FH-Vertibot/src/STM32F30x_StdPeriph_Driver/src/stm32f30x_opamp.c **** 
 243:/home/user/Desktop/STM32-Projekte/FH-Vertibot/src/STM32F30x_StdPeriph_Driver/src/stm32f30x_opamp.c ****   /* Check the parameters */
 244:/home/user/Desktop/STM32-Projekte/FH-Vertibot/src/STM32F30x_StdPeriph_Driver/src/stm32f30x_opamp.c ****   assert_param(IS_OPAMP_ALL_PERIPH(OPAMP_Selection));
 245:/home/user/Desktop/STM32-Projekte/FH-Vertibot/src/STM32F30x_StdPeriph_Driver/src/stm32f30x_opamp.c ****   assert_param(IS_OPAMP_VREF(OPAMP_Vref));
 246:/home/user/Desktop/STM32-Projekte/FH-Vertibot/src/STM32F30x_StdPeriph_Driver/src/stm32f30x_opamp.c **** 
 247:/home/user/Desktop/STM32-Projekte/FH-Vertibot/src/STM32F30x_StdPeriph_Driver/src/stm32f30x_opamp.c ****   /*!< Get the OPAMPx_CSR register value */
 248:/home/user/Desktop/STM32-Projekte/FH-Vertibot/src/STM32F30x_StdPeriph_Driver/src/stm32f30x_opamp.c ****   tmpreg = *(__IO uint32_t *) (OPAMP_BASE + OPAMP_Selection);
 163              		.loc 1 248 0
 164 004c 034B     		ldr	r3, .L12
 165 004e C258     		ldr	r2, [r0, r3]
 166              	.LVL9:
 249:/home/user/Desktop/STM32-Projekte/FH-Vertibot/src/STM32F30x_StdPeriph_Driver/src/stm32f30x_opamp.c **** 
 250:/home/user/Desktop/STM32-Projekte/FH-Vertibot/src/STM32F30x_StdPeriph_Driver/src/stm32f30x_opamp.c ****   /*!< Clear the CALSEL bits */
 251:/home/user/Desktop/STM32-Projekte/FH-Vertibot/src/STM32F30x_StdPeriph_Driver/src/stm32f30x_opamp.c ****   tmpreg &= (uint32_t) (~OPAMP_CSR_CALSEL);
 167              		.loc 1 251 0
 168 0050 22F44052 		bic	r2, r2, #12288
 169              	.LVL10:
 252:/home/user/Desktop/STM32-Projekte/FH-Vertibot/src/STM32F30x_StdPeriph_Driver/src/stm32f30x_opamp.c **** 
 253:/home/user/Desktop/STM32-Projekte/FH-Vertibot/src/STM32F30x_StdPeriph_Driver/src/stm32f30x_opamp.c ****   /*!< Configure OPAMP reference */
 254:/home/user/Desktop/STM32-Projekte/FH-Vertibot/src/STM32F30x_StdPeriph_Driver/src/stm32f30x_opamp.c ****   tmpreg |= (uint32_t)(OPAMP_Vref);
 170              		.loc 1 254 0
 171 0054 1143     		orrs	r1, r1, r2
 172              	.LVL11:
 255:/home/user/Desktop/STM32-Projekte/FH-Vertibot/src/STM32F30x_StdPeriph_Driver/src/stm32f30x_opamp.c **** 
 256:/home/user/Desktop/STM32-Projekte/FH-Vertibot/src/STM32F30x_StdPeriph_Driver/src/stm32f30x_opamp.c ****   /*!< Write to OPAMPx_CSR register */
 257:/home/user/Desktop/STM32-Projekte/FH-Vertibot/src/STM32F30x_StdPeriph_Driver/src/stm32f30x_opamp.c ****   *(__IO uint32_t *) (OPAMP_BASE + OPAMP_Selection) = tmpreg;
 173              		.loc 1 257 0
 174 0056 C150     		str	r1, [r0, r3]
 175 0058 7047     		bx	lr
 176              	.L13:
 177 005a 00BF     		.align	2
 178              	.L12:
 179 005c 38000140 		.word	1073807416
 180              		.cfi_endproc
 181              	.LFE115:
 183              		.align	1
 184              		.global	OPAMP_VrefConnectNonInvertingInput
 185              		.thumb
 186              		.thumb_func
 188              	OPAMP_VrefConnectNonInvertingInput:
 189              	.LFB116:
 258:/home/user/Desktop/STM32-Projekte/FH-Vertibot/src/STM32F30x_StdPeriph_Driver/src/stm32f30x_opamp.c **** }
 259:/home/user/Desktop/STM32-Projekte/FH-Vertibot/src/STM32F30x_StdPeriph_Driver/src/stm32f30x_opamp.c **** 
 260:/home/user/Desktop/STM32-Projekte/FH-Vertibot/src/STM32F30x_StdPeriph_Driver/src/stm32f30x_opamp.c **** /**
 261:/home/user/Desktop/STM32-Projekte/FH-Vertibot/src/STM32F30x_StdPeriph_Driver/src/stm32f30x_opamp.c ****   * @brief  Connnect the internal reference to the OPAMP's non inverting input.
 262:/home/user/Desktop/STM32-Projekte/FH-Vertibot/src/STM32F30x_StdPeriph_Driver/src/stm32f30x_opamp.c ****   * @note   If the selected OPAMP is locked, Vref configuration can't be performed.
 263:/home/user/Desktop/STM32-Projekte/FH-Vertibot/src/STM32F30x_StdPeriph_Driver/src/stm32f30x_opamp.c ****   *         To unlock the configuration, perform a system reset.  
 264:/home/user/Desktop/STM32-Projekte/FH-Vertibot/src/STM32F30x_StdPeriph_Driver/src/stm32f30x_opamp.c ****   * @param  OPAMP_Selection: the selected OPAMP. 
 265:/home/user/Desktop/STM32-Projekte/FH-Vertibot/src/STM32F30x_StdPeriph_Driver/src/stm32f30x_opamp.c ****   *          This parameter can be OPAMP_Selection_OPAMPx where x can be 1 to 4
 266:/home/user/Desktop/STM32-Projekte/FH-Vertibot/src/STM32F30x_StdPeriph_Driver/src/stm32f30x_opamp.c ****   *          to select the OPAMP peripheral.
 267:/home/user/Desktop/STM32-Projekte/FH-Vertibot/src/STM32F30x_StdPeriph_Driver/src/stm32f30x_opamp.c ****   * @param  NewState: new state of the OPAMP peripheral.
 268:/home/user/Desktop/STM32-Projekte/FH-Vertibot/src/STM32F30x_StdPeriph_Driver/src/stm32f30x_opamp.c ****   *         This parameter can be: ENABLE or DISABLE.
 269:/home/user/Desktop/STM32-Projekte/FH-Vertibot/src/STM32F30x_StdPeriph_Driver/src/stm32f30x_opamp.c ****   * @retval None
 270:/home/user/Desktop/STM32-Projekte/FH-Vertibot/src/STM32F30x_StdPeriph_Driver/src/stm32f30x_opamp.c ****   */
 271:/home/user/Desktop/STM32-Projekte/FH-Vertibot/src/STM32F30x_StdPeriph_Driver/src/stm32f30x_opamp.c **** void OPAMP_VrefConnectNonInvertingInput(uint32_t OPAMP_Selection, FunctionalState NewState)
 272:/home/user/Desktop/STM32-Projekte/FH-Vertibot/src/STM32F30x_StdPeriph_Driver/src/stm32f30x_opamp.c **** {
 190              		.loc 1 272 0
 191              		.cfi_startproc
 192              		@ args = 0, pretend = 0, frame = 0
 193              		@ frame_needed = 0, uses_anonymous_args = 0
 194              		@ link register save eliminated.
 195              	.LVL12:
 196 0060 044B     		ldr	r3, .L19
 273:/home/user/Desktop/STM32-Projekte/FH-Vertibot/src/STM32F30x_StdPeriph_Driver/src/stm32f30x_opamp.c ****   /* Check the parameters */
 274:/home/user/Desktop/STM32-Projekte/FH-Vertibot/src/STM32F30x_StdPeriph_Driver/src/stm32f30x_opamp.c ****   assert_param(IS_OPAMP_ALL_PERIPH(OPAMP_Selection));
 275:/home/user/Desktop/STM32-Projekte/FH-Vertibot/src/STM32F30x_StdPeriph_Driver/src/stm32f30x_opamp.c ****   assert_param(IS_FUNCTIONAL_STATE(NewState));
 276:/home/user/Desktop/STM32-Projekte/FH-Vertibot/src/STM32F30x_StdPeriph_Driver/src/stm32f30x_opamp.c **** 
 277:/home/user/Desktop/STM32-Projekte/FH-Vertibot/src/STM32F30x_StdPeriph_Driver/src/stm32f30x_opamp.c ****   if (NewState != DISABLE)
 278:/home/user/Desktop/STM32-Projekte/FH-Vertibot/src/STM32F30x_StdPeriph_Driver/src/stm32f30x_opamp.c ****   {
 279:/home/user/Desktop/STM32-Projekte/FH-Vertibot/src/STM32F30x_StdPeriph_Driver/src/stm32f30x_opamp.c ****     /* Connnect the internal reference to the OPAMP's non inverting input */
 280:/home/user/Desktop/STM32-Projekte/FH-Vertibot/src/STM32F30x_StdPeriph_Driver/src/stm32f30x_opamp.c ****     *(__IO uint32_t *) (OPAMP_BASE + OPAMP_Selection) |= (uint32_t) (OPAMP_CSR_FORCEVP);
 197              		.loc 1 280 0
 198 0062 C258     		ldr	r2, [r0, r3]
 277:/home/user/Desktop/STM32-Projekte/FH-Vertibot/src/STM32F30x_StdPeriph_Driver/src/stm32f30x_opamp.c ****   if (NewState != DISABLE)
 199              		.loc 1 277 0
 200 0064 11B1     		cbz	r1, .L15
 201              		.loc 1 280 0
 202 0066 42F00202 		orr	r2, r2, #2
 203 006a 01E0     		b	.L17
 204              	.L15:
 281:/home/user/Desktop/STM32-Projekte/FH-Vertibot/src/STM32F30x_StdPeriph_Driver/src/stm32f30x_opamp.c ****   }
 282:/home/user/Desktop/STM32-Projekte/FH-Vertibot/src/STM32F30x_StdPeriph_Driver/src/stm32f30x_opamp.c ****   else
 283:/home/user/Desktop/STM32-Projekte/FH-Vertibot/src/STM32F30x_StdPeriph_Driver/src/stm32f30x_opamp.c ****   {
 284:/home/user/Desktop/STM32-Projekte/FH-Vertibot/src/STM32F30x_StdPeriph_Driver/src/stm32f30x_opamp.c ****     /* Disconnnect the internal reference to the OPAMP's non inverting input */
 285:/home/user/Desktop/STM32-Projekte/FH-Vertibot/src/STM32F30x_StdPeriph_Driver/src/stm32f30x_opamp.c ****     *(__IO uint32_t *) (OPAMP_BASE + OPAMP_Selection) &= (uint32_t)(~OPAMP_CSR_FORCEVP);
 205              		.loc 1 285 0
 206 006c 22F00202 		bic	r2, r2, #2
 207              	.L17:
 208 0070 C250     		str	r2, [r0, r3]
 209 0072 7047     		bx	lr
 210              	.L20:
 211              		.align	2
 212              	.L19:
 213 0074 38000140 		.word	1073807416
 214              		.cfi_endproc
 215              	.LFE116:
 217              		.align	1
 218              		.global	OPAMP_VrefConnectADCCmd
 219              		.thumb
 220              		.thumb_func
 222              	OPAMP_VrefConnectADCCmd:
 223              	.LFB117:
 286:/home/user/Desktop/STM32-Projekte/FH-Vertibot/src/STM32F30x_StdPeriph_Driver/src/stm32f30x_opamp.c ****   }
 287:/home/user/Desktop/STM32-Projekte/FH-Vertibot/src/STM32F30x_StdPeriph_Driver/src/stm32f30x_opamp.c **** }
 288:/home/user/Desktop/STM32-Projekte/FH-Vertibot/src/STM32F30x_StdPeriph_Driver/src/stm32f30x_opamp.c **** 
 289:/home/user/Desktop/STM32-Projekte/FH-Vertibot/src/STM32F30x_StdPeriph_Driver/src/stm32f30x_opamp.c **** /**
 290:/home/user/Desktop/STM32-Projekte/FH-Vertibot/src/STM32F30x_StdPeriph_Driver/src/stm32f30x_opamp.c ****   * @brief  Enables or disables connecting the OPAMP's internal reference to ADC.
 291:/home/user/Desktop/STM32-Projekte/FH-Vertibot/src/STM32F30x_StdPeriph_Driver/src/stm32f30x_opamp.c ****   * @note   If the selected OPAMP is locked, Vref connection can't be performed.
 292:/home/user/Desktop/STM32-Projekte/FH-Vertibot/src/STM32F30x_StdPeriph_Driver/src/stm32f30x_opamp.c ****   *         To unlock the configuration, perform a system reset.  
 293:/home/user/Desktop/STM32-Projekte/FH-Vertibot/src/STM32F30x_StdPeriph_Driver/src/stm32f30x_opamp.c ****   * @param  NewState: new state of the Vrefint output.
 294:/home/user/Desktop/STM32-Projekte/FH-Vertibot/src/STM32F30x_StdPeriph_Driver/src/stm32f30x_opamp.c ****   *         This parameter can be: ENABLE or DISABLE.
 295:/home/user/Desktop/STM32-Projekte/FH-Vertibot/src/STM32F30x_StdPeriph_Driver/src/stm32f30x_opamp.c ****   * @retval None
 296:/home/user/Desktop/STM32-Projekte/FH-Vertibot/src/STM32F30x_StdPeriph_Driver/src/stm32f30x_opamp.c ****   */
 297:/home/user/Desktop/STM32-Projekte/FH-Vertibot/src/STM32F30x_StdPeriph_Driver/src/stm32f30x_opamp.c **** void OPAMP_VrefConnectADCCmd(uint32_t OPAMP_Selection, FunctionalState NewState)
 298:/home/user/Desktop/STM32-Projekte/FH-Vertibot/src/STM32F30x_StdPeriph_Driver/src/stm32f30x_opamp.c **** {
 224              		.loc 1 298 0
 225              		.cfi_startproc
 226              		@ args = 0, pretend = 0, frame = 0
 227              		@ frame_needed = 0, uses_anonymous_args = 0
 228              		@ link register save eliminated.
 229              	.LVL13:
 230 0078 044B     		ldr	r3, .L25
 299:/home/user/Desktop/STM32-Projekte/FH-Vertibot/src/STM32F30x_StdPeriph_Driver/src/stm32f30x_opamp.c ****   /* Check the parameters */
 300:/home/user/Desktop/STM32-Projekte/FH-Vertibot/src/STM32F30x_StdPeriph_Driver/src/stm32f30x_opamp.c ****   assert_param(IS_OPAMP_ALL_PERIPH(OPAMP_Selection));
 301:/home/user/Desktop/STM32-Projekte/FH-Vertibot/src/STM32F30x_StdPeriph_Driver/src/stm32f30x_opamp.c ****   assert_param(IS_FUNCTIONAL_STATE(NewState));
 302:/home/user/Desktop/STM32-Projekte/FH-Vertibot/src/STM32F30x_StdPeriph_Driver/src/stm32f30x_opamp.c **** 
 303:/home/user/Desktop/STM32-Projekte/FH-Vertibot/src/STM32F30x_StdPeriph_Driver/src/stm32f30x_opamp.c ****   if (NewState != DISABLE)
 304:/home/user/Desktop/STM32-Projekte/FH-Vertibot/src/STM32F30x_StdPeriph_Driver/src/stm32f30x_opamp.c ****   {
 305:/home/user/Desktop/STM32-Projekte/FH-Vertibot/src/STM32F30x_StdPeriph_Driver/src/stm32f30x_opamp.c ****     /* Enable output internal reference */
 306:/home/user/Desktop/STM32-Projekte/FH-Vertibot/src/STM32F30x_StdPeriph_Driver/src/stm32f30x_opamp.c ****     *(__IO uint32_t *) (OPAMP_BASE + OPAMP_Selection) |= (uint32_t) (OPAMP_CSR_TSTREF);
 231              		.loc 1 306 0
 232 007a C258     		ldr	r2, [r0, r3]
 303:/home/user/Desktop/STM32-Projekte/FH-Vertibot/src/STM32F30x_StdPeriph_Driver/src/stm32f30x_opamp.c ****   if (NewState != DISABLE)
 233              		.loc 1 303 0
 234 007c 11B1     		cbz	r1, .L22
 235              		.loc 1 306 0
 236 007e 42F00052 		orr	r2, r2, #536870912
 237 0082 01E0     		b	.L24
 238              	.L22:
 307:/home/user/Desktop/STM32-Projekte/FH-Vertibot/src/STM32F30x_StdPeriph_Driver/src/stm32f30x_opamp.c ****   }
 308:/home/user/Desktop/STM32-Projekte/FH-Vertibot/src/STM32F30x_StdPeriph_Driver/src/stm32f30x_opamp.c ****   else
 309:/home/user/Desktop/STM32-Projekte/FH-Vertibot/src/STM32F30x_StdPeriph_Driver/src/stm32f30x_opamp.c ****   {
 310:/home/user/Desktop/STM32-Projekte/FH-Vertibot/src/STM32F30x_StdPeriph_Driver/src/stm32f30x_opamp.c ****     /* Disable output internal reference */
 311:/home/user/Desktop/STM32-Projekte/FH-Vertibot/src/STM32F30x_StdPeriph_Driver/src/stm32f30x_opamp.c ****     *(__IO uint32_t *) (OPAMP_BASE + OPAMP_Selection) &= (uint32_t)(~OPAMP_CSR_TSTREF);
 239              		.loc 1 311 0
 240 0084 22F00052 		bic	r2, r2, #536870912
 241              	.L24:
 242 0088 C250     		str	r2, [r0, r3]
 243 008a 7047     		bx	lr
 244              	.L26:
 245              		.align	2
 246              	.L25:
 247 008c 38000140 		.word	1073807416
 248              		.cfi_endproc
 249              	.LFE117:
 251              		.align	1
 252              		.global	OPAMP_TimerControlledMuxConfig
 253              		.thumb
 254              		.thumb_func
 256              	OPAMP_TimerControlledMuxConfig:
 257              	.LFB118:
 312:/home/user/Desktop/STM32-Projekte/FH-Vertibot/src/STM32F30x_StdPeriph_Driver/src/stm32f30x_opamp.c ****   }
 313:/home/user/Desktop/STM32-Projekte/FH-Vertibot/src/STM32F30x_StdPeriph_Driver/src/stm32f30x_opamp.c **** }
 314:/home/user/Desktop/STM32-Projekte/FH-Vertibot/src/STM32F30x_StdPeriph_Driver/src/stm32f30x_opamp.c **** 
 315:/home/user/Desktop/STM32-Projekte/FH-Vertibot/src/STM32F30x_StdPeriph_Driver/src/stm32f30x_opamp.c **** /**
 316:/home/user/Desktop/STM32-Projekte/FH-Vertibot/src/STM32F30x_StdPeriph_Driver/src/stm32f30x_opamp.c ****   * @brief  Configure the OPAMP peripheral (secondary inputs) for timer-controlled
 317:/home/user/Desktop/STM32-Projekte/FH-Vertibot/src/STM32F30x_StdPeriph_Driver/src/stm32f30x_opamp.c ****   *          mux mode according to the specified parameters in OPAMP_InitStruct.
 318:/home/user/Desktop/STM32-Projekte/FH-Vertibot/src/STM32F30x_StdPeriph_Driver/src/stm32f30x_opamp.c ****   * @note   If the selected OPAMP is locked, timer-controlled mux configuration
 319:/home/user/Desktop/STM32-Projekte/FH-Vertibot/src/STM32F30x_StdPeriph_Driver/src/stm32f30x_opamp.c ****   *         can't be performed.
 320:/home/user/Desktop/STM32-Projekte/FH-Vertibot/src/STM32F30x_StdPeriph_Driver/src/stm32f30x_opamp.c ****   *         To unlock the configuration, perform a system reset.
 321:/home/user/Desktop/STM32-Projekte/FH-Vertibot/src/STM32F30x_StdPeriph_Driver/src/stm32f30x_opamp.c ****   * @param  OPAMP_Selection: the selected OPAMP. 
 322:/home/user/Desktop/STM32-Projekte/FH-Vertibot/src/STM32F30x_StdPeriph_Driver/src/stm32f30x_opamp.c ****   *          This parameter can be OPAMP_Selection_OPAMPx where x can be 1 to 4
 323:/home/user/Desktop/STM32-Projekte/FH-Vertibot/src/STM32F30x_StdPeriph_Driver/src/stm32f30x_opamp.c ****   *          to select the OPAMP peripheral.
 324:/home/user/Desktop/STM32-Projekte/FH-Vertibot/src/STM32F30x_StdPeriph_Driver/src/stm32f30x_opamp.c ****   * @param  OPAMP_InitStruct: pointer to an OPAMP_InitTypeDef structure that contains 
 325:/home/user/Desktop/STM32-Projekte/FH-Vertibot/src/STM32F30x_StdPeriph_Driver/src/stm32f30x_opamp.c ****   *         the configuration information for the specified OPAMP peripheral.
 326:/home/user/Desktop/STM32-Projekte/FH-Vertibot/src/STM32F30x_StdPeriph_Driver/src/stm32f30x_opamp.c ****   *           - OPAMP_InvertingInput specifies the inverting input of OPAMP
 327:/home/user/Desktop/STM32-Projekte/FH-Vertibot/src/STM32F30x_StdPeriph_Driver/src/stm32f30x_opamp.c ****   *           - OPAMP_NonInvertingInput specifies the non inverting input of OPAMP
 328:/home/user/Desktop/STM32-Projekte/FH-Vertibot/src/STM32F30x_StdPeriph_Driver/src/stm32f30x_opamp.c ****   * @note   PGA and Vout can't be selected as seconadry inverting input.
 329:/home/user/Desktop/STM32-Projekte/FH-Vertibot/src/STM32F30x_StdPeriph_Driver/src/stm32f30x_opamp.c ****   * @retval None
 330:/home/user/Desktop/STM32-Projekte/FH-Vertibot/src/STM32F30x_StdPeriph_Driver/src/stm32f30x_opamp.c ****   */
 331:/home/user/Desktop/STM32-Projekte/FH-Vertibot/src/STM32F30x_StdPeriph_Driver/src/stm32f30x_opamp.c **** void OPAMP_TimerControlledMuxConfig(uint32_t OPAMP_Selection, OPAMP_InitTypeDef* OPAMP_InitStruct)
 332:/home/user/Desktop/STM32-Projekte/FH-Vertibot/src/STM32F30x_StdPeriph_Driver/src/stm32f30x_opamp.c **** {
 258              		.loc 1 332 0
 259              		.cfi_startproc
 260              		@ args = 0, pretend = 0, frame = 0
 261              		@ frame_needed = 0, uses_anonymous_args = 0
 262              	.LVL14:
 263 0090 30B5     		push	{r4, r5, lr}
 264              	.LCFI2:
 265              		.cfi_def_cfa_offset 12
 266              		.cfi_offset 4, -12
 267              		.cfi_offset 5, -8
 268              		.cfi_offset 14, -4
 333:/home/user/Desktop/STM32-Projekte/FH-Vertibot/src/STM32F30x_StdPeriph_Driver/src/stm32f30x_opamp.c ****   uint32_t tmpreg = 0;
 334:/home/user/Desktop/STM32-Projekte/FH-Vertibot/src/STM32F30x_StdPeriph_Driver/src/stm32f30x_opamp.c **** 
 335:/home/user/Desktop/STM32-Projekte/FH-Vertibot/src/STM32F30x_StdPeriph_Driver/src/stm32f30x_opamp.c ****   /* Check the parameters */
 336:/home/user/Desktop/STM32-Projekte/FH-Vertibot/src/STM32F30x_StdPeriph_Driver/src/stm32f30x_opamp.c ****   assert_param(IS_OPAMP_ALL_PERIPH(OPAMP_Selection));
 337:/home/user/Desktop/STM32-Projekte/FH-Vertibot/src/STM32F30x_StdPeriph_Driver/src/stm32f30x_opamp.c ****   assert_param(IS_OPAMP_SECONDARY_INVINPUT(OPAMP_InitStruct->OPAMP_InvertingInput));
 338:/home/user/Desktop/STM32-Projekte/FH-Vertibot/src/STM32F30x_StdPeriph_Driver/src/stm32f30x_opamp.c ****   assert_param(IS_OPAMP_NONINVERTING_INPUT(OPAMP_InitStruct->OPAMP_NonInvertingInput));
 339:/home/user/Desktop/STM32-Projekte/FH-Vertibot/src/STM32F30x_StdPeriph_Driver/src/stm32f30x_opamp.c **** 
 340:/home/user/Desktop/STM32-Projekte/FH-Vertibot/src/STM32F30x_StdPeriph_Driver/src/stm32f30x_opamp.c ****   /*!< Get the OPAMPx_CSR register value */
 341:/home/user/Desktop/STM32-Projekte/FH-Vertibot/src/STM32F30x_StdPeriph_Driver/src/stm32f30x_opamp.c ****   tmpreg = *(__IO uint32_t *) (OPAMP_BASE + OPAMP_Selection);
 269              		.loc 1 341 0
 270 0092 064B     		ldr	r3, .L28
 342:/home/user/Desktop/STM32-Projekte/FH-Vertibot/src/STM32F30x_StdPeriph_Driver/src/stm32f30x_opamp.c **** 
 343:/home/user/Desktop/STM32-Projekte/FH-Vertibot/src/STM32F30x_StdPeriph_Driver/src/stm32f30x_opamp.c ****   /*!< Clear the secondary inverting bit, secondary non inverting bit and TCMEN bits */
 344:/home/user/Desktop/STM32-Projekte/FH-Vertibot/src/STM32F30x_StdPeriph_Driver/src/stm32f30x_opamp.c ****   tmpreg &= (uint32_t) (OPAMP_CSR_TIMERMUX_MASK);
 345:/home/user/Desktop/STM32-Projekte/FH-Vertibot/src/STM32F30x_StdPeriph_Driver/src/stm32f30x_opamp.c **** 
 346:/home/user/Desktop/STM32-Projekte/FH-Vertibot/src/STM32F30x_StdPeriph_Driver/src/stm32f30x_opamp.c ****   /*!< Configure OPAMP: secondary inverting and non inverting inputs */
 347:/home/user/Desktop/STM32-Projekte/FH-Vertibot/src/STM32F30x_StdPeriph_Driver/src/stm32f30x_opamp.c ****   tmpreg |= (uint32_t)((uint32_t)(OPAMP_InitStruct->OPAMP_InvertingInput<<3) | (uint32_t)(OPAMP_Ini
 271              		.loc 1 347 0
 272 0094 91E82400 		ldmia	r1, {r2, r5}
 341:/home/user/Desktop/STM32-Projekte/FH-Vertibot/src/STM32F30x_StdPeriph_Driver/src/stm32f30x_opamp.c ****   tmpreg = *(__IO uint32_t *) (OPAMP_BASE + OPAMP_Selection);
 273              		.loc 1 341 0
 274 0098 C458     		ldr	r4, [r0, r3]
 275              	.LVL15:
 276              		.loc 1 347 0
 277 009a D200     		lsls	r2, r2, #3
 344:/home/user/Desktop/STM32-Projekte/FH-Vertibot/src/STM32F30x_StdPeriph_Driver/src/stm32f30x_opamp.c ****   tmpreg &= (uint32_t) (OPAMP_CSR_TIMERMUX_MASK);
 278              		.loc 1 344 0
 279 009c 24F4E064 		bic	r4, r4, #1792
 280              	.LVL16:
 281              		.loc 1 347 0
 282 00a0 42EAC512 		orr	r2, r2, r5, lsl #7
 283 00a4 2243     		orrs	r2, r2, r4
 284              	.LVL17:
 348:/home/user/Desktop/STM32-Projekte/FH-Vertibot/src/STM32F30x_StdPeriph_Driver/src/stm32f30x_opamp.c **** 
 349:/home/user/Desktop/STM32-Projekte/FH-Vertibot/src/STM32F30x_StdPeriph_Driver/src/stm32f30x_opamp.c ****   /*!< Write to OPAMPx_CSR register */
 350:/home/user/Desktop/STM32-Projekte/FH-Vertibot/src/STM32F30x_StdPeriph_Driver/src/stm32f30x_opamp.c ****   *(__IO uint32_t *) (OPAMP_BASE + OPAMP_Selection) = tmpreg;
 285              		.loc 1 350 0
 286 00a6 C250     		str	r2, [r0, r3]
 287 00a8 30BD     		pop	{r4, r5, pc}
 288              	.L29:
 289 00aa 00BF     		.align	2
 290              	.L28:
 291 00ac 38000140 		.word	1073807416
 292              		.cfi_endproc
 293              	.LFE118:
 295              		.align	1
 296              		.global	OPAMP_TimerControlledMuxCmd
 297              		.thumb
 298              		.thumb_func
 300              	OPAMP_TimerControlledMuxCmd:
 301              	.LFB119:
 351:/home/user/Desktop/STM32-Projekte/FH-Vertibot/src/STM32F30x_StdPeriph_Driver/src/stm32f30x_opamp.c **** }
 352:/home/user/Desktop/STM32-Projekte/FH-Vertibot/src/STM32F30x_StdPeriph_Driver/src/stm32f30x_opamp.c **** 
 353:/home/user/Desktop/STM32-Projekte/FH-Vertibot/src/STM32F30x_StdPeriph_Driver/src/stm32f30x_opamp.c **** /**
 354:/home/user/Desktop/STM32-Projekte/FH-Vertibot/src/STM32F30x_StdPeriph_Driver/src/stm32f30x_opamp.c ****   * @brief  Enable or disable the timer-controlled mux mode.
 355:/home/user/Desktop/STM32-Projekte/FH-Vertibot/src/STM32F30x_StdPeriph_Driver/src/stm32f30x_opamp.c ****   * @note   If the selected OPAMP is locked, enable/disable can't be performed.
 356:/home/user/Desktop/STM32-Projekte/FH-Vertibot/src/STM32F30x_StdPeriph_Driver/src/stm32f30x_opamp.c ****   *         To unlock the configuration, perform a system reset.
 357:/home/user/Desktop/STM32-Projekte/FH-Vertibot/src/STM32F30x_StdPeriph_Driver/src/stm32f30x_opamp.c ****   * @param  OPAMP_Selection: the selected OPAMP. 
 358:/home/user/Desktop/STM32-Projekte/FH-Vertibot/src/STM32F30x_StdPeriph_Driver/src/stm32f30x_opamp.c ****   *          This parameter can be OPAMP_Selection_OPAMPx where x can be 1 to 4
 359:/home/user/Desktop/STM32-Projekte/FH-Vertibot/src/STM32F30x_StdPeriph_Driver/src/stm32f30x_opamp.c ****   *          to select the OPAMP peripheral.
 360:/home/user/Desktop/STM32-Projekte/FH-Vertibot/src/STM32F30x_StdPeriph_Driver/src/stm32f30x_opamp.c ****   * @param  NewState: new state of the OPAMP peripheral.
 361:/home/user/Desktop/STM32-Projekte/FH-Vertibot/src/STM32F30x_StdPeriph_Driver/src/stm32f30x_opamp.c ****   *         This parameter can be: ENABLE or DISABLE.
 362:/home/user/Desktop/STM32-Projekte/FH-Vertibot/src/STM32F30x_StdPeriph_Driver/src/stm32f30x_opamp.c ****   * @retval None
 363:/home/user/Desktop/STM32-Projekte/FH-Vertibot/src/STM32F30x_StdPeriph_Driver/src/stm32f30x_opamp.c ****   */
 364:/home/user/Desktop/STM32-Projekte/FH-Vertibot/src/STM32F30x_StdPeriph_Driver/src/stm32f30x_opamp.c **** void OPAMP_TimerControlledMuxCmd(uint32_t OPAMP_Selection, FunctionalState NewState)
 365:/home/user/Desktop/STM32-Projekte/FH-Vertibot/src/STM32F30x_StdPeriph_Driver/src/stm32f30x_opamp.c **** {
 302              		.loc 1 365 0
 303              		.cfi_startproc
 304              		@ args = 0, pretend = 0, frame = 0
 305              		@ frame_needed = 0, uses_anonymous_args = 0
 306              		@ link register save eliminated.
 307              	.LVL18:
 308 00b0 044B     		ldr	r3, .L34
 366:/home/user/Desktop/STM32-Projekte/FH-Vertibot/src/STM32F30x_StdPeriph_Driver/src/stm32f30x_opamp.c ****   /* Check the parameters */
 367:/home/user/Desktop/STM32-Projekte/FH-Vertibot/src/STM32F30x_StdPeriph_Driver/src/stm32f30x_opamp.c ****   assert_param(IS_OPAMP_ALL_PERIPH(OPAMP_Selection));
 368:/home/user/Desktop/STM32-Projekte/FH-Vertibot/src/STM32F30x_StdPeriph_Driver/src/stm32f30x_opamp.c ****   assert_param(IS_FUNCTIONAL_STATE(NewState));
 369:/home/user/Desktop/STM32-Projekte/FH-Vertibot/src/STM32F30x_StdPeriph_Driver/src/stm32f30x_opamp.c **** 
 370:/home/user/Desktop/STM32-Projekte/FH-Vertibot/src/STM32F30x_StdPeriph_Driver/src/stm32f30x_opamp.c ****   if (NewState != DISABLE)
 371:/home/user/Desktop/STM32-Projekte/FH-Vertibot/src/STM32F30x_StdPeriph_Driver/src/stm32f30x_opamp.c ****   {
 372:/home/user/Desktop/STM32-Projekte/FH-Vertibot/src/STM32F30x_StdPeriph_Driver/src/stm32f30x_opamp.c ****     /* Enable the timer-controlled Mux mode */
 373:/home/user/Desktop/STM32-Projekte/FH-Vertibot/src/STM32F30x_StdPeriph_Driver/src/stm32f30x_opamp.c ****     *(__IO uint32_t *) (OPAMP_BASE + OPAMP_Selection) |= (uint32_t) (OPAMP_CSR_TCMEN);
 309              		.loc 1 373 0
 310 00b2 C258     		ldr	r2, [r0, r3]
 370:/home/user/Desktop/STM32-Projekte/FH-Vertibot/src/STM32F30x_StdPeriph_Driver/src/stm32f30x_opamp.c ****   if (NewState != DISABLE)
 311              		.loc 1 370 0
 312 00b4 11B1     		cbz	r1, .L31
 313              		.loc 1 373 0
 314 00b6 42F08002 		orr	r2, r2, #128
 315 00ba 01E0     		b	.L33
 316              	.L31:
 374:/home/user/Desktop/STM32-Projekte/FH-Vertibot/src/STM32F30x_StdPeriph_Driver/src/stm32f30x_opamp.c ****   }
 375:/home/user/Desktop/STM32-Projekte/FH-Vertibot/src/STM32F30x_StdPeriph_Driver/src/stm32f30x_opamp.c ****   else
 376:/home/user/Desktop/STM32-Projekte/FH-Vertibot/src/STM32F30x_StdPeriph_Driver/src/stm32f30x_opamp.c ****   {
 377:/home/user/Desktop/STM32-Projekte/FH-Vertibot/src/STM32F30x_StdPeriph_Driver/src/stm32f30x_opamp.c ****     /* Disable the timer-controlled Mux mode */
 378:/home/user/Desktop/STM32-Projekte/FH-Vertibot/src/STM32F30x_StdPeriph_Driver/src/stm32f30x_opamp.c ****     *(__IO uint32_t *) (OPAMP_BASE + OPAMP_Selection) &= (uint32_t)(~OPAMP_CSR_TCMEN);
 317              		.loc 1 378 0
 318 00bc 22F08002 		bic	r2, r2, #128
 319              	.L33:
 320 00c0 C250     		str	r2, [r0, r3]
 321 00c2 7047     		bx	lr
 322              	.L35:
 323              		.align	2
 324              	.L34:
 325 00c4 38000140 		.word	1073807416
 326              		.cfi_endproc
 327              	.LFE119:
 329              		.align	1
 330              		.global	OPAMP_Cmd
 331              		.thumb
 332              		.thumb_func
 334              	OPAMP_Cmd:
 335              	.LFB120:
 379:/home/user/Desktop/STM32-Projekte/FH-Vertibot/src/STM32F30x_StdPeriph_Driver/src/stm32f30x_opamp.c ****   }
 380:/home/user/Desktop/STM32-Projekte/FH-Vertibot/src/STM32F30x_StdPeriph_Driver/src/stm32f30x_opamp.c **** }
 381:/home/user/Desktop/STM32-Projekte/FH-Vertibot/src/STM32F30x_StdPeriph_Driver/src/stm32f30x_opamp.c **** 
 382:/home/user/Desktop/STM32-Projekte/FH-Vertibot/src/STM32F30x_StdPeriph_Driver/src/stm32f30x_opamp.c **** /**
 383:/home/user/Desktop/STM32-Projekte/FH-Vertibot/src/STM32F30x_StdPeriph_Driver/src/stm32f30x_opamp.c ****   * @brief  Enable or disable the OPAMP peripheral.
 384:/home/user/Desktop/STM32-Projekte/FH-Vertibot/src/STM32F30x_StdPeriph_Driver/src/stm32f30x_opamp.c ****   * @note   If the selected OPAMP is locked, enable/disable can't be performed.
 385:/home/user/Desktop/STM32-Projekte/FH-Vertibot/src/STM32F30x_StdPeriph_Driver/src/stm32f30x_opamp.c ****   *         To unlock the configuration, perform a system reset.
 386:/home/user/Desktop/STM32-Projekte/FH-Vertibot/src/STM32F30x_StdPeriph_Driver/src/stm32f30x_opamp.c ****   * @param  OPAMP_Selection: the selected OPAMP. 
 387:/home/user/Desktop/STM32-Projekte/FH-Vertibot/src/STM32F30x_StdPeriph_Driver/src/stm32f30x_opamp.c ****   *          This parameter can be OPAMP_Selection_OPAMPx where x can be 1 to 4
 388:/home/user/Desktop/STM32-Projekte/FH-Vertibot/src/STM32F30x_StdPeriph_Driver/src/stm32f30x_opamp.c ****   *          to select the OPAMP peripheral.
 389:/home/user/Desktop/STM32-Projekte/FH-Vertibot/src/STM32F30x_StdPeriph_Driver/src/stm32f30x_opamp.c ****   * @param  NewState: new state of the OPAMP peripheral.
 390:/home/user/Desktop/STM32-Projekte/FH-Vertibot/src/STM32F30x_StdPeriph_Driver/src/stm32f30x_opamp.c ****   *         This parameter can be: ENABLE or DISABLE.
 391:/home/user/Desktop/STM32-Projekte/FH-Vertibot/src/STM32F30x_StdPeriph_Driver/src/stm32f30x_opamp.c ****   * @retval None
 392:/home/user/Desktop/STM32-Projekte/FH-Vertibot/src/STM32F30x_StdPeriph_Driver/src/stm32f30x_opamp.c ****   */
 393:/home/user/Desktop/STM32-Projekte/FH-Vertibot/src/STM32F30x_StdPeriph_Driver/src/stm32f30x_opamp.c **** void OPAMP_Cmd(uint32_t OPAMP_Selection, FunctionalState NewState)
 394:/home/user/Desktop/STM32-Projekte/FH-Vertibot/src/STM32F30x_StdPeriph_Driver/src/stm32f30x_opamp.c **** {
 336              		.loc 1 394 0
 337              		.cfi_startproc
 338              		@ args = 0, pretend = 0, frame = 0
 339              		@ frame_needed = 0, uses_anonymous_args = 0
 340              		@ link register save eliminated.
 341              	.LVL19:
 342 00c8 044B     		ldr	r3, .L40
 395:/home/user/Desktop/STM32-Projekte/FH-Vertibot/src/STM32F30x_StdPeriph_Driver/src/stm32f30x_opamp.c ****   /* Check the parameters */
 396:/home/user/Desktop/STM32-Projekte/FH-Vertibot/src/STM32F30x_StdPeriph_Driver/src/stm32f30x_opamp.c ****   assert_param(IS_OPAMP_ALL_PERIPH(OPAMP_Selection));
 397:/home/user/Desktop/STM32-Projekte/FH-Vertibot/src/STM32F30x_StdPeriph_Driver/src/stm32f30x_opamp.c ****   assert_param(IS_FUNCTIONAL_STATE(NewState));
 398:/home/user/Desktop/STM32-Projekte/FH-Vertibot/src/STM32F30x_StdPeriph_Driver/src/stm32f30x_opamp.c **** 
 399:/home/user/Desktop/STM32-Projekte/FH-Vertibot/src/STM32F30x_StdPeriph_Driver/src/stm32f30x_opamp.c ****   if (NewState != DISABLE)
 400:/home/user/Desktop/STM32-Projekte/FH-Vertibot/src/STM32F30x_StdPeriph_Driver/src/stm32f30x_opamp.c ****   {
 401:/home/user/Desktop/STM32-Projekte/FH-Vertibot/src/STM32F30x_StdPeriph_Driver/src/stm32f30x_opamp.c ****     /* Enable the selected OPAMPx peripheral */
 402:/home/user/Desktop/STM32-Projekte/FH-Vertibot/src/STM32F30x_StdPeriph_Driver/src/stm32f30x_opamp.c ****     *(__IO uint32_t *) (OPAMP_BASE + OPAMP_Selection) |= (uint32_t) (OPAMP_CSR_OPAMPxEN);
 343              		.loc 1 402 0
 344 00ca C258     		ldr	r2, [r0, r3]
 399:/home/user/Desktop/STM32-Projekte/FH-Vertibot/src/STM32F30x_StdPeriph_Driver/src/stm32f30x_opamp.c ****   if (NewState != DISABLE)
 345              		.loc 1 399 0
 346 00cc 11B1     		cbz	r1, .L37
 347              		.loc 1 402 0
 348 00ce 42F00102 		orr	r2, r2, #1
 349 00d2 01E0     		b	.L39
 350              	.L37:
 403:/home/user/Desktop/STM32-Projekte/FH-Vertibot/src/STM32F30x_StdPeriph_Driver/src/stm32f30x_opamp.c ****   }
 404:/home/user/Desktop/STM32-Projekte/FH-Vertibot/src/STM32F30x_StdPeriph_Driver/src/stm32f30x_opamp.c ****   else
 405:/home/user/Desktop/STM32-Projekte/FH-Vertibot/src/STM32F30x_StdPeriph_Driver/src/stm32f30x_opamp.c ****   {
 406:/home/user/Desktop/STM32-Projekte/FH-Vertibot/src/STM32F30x_StdPeriph_Driver/src/stm32f30x_opamp.c ****     /* Disable the selected OPAMPx peripheral */
 407:/home/user/Desktop/STM32-Projekte/FH-Vertibot/src/STM32F30x_StdPeriph_Driver/src/stm32f30x_opamp.c ****     *(__IO uint32_t *) (OPAMP_BASE + OPAMP_Selection) &= (uint32_t)(~OPAMP_CSR_OPAMPxEN);
 351              		.loc 1 407 0
 352 00d4 22F00102 		bic	r2, r2, #1
 353              	.L39:
 354 00d8 C250     		str	r2, [r0, r3]
 355 00da 7047     		bx	lr
 356              	.L41:
 357              		.align	2
 358              	.L40:
 359 00dc 38000140 		.word	1073807416
 360              		.cfi_endproc
 361              	.LFE120:
 363              		.align	1
 364              		.global	OPAMP_GetOutputLevel
 365              		.thumb
 366              		.thumb_func
 368              	OPAMP_GetOutputLevel:
 369              	.LFB121:
 408:/home/user/Desktop/STM32-Projekte/FH-Vertibot/src/STM32F30x_StdPeriph_Driver/src/stm32f30x_opamp.c ****   }
 409:/home/user/Desktop/STM32-Projekte/FH-Vertibot/src/STM32F30x_StdPeriph_Driver/src/stm32f30x_opamp.c **** }
 410:/home/user/Desktop/STM32-Projekte/FH-Vertibot/src/STM32F30x_StdPeriph_Driver/src/stm32f30x_opamp.c **** 
 411:/home/user/Desktop/STM32-Projekte/FH-Vertibot/src/STM32F30x_StdPeriph_Driver/src/stm32f30x_opamp.c **** /**
 412:/home/user/Desktop/STM32-Projekte/FH-Vertibot/src/STM32F30x_StdPeriph_Driver/src/stm32f30x_opamp.c ****   * @brief  Return the output level (high or low) during calibration of the selected OPAMP. 
 413:/home/user/Desktop/STM32-Projekte/FH-Vertibot/src/STM32F30x_StdPeriph_Driver/src/stm32f30x_opamp.c ****   * @param  OPAMP_Selection: the selected OPAMP. 
 414:/home/user/Desktop/STM32-Projekte/FH-Vertibot/src/STM32F30x_StdPeriph_Driver/src/stm32f30x_opamp.c ****   *          This parameter can be OPAMP_Selection_OPAMPx where x can be 1 to 4
 415:/home/user/Desktop/STM32-Projekte/FH-Vertibot/src/STM32F30x_StdPeriph_Driver/src/stm32f30x_opamp.c ****   *          to select the OPAMP peripheral.
 416:/home/user/Desktop/STM32-Projekte/FH-Vertibot/src/STM32F30x_StdPeriph_Driver/src/stm32f30x_opamp.c ****   *           - OPAMP output is low when the non-inverting input is at a lower
 417:/home/user/Desktop/STM32-Projekte/FH-Vertibot/src/STM32F30x_StdPeriph_Driver/src/stm32f30x_opamp.c ****   *             voltage than the inverting input
 418:/home/user/Desktop/STM32-Projekte/FH-Vertibot/src/STM32F30x_StdPeriph_Driver/src/stm32f30x_opamp.c ****   *           - OPAMP output is high when the non-inverting input is at a higher
 419:/home/user/Desktop/STM32-Projekte/FH-Vertibot/src/STM32F30x_StdPeriph_Driver/src/stm32f30x_opamp.c ****   *             voltage than the inverting input
 420:/home/user/Desktop/STM32-Projekte/FH-Vertibot/src/STM32F30x_StdPeriph_Driver/src/stm32f30x_opamp.c ****   * @note OPAMP ouput level is provided only during calibration phase.
 421:/home/user/Desktop/STM32-Projekte/FH-Vertibot/src/STM32F30x_StdPeriph_Driver/src/stm32f30x_opamp.c ****   * @retval Returns the selected OPAMP output level: low or high.
 422:/home/user/Desktop/STM32-Projekte/FH-Vertibot/src/STM32F30x_StdPeriph_Driver/src/stm32f30x_opamp.c ****   *       
 423:/home/user/Desktop/STM32-Projekte/FH-Vertibot/src/STM32F30x_StdPeriph_Driver/src/stm32f30x_opamp.c ****   */
 424:/home/user/Desktop/STM32-Projekte/FH-Vertibot/src/STM32F30x_StdPeriph_Driver/src/stm32f30x_opamp.c **** uint32_t OPAMP_GetOutputLevel(uint32_t OPAMP_Selection)
 425:/home/user/Desktop/STM32-Projekte/FH-Vertibot/src/STM32F30x_StdPeriph_Driver/src/stm32f30x_opamp.c **** {
 370              		.loc 1 425 0
 371              		.cfi_startproc
 372              		@ args = 0, pretend = 0, frame = 0
 373              		@ frame_needed = 0, uses_anonymous_args = 0
 374              		@ link register save eliminated.
 375              	.LVL20:
 426:/home/user/Desktop/STM32-Projekte/FH-Vertibot/src/STM32F30x_StdPeriph_Driver/src/stm32f30x_opamp.c ****   uint32_t opampout = 0x0;
 427:/home/user/Desktop/STM32-Projekte/FH-Vertibot/src/STM32F30x_StdPeriph_Driver/src/stm32f30x_opamp.c **** 
 428:/home/user/Desktop/STM32-Projekte/FH-Vertibot/src/STM32F30x_StdPeriph_Driver/src/stm32f30x_opamp.c ****   /* Check the parameters */
 429:/home/user/Desktop/STM32-Projekte/FH-Vertibot/src/STM32F30x_StdPeriph_Driver/src/stm32f30x_opamp.c ****   assert_param(IS_OPAMP_ALL_PERIPH(OPAMP_Selection));
 430:/home/user/Desktop/STM32-Projekte/FH-Vertibot/src/STM32F30x_StdPeriph_Driver/src/stm32f30x_opamp.c **** 
 431:/home/user/Desktop/STM32-Projekte/FH-Vertibot/src/STM32F30x_StdPeriph_Driver/src/stm32f30x_opamp.c ****   /* Check if selected OPAMP output is high */
 432:/home/user/Desktop/STM32-Projekte/FH-Vertibot/src/STM32F30x_StdPeriph_Driver/src/stm32f30x_opamp.c ****   if ((*(__IO uint32_t *) (OPAMP_BASE + OPAMP_Selection) & (OPAMP_CSR_OUTCAL)) != 0)
 376              		.loc 1 432 0
 377 00e0 024B     		ldr	r3, .L45
 378 00e2 C058     		ldr	r0, [r0, r3]
 379              	.LVL21:
 433:/home/user/Desktop/STM32-Projekte/FH-Vertibot/src/STM32F30x_StdPeriph_Driver/src/stm32f30x_opamp.c ****   {
 434:/home/user/Desktop/STM32-Projekte/FH-Vertibot/src/STM32F30x_StdPeriph_Driver/src/stm32f30x_opamp.c ****     opampout = OPAMP_OutputLevel_High;
 435:/home/user/Desktop/STM32-Projekte/FH-Vertibot/src/STM32F30x_StdPeriph_Driver/src/stm32f30x_opamp.c ****   }
 436:/home/user/Desktop/STM32-Projekte/FH-Vertibot/src/STM32F30x_StdPeriph_Driver/src/stm32f30x_opamp.c ****   else
 437:/home/user/Desktop/STM32-Projekte/FH-Vertibot/src/STM32F30x_StdPeriph_Driver/src/stm32f30x_opamp.c ****   {
 438:/home/user/Desktop/STM32-Projekte/FH-Vertibot/src/STM32F30x_StdPeriph_Driver/src/stm32f30x_opamp.c ****     opampout = OPAMP_OutputLevel_Low;
 439:/home/user/Desktop/STM32-Projekte/FH-Vertibot/src/STM32F30x_StdPeriph_Driver/src/stm32f30x_opamp.c ****   }
 440:/home/user/Desktop/STM32-Projekte/FH-Vertibot/src/STM32F30x_StdPeriph_Driver/src/stm32f30x_opamp.c **** 
 441:/home/user/Desktop/STM32-Projekte/FH-Vertibot/src/STM32F30x_StdPeriph_Driver/src/stm32f30x_opamp.c ****   /* Return the OPAMP output level */
 442:/home/user/Desktop/STM32-Projekte/FH-Vertibot/src/STM32F30x_StdPeriph_Driver/src/stm32f30x_opamp.c ****   return (uint32_t)(opampout);
 443:/home/user/Desktop/STM32-Projekte/FH-Vertibot/src/STM32F30x_StdPeriph_Driver/src/stm32f30x_opamp.c **** }
 380              		.loc 1 443 0
 381 00e4 00F08040 		and	r0, r0, #1073741824
 382              	.LVL22:
 383 00e8 7047     		bx	lr
 384              	.L46:
 385 00ea 00BF     		.align	2
 386              	.L45:
 387 00ec 38000140 		.word	1073807416
 388              		.cfi_endproc
 389              	.LFE121:
 391              		.align	1
 392              		.global	OPAMP_OffsetTrimModeSelect
 393              		.thumb
 394              		.thumb_func
 396              	OPAMP_OffsetTrimModeSelect:
 397              	.LFB122:
 444:/home/user/Desktop/STM32-Projekte/FH-Vertibot/src/STM32F30x_StdPeriph_Driver/src/stm32f30x_opamp.c **** 
 445:/home/user/Desktop/STM32-Projekte/FH-Vertibot/src/STM32F30x_StdPeriph_Driver/src/stm32f30x_opamp.c **** /**
 446:/home/user/Desktop/STM32-Projekte/FH-Vertibot/src/STM32F30x_StdPeriph_Driver/src/stm32f30x_opamp.c ****   * @brief  Select the trimming mode.
 447:/home/user/Desktop/STM32-Projekte/FH-Vertibot/src/STM32F30x_StdPeriph_Driver/src/stm32f30x_opamp.c ****   * @param  OffsetTrimming: the selected offset trimming mode. 
 448:/home/user/Desktop/STM32-Projekte/FH-Vertibot/src/STM32F30x_StdPeriph_Driver/src/stm32f30x_opamp.c ****   *   This parameter  can be one of the following values:
 449:/home/user/Desktop/STM32-Projekte/FH-Vertibot/src/STM32F30x_StdPeriph_Driver/src/stm32f30x_opamp.c ****   *     @arg OPAMP_Trimming_Factory: factory trimming values are used for offset
 450:/home/user/Desktop/STM32-Projekte/FH-Vertibot/src/STM32F30x_StdPeriph_Driver/src/stm32f30x_opamp.c ****   *                                  calibration
 451:/home/user/Desktop/STM32-Projekte/FH-Vertibot/src/STM32F30x_StdPeriph_Driver/src/stm32f30x_opamp.c ****   *     @arg OPAMP_Trimming_User: user trimming values are used for offset
 452:/home/user/Desktop/STM32-Projekte/FH-Vertibot/src/STM32F30x_StdPeriph_Driver/src/stm32f30x_opamp.c ****   *                               calibration
 453:/home/user/Desktop/STM32-Projekte/FH-Vertibot/src/STM32F30x_StdPeriph_Driver/src/stm32f30x_opamp.c ****   * @note When OffsetTrimming_User is selected, use OPAMP_OffsetTrimConfig()
 454:/home/user/Desktop/STM32-Projekte/FH-Vertibot/src/STM32F30x_StdPeriph_Driver/src/stm32f30x_opamp.c ****   *       function or OPAMP_OffsetTrimLowPowerConfig() function to adjust 
 455:/home/user/Desktop/STM32-Projekte/FH-Vertibot/src/STM32F30x_StdPeriph_Driver/src/stm32f30x_opamp.c ****   *       trimming value.
 456:/home/user/Desktop/STM32-Projekte/FH-Vertibot/src/STM32F30x_StdPeriph_Driver/src/stm32f30x_opamp.c ****   * @retval None
 457:/home/user/Desktop/STM32-Projekte/FH-Vertibot/src/STM32F30x_StdPeriph_Driver/src/stm32f30x_opamp.c ****   */
 458:/home/user/Desktop/STM32-Projekte/FH-Vertibot/src/STM32F30x_StdPeriph_Driver/src/stm32f30x_opamp.c **** void OPAMP_OffsetTrimModeSelect(uint32_t OPAMP_Selection, uint32_t OPAMP_Trimming)
 459:/home/user/Desktop/STM32-Projekte/FH-Vertibot/src/STM32F30x_StdPeriph_Driver/src/stm32f30x_opamp.c **** {
 398              		.loc 1 459 0
 399              		.cfi_startproc
 400              		@ args = 0, pretend = 0, frame = 0
 401              		@ frame_needed = 0, uses_anonymous_args = 0
 402              		@ link register save eliminated.
 403              	.LVL23:
 460:/home/user/Desktop/STM32-Projekte/FH-Vertibot/src/STM32F30x_StdPeriph_Driver/src/stm32f30x_opamp.c ****   /* Check the parameters */
 461:/home/user/Desktop/STM32-Projekte/FH-Vertibot/src/STM32F30x_StdPeriph_Driver/src/stm32f30x_opamp.c ****   assert_param(IS_OPAMP_ALL_PERIPH(OPAMP_Selection));
 462:/home/user/Desktop/STM32-Projekte/FH-Vertibot/src/STM32F30x_StdPeriph_Driver/src/stm32f30x_opamp.c ****   assert_param(IS_OPAMP_TRIMMING(OPAMP_Trimming));
 463:/home/user/Desktop/STM32-Projekte/FH-Vertibot/src/STM32F30x_StdPeriph_Driver/src/stm32f30x_opamp.c **** 
 464:/home/user/Desktop/STM32-Projekte/FH-Vertibot/src/STM32F30x_StdPeriph_Driver/src/stm32f30x_opamp.c ****   /* Reset USERTRIM bit */
 465:/home/user/Desktop/STM32-Projekte/FH-Vertibot/src/STM32F30x_StdPeriph_Driver/src/stm32f30x_opamp.c ****   *(__IO uint32_t *) (OPAMP_BASE + OPAMP_Selection) &= (~(uint32_t) (OPAMP_CSR_USERTRIM));
 404              		.loc 1 465 0
 405 00f0 044B     		ldr	r3, .L48
 406 00f2 C258     		ldr	r2, [r0, r3]
 407 00f4 22F48022 		bic	r2, r2, #262144
 408 00f8 C250     		str	r2, [r0, r3]
 466:/home/user/Desktop/STM32-Projekte/FH-Vertibot/src/STM32F30x_StdPeriph_Driver/src/stm32f30x_opamp.c **** 
 467:/home/user/Desktop/STM32-Projekte/FH-Vertibot/src/STM32F30x_StdPeriph_Driver/src/stm32f30x_opamp.c ****   /* Select trimming mode */
 468:/home/user/Desktop/STM32-Projekte/FH-Vertibot/src/STM32F30x_StdPeriph_Driver/src/stm32f30x_opamp.c ****   *(__IO uint32_t *) (OPAMP_BASE + OPAMP_Selection) |= OPAMP_Trimming;
 409              		.loc 1 468 0
 410 00fa C258     		ldr	r2, [r0, r3]
 411 00fc 1143     		orrs	r1, r1, r2
 412              	.LVL24:
 413 00fe C150     		str	r1, [r0, r3]
 414 0100 7047     		bx	lr
 415              	.L49:
 416 0102 00BF     		.align	2
 417              	.L48:
 418 0104 38000140 		.word	1073807416
 419              		.cfi_endproc
 420              	.LFE122:
 422              		.align	1
 423              		.global	OPAMP_OffsetTrimConfig
 424              		.thumb
 425              		.thumb_func
 427              	OPAMP_OffsetTrimConfig:
 428              	.LFB123:
 469:/home/user/Desktop/STM32-Projekte/FH-Vertibot/src/STM32F30x_StdPeriph_Driver/src/stm32f30x_opamp.c **** }
 470:/home/user/Desktop/STM32-Projekte/FH-Vertibot/src/STM32F30x_StdPeriph_Driver/src/stm32f30x_opamp.c **** 
 471:/home/user/Desktop/STM32-Projekte/FH-Vertibot/src/STM32F30x_StdPeriph_Driver/src/stm32f30x_opamp.c **** /**
 472:/home/user/Desktop/STM32-Projekte/FH-Vertibot/src/STM32F30x_StdPeriph_Driver/src/stm32f30x_opamp.c ****   * @brief  Configure the trimming value of the OPAMP.
 473:/home/user/Desktop/STM32-Projekte/FH-Vertibot/src/STM32F30x_StdPeriph_Driver/src/stm32f30x_opamp.c ****   * @param  OPAMP_Selection: the selected OPAMP. 
 474:/home/user/Desktop/STM32-Projekte/FH-Vertibot/src/STM32F30x_StdPeriph_Driver/src/stm32f30x_opamp.c ****   *          This parameter can be OPAMP_Selection_OPAMPx where x can be 1 to 4
 475:/home/user/Desktop/STM32-Projekte/FH-Vertibot/src/STM32F30x_StdPeriph_Driver/src/stm32f30x_opamp.c ****   *          to select the OPAMP peripheral.
 476:/home/user/Desktop/STM32-Projekte/FH-Vertibot/src/STM32F30x_StdPeriph_Driver/src/stm32f30x_opamp.c ****   * @param  OPAMP_Input: the selected OPAMP input. 
 477:/home/user/Desktop/STM32-Projekte/FH-Vertibot/src/STM32F30x_StdPeriph_Driver/src/stm32f30x_opamp.c ****   *   This parameter can be one of the following values:
 478:/home/user/Desktop/STM32-Projekte/FH-Vertibot/src/STM32F30x_StdPeriph_Driver/src/stm32f30x_opamp.c ****   *         @arg OPAMP_Input_Inverting: Inverting input is selected to configure the trimming value
 479:/home/user/Desktop/STM32-Projekte/FH-Vertibot/src/STM32F30x_StdPeriph_Driver/src/stm32f30x_opamp.c ****   *         @arg OPAMP_Input_NonInverting: Non inverting input is selected to configure the trimmin
 480:/home/user/Desktop/STM32-Projekte/FH-Vertibot/src/STM32F30x_StdPeriph_Driver/src/stm32f30x_opamp.c ****   * @param  OPAMP_TrimValue: the trimming value. This parameter can be any value lower
 481:/home/user/Desktop/STM32-Projekte/FH-Vertibot/src/STM32F30x_StdPeriph_Driver/src/stm32f30x_opamp.c ****   *         or equal to 0x0000001F. 
 482:/home/user/Desktop/STM32-Projekte/FH-Vertibot/src/STM32F30x_StdPeriph_Driver/src/stm32f30x_opamp.c ****   * @retval None
 483:/home/user/Desktop/STM32-Projekte/FH-Vertibot/src/STM32F30x_StdPeriph_Driver/src/stm32f30x_opamp.c ****   */
 484:/home/user/Desktop/STM32-Projekte/FH-Vertibot/src/STM32F30x_StdPeriph_Driver/src/stm32f30x_opamp.c **** void OPAMP_OffsetTrimConfig(uint32_t OPAMP_Selection, uint32_t OPAMP_Input, uint32_t OPAMP_TrimValu
 485:/home/user/Desktop/STM32-Projekte/FH-Vertibot/src/STM32F30x_StdPeriph_Driver/src/stm32f30x_opamp.c **** {
 429              		.loc 1 485 0
 430              		.cfi_startproc
 431              		@ args = 0, pretend = 0, frame = 0
 432              		@ frame_needed = 0, uses_anonymous_args = 0
 433              	.LVL25:
 486:/home/user/Desktop/STM32-Projekte/FH-Vertibot/src/STM32F30x_StdPeriph_Driver/src/stm32f30x_opamp.c ****   uint32_t tmpreg = 0;
 487:/home/user/Desktop/STM32-Projekte/FH-Vertibot/src/STM32F30x_StdPeriph_Driver/src/stm32f30x_opamp.c **** 
 488:/home/user/Desktop/STM32-Projekte/FH-Vertibot/src/STM32F30x_StdPeriph_Driver/src/stm32f30x_opamp.c ****   /* Check the parameters */
 489:/home/user/Desktop/STM32-Projekte/FH-Vertibot/src/STM32F30x_StdPeriph_Driver/src/stm32f30x_opamp.c ****   assert_param(IS_OPAMP_ALL_PERIPH(OPAMP_Selection));
 490:/home/user/Desktop/STM32-Projekte/FH-Vertibot/src/STM32F30x_StdPeriph_Driver/src/stm32f30x_opamp.c ****   assert_param(IS_OPAMP_INPUT(OPAMP_Input));
 491:/home/user/Desktop/STM32-Projekte/FH-Vertibot/src/STM32F30x_StdPeriph_Driver/src/stm32f30x_opamp.c ****   assert_param(IS_OPAMP_TRIMMINGVALUE(OPAMP_TrimValue));
 492:/home/user/Desktop/STM32-Projekte/FH-Vertibot/src/STM32F30x_StdPeriph_Driver/src/stm32f30x_opamp.c **** 
 493:/home/user/Desktop/STM32-Projekte/FH-Vertibot/src/STM32F30x_StdPeriph_Driver/src/stm32f30x_opamp.c ****   /*!< Get the OPAMPx_CSR register value */
 494:/home/user/Desktop/STM32-Projekte/FH-Vertibot/src/STM32F30x_StdPeriph_Driver/src/stm32f30x_opamp.c ****   tmpreg = *(__IO uint32_t *) (OPAMP_BASE + OPAMP_Selection);
 434              		.loc 1 494 0
 435 0108 054B     		ldr	r3, .L51
 485:/home/user/Desktop/STM32-Projekte/FH-Vertibot/src/STM32F30x_StdPeriph_Driver/src/stm32f30x_opamp.c **** {
 436              		.loc 1 485 0
 437 010a 30B5     		push	{r4, r5, lr}
 438              	.LCFI3:
 439              		.cfi_def_cfa_offset 12
 440              		.cfi_offset 4, -12
 441              		.cfi_offset 5, -8
 442              		.cfi_offset 14, -4
 443              		.loc 1 494 0
 444 010c C558     		ldr	r5, [r0, r3]
 445              	.LVL26:
 495:/home/user/Desktop/STM32-Projekte/FH-Vertibot/src/STM32F30x_StdPeriph_Driver/src/stm32f30x_opamp.c **** 
 496:/home/user/Desktop/STM32-Projekte/FH-Vertibot/src/STM32F30x_StdPeriph_Driver/src/stm32f30x_opamp.c ****   /*!< Clear the trimming bits */
 497:/home/user/Desktop/STM32-Projekte/FH-Vertibot/src/STM32F30x_StdPeriph_Driver/src/stm32f30x_opamp.c ****   tmpreg &= ((uint32_t)~(OPAMP_CSR_TRIMMING_MASK<<OPAMP_Input));
 446              		.loc 1 497 0
 447 010e 1F24     		movs	r4, #31
 448 0110 8C40     		lsls	r4, r4, r1
 449 0112 25EA0404 		bic	r4, r5, r4
 450              	.LVL27:
 498:/home/user/Desktop/STM32-Projekte/FH-Vertibot/src/STM32F30x_StdPeriph_Driver/src/stm32f30x_opamp.c **** 
 499:/home/user/Desktop/STM32-Projekte/FH-Vertibot/src/STM32F30x_StdPeriph_Driver/src/stm32f30x_opamp.c ****   /*!< Configure the new trimming value */
 500:/home/user/Desktop/STM32-Projekte/FH-Vertibot/src/STM32F30x_StdPeriph_Driver/src/stm32f30x_opamp.c ****   tmpreg |= (uint32_t)(OPAMP_TrimValue<<OPAMP_Input);
 451              		.loc 1 500 0
 452 0116 8A40     		lsls	r2, r2, r1
 453              	.LVL28:
 454 0118 1443     		orrs	r4, r4, r2
 455              	.LVL29:
 501:/home/user/Desktop/STM32-Projekte/FH-Vertibot/src/STM32F30x_StdPeriph_Driver/src/stm32f30x_opamp.c **** 
 502:/home/user/Desktop/STM32-Projekte/FH-Vertibot/src/STM32F30x_StdPeriph_Driver/src/stm32f30x_opamp.c ****   /*!< Write to OPAMPx_CSR register */
 503:/home/user/Desktop/STM32-Projekte/FH-Vertibot/src/STM32F30x_StdPeriph_Driver/src/stm32f30x_opamp.c ****   *(__IO uint32_t *) (OPAMP_BASE + OPAMP_Selection) = tmpreg;
 456              		.loc 1 503 0
 457 011a C450     		str	r4, [r0, r3]
 458 011c 30BD     		pop	{r4, r5, pc}
 459              	.LVL30:
 460              	.L52:
 461 011e 00BF     		.align	2
 462              	.L51:
 463 0120 38000140 		.word	1073807416
 464              		.cfi_endproc
 465              	.LFE123:
 467              		.align	1
 468              		.global	OPAMP_StartCalibration
 469              		.thumb
 470              		.thumb_func
 472              	OPAMP_StartCalibration:
 473              	.LFB124:
 504:/home/user/Desktop/STM32-Projekte/FH-Vertibot/src/STM32F30x_StdPeriph_Driver/src/stm32f30x_opamp.c **** }
 505:/home/user/Desktop/STM32-Projekte/FH-Vertibot/src/STM32F30x_StdPeriph_Driver/src/stm32f30x_opamp.c **** 
 506:/home/user/Desktop/STM32-Projekte/FH-Vertibot/src/STM32F30x_StdPeriph_Driver/src/stm32f30x_opamp.c **** /**
 507:/home/user/Desktop/STM32-Projekte/FH-Vertibot/src/STM32F30x_StdPeriph_Driver/src/stm32f30x_opamp.c ****   * @brief  Start or stop the calibration of selected OPAMP peripheral.
 508:/home/user/Desktop/STM32-Projekte/FH-Vertibot/src/STM32F30x_StdPeriph_Driver/src/stm32f30x_opamp.c ****   * @note   If the selected OPAMP is locked, start/stop can't be performed.
 509:/home/user/Desktop/STM32-Projekte/FH-Vertibot/src/STM32F30x_StdPeriph_Driver/src/stm32f30x_opamp.c ****   *         To unlock the configuration, perform a system reset.
 510:/home/user/Desktop/STM32-Projekte/FH-Vertibot/src/STM32F30x_StdPeriph_Driver/src/stm32f30x_opamp.c ****   * @param  OPAMP_Selection: the selected OPAMP. 
 511:/home/user/Desktop/STM32-Projekte/FH-Vertibot/src/STM32F30x_StdPeriph_Driver/src/stm32f30x_opamp.c ****   *          This parameter can be OPAMP_Selection_OPAMPx where x can be 1 to 4
 512:/home/user/Desktop/STM32-Projekte/FH-Vertibot/src/STM32F30x_StdPeriph_Driver/src/stm32f30x_opamp.c ****   *          to select the OPAMP peripheral.
 513:/home/user/Desktop/STM32-Projekte/FH-Vertibot/src/STM32F30x_StdPeriph_Driver/src/stm32f30x_opamp.c ****   * @param  NewState: new state of the OPAMP peripheral.
 514:/home/user/Desktop/STM32-Projekte/FH-Vertibot/src/STM32F30x_StdPeriph_Driver/src/stm32f30x_opamp.c ****   *         This parameter can be: ENABLE or DISABLE.  
 515:/home/user/Desktop/STM32-Projekte/FH-Vertibot/src/STM32F30x_StdPeriph_Driver/src/stm32f30x_opamp.c ****   * @retval None
 516:/home/user/Desktop/STM32-Projekte/FH-Vertibot/src/STM32F30x_StdPeriph_Driver/src/stm32f30x_opamp.c ****   */
 517:/home/user/Desktop/STM32-Projekte/FH-Vertibot/src/STM32F30x_StdPeriph_Driver/src/stm32f30x_opamp.c **** void OPAMP_StartCalibration(uint32_t OPAMP_Selection, FunctionalState NewState)
 518:/home/user/Desktop/STM32-Projekte/FH-Vertibot/src/STM32F30x_StdPeriph_Driver/src/stm32f30x_opamp.c **** {
 474              		.loc 1 518 0
 475              		.cfi_startproc
 476              		@ args = 0, pretend = 0, frame = 0
 477              		@ frame_needed = 0, uses_anonymous_args = 0
 478              		@ link register save eliminated.
 479              	.LVL31:
 480 0124 044B     		ldr	r3, .L57
 519:/home/user/Desktop/STM32-Projekte/FH-Vertibot/src/STM32F30x_StdPeriph_Driver/src/stm32f30x_opamp.c ****   /* Check the parameters */
 520:/home/user/Desktop/STM32-Projekte/FH-Vertibot/src/STM32F30x_StdPeriph_Driver/src/stm32f30x_opamp.c ****   assert_param(IS_OPAMP_ALL_PERIPH(OPAMP_Selection));
 521:/home/user/Desktop/STM32-Projekte/FH-Vertibot/src/STM32F30x_StdPeriph_Driver/src/stm32f30x_opamp.c ****   assert_param(IS_FUNCTIONAL_STATE(NewState));
 522:/home/user/Desktop/STM32-Projekte/FH-Vertibot/src/STM32F30x_StdPeriph_Driver/src/stm32f30x_opamp.c **** 
 523:/home/user/Desktop/STM32-Projekte/FH-Vertibot/src/STM32F30x_StdPeriph_Driver/src/stm32f30x_opamp.c ****   if (NewState != DISABLE)
 524:/home/user/Desktop/STM32-Projekte/FH-Vertibot/src/STM32F30x_StdPeriph_Driver/src/stm32f30x_opamp.c ****   {
 525:/home/user/Desktop/STM32-Projekte/FH-Vertibot/src/STM32F30x_StdPeriph_Driver/src/stm32f30x_opamp.c ****     /* Start the OPAMPx calibration */
 526:/home/user/Desktop/STM32-Projekte/FH-Vertibot/src/STM32F30x_StdPeriph_Driver/src/stm32f30x_opamp.c ****     *(__IO uint32_t *) (OPAMP_BASE + OPAMP_Selection) |= (uint32_t) (OPAMP_CSR_CALON);
 481              		.loc 1 526 0
 482 0126 C258     		ldr	r2, [r0, r3]
 523:/home/user/Desktop/STM32-Projekte/FH-Vertibot/src/STM32F30x_StdPeriph_Driver/src/stm32f30x_opamp.c ****   if (NewState != DISABLE)
 483              		.loc 1 523 0
 484 0128 11B1     		cbz	r1, .L54
 485              		.loc 1 526 0
 486 012a 42F40062 		orr	r2, r2, #2048
 487 012e 01E0     		b	.L56
 488              	.L54:
 527:/home/user/Desktop/STM32-Projekte/FH-Vertibot/src/STM32F30x_StdPeriph_Driver/src/stm32f30x_opamp.c ****   }
 528:/home/user/Desktop/STM32-Projekte/FH-Vertibot/src/STM32F30x_StdPeriph_Driver/src/stm32f30x_opamp.c ****   else
 529:/home/user/Desktop/STM32-Projekte/FH-Vertibot/src/STM32F30x_StdPeriph_Driver/src/stm32f30x_opamp.c ****   {
 530:/home/user/Desktop/STM32-Projekte/FH-Vertibot/src/STM32F30x_StdPeriph_Driver/src/stm32f30x_opamp.c ****     /* Stop the OPAMPx calibration */
 531:/home/user/Desktop/STM32-Projekte/FH-Vertibot/src/STM32F30x_StdPeriph_Driver/src/stm32f30x_opamp.c ****     *(__IO uint32_t *) (OPAMP_BASE + OPAMP_Selection) &= (uint32_t)(~OPAMP_CSR_CALON);
 489              		.loc 1 531 0
 490 0130 22F40062 		bic	r2, r2, #2048
 491              	.L56:
 492 0134 C250     		str	r2, [r0, r3]
 493 0136 7047     		bx	lr
 494              	.L58:
 495              		.align	2
 496              	.L57:
 497 0138 38000140 		.word	1073807416
 498              		.cfi_endproc
 499              	.LFE124:
 501              		.align	1
 502              		.global	OPAMP_LockConfig
 503              		.thumb
 504              		.thumb_func
 506              	OPAMP_LockConfig:
 507              	.LFB125:
 532:/home/user/Desktop/STM32-Projekte/FH-Vertibot/src/STM32F30x_StdPeriph_Driver/src/stm32f30x_opamp.c ****   }
 533:/home/user/Desktop/STM32-Projekte/FH-Vertibot/src/STM32F30x_StdPeriph_Driver/src/stm32f30x_opamp.c **** }
 534:/home/user/Desktop/STM32-Projekte/FH-Vertibot/src/STM32F30x_StdPeriph_Driver/src/stm32f30x_opamp.c **** 
 535:/home/user/Desktop/STM32-Projekte/FH-Vertibot/src/STM32F30x_StdPeriph_Driver/src/stm32f30x_opamp.c **** /**
 536:/home/user/Desktop/STM32-Projekte/FH-Vertibot/src/STM32F30x_StdPeriph_Driver/src/stm32f30x_opamp.c ****   * @}
 537:/home/user/Desktop/STM32-Projekte/FH-Vertibot/src/STM32F30x_StdPeriph_Driver/src/stm32f30x_opamp.c ****   */
 538:/home/user/Desktop/STM32-Projekte/FH-Vertibot/src/STM32F30x_StdPeriph_Driver/src/stm32f30x_opamp.c **** 
 539:/home/user/Desktop/STM32-Projekte/FH-Vertibot/src/STM32F30x_StdPeriph_Driver/src/stm32f30x_opamp.c **** /** @defgroup OPAMP_Group2 OPAMP configuration locking function
 540:/home/user/Desktop/STM32-Projekte/FH-Vertibot/src/STM32F30x_StdPeriph_Driver/src/stm32f30x_opamp.c ****  *  @brief   OPAMP1,...OPAMP4 configuration locking function
 541:/home/user/Desktop/STM32-Projekte/FH-Vertibot/src/STM32F30x_StdPeriph_Driver/src/stm32f30x_opamp.c ****  *           OPAMP1,...OPAMP4 configuration can be locked each separately.
 542:/home/user/Desktop/STM32-Projekte/FH-Vertibot/src/STM32F30x_StdPeriph_Driver/src/stm32f30x_opamp.c ****  *           Unlocking is performed by system reset.
 543:/home/user/Desktop/STM32-Projekte/FH-Vertibot/src/STM32F30x_StdPeriph_Driver/src/stm32f30x_opamp.c ****  *
 544:/home/user/Desktop/STM32-Projekte/FH-Vertibot/src/STM32F30x_StdPeriph_Driver/src/stm32f30x_opamp.c **** @verbatim   
 545:/home/user/Desktop/STM32-Projekte/FH-Vertibot/src/STM32F30x_StdPeriph_Driver/src/stm32f30x_opamp.c ****  ===============================================================================
 546:/home/user/Desktop/STM32-Projekte/FH-Vertibot/src/STM32F30x_StdPeriph_Driver/src/stm32f30x_opamp.c ****                      ##### Configuration Lock function #####
 547:/home/user/Desktop/STM32-Projekte/FH-Vertibot/src/STM32F30x_StdPeriph_Driver/src/stm32f30x_opamp.c ****  ===============================================================================  
 548:/home/user/Desktop/STM32-Projekte/FH-Vertibot/src/STM32F30x_StdPeriph_Driver/src/stm32f30x_opamp.c **** 
 549:/home/user/Desktop/STM32-Projekte/FH-Vertibot/src/STM32F30x_StdPeriph_Driver/src/stm32f30x_opamp.c **** @endverbatim
 550:/home/user/Desktop/STM32-Projekte/FH-Vertibot/src/STM32F30x_StdPeriph_Driver/src/stm32f30x_opamp.c ****   * @{
 551:/home/user/Desktop/STM32-Projekte/FH-Vertibot/src/STM32F30x_StdPeriph_Driver/src/stm32f30x_opamp.c ****   */
 552:/home/user/Desktop/STM32-Projekte/FH-Vertibot/src/STM32F30x_StdPeriph_Driver/src/stm32f30x_opamp.c **** 
 553:/home/user/Desktop/STM32-Projekte/FH-Vertibot/src/STM32F30x_StdPeriph_Driver/src/stm32f30x_opamp.c **** /**
 554:/home/user/Desktop/STM32-Projekte/FH-Vertibot/src/STM32F30x_StdPeriph_Driver/src/stm32f30x_opamp.c ****   * @brief  Lock the selected OPAMP configuration.
 555:/home/user/Desktop/STM32-Projekte/FH-Vertibot/src/STM32F30x_StdPeriph_Driver/src/stm32f30x_opamp.c ****   * @note   Locking the configuration means that all control bits are read-only.
 556:/home/user/Desktop/STM32-Projekte/FH-Vertibot/src/STM32F30x_StdPeriph_Driver/src/stm32f30x_opamp.c ****   *         To unlock the OPAMP configuration, perform a system reset.
 557:/home/user/Desktop/STM32-Projekte/FH-Vertibot/src/STM32F30x_StdPeriph_Driver/src/stm32f30x_opamp.c ****   * @param  OPAMP_Selection: the selected OPAMP. 
 558:/home/user/Desktop/STM32-Projekte/FH-Vertibot/src/STM32F30x_StdPeriph_Driver/src/stm32f30x_opamp.c ****   *          This parameter can be OPAMP_Selection_OPAMPx where x can be 1 to 4
 559:/home/user/Desktop/STM32-Projekte/FH-Vertibot/src/STM32F30x_StdPeriph_Driver/src/stm32f30x_opamp.c ****   *          to select the OPAMP peripheral.
 560:/home/user/Desktop/STM32-Projekte/FH-Vertibot/src/STM32F30x_StdPeriph_Driver/src/stm32f30x_opamp.c ****   * @retval None
 561:/home/user/Desktop/STM32-Projekte/FH-Vertibot/src/STM32F30x_StdPeriph_Driver/src/stm32f30x_opamp.c ****   */
 562:/home/user/Desktop/STM32-Projekte/FH-Vertibot/src/STM32F30x_StdPeriph_Driver/src/stm32f30x_opamp.c **** void OPAMP_LockConfig(uint32_t OPAMP_Selection)
 563:/home/user/Desktop/STM32-Projekte/FH-Vertibot/src/STM32F30x_StdPeriph_Driver/src/stm32f30x_opamp.c **** {
 508              		.loc 1 563 0
 509              		.cfi_startproc
 510              		@ args = 0, pretend = 0, frame = 0
 511              		@ frame_needed = 0, uses_anonymous_args = 0
 512              		@ link register save eliminated.
 513              	.LVL32:
 564:/home/user/Desktop/STM32-Projekte/FH-Vertibot/src/STM32F30x_StdPeriph_Driver/src/stm32f30x_opamp.c ****   /* Check the parameter */
 565:/home/user/Desktop/STM32-Projekte/FH-Vertibot/src/STM32F30x_StdPeriph_Driver/src/stm32f30x_opamp.c ****   assert_param(IS_OPAMP_ALL_PERIPH(OPAMP_Selection));
 566:/home/user/Desktop/STM32-Projekte/FH-Vertibot/src/STM32F30x_StdPeriph_Driver/src/stm32f30x_opamp.c **** 
 567:/home/user/Desktop/STM32-Projekte/FH-Vertibot/src/STM32F30x_StdPeriph_Driver/src/stm32f30x_opamp.c ****   /* Set the lock bit corresponding to selected OPAMP */
 568:/home/user/Desktop/STM32-Projekte/FH-Vertibot/src/STM32F30x_StdPeriph_Driver/src/stm32f30x_opamp.c ****   *(__IO uint32_t *) (OPAMP_BASE + OPAMP_Selection) |= (uint32_t) (OPAMP_CSR_LOCK);
 514              		.loc 1 568 0
 515 013c 024B     		ldr	r3, .L60
 516 013e C258     		ldr	r2, [r0, r3]
 517 0140 42F00042 		orr	r2, r2, #-2147483648
 518 0144 C250     		str	r2, [r0, r3]
 519 0146 7047     		bx	lr
 520              	.L61:
 521              		.align	2
 522              	.L60:
 523 0148 38000140 		.word	1073807416
 524              		.cfi_endproc
 525              	.LFE125:
 527              	.Letext0:
 528              		.file 2 "/home/user/gcc-arm-none-eabi-4_8-2013q4/arm-none-eabi/include/stdint.h"
 529              		.file 3 "/home/user/Desktop/STM32-Projekte/FH-Vertibot/src/CMSIS/Device/ST/STM32F30x/Include/stm32
 530              		.file 4 "/home/user/Desktop/STM32-Projekte/FH-Vertibot/src/STM32F30x_StdPeriph_Driver/inc/stm32f30
 531              		.file 5 "/home/user/Desktop/STM32-Projekte/FH-Vertibot/src/CMSIS/Include/core_cm4.h"