   1              		.syntax unified
   2              		.cpu cortex-m4
   3              		.eabi_attribute 27, 3
   4              		.eabi_attribute 28, 1
   5              		.fpu fpv4-sp-d16
   6              		.eabi_attribute 20, 1
   7              		.eabi_attribute 21, 1
   8              		.eabi_attribute 23, 3
   9              		.eabi_attribute 24, 1
  10              		.eabi_attribute 25, 1
  11              		.eabi_attribute 26, 1
  12              		.eabi_attribute 30, 4
  13              		.eabi_attribute 34, 1
  14              		.eabi_attribute 18, 4
  15              		.thumb
  16              		.file	"stm32f30x_rcc.c"
  17              		.text
  18              	.Ltext0:
  19              		.cfi_sections	.debug_frame
  20              		.align	1
  21              		.global	RCC_DeInit
  22              		.thumb
  23              		.thumb_func
  25              	RCC_DeInit:
  26              	.LFB111:
  27              		.file 1 "/home/user/Desktop/STM32-Projekte/FH-Vertibot/src/STM32F30x_StdPeriph_Driver/src/stm32f30
   1:/home/user/Desktop/STM32-Projekte/FH-Vertibot/src/STM32F30x_StdPeriph_Driver/src/stm32f30x_rcc.c **** /**
   2:/home/user/Desktop/STM32-Projekte/FH-Vertibot/src/STM32F30x_StdPeriph_Driver/src/stm32f30x_rcc.c ****   ******************************************************************************
   3:/home/user/Desktop/STM32-Projekte/FH-Vertibot/src/STM32F30x_StdPeriph_Driver/src/stm32f30x_rcc.c ****   * @file    stm32f30x_rcc.c
   4:/home/user/Desktop/STM32-Projekte/FH-Vertibot/src/STM32F30x_StdPeriph_Driver/src/stm32f30x_rcc.c ****   * @author  MCD Application Team
   5:/home/user/Desktop/STM32-Projekte/FH-Vertibot/src/STM32F30x_StdPeriph_Driver/src/stm32f30x_rcc.c ****   * @version V1.0.1
   6:/home/user/Desktop/STM32-Projekte/FH-Vertibot/src/STM32F30x_StdPeriph_Driver/src/stm32f30x_rcc.c ****   * @date    23-October-2012
   7:/home/user/Desktop/STM32-Projekte/FH-Vertibot/src/STM32F30x_StdPeriph_Driver/src/stm32f30x_rcc.c ****   * @brief   This file provides firmware functions to manage the following 
   8:/home/user/Desktop/STM32-Projekte/FH-Vertibot/src/STM32F30x_StdPeriph_Driver/src/stm32f30x_rcc.c ****   *          functionalities of the Reset and clock control (RCC) peripheral:           
   9:/home/user/Desktop/STM32-Projekte/FH-Vertibot/src/STM32F30x_StdPeriph_Driver/src/stm32f30x_rcc.c ****   *           + Internal/external clocks, PLL, CSS and MCO configuration
  10:/home/user/Desktop/STM32-Projekte/FH-Vertibot/src/STM32F30x_StdPeriph_Driver/src/stm32f30x_rcc.c ****   *           + System, AHB and APB busses clocks configuration
  11:/home/user/Desktop/STM32-Projekte/FH-Vertibot/src/STM32F30x_StdPeriph_Driver/src/stm32f30x_rcc.c ****   *           + Peripheral clocks configuration
  12:/home/user/Desktop/STM32-Projekte/FH-Vertibot/src/STM32F30x_StdPeriph_Driver/src/stm32f30x_rcc.c ****   *           + Interrupts and flags management
  13:/home/user/Desktop/STM32-Projekte/FH-Vertibot/src/STM32F30x_StdPeriph_Driver/src/stm32f30x_rcc.c ****   *
  14:/home/user/Desktop/STM32-Projekte/FH-Vertibot/src/STM32F30x_StdPeriph_Driver/src/stm32f30x_rcc.c ****   @verbatim
  15:/home/user/Desktop/STM32-Projekte/FH-Vertibot/src/STM32F30x_StdPeriph_Driver/src/stm32f30x_rcc.c ****                
  16:/home/user/Desktop/STM32-Projekte/FH-Vertibot/src/STM32F30x_StdPeriph_Driver/src/stm32f30x_rcc.c ****  ===============================================================================
  17:/home/user/Desktop/STM32-Projekte/FH-Vertibot/src/STM32F30x_StdPeriph_Driver/src/stm32f30x_rcc.c ****                       ##### RCC specific features #####
  18:/home/user/Desktop/STM32-Projekte/FH-Vertibot/src/STM32F30x_StdPeriph_Driver/src/stm32f30x_rcc.c ****  ===============================================================================
  19:/home/user/Desktop/STM32-Projekte/FH-Vertibot/src/STM32F30x_StdPeriph_Driver/src/stm32f30x_rcc.c ****     [..] After reset the device is running from HSI (8 MHz) with Flash 0 WS, 
  20:/home/user/Desktop/STM32-Projekte/FH-Vertibot/src/STM32F30x_StdPeriph_Driver/src/stm32f30x_rcc.c ****          all peripherals are off except internal SRAM, Flash and SWD.
  21:/home/user/Desktop/STM32-Projekte/FH-Vertibot/src/STM32F30x_StdPeriph_Driver/src/stm32f30x_rcc.c ****          (+) There is no prescaler on High speed (AHB) and Low speed (APB) busses;
  22:/home/user/Desktop/STM32-Projekte/FH-Vertibot/src/STM32F30x_StdPeriph_Driver/src/stm32f30x_rcc.c ****              all peripherals mapped on these busses are running at HSI speed.
  23:/home/user/Desktop/STM32-Projekte/FH-Vertibot/src/STM32F30x_StdPeriph_Driver/src/stm32f30x_rcc.c ****        	 (+) The clock for all peripherals is switched off, except the SRAM and FLASH.
  24:/home/user/Desktop/STM32-Projekte/FH-Vertibot/src/STM32F30x_StdPeriph_Driver/src/stm32f30x_rcc.c ****          (+) All GPIOs are in input floating state, except the SWD pins which
  25:/home/user/Desktop/STM32-Projekte/FH-Vertibot/src/STM32F30x_StdPeriph_Driver/src/stm32f30x_rcc.c ****              are assigned to be used for debug purpose.
  26:/home/user/Desktop/STM32-Projekte/FH-Vertibot/src/STM32F30x_StdPeriph_Driver/src/stm32f30x_rcc.c ****     [..] Once the device starts from reset, the user application has to:        
  27:/home/user/Desktop/STM32-Projekte/FH-Vertibot/src/STM32F30x_StdPeriph_Driver/src/stm32f30x_rcc.c ****          (+) Configure the clock source to be used to drive the System clock
  28:/home/user/Desktop/STM32-Projekte/FH-Vertibot/src/STM32F30x_StdPeriph_Driver/src/stm32f30x_rcc.c ****              (if the application needs higher frequency/performance).
  29:/home/user/Desktop/STM32-Projekte/FH-Vertibot/src/STM32F30x_StdPeriph_Driver/src/stm32f30x_rcc.c ****          (+) Configure the System clock frequency and Flash settings.  
  30:/home/user/Desktop/STM32-Projekte/FH-Vertibot/src/STM32F30x_StdPeriph_Driver/src/stm32f30x_rcc.c ****          (+) Configure the AHB and APB busses prescalers.
  31:/home/user/Desktop/STM32-Projekte/FH-Vertibot/src/STM32F30x_StdPeriph_Driver/src/stm32f30x_rcc.c ****          (+) Enable the clock for the peripheral(s) to be used.
  32:/home/user/Desktop/STM32-Projekte/FH-Vertibot/src/STM32F30x_StdPeriph_Driver/src/stm32f30x_rcc.c ****          (+) Configure the clock source(s) for peripherals which clocks are not
  33:/home/user/Desktop/STM32-Projekte/FH-Vertibot/src/STM32F30x_StdPeriph_Driver/src/stm32f30x_rcc.c ****              derived from the System clock (ADC, TIM, I2C, USART, RTC and IWDG).      
  34:/home/user/Desktop/STM32-Projekte/FH-Vertibot/src/STM32F30x_StdPeriph_Driver/src/stm32f30x_rcc.c ****                         
  35:/home/user/Desktop/STM32-Projekte/FH-Vertibot/src/STM32F30x_StdPeriph_Driver/src/stm32f30x_rcc.c ****   @endverbatim
  36:/home/user/Desktop/STM32-Projekte/FH-Vertibot/src/STM32F30x_StdPeriph_Driver/src/stm32f30x_rcc.c ****     
  37:/home/user/Desktop/STM32-Projekte/FH-Vertibot/src/STM32F30x_StdPeriph_Driver/src/stm32f30x_rcc.c ****   ******************************************************************************
  38:/home/user/Desktop/STM32-Projekte/FH-Vertibot/src/STM32F30x_StdPeriph_Driver/src/stm32f30x_rcc.c ****   * @attention
  39:/home/user/Desktop/STM32-Projekte/FH-Vertibot/src/STM32F30x_StdPeriph_Driver/src/stm32f30x_rcc.c ****   *
  40:/home/user/Desktop/STM32-Projekte/FH-Vertibot/src/STM32F30x_StdPeriph_Driver/src/stm32f30x_rcc.c ****   * <h2><center>&copy; COPYRIGHT 2012 STMicroelectronics</center></h2>
  41:/home/user/Desktop/STM32-Projekte/FH-Vertibot/src/STM32F30x_StdPeriph_Driver/src/stm32f30x_rcc.c ****   *
  42:/home/user/Desktop/STM32-Projekte/FH-Vertibot/src/STM32F30x_StdPeriph_Driver/src/stm32f30x_rcc.c ****   * Licensed under MCD-ST Liberty SW License Agreement V2, (the "License");
  43:/home/user/Desktop/STM32-Projekte/FH-Vertibot/src/STM32F30x_StdPeriph_Driver/src/stm32f30x_rcc.c ****   * You may not use this file except in compliance with the License.
  44:/home/user/Desktop/STM32-Projekte/FH-Vertibot/src/STM32F30x_StdPeriph_Driver/src/stm32f30x_rcc.c ****   * You may obtain a copy of the License at:
  45:/home/user/Desktop/STM32-Projekte/FH-Vertibot/src/STM32F30x_StdPeriph_Driver/src/stm32f30x_rcc.c ****   *
  46:/home/user/Desktop/STM32-Projekte/FH-Vertibot/src/STM32F30x_StdPeriph_Driver/src/stm32f30x_rcc.c ****   *        http://www.st.com/software_license_agreement_liberty_v2
  47:/home/user/Desktop/STM32-Projekte/FH-Vertibot/src/STM32F30x_StdPeriph_Driver/src/stm32f30x_rcc.c ****   *
  48:/home/user/Desktop/STM32-Projekte/FH-Vertibot/src/STM32F30x_StdPeriph_Driver/src/stm32f30x_rcc.c ****   * Unless required by applicable law or agreed to in writing, software 
  49:/home/user/Desktop/STM32-Projekte/FH-Vertibot/src/STM32F30x_StdPeriph_Driver/src/stm32f30x_rcc.c ****   * distributed under the License is distributed on an "AS IS" BASIS, 
  50:/home/user/Desktop/STM32-Projekte/FH-Vertibot/src/STM32F30x_StdPeriph_Driver/src/stm32f30x_rcc.c ****   * WITHOUT WARRANTIES OR CONDITIONS OF ANY KIND, either express or implied.
  51:/home/user/Desktop/STM32-Projekte/FH-Vertibot/src/STM32F30x_StdPeriph_Driver/src/stm32f30x_rcc.c ****   * See the License for the specific language governing permissions and
  52:/home/user/Desktop/STM32-Projekte/FH-Vertibot/src/STM32F30x_StdPeriph_Driver/src/stm32f30x_rcc.c ****   * limitations under the License.
  53:/home/user/Desktop/STM32-Projekte/FH-Vertibot/src/STM32F30x_StdPeriph_Driver/src/stm32f30x_rcc.c ****   *
  54:/home/user/Desktop/STM32-Projekte/FH-Vertibot/src/STM32F30x_StdPeriph_Driver/src/stm32f30x_rcc.c ****   ******************************************************************************
  55:/home/user/Desktop/STM32-Projekte/FH-Vertibot/src/STM32F30x_StdPeriph_Driver/src/stm32f30x_rcc.c ****   */
  56:/home/user/Desktop/STM32-Projekte/FH-Vertibot/src/STM32F30x_StdPeriph_Driver/src/stm32f30x_rcc.c **** 
  57:/home/user/Desktop/STM32-Projekte/FH-Vertibot/src/STM32F30x_StdPeriph_Driver/src/stm32f30x_rcc.c **** /* Includes ------------------------------------------------------------------*/
  58:/home/user/Desktop/STM32-Projekte/FH-Vertibot/src/STM32F30x_StdPeriph_Driver/src/stm32f30x_rcc.c **** #include "stm32f30x_rcc.h"
  59:/home/user/Desktop/STM32-Projekte/FH-Vertibot/src/STM32F30x_StdPeriph_Driver/src/stm32f30x_rcc.c **** 
  60:/home/user/Desktop/STM32-Projekte/FH-Vertibot/src/STM32F30x_StdPeriph_Driver/src/stm32f30x_rcc.c **** /** @addtogroup STM32F30x_StdPeriph_Driver
  61:/home/user/Desktop/STM32-Projekte/FH-Vertibot/src/STM32F30x_StdPeriph_Driver/src/stm32f30x_rcc.c ****   * @{
  62:/home/user/Desktop/STM32-Projekte/FH-Vertibot/src/STM32F30x_StdPeriph_Driver/src/stm32f30x_rcc.c ****   */
  63:/home/user/Desktop/STM32-Projekte/FH-Vertibot/src/STM32F30x_StdPeriph_Driver/src/stm32f30x_rcc.c **** 
  64:/home/user/Desktop/STM32-Projekte/FH-Vertibot/src/STM32F30x_StdPeriph_Driver/src/stm32f30x_rcc.c **** /** @defgroup RCC 
  65:/home/user/Desktop/STM32-Projekte/FH-Vertibot/src/STM32F30x_StdPeriph_Driver/src/stm32f30x_rcc.c ****   * @brief RCC driver modules
  66:/home/user/Desktop/STM32-Projekte/FH-Vertibot/src/STM32F30x_StdPeriph_Driver/src/stm32f30x_rcc.c ****   * @{
  67:/home/user/Desktop/STM32-Projekte/FH-Vertibot/src/STM32F30x_StdPeriph_Driver/src/stm32f30x_rcc.c ****   */ 
  68:/home/user/Desktop/STM32-Projekte/FH-Vertibot/src/STM32F30x_StdPeriph_Driver/src/stm32f30x_rcc.c **** 
  69:/home/user/Desktop/STM32-Projekte/FH-Vertibot/src/STM32F30x_StdPeriph_Driver/src/stm32f30x_rcc.c **** /* Private typedef -----------------------------------------------------------*/
  70:/home/user/Desktop/STM32-Projekte/FH-Vertibot/src/STM32F30x_StdPeriph_Driver/src/stm32f30x_rcc.c **** /* Private define ------------------------------------------------------------*/
  71:/home/user/Desktop/STM32-Projekte/FH-Vertibot/src/STM32F30x_StdPeriph_Driver/src/stm32f30x_rcc.c **** /* ------------ RCC registers bit address in the alias region ----------- */
  72:/home/user/Desktop/STM32-Projekte/FH-Vertibot/src/STM32F30x_StdPeriph_Driver/src/stm32f30x_rcc.c **** #define RCC_OFFSET                (RCC_BASE - PERIPH_BASE)
  73:/home/user/Desktop/STM32-Projekte/FH-Vertibot/src/STM32F30x_StdPeriph_Driver/src/stm32f30x_rcc.c **** 
  74:/home/user/Desktop/STM32-Projekte/FH-Vertibot/src/STM32F30x_StdPeriph_Driver/src/stm32f30x_rcc.c **** /* --- CR Register ---*/
  75:/home/user/Desktop/STM32-Projekte/FH-Vertibot/src/STM32F30x_StdPeriph_Driver/src/stm32f30x_rcc.c **** 
  76:/home/user/Desktop/STM32-Projekte/FH-Vertibot/src/STM32F30x_StdPeriph_Driver/src/stm32f30x_rcc.c **** /* Alias word address of HSION bit */
  77:/home/user/Desktop/STM32-Projekte/FH-Vertibot/src/STM32F30x_StdPeriph_Driver/src/stm32f30x_rcc.c **** #define CR_OFFSET                 (RCC_OFFSET + 0x00)
  78:/home/user/Desktop/STM32-Projekte/FH-Vertibot/src/STM32F30x_StdPeriph_Driver/src/stm32f30x_rcc.c **** #define HSION_BitNumber           0x00
  79:/home/user/Desktop/STM32-Projekte/FH-Vertibot/src/STM32F30x_StdPeriph_Driver/src/stm32f30x_rcc.c **** #define CR_HSION_BB               (PERIPH_BB_BASE + (CR_OFFSET * 32) + (HSION_BitNumber * 4))
  80:/home/user/Desktop/STM32-Projekte/FH-Vertibot/src/STM32F30x_StdPeriph_Driver/src/stm32f30x_rcc.c **** 
  81:/home/user/Desktop/STM32-Projekte/FH-Vertibot/src/STM32F30x_StdPeriph_Driver/src/stm32f30x_rcc.c **** /* Alias word address of PLLON bit */
  82:/home/user/Desktop/STM32-Projekte/FH-Vertibot/src/STM32F30x_StdPeriph_Driver/src/stm32f30x_rcc.c **** #define PLLON_BitNumber           0x18
  83:/home/user/Desktop/STM32-Projekte/FH-Vertibot/src/STM32F30x_StdPeriph_Driver/src/stm32f30x_rcc.c **** #define CR_PLLON_BB               (PERIPH_BB_BASE + (CR_OFFSET * 32) + (PLLON_BitNumber * 4))
  84:/home/user/Desktop/STM32-Projekte/FH-Vertibot/src/STM32F30x_StdPeriph_Driver/src/stm32f30x_rcc.c **** 
  85:/home/user/Desktop/STM32-Projekte/FH-Vertibot/src/STM32F30x_StdPeriph_Driver/src/stm32f30x_rcc.c **** /* Alias word address of CSSON bit */
  86:/home/user/Desktop/STM32-Projekte/FH-Vertibot/src/STM32F30x_StdPeriph_Driver/src/stm32f30x_rcc.c **** #define CSSON_BitNumber           0x13
  87:/home/user/Desktop/STM32-Projekte/FH-Vertibot/src/STM32F30x_StdPeriph_Driver/src/stm32f30x_rcc.c **** #define CR_CSSON_BB               (PERIPH_BB_BASE + (CR_OFFSET * 32) + (CSSON_BitNumber * 4))
  88:/home/user/Desktop/STM32-Projekte/FH-Vertibot/src/STM32F30x_StdPeriph_Driver/src/stm32f30x_rcc.c **** 
  89:/home/user/Desktop/STM32-Projekte/FH-Vertibot/src/STM32F30x_StdPeriph_Driver/src/stm32f30x_rcc.c **** /* --- CFGR Register ---*/
  90:/home/user/Desktop/STM32-Projekte/FH-Vertibot/src/STM32F30x_StdPeriph_Driver/src/stm32f30x_rcc.c **** /* Alias word address of USBPRE bit */
  91:/home/user/Desktop/STM32-Projekte/FH-Vertibot/src/STM32F30x_StdPeriph_Driver/src/stm32f30x_rcc.c **** #define CFGR_OFFSET               (RCC_OFFSET + 0x04)
  92:/home/user/Desktop/STM32-Projekte/FH-Vertibot/src/STM32F30x_StdPeriph_Driver/src/stm32f30x_rcc.c **** #define USBPRE_BitNumber          0x16
  93:/home/user/Desktop/STM32-Projekte/FH-Vertibot/src/STM32F30x_StdPeriph_Driver/src/stm32f30x_rcc.c **** #define CFGR_USBPRE_BB            (PERIPH_BB_BASE + (CFGR_OFFSET * 32) + (USBPRE_BitNumber * 4))
  94:/home/user/Desktop/STM32-Projekte/FH-Vertibot/src/STM32F30x_StdPeriph_Driver/src/stm32f30x_rcc.c **** /* Alias word address of I2SSRC bit */
  95:/home/user/Desktop/STM32-Projekte/FH-Vertibot/src/STM32F30x_StdPeriph_Driver/src/stm32f30x_rcc.c **** #define I2SSRC_BitNumber          0x17
  96:/home/user/Desktop/STM32-Projekte/FH-Vertibot/src/STM32F30x_StdPeriph_Driver/src/stm32f30x_rcc.c **** #define CFGR_I2SSRC_BB            (PERIPH_BB_BASE + (CFGR_OFFSET * 32) + (I2SSRC_BitNumber * 4))
  97:/home/user/Desktop/STM32-Projekte/FH-Vertibot/src/STM32F30x_StdPeriph_Driver/src/stm32f30x_rcc.c **** 
  98:/home/user/Desktop/STM32-Projekte/FH-Vertibot/src/STM32F30x_StdPeriph_Driver/src/stm32f30x_rcc.c **** /* --- BDCR Register ---*/
  99:/home/user/Desktop/STM32-Projekte/FH-Vertibot/src/STM32F30x_StdPeriph_Driver/src/stm32f30x_rcc.c **** 
 100:/home/user/Desktop/STM32-Projekte/FH-Vertibot/src/STM32F30x_StdPeriph_Driver/src/stm32f30x_rcc.c **** /* Alias word address of RTCEN bit */
 101:/home/user/Desktop/STM32-Projekte/FH-Vertibot/src/STM32F30x_StdPeriph_Driver/src/stm32f30x_rcc.c **** #define BDCR_OFFSET               (RCC_OFFSET + 0x20)
 102:/home/user/Desktop/STM32-Projekte/FH-Vertibot/src/STM32F30x_StdPeriph_Driver/src/stm32f30x_rcc.c **** #define RTCEN_BitNumber           0x0F
 103:/home/user/Desktop/STM32-Projekte/FH-Vertibot/src/STM32F30x_StdPeriph_Driver/src/stm32f30x_rcc.c **** #define BDCR_RTCEN_BB             (PERIPH_BB_BASE + (BDCR_OFFSET * 32) + (RTCEN_BitNumber * 4))
 104:/home/user/Desktop/STM32-Projekte/FH-Vertibot/src/STM32F30x_StdPeriph_Driver/src/stm32f30x_rcc.c **** 
 105:/home/user/Desktop/STM32-Projekte/FH-Vertibot/src/STM32F30x_StdPeriph_Driver/src/stm32f30x_rcc.c **** /* Alias word address of BDRST bit */
 106:/home/user/Desktop/STM32-Projekte/FH-Vertibot/src/STM32F30x_StdPeriph_Driver/src/stm32f30x_rcc.c **** #define BDRST_BitNumber           0x10
 107:/home/user/Desktop/STM32-Projekte/FH-Vertibot/src/STM32F30x_StdPeriph_Driver/src/stm32f30x_rcc.c **** #define BDCR_BDRST_BB             (PERIPH_BB_BASE + (BDCR_OFFSET * 32) + (BDRST_BitNumber * 4))
 108:/home/user/Desktop/STM32-Projekte/FH-Vertibot/src/STM32F30x_StdPeriph_Driver/src/stm32f30x_rcc.c **** 
 109:/home/user/Desktop/STM32-Projekte/FH-Vertibot/src/STM32F30x_StdPeriph_Driver/src/stm32f30x_rcc.c **** /* --- CSR Register ---*/
 110:/home/user/Desktop/STM32-Projekte/FH-Vertibot/src/STM32F30x_StdPeriph_Driver/src/stm32f30x_rcc.c **** 
 111:/home/user/Desktop/STM32-Projekte/FH-Vertibot/src/STM32F30x_StdPeriph_Driver/src/stm32f30x_rcc.c **** /* Alias word address of LSION bit */
 112:/home/user/Desktop/STM32-Projekte/FH-Vertibot/src/STM32F30x_StdPeriph_Driver/src/stm32f30x_rcc.c **** #define CSR_OFFSET                (RCC_OFFSET + 0x24)
 113:/home/user/Desktop/STM32-Projekte/FH-Vertibot/src/STM32F30x_StdPeriph_Driver/src/stm32f30x_rcc.c **** #define LSION_BitNumber           0x00
 114:/home/user/Desktop/STM32-Projekte/FH-Vertibot/src/STM32F30x_StdPeriph_Driver/src/stm32f30x_rcc.c **** #define CSR_LSION_BB              (PERIPH_BB_BASE + (CSR_OFFSET * 32) + (LSION_BitNumber * 4))
 115:/home/user/Desktop/STM32-Projekte/FH-Vertibot/src/STM32F30x_StdPeriph_Driver/src/stm32f30x_rcc.c **** 
 116:/home/user/Desktop/STM32-Projekte/FH-Vertibot/src/STM32F30x_StdPeriph_Driver/src/stm32f30x_rcc.c **** /* ---------------------- RCC registers bit mask ------------------------ */
 117:/home/user/Desktop/STM32-Projekte/FH-Vertibot/src/STM32F30x_StdPeriph_Driver/src/stm32f30x_rcc.c **** /* RCC Flag Mask */
 118:/home/user/Desktop/STM32-Projekte/FH-Vertibot/src/STM32F30x_StdPeriph_Driver/src/stm32f30x_rcc.c **** #define FLAG_MASK                 ((uint8_t)0x1F)
 119:/home/user/Desktop/STM32-Projekte/FH-Vertibot/src/STM32F30x_StdPeriph_Driver/src/stm32f30x_rcc.c **** 
 120:/home/user/Desktop/STM32-Projekte/FH-Vertibot/src/STM32F30x_StdPeriph_Driver/src/stm32f30x_rcc.c **** /* CFGR register byte 3 (Bits[31:23]) base address */
 121:/home/user/Desktop/STM32-Projekte/FH-Vertibot/src/STM32F30x_StdPeriph_Driver/src/stm32f30x_rcc.c **** #define CFGR_BYTE3_ADDRESS        ((uint32_t)0x40021007)
 122:/home/user/Desktop/STM32-Projekte/FH-Vertibot/src/STM32F30x_StdPeriph_Driver/src/stm32f30x_rcc.c **** 
 123:/home/user/Desktop/STM32-Projekte/FH-Vertibot/src/STM32F30x_StdPeriph_Driver/src/stm32f30x_rcc.c **** /* CIR register byte 2 (Bits[15:8]) base address */
 124:/home/user/Desktop/STM32-Projekte/FH-Vertibot/src/STM32F30x_StdPeriph_Driver/src/stm32f30x_rcc.c **** #define CIR_BYTE2_ADDRESS         ((uint32_t)0x40021009)
 125:/home/user/Desktop/STM32-Projekte/FH-Vertibot/src/STM32F30x_StdPeriph_Driver/src/stm32f30x_rcc.c **** 
 126:/home/user/Desktop/STM32-Projekte/FH-Vertibot/src/STM32F30x_StdPeriph_Driver/src/stm32f30x_rcc.c **** /* CIR register byte 3 (Bits[23:16]) base address */
 127:/home/user/Desktop/STM32-Projekte/FH-Vertibot/src/STM32F30x_StdPeriph_Driver/src/stm32f30x_rcc.c **** #define CIR_BYTE3_ADDRESS         ((uint32_t)0x4002100A)
 128:/home/user/Desktop/STM32-Projekte/FH-Vertibot/src/STM32F30x_StdPeriph_Driver/src/stm32f30x_rcc.c **** 
 129:/home/user/Desktop/STM32-Projekte/FH-Vertibot/src/STM32F30x_StdPeriph_Driver/src/stm32f30x_rcc.c **** /* CR register byte 2 (Bits[23:16]) base address */
 130:/home/user/Desktop/STM32-Projekte/FH-Vertibot/src/STM32F30x_StdPeriph_Driver/src/stm32f30x_rcc.c **** #define CR_BYTE2_ADDRESS          ((uint32_t)0x40021002)
 131:/home/user/Desktop/STM32-Projekte/FH-Vertibot/src/STM32F30x_StdPeriph_Driver/src/stm32f30x_rcc.c **** 
 132:/home/user/Desktop/STM32-Projekte/FH-Vertibot/src/STM32F30x_StdPeriph_Driver/src/stm32f30x_rcc.c **** /* Private macro -------------------------------------------------------------*/
 133:/home/user/Desktop/STM32-Projekte/FH-Vertibot/src/STM32F30x_StdPeriph_Driver/src/stm32f30x_rcc.c **** /* Private variables ---------------------------------------------------------*/
 134:/home/user/Desktop/STM32-Projekte/FH-Vertibot/src/STM32F30x_StdPeriph_Driver/src/stm32f30x_rcc.c **** static __I uint8_t APBAHBPrescTable[16] = {0, 0, 0, 0, 1, 2, 3, 4, 1, 2, 3, 4, 6, 7, 8, 9};
 135:/home/user/Desktop/STM32-Projekte/FH-Vertibot/src/STM32F30x_StdPeriph_Driver/src/stm32f30x_rcc.c **** static __I uint16_t ADCPrescTable[13] = {0, 1, 2, 4, 6, 8, 10, 12, 16, 32, 64, 128, 256};
 136:/home/user/Desktop/STM32-Projekte/FH-Vertibot/src/STM32F30x_StdPeriph_Driver/src/stm32f30x_rcc.c **** 
 137:/home/user/Desktop/STM32-Projekte/FH-Vertibot/src/STM32F30x_StdPeriph_Driver/src/stm32f30x_rcc.c **** /* Private function prototypes -----------------------------------------------*/
 138:/home/user/Desktop/STM32-Projekte/FH-Vertibot/src/STM32F30x_StdPeriph_Driver/src/stm32f30x_rcc.c **** /* Private functions ---------------------------------------------------------*/
 139:/home/user/Desktop/STM32-Projekte/FH-Vertibot/src/STM32F30x_StdPeriph_Driver/src/stm32f30x_rcc.c **** 
 140:/home/user/Desktop/STM32-Projekte/FH-Vertibot/src/STM32F30x_StdPeriph_Driver/src/stm32f30x_rcc.c **** /** @defgroup RCC_Private_Functions
 141:/home/user/Desktop/STM32-Projekte/FH-Vertibot/src/STM32F30x_StdPeriph_Driver/src/stm32f30x_rcc.c ****   * @{
 142:/home/user/Desktop/STM32-Projekte/FH-Vertibot/src/STM32F30x_StdPeriph_Driver/src/stm32f30x_rcc.c ****   */
 143:/home/user/Desktop/STM32-Projekte/FH-Vertibot/src/STM32F30x_StdPeriph_Driver/src/stm32f30x_rcc.c **** 
 144:/home/user/Desktop/STM32-Projekte/FH-Vertibot/src/STM32F30x_StdPeriph_Driver/src/stm32f30x_rcc.c **** /** @defgroup RCC_Group1 Internal and external clocks, PLL, CSS and MCO configuration functions
 145:/home/user/Desktop/STM32-Projekte/FH-Vertibot/src/STM32F30x_StdPeriph_Driver/src/stm32f30x_rcc.c ****  *  @brief   Internal and external clocks, PLL, CSS and MCO configuration functions 
 146:/home/user/Desktop/STM32-Projekte/FH-Vertibot/src/STM32F30x_StdPeriph_Driver/src/stm32f30x_rcc.c ****  *
 147:/home/user/Desktop/STM32-Projekte/FH-Vertibot/src/STM32F30x_StdPeriph_Driver/src/stm32f30x_rcc.c **** @verbatim   
 148:/home/user/Desktop/STM32-Projekte/FH-Vertibot/src/STM32F30x_StdPeriph_Driver/src/stm32f30x_rcc.c ****  ===============================================================================
 149:/home/user/Desktop/STM32-Projekte/FH-Vertibot/src/STM32F30x_StdPeriph_Driver/src/stm32f30x_rcc.c ****  ##### Internal-external clocks, PLL, CSS and MCO configuration functions #####
 150:/home/user/Desktop/STM32-Projekte/FH-Vertibot/src/STM32F30x_StdPeriph_Driver/src/stm32f30x_rcc.c ****  ===============================================================================  
 151:/home/user/Desktop/STM32-Projekte/FH-Vertibot/src/STM32F30x_StdPeriph_Driver/src/stm32f30x_rcc.c ****     [..] This section provides functions allowing to configure the internal/external 
 152:/home/user/Desktop/STM32-Projekte/FH-Vertibot/src/STM32F30x_StdPeriph_Driver/src/stm32f30x_rcc.c ****          clocks, PLL, CSS and MCO.
 153:/home/user/Desktop/STM32-Projekte/FH-Vertibot/src/STM32F30x_StdPeriph_Driver/src/stm32f30x_rcc.c ****          (#) HSI (high-speed internal), 8 MHz factory-trimmed RC used directly 
 154:/home/user/Desktop/STM32-Projekte/FH-Vertibot/src/STM32F30x_StdPeriph_Driver/src/stm32f30x_rcc.c ****              or through the PLL as System clock source.
 155:/home/user/Desktop/STM32-Projekte/FH-Vertibot/src/STM32F30x_StdPeriph_Driver/src/stm32f30x_rcc.c ****              The HSI clock can be used also to clock the USART and I2C peripherals.
 156:/home/user/Desktop/STM32-Projekte/FH-Vertibot/src/STM32F30x_StdPeriph_Driver/src/stm32f30x_rcc.c ****          (#) LSI (low-speed internal), 40 KHz low consumption RC used as IWDG and/or RTC
 157:/home/user/Desktop/STM32-Projekte/FH-Vertibot/src/STM32F30x_StdPeriph_Driver/src/stm32f30x_rcc.c ****              clock source.
 158:/home/user/Desktop/STM32-Projekte/FH-Vertibot/src/STM32F30x_StdPeriph_Driver/src/stm32f30x_rcc.c ****          (#) HSE (high-speed external), 4 to 32 MHz crystal oscillator used directly or
 159:/home/user/Desktop/STM32-Projekte/FH-Vertibot/src/STM32F30x_StdPeriph_Driver/src/stm32f30x_rcc.c ****              through the PLL as System clock source. Can be used also as RTC clock source.
 160:/home/user/Desktop/STM32-Projekte/FH-Vertibot/src/STM32F30x_StdPeriph_Driver/src/stm32f30x_rcc.c ****          (#) LSE (low-speed external), 32 KHz oscillator used as RTC clock source.
 161:/home/user/Desktop/STM32-Projekte/FH-Vertibot/src/STM32F30x_StdPeriph_Driver/src/stm32f30x_rcc.c ****              LSE can be used also to clock the USART peripherals.
 162:/home/user/Desktop/STM32-Projekte/FH-Vertibot/src/STM32F30x_StdPeriph_Driver/src/stm32f30x_rcc.c ****          (#) PLL (clocked by HSI or HSE), for System clock.
 163:/home/user/Desktop/STM32-Projekte/FH-Vertibot/src/STM32F30x_StdPeriph_Driver/src/stm32f30x_rcc.c ****          (#) CSS (Clock security system), once enabled and if a HSE clock failure occurs 
 164:/home/user/Desktop/STM32-Projekte/FH-Vertibot/src/STM32F30x_StdPeriph_Driver/src/stm32f30x_rcc.c ****              (HSE used directly or through PLL as System clock source), the System clock
 165:/home/user/Desktop/STM32-Projekte/FH-Vertibot/src/STM32F30x_StdPeriph_Driver/src/stm32f30x_rcc.c ****              is automatically switched to HSI and an interrupt is generated if enabled. 
 166:/home/user/Desktop/STM32-Projekte/FH-Vertibot/src/STM32F30x_StdPeriph_Driver/src/stm32f30x_rcc.c ****              The interrupt is linked to the Cortex-M4 NMI (Non-Maskable Interrupt) 
 167:/home/user/Desktop/STM32-Projekte/FH-Vertibot/src/STM32F30x_StdPeriph_Driver/src/stm32f30x_rcc.c ****              exception vector.   
 168:/home/user/Desktop/STM32-Projekte/FH-Vertibot/src/STM32F30x_StdPeriph_Driver/src/stm32f30x_rcc.c ****          (#) MCO (microcontroller clock output), used to output SYSCLK, HSI, HSE, LSI, LSE,
 169:/home/user/Desktop/STM32-Projekte/FH-Vertibot/src/STM32F30x_StdPeriph_Driver/src/stm32f30x_rcc.c ****              PLL clock on PA8 pin.
 170:/home/user/Desktop/STM32-Projekte/FH-Vertibot/src/STM32F30x_StdPeriph_Driver/src/stm32f30x_rcc.c **** 
 171:/home/user/Desktop/STM32-Projekte/FH-Vertibot/src/STM32F30x_StdPeriph_Driver/src/stm32f30x_rcc.c **** @endverbatim
 172:/home/user/Desktop/STM32-Projekte/FH-Vertibot/src/STM32F30x_StdPeriph_Driver/src/stm32f30x_rcc.c ****   * @{
 173:/home/user/Desktop/STM32-Projekte/FH-Vertibot/src/STM32F30x_StdPeriph_Driver/src/stm32f30x_rcc.c ****   */
 174:/home/user/Desktop/STM32-Projekte/FH-Vertibot/src/STM32F30x_StdPeriph_Driver/src/stm32f30x_rcc.c **** 
 175:/home/user/Desktop/STM32-Projekte/FH-Vertibot/src/STM32F30x_StdPeriph_Driver/src/stm32f30x_rcc.c **** /**
 176:/home/user/Desktop/STM32-Projekte/FH-Vertibot/src/STM32F30x_StdPeriph_Driver/src/stm32f30x_rcc.c ****   * @brief  Resets the RCC clock configuration to the default reset state.
 177:/home/user/Desktop/STM32-Projekte/FH-Vertibot/src/STM32F30x_StdPeriph_Driver/src/stm32f30x_rcc.c ****   * @note   The default reset state of the clock configuration is given below:
 178:/home/user/Desktop/STM32-Projekte/FH-Vertibot/src/STM32F30x_StdPeriph_Driver/src/stm32f30x_rcc.c ****   * @note     HSI ON and used as system clock source 
 179:/home/user/Desktop/STM32-Projekte/FH-Vertibot/src/STM32F30x_StdPeriph_Driver/src/stm32f30x_rcc.c ****   * @note     HSE and PLL OFF
 180:/home/user/Desktop/STM32-Projekte/FH-Vertibot/src/STM32F30x_StdPeriph_Driver/src/stm32f30x_rcc.c ****   * @note     AHB, APB1 and APB2 prescalers set to 1.
 181:/home/user/Desktop/STM32-Projekte/FH-Vertibot/src/STM32F30x_StdPeriph_Driver/src/stm32f30x_rcc.c ****   * @note     CSS and MCO OFF
 182:/home/user/Desktop/STM32-Projekte/FH-Vertibot/src/STM32F30x_StdPeriph_Driver/src/stm32f30x_rcc.c ****   * @note     All interrupts disabled
 183:/home/user/Desktop/STM32-Projekte/FH-Vertibot/src/STM32F30x_StdPeriph_Driver/src/stm32f30x_rcc.c ****   * @note   However, this function doesn't modify the configuration of the
 184:/home/user/Desktop/STM32-Projekte/FH-Vertibot/src/STM32F30x_StdPeriph_Driver/src/stm32f30x_rcc.c ****   * @note     Peripheral clocks
 185:/home/user/Desktop/STM32-Projekte/FH-Vertibot/src/STM32F30x_StdPeriph_Driver/src/stm32f30x_rcc.c ****   * @note     LSI, LSE and RTC clocks                  
 186:/home/user/Desktop/STM32-Projekte/FH-Vertibot/src/STM32F30x_StdPeriph_Driver/src/stm32f30x_rcc.c ****   * @param  None
 187:/home/user/Desktop/STM32-Projekte/FH-Vertibot/src/STM32F30x_StdPeriph_Driver/src/stm32f30x_rcc.c ****   * @retval None
 188:/home/user/Desktop/STM32-Projekte/FH-Vertibot/src/STM32F30x_StdPeriph_Driver/src/stm32f30x_rcc.c ****   */
 189:/home/user/Desktop/STM32-Projekte/FH-Vertibot/src/STM32F30x_StdPeriph_Driver/src/stm32f30x_rcc.c **** void RCC_DeInit(void)
 190:/home/user/Desktop/STM32-Projekte/FH-Vertibot/src/STM32F30x_StdPeriph_Driver/src/stm32f30x_rcc.c **** {
  28              		.loc 1 190 0
  29              		.cfi_startproc
  30              		@ args = 0, pretend = 0, frame = 0
  31              		@ frame_needed = 0, uses_anonymous_args = 0
  32              		@ link register save eliminated.
 191:/home/user/Desktop/STM32-Projekte/FH-Vertibot/src/STM32F30x_StdPeriph_Driver/src/stm32f30x_rcc.c ****   /* Set HSION bit */
 192:/home/user/Desktop/STM32-Projekte/FH-Vertibot/src/STM32F30x_StdPeriph_Driver/src/stm32f30x_rcc.c ****   RCC->CR |= (uint32_t)0x00000001;
  33              		.loc 1 192 0
  34 0000 114B     		ldr	r3, .L2
  35 0002 1A68     		ldr	r2, [r3, #0]
  36 0004 42F00102 		orr	r2, r2, #1
  37 0008 1A60     		str	r2, [r3, #0]
 193:/home/user/Desktop/STM32-Projekte/FH-Vertibot/src/STM32F30x_StdPeriph_Driver/src/stm32f30x_rcc.c **** 
 194:/home/user/Desktop/STM32-Projekte/FH-Vertibot/src/STM32F30x_StdPeriph_Driver/src/stm32f30x_rcc.c ****   /* Reset SW[1:0], HPRE[3:0], PPRE[2:0] and MCOSEL[2:0] bits */
 195:/home/user/Desktop/STM32-Projekte/FH-Vertibot/src/STM32F30x_StdPeriph_Driver/src/stm32f30x_rcc.c ****   RCC->CFGR &= (uint32_t)0xF8FFC000;
  38              		.loc 1 195 0
  39 000a 5968     		ldr	r1, [r3, #4]
  40 000c 0F4A     		ldr	r2, .L2+4
  41 000e 0A40     		ands	r2, r2, r1
  42 0010 5A60     		str	r2, [r3, #4]
 196:/home/user/Desktop/STM32-Projekte/FH-Vertibot/src/STM32F30x_StdPeriph_Driver/src/stm32f30x_rcc.c ****   
 197:/home/user/Desktop/STM32-Projekte/FH-Vertibot/src/STM32F30x_StdPeriph_Driver/src/stm32f30x_rcc.c ****   /* Reset HSEON, CSSON and PLLON bits */
 198:/home/user/Desktop/STM32-Projekte/FH-Vertibot/src/STM32F30x_StdPeriph_Driver/src/stm32f30x_rcc.c ****   RCC->CR &= (uint32_t)0xFEF6FFFF;
  43              		.loc 1 198 0
  44 0012 1A68     		ldr	r2, [r3, #0]
  45 0014 22F08472 		bic	r2, r2, #17301504
  46 0018 22F48032 		bic	r2, r2, #65536
  47 001c 1A60     		str	r2, [r3, #0]
 199:/home/user/Desktop/STM32-Projekte/FH-Vertibot/src/STM32F30x_StdPeriph_Driver/src/stm32f30x_rcc.c **** 
 200:/home/user/Desktop/STM32-Projekte/FH-Vertibot/src/STM32F30x_StdPeriph_Driver/src/stm32f30x_rcc.c ****   /* Reset HSEBYP bit */
 201:/home/user/Desktop/STM32-Projekte/FH-Vertibot/src/STM32F30x_StdPeriph_Driver/src/stm32f30x_rcc.c ****   RCC->CR &= (uint32_t)0xFFFBFFFF;
  48              		.loc 1 201 0
  49 001e 1A68     		ldr	r2, [r3, #0]
  50 0020 22F48022 		bic	r2, r2, #262144
  51 0024 1A60     		str	r2, [r3, #0]
 202:/home/user/Desktop/STM32-Projekte/FH-Vertibot/src/STM32F30x_StdPeriph_Driver/src/stm32f30x_rcc.c **** 
 203:/home/user/Desktop/STM32-Projekte/FH-Vertibot/src/STM32F30x_StdPeriph_Driver/src/stm32f30x_rcc.c ****   /* Reset PLLSRC, PLLXTPRE, PLLMUL and USBPRE bits */
 204:/home/user/Desktop/STM32-Projekte/FH-Vertibot/src/STM32F30x_StdPeriph_Driver/src/stm32f30x_rcc.c ****   RCC->CFGR &= (uint32_t)0xFF80FFFF;
  52              		.loc 1 204 0
  53 0026 5A68     		ldr	r2, [r3, #4]
  54 0028 22F4FE02 		bic	r2, r2, #8323072
  55 002c 5A60     		str	r2, [r3, #4]
 205:/home/user/Desktop/STM32-Projekte/FH-Vertibot/src/STM32F30x_StdPeriph_Driver/src/stm32f30x_rcc.c **** 
 206:/home/user/Desktop/STM32-Projekte/FH-Vertibot/src/STM32F30x_StdPeriph_Driver/src/stm32f30x_rcc.c ****   /* Reset PREDIV1[3:0] and ADCPRE[13:4] bits */
 207:/home/user/Desktop/STM32-Projekte/FH-Vertibot/src/STM32F30x_StdPeriph_Driver/src/stm32f30x_rcc.c ****   RCC->CFGR2 &= (uint32_t)0xFFFFC000;
  56              		.loc 1 207 0
  57 002e DA6A     		ldr	r2, [r3, #44]
  58 0030 22F47F52 		bic	r2, r2, #16320
  59 0034 22F03F02 		bic	r2, r2, #63
  60 0038 DA62     		str	r2, [r3, #44]
 208:/home/user/Desktop/STM32-Projekte/FH-Vertibot/src/STM32F30x_StdPeriph_Driver/src/stm32f30x_rcc.c **** 
 209:/home/user/Desktop/STM32-Projekte/FH-Vertibot/src/STM32F30x_StdPeriph_Driver/src/stm32f30x_rcc.c ****   /* Reset USARTSW[1:0], I2CSW and TIMSW bits */
 210:/home/user/Desktop/STM32-Projekte/FH-Vertibot/src/STM32F30x_StdPeriph_Driver/src/stm32f30x_rcc.c ****   RCC->CFGR3 &= (uint32_t)0xF00FCCC;
  61              		.loc 1 210 0
  62 003a 196B     		ldr	r1, [r3, #48]
  63 003c 044A     		ldr	r2, .L2+8
  64 003e 0A40     		ands	r2, r2, r1
  65 0040 1A63     		str	r2, [r3, #48]
 211:/home/user/Desktop/STM32-Projekte/FH-Vertibot/src/STM32F30x_StdPeriph_Driver/src/stm32f30x_rcc.c ****   
 212:/home/user/Desktop/STM32-Projekte/FH-Vertibot/src/STM32F30x_StdPeriph_Driver/src/stm32f30x_rcc.c ****   /* Disable all interrupts */
 213:/home/user/Desktop/STM32-Projekte/FH-Vertibot/src/STM32F30x_StdPeriph_Driver/src/stm32f30x_rcc.c ****   RCC->CIR = 0x00000000;
  66              		.loc 1 213 0
  67 0042 0022     		movs	r2, #0
  68 0044 9A60     		str	r2, [r3, #8]
  69 0046 7047     		bx	lr
  70              	.L3:
  71              		.align	2
  72              	.L2:
  73 0048 00100240 		.word	1073876992
  74 004c 00C0FFF8 		.word	-117456896
  75 0050 CCFC000F 		.word	251722956
  76              		.cfi_endproc
  77              	.LFE111:
  79              		.align	1
  80              		.global	RCC_HSEConfig
  81              		.thumb
  82              		.thumb_func
  84              	RCC_HSEConfig:
  85              	.LFB112:
 214:/home/user/Desktop/STM32-Projekte/FH-Vertibot/src/STM32F30x_StdPeriph_Driver/src/stm32f30x_rcc.c **** }
 215:/home/user/Desktop/STM32-Projekte/FH-Vertibot/src/STM32F30x_StdPeriph_Driver/src/stm32f30x_rcc.c **** 
 216:/home/user/Desktop/STM32-Projekte/FH-Vertibot/src/STM32F30x_StdPeriph_Driver/src/stm32f30x_rcc.c **** /**
 217:/home/user/Desktop/STM32-Projekte/FH-Vertibot/src/STM32F30x_StdPeriph_Driver/src/stm32f30x_rcc.c ****   * @brief  Configures the External High Speed oscillator (HSE).
 218:/home/user/Desktop/STM32-Projekte/FH-Vertibot/src/STM32F30x_StdPeriph_Driver/src/stm32f30x_rcc.c ****   * @note   After enabling the HSE (RCC_HSE_ON or RCC_HSE_Bypass), the application
 219:/home/user/Desktop/STM32-Projekte/FH-Vertibot/src/STM32F30x_StdPeriph_Driver/src/stm32f30x_rcc.c ****   *         software should wait on HSERDY flag to be set indicating that HSE clock
 220:/home/user/Desktop/STM32-Projekte/FH-Vertibot/src/STM32F30x_StdPeriph_Driver/src/stm32f30x_rcc.c ****   *         is stable and can be used to clock the PLL and/or system clock.
 221:/home/user/Desktop/STM32-Projekte/FH-Vertibot/src/STM32F30x_StdPeriph_Driver/src/stm32f30x_rcc.c ****   * @note   HSE state can not be changed if it is used directly or through the
 222:/home/user/Desktop/STM32-Projekte/FH-Vertibot/src/STM32F30x_StdPeriph_Driver/src/stm32f30x_rcc.c ****   *         PLL as system clock. In this case, you have to select another source
 223:/home/user/Desktop/STM32-Projekte/FH-Vertibot/src/STM32F30x_StdPeriph_Driver/src/stm32f30x_rcc.c ****   *         of the system clock then change the HSE state (ex. disable it).
 224:/home/user/Desktop/STM32-Projekte/FH-Vertibot/src/STM32F30x_StdPeriph_Driver/src/stm32f30x_rcc.c ****   * @note   The HSE is stopped by hardware when entering STOP and STANDBY modes.         
 225:/home/user/Desktop/STM32-Projekte/FH-Vertibot/src/STM32F30x_StdPeriph_Driver/src/stm32f30x_rcc.c ****   * @note   This function resets the CSSON bit, so if the Clock security system(CSS)
 226:/home/user/Desktop/STM32-Projekte/FH-Vertibot/src/STM32F30x_StdPeriph_Driver/src/stm32f30x_rcc.c ****   *         was previously enabled you have to enable it again after calling this
 227:/home/user/Desktop/STM32-Projekte/FH-Vertibot/src/STM32F30x_StdPeriph_Driver/src/stm32f30x_rcc.c ****   *         function.
 228:/home/user/Desktop/STM32-Projekte/FH-Vertibot/src/STM32F30x_StdPeriph_Driver/src/stm32f30x_rcc.c ****   * @param  RCC_HSE: specifies the new state of the HSE.
 229:/home/user/Desktop/STM32-Projekte/FH-Vertibot/src/STM32F30x_StdPeriph_Driver/src/stm32f30x_rcc.c ****   *   This parameter can be one of the following values:
 230:/home/user/Desktop/STM32-Projekte/FH-Vertibot/src/STM32F30x_StdPeriph_Driver/src/stm32f30x_rcc.c ****   *     @arg RCC_HSE_OFF: turn OFF the HSE oscillator, HSERDY flag goes low after
 231:/home/user/Desktop/STM32-Projekte/FH-Vertibot/src/STM32F30x_StdPeriph_Driver/src/stm32f30x_rcc.c ****   *                       6 HSE oscillator clock cycles.
 232:/home/user/Desktop/STM32-Projekte/FH-Vertibot/src/STM32F30x_StdPeriph_Driver/src/stm32f30x_rcc.c ****   *     @arg RCC_HSE_ON: turn ON the HSE oscillator
 233:/home/user/Desktop/STM32-Projekte/FH-Vertibot/src/STM32F30x_StdPeriph_Driver/src/stm32f30x_rcc.c ****   *     @arg RCC_HSE_Bypass: HSE oscillator bypassed with external clock
 234:/home/user/Desktop/STM32-Projekte/FH-Vertibot/src/STM32F30x_StdPeriph_Driver/src/stm32f30x_rcc.c ****   * @retval None
 235:/home/user/Desktop/STM32-Projekte/FH-Vertibot/src/STM32F30x_StdPeriph_Driver/src/stm32f30x_rcc.c ****   */
 236:/home/user/Desktop/STM32-Projekte/FH-Vertibot/src/STM32F30x_StdPeriph_Driver/src/stm32f30x_rcc.c **** void RCC_HSEConfig(uint8_t RCC_HSE)
 237:/home/user/Desktop/STM32-Projekte/FH-Vertibot/src/STM32F30x_StdPeriph_Driver/src/stm32f30x_rcc.c **** {
  86              		.loc 1 237 0
  87              		.cfi_startproc
  88              		@ args = 0, pretend = 0, frame = 0
  89              		@ frame_needed = 0, uses_anonymous_args = 0
  90              		@ link register save eliminated.
  91              	.LVL0:
 238:/home/user/Desktop/STM32-Projekte/FH-Vertibot/src/STM32F30x_StdPeriph_Driver/src/stm32f30x_rcc.c ****   /* Check the parameters */
 239:/home/user/Desktop/STM32-Projekte/FH-Vertibot/src/STM32F30x_StdPeriph_Driver/src/stm32f30x_rcc.c ****   assert_param(IS_RCC_HSE(RCC_HSE));
 240:/home/user/Desktop/STM32-Projekte/FH-Vertibot/src/STM32F30x_StdPeriph_Driver/src/stm32f30x_rcc.c **** 
 241:/home/user/Desktop/STM32-Projekte/FH-Vertibot/src/STM32F30x_StdPeriph_Driver/src/stm32f30x_rcc.c ****   /* Reset HSEON and HSEBYP bits before configuring the HSE ------------------*/
 242:/home/user/Desktop/STM32-Projekte/FH-Vertibot/src/STM32F30x_StdPeriph_Driver/src/stm32f30x_rcc.c ****   *(__IO uint8_t *) CR_BYTE2_ADDRESS = RCC_HSE_OFF;
  92              		.loc 1 242 0
  93 0054 024B     		ldr	r3, .L5
  94 0056 0022     		movs	r2, #0
  95 0058 1A70     		strb	r2, [r3, #0]
 243:/home/user/Desktop/STM32-Projekte/FH-Vertibot/src/STM32F30x_StdPeriph_Driver/src/stm32f30x_rcc.c **** 
 244:/home/user/Desktop/STM32-Projekte/FH-Vertibot/src/STM32F30x_StdPeriph_Driver/src/stm32f30x_rcc.c ****   /* Set the new HSE configuration -------------------------------------------*/
 245:/home/user/Desktop/STM32-Projekte/FH-Vertibot/src/STM32F30x_StdPeriph_Driver/src/stm32f30x_rcc.c ****   *(__IO uint8_t *) CR_BYTE2_ADDRESS = RCC_HSE;
  96              		.loc 1 245 0
  97 005a 1870     		strb	r0, [r3, #0]
  98 005c 7047     		bx	lr
  99              	.L6:
 100 005e 00BF     		.align	2
 101              	.L5:
 102 0060 02100240 		.word	1073876994
 103              		.cfi_endproc
 104              	.LFE112:
 106              		.align	1
 107              		.global	RCC_AdjustHSICalibrationValue
 108              		.thumb
 109              		.thumb_func
 111              	RCC_AdjustHSICalibrationValue:
 112              	.LFB114:
 246:/home/user/Desktop/STM32-Projekte/FH-Vertibot/src/STM32F30x_StdPeriph_Driver/src/stm32f30x_rcc.c **** 
 247:/home/user/Desktop/STM32-Projekte/FH-Vertibot/src/STM32F30x_StdPeriph_Driver/src/stm32f30x_rcc.c **** }
 248:/home/user/Desktop/STM32-Projekte/FH-Vertibot/src/STM32F30x_StdPeriph_Driver/src/stm32f30x_rcc.c **** 
 249:/home/user/Desktop/STM32-Projekte/FH-Vertibot/src/STM32F30x_StdPeriph_Driver/src/stm32f30x_rcc.c **** /**
 250:/home/user/Desktop/STM32-Projekte/FH-Vertibot/src/STM32F30x_StdPeriph_Driver/src/stm32f30x_rcc.c ****   * @brief  Waits for HSE start-up.
 251:/home/user/Desktop/STM32-Projekte/FH-Vertibot/src/STM32F30x_StdPeriph_Driver/src/stm32f30x_rcc.c ****   * @note   This function waits on HSERDY flag to be set and return SUCCESS if 
 252:/home/user/Desktop/STM32-Projekte/FH-Vertibot/src/STM32F30x_StdPeriph_Driver/src/stm32f30x_rcc.c ****   *         this flag is set, otherwise returns ERROR if the timeout is reached 
 253:/home/user/Desktop/STM32-Projekte/FH-Vertibot/src/STM32F30x_StdPeriph_Driver/src/stm32f30x_rcc.c ****   *         and this flag is not set. The timeout value is defined by the constant
 254:/home/user/Desktop/STM32-Projekte/FH-Vertibot/src/STM32F30x_StdPeriph_Driver/src/stm32f30x_rcc.c ****   *         HSE_STARTUP_TIMEOUT in stm32f30x.h file. You can tailor it depending
 255:/home/user/Desktop/STM32-Projekte/FH-Vertibot/src/STM32F30x_StdPeriph_Driver/src/stm32f30x_rcc.c ****   *         on the HSE crystal used in your application. 
 256:/home/user/Desktop/STM32-Projekte/FH-Vertibot/src/STM32F30x_StdPeriph_Driver/src/stm32f30x_rcc.c ****   * @param  None
 257:/home/user/Desktop/STM32-Projekte/FH-Vertibot/src/STM32F30x_StdPeriph_Driver/src/stm32f30x_rcc.c ****   * @retval An ErrorStatus enumeration value:
 258:/home/user/Desktop/STM32-Projekte/FH-Vertibot/src/STM32F30x_StdPeriph_Driver/src/stm32f30x_rcc.c ****   *          - SUCCESS: HSE oscillator is stable and ready to use
 259:/home/user/Desktop/STM32-Projekte/FH-Vertibot/src/STM32F30x_StdPeriph_Driver/src/stm32f30x_rcc.c ****   *          - ERROR: HSE oscillator not yet ready
 260:/home/user/Desktop/STM32-Projekte/FH-Vertibot/src/STM32F30x_StdPeriph_Driver/src/stm32f30x_rcc.c ****   */
 261:/home/user/Desktop/STM32-Projekte/FH-Vertibot/src/STM32F30x_StdPeriph_Driver/src/stm32f30x_rcc.c **** ErrorStatus RCC_WaitForHSEStartUp(void)
 262:/home/user/Desktop/STM32-Projekte/FH-Vertibot/src/STM32F30x_StdPeriph_Driver/src/stm32f30x_rcc.c **** {
 263:/home/user/Desktop/STM32-Projekte/FH-Vertibot/src/STM32F30x_StdPeriph_Driver/src/stm32f30x_rcc.c ****   __IO uint32_t StartUpCounter = 0;
 264:/home/user/Desktop/STM32-Projekte/FH-Vertibot/src/STM32F30x_StdPeriph_Driver/src/stm32f30x_rcc.c ****   ErrorStatus status = ERROR;
 265:/home/user/Desktop/STM32-Projekte/FH-Vertibot/src/STM32F30x_StdPeriph_Driver/src/stm32f30x_rcc.c ****   FlagStatus HSEStatus = RESET;
 266:/home/user/Desktop/STM32-Projekte/FH-Vertibot/src/STM32F30x_StdPeriph_Driver/src/stm32f30x_rcc.c ****   
 267:/home/user/Desktop/STM32-Projekte/FH-Vertibot/src/STM32F30x_StdPeriph_Driver/src/stm32f30x_rcc.c ****   /* Wait till HSE is ready and if timeout is reached exit */
 268:/home/user/Desktop/STM32-Projekte/FH-Vertibot/src/STM32F30x_StdPeriph_Driver/src/stm32f30x_rcc.c ****   do
 269:/home/user/Desktop/STM32-Projekte/FH-Vertibot/src/STM32F30x_StdPeriph_Driver/src/stm32f30x_rcc.c ****   {
 270:/home/user/Desktop/STM32-Projekte/FH-Vertibot/src/STM32F30x_StdPeriph_Driver/src/stm32f30x_rcc.c ****     HSEStatus = RCC_GetFlagStatus(RCC_FLAG_HSERDY);
 271:/home/user/Desktop/STM32-Projekte/FH-Vertibot/src/STM32F30x_StdPeriph_Driver/src/stm32f30x_rcc.c ****     StartUpCounter++;  
 272:/home/user/Desktop/STM32-Projekte/FH-Vertibot/src/STM32F30x_StdPeriph_Driver/src/stm32f30x_rcc.c ****   } while((StartUpCounter != HSE_STARTUP_TIMEOUT) && (HSEStatus == RESET));
 273:/home/user/Desktop/STM32-Projekte/FH-Vertibot/src/STM32F30x_StdPeriph_Driver/src/stm32f30x_rcc.c ****   
 274:/home/user/Desktop/STM32-Projekte/FH-Vertibot/src/STM32F30x_StdPeriph_Driver/src/stm32f30x_rcc.c ****   if (RCC_GetFlagStatus(RCC_FLAG_HSERDY) != RESET)
 275:/home/user/Desktop/STM32-Projekte/FH-Vertibot/src/STM32F30x_StdPeriph_Driver/src/stm32f30x_rcc.c ****   {
 276:/home/user/Desktop/STM32-Projekte/FH-Vertibot/src/STM32F30x_StdPeriph_Driver/src/stm32f30x_rcc.c ****     status = SUCCESS;
 277:/home/user/Desktop/STM32-Projekte/FH-Vertibot/src/STM32F30x_StdPeriph_Driver/src/stm32f30x_rcc.c ****   }
 278:/home/user/Desktop/STM32-Projekte/FH-Vertibot/src/STM32F30x_StdPeriph_Driver/src/stm32f30x_rcc.c ****   else
 279:/home/user/Desktop/STM32-Projekte/FH-Vertibot/src/STM32F30x_StdPeriph_Driver/src/stm32f30x_rcc.c ****   {
 280:/home/user/Desktop/STM32-Projekte/FH-Vertibot/src/STM32F30x_StdPeriph_Driver/src/stm32f30x_rcc.c ****     status = ERROR;
 281:/home/user/Desktop/STM32-Projekte/FH-Vertibot/src/STM32F30x_StdPeriph_Driver/src/stm32f30x_rcc.c ****   }  
 282:/home/user/Desktop/STM32-Projekte/FH-Vertibot/src/STM32F30x_StdPeriph_Driver/src/stm32f30x_rcc.c ****   return (status);
 283:/home/user/Desktop/STM32-Projekte/FH-Vertibot/src/STM32F30x_StdPeriph_Driver/src/stm32f30x_rcc.c **** }
 284:/home/user/Desktop/STM32-Projekte/FH-Vertibot/src/STM32F30x_StdPeriph_Driver/src/stm32f30x_rcc.c **** 
 285:/home/user/Desktop/STM32-Projekte/FH-Vertibot/src/STM32F30x_StdPeriph_Driver/src/stm32f30x_rcc.c **** /**
 286:/home/user/Desktop/STM32-Projekte/FH-Vertibot/src/STM32F30x_StdPeriph_Driver/src/stm32f30x_rcc.c ****   * @brief  Adjusts the Internal High Speed oscillator (HSI) calibration value.
 287:/home/user/Desktop/STM32-Projekte/FH-Vertibot/src/STM32F30x_StdPeriph_Driver/src/stm32f30x_rcc.c ****   * @note   The calibration is used to compensate for the variations in voltage
 288:/home/user/Desktop/STM32-Projekte/FH-Vertibot/src/STM32F30x_StdPeriph_Driver/src/stm32f30x_rcc.c ****   *         and temperature that influence the frequency of the internal HSI RC.
 289:/home/user/Desktop/STM32-Projekte/FH-Vertibot/src/STM32F30x_StdPeriph_Driver/src/stm32f30x_rcc.c ****   *         Refer to the Application Note AN3300 for more details on how to  
 290:/home/user/Desktop/STM32-Projekte/FH-Vertibot/src/STM32F30x_StdPeriph_Driver/src/stm32f30x_rcc.c ****   *         calibrate the HSI.
 291:/home/user/Desktop/STM32-Projekte/FH-Vertibot/src/STM32F30x_StdPeriph_Driver/src/stm32f30x_rcc.c ****   * @param  HSICalibrationValue: specifies the HSI calibration trimming value.
 292:/home/user/Desktop/STM32-Projekte/FH-Vertibot/src/STM32F30x_StdPeriph_Driver/src/stm32f30x_rcc.c ****   *         This parameter must be a number between 0 and 0x1F.
 293:/home/user/Desktop/STM32-Projekte/FH-Vertibot/src/STM32F30x_StdPeriph_Driver/src/stm32f30x_rcc.c ****   * @retval None
 294:/home/user/Desktop/STM32-Projekte/FH-Vertibot/src/STM32F30x_StdPeriph_Driver/src/stm32f30x_rcc.c ****   */
 295:/home/user/Desktop/STM32-Projekte/FH-Vertibot/src/STM32F30x_StdPeriph_Driver/src/stm32f30x_rcc.c **** void RCC_AdjustHSICalibrationValue(uint8_t HSICalibrationValue)
 296:/home/user/Desktop/STM32-Projekte/FH-Vertibot/src/STM32F30x_StdPeriph_Driver/src/stm32f30x_rcc.c **** {
 113              		.loc 1 296 0
 114              		.cfi_startproc
 115              		@ args = 0, pretend = 0, frame = 0
 116              		@ frame_needed = 0, uses_anonymous_args = 0
 117              		@ link register save eliminated.
 118              	.LVL1:
 297:/home/user/Desktop/STM32-Projekte/FH-Vertibot/src/STM32F30x_StdPeriph_Driver/src/stm32f30x_rcc.c ****   uint32_t tmpreg = 0;
 298:/home/user/Desktop/STM32-Projekte/FH-Vertibot/src/STM32F30x_StdPeriph_Driver/src/stm32f30x_rcc.c ****   
 299:/home/user/Desktop/STM32-Projekte/FH-Vertibot/src/STM32F30x_StdPeriph_Driver/src/stm32f30x_rcc.c ****   /* Check the parameters */
 300:/home/user/Desktop/STM32-Projekte/FH-Vertibot/src/STM32F30x_StdPeriph_Driver/src/stm32f30x_rcc.c ****   assert_param(IS_RCC_HSI_CALIBRATION_VALUE(HSICalibrationValue));
 301:/home/user/Desktop/STM32-Projekte/FH-Vertibot/src/STM32F30x_StdPeriph_Driver/src/stm32f30x_rcc.c ****   
 302:/home/user/Desktop/STM32-Projekte/FH-Vertibot/src/STM32F30x_StdPeriph_Driver/src/stm32f30x_rcc.c ****   tmpreg = RCC->CR;
 119              		.loc 1 302 0
 120 0064 034B     		ldr	r3, .L8
 121 0066 1A68     		ldr	r2, [r3, #0]
 122              	.LVL2:
 303:/home/user/Desktop/STM32-Projekte/FH-Vertibot/src/STM32F30x_StdPeriph_Driver/src/stm32f30x_rcc.c ****   
 304:/home/user/Desktop/STM32-Projekte/FH-Vertibot/src/STM32F30x_StdPeriph_Driver/src/stm32f30x_rcc.c ****   /* Clear HSITRIM[4:0] bits */
 305:/home/user/Desktop/STM32-Projekte/FH-Vertibot/src/STM32F30x_StdPeriph_Driver/src/stm32f30x_rcc.c ****   tmpreg &= ~RCC_CR_HSITRIM;
 123              		.loc 1 305 0
 124 0068 22F0F802 		bic	r2, r2, #248
 125              	.LVL3:
 306:/home/user/Desktop/STM32-Projekte/FH-Vertibot/src/STM32F30x_StdPeriph_Driver/src/stm32f30x_rcc.c ****   
 307:/home/user/Desktop/STM32-Projekte/FH-Vertibot/src/STM32F30x_StdPeriph_Driver/src/stm32f30x_rcc.c ****   /* Set the HSITRIM[4:0] bits according to HSICalibrationValue value */
 308:/home/user/Desktop/STM32-Projekte/FH-Vertibot/src/STM32F30x_StdPeriph_Driver/src/stm32f30x_rcc.c ****   tmpreg |= (uint32_t)HSICalibrationValue << 3;
 126              		.loc 1 308 0
 127 006c 42EAC000 		orr	r0, r2, r0, lsl #3
 128              	.LVL4:
 309:/home/user/Desktop/STM32-Projekte/FH-Vertibot/src/STM32F30x_StdPeriph_Driver/src/stm32f30x_rcc.c ****   
 310:/home/user/Desktop/STM32-Projekte/FH-Vertibot/src/STM32F30x_StdPeriph_Driver/src/stm32f30x_rcc.c ****   /* Store the new value */
 311:/home/user/Desktop/STM32-Projekte/FH-Vertibot/src/STM32F30x_StdPeriph_Driver/src/stm32f30x_rcc.c ****   RCC->CR = tmpreg;
 129              		.loc 1 311 0
 130 0070 1860     		str	r0, [r3, #0]
 131 0072 7047     		bx	lr
 132              	.L9:
 133              		.align	2
 134              	.L8:
 135 0074 00100240 		.word	1073876992
 136              		.cfi_endproc
 137              	.LFE114:
 139              		.align	1
 140              		.global	RCC_HSICmd
 141              		.thumb
 142              		.thumb_func
 144              	RCC_HSICmd:
 145              	.LFB115:
 312:/home/user/Desktop/STM32-Projekte/FH-Vertibot/src/STM32F30x_StdPeriph_Driver/src/stm32f30x_rcc.c **** }
 313:/home/user/Desktop/STM32-Projekte/FH-Vertibot/src/STM32F30x_StdPeriph_Driver/src/stm32f30x_rcc.c **** 
 314:/home/user/Desktop/STM32-Projekte/FH-Vertibot/src/STM32F30x_StdPeriph_Driver/src/stm32f30x_rcc.c **** /**
 315:/home/user/Desktop/STM32-Projekte/FH-Vertibot/src/STM32F30x_StdPeriph_Driver/src/stm32f30x_rcc.c ****   * @brief  Enables or disables the Internal High Speed oscillator (HSI).
 316:/home/user/Desktop/STM32-Projekte/FH-Vertibot/src/STM32F30x_StdPeriph_Driver/src/stm32f30x_rcc.c ****   * @note   After enabling the HSI, the application software should wait on 
 317:/home/user/Desktop/STM32-Projekte/FH-Vertibot/src/STM32F30x_StdPeriph_Driver/src/stm32f30x_rcc.c ****   *         HSIRDY flag to be set indicating that HSI clock is stable and can
 318:/home/user/Desktop/STM32-Projekte/FH-Vertibot/src/STM32F30x_StdPeriph_Driver/src/stm32f30x_rcc.c ****   *         be used to clock the PLL and/or system clock.
 319:/home/user/Desktop/STM32-Projekte/FH-Vertibot/src/STM32F30x_StdPeriph_Driver/src/stm32f30x_rcc.c ****   * @note   HSI can not be stopped if it is used directly or through the PLL
 320:/home/user/Desktop/STM32-Projekte/FH-Vertibot/src/STM32F30x_StdPeriph_Driver/src/stm32f30x_rcc.c ****   *         as system clock. In this case, you have to select another source 
 321:/home/user/Desktop/STM32-Projekte/FH-Vertibot/src/STM32F30x_StdPeriph_Driver/src/stm32f30x_rcc.c ****   *         of the system clock then stop the HSI.
 322:/home/user/Desktop/STM32-Projekte/FH-Vertibot/src/STM32F30x_StdPeriph_Driver/src/stm32f30x_rcc.c ****   * @note   The HSI is stopped by hardware when entering STOP and STANDBY modes. 
 323:/home/user/Desktop/STM32-Projekte/FH-Vertibot/src/STM32F30x_StdPeriph_Driver/src/stm32f30x_rcc.c ****   * @note   When the HSI is stopped, HSIRDY flag goes low after 6 HSI oscillator
 324:/home/user/Desktop/STM32-Projekte/FH-Vertibot/src/STM32F30x_StdPeriph_Driver/src/stm32f30x_rcc.c ****   *         clock cycles.    
 325:/home/user/Desktop/STM32-Projekte/FH-Vertibot/src/STM32F30x_StdPeriph_Driver/src/stm32f30x_rcc.c ****   * @param  NewState: new state of the HSI.
 326:/home/user/Desktop/STM32-Projekte/FH-Vertibot/src/STM32F30x_StdPeriph_Driver/src/stm32f30x_rcc.c ****   *         This parameter can be: ENABLE or DISABLE.
 327:/home/user/Desktop/STM32-Projekte/FH-Vertibot/src/STM32F30x_StdPeriph_Driver/src/stm32f30x_rcc.c ****   * @retval None
 328:/home/user/Desktop/STM32-Projekte/FH-Vertibot/src/STM32F30x_StdPeriph_Driver/src/stm32f30x_rcc.c ****   */
 329:/home/user/Desktop/STM32-Projekte/FH-Vertibot/src/STM32F30x_StdPeriph_Driver/src/stm32f30x_rcc.c **** void RCC_HSICmd(FunctionalState NewState)
 330:/home/user/Desktop/STM32-Projekte/FH-Vertibot/src/STM32F30x_StdPeriph_Driver/src/stm32f30x_rcc.c **** {
 146              		.loc 1 330 0
 147              		.cfi_startproc
 148              		@ args = 0, pretend = 0, frame = 0
 149              		@ frame_needed = 0, uses_anonymous_args = 0
 150              		@ link register save eliminated.
 151              	.LVL5:
 331:/home/user/Desktop/STM32-Projekte/FH-Vertibot/src/STM32F30x_StdPeriph_Driver/src/stm32f30x_rcc.c ****   /* Check the parameters */
 332:/home/user/Desktop/STM32-Projekte/FH-Vertibot/src/STM32F30x_StdPeriph_Driver/src/stm32f30x_rcc.c ****   assert_param(IS_FUNCTIONAL_STATE(NewState));
 333:/home/user/Desktop/STM32-Projekte/FH-Vertibot/src/STM32F30x_StdPeriph_Driver/src/stm32f30x_rcc.c ****   
 334:/home/user/Desktop/STM32-Projekte/FH-Vertibot/src/STM32F30x_StdPeriph_Driver/src/stm32f30x_rcc.c ****   *(__IO uint32_t *) CR_HSION_BB = (uint32_t)NewState;
 152              		.loc 1 334 0
 153 0078 014B     		ldr	r3, .L11
 154 007a 1860     		str	r0, [r3, #0]
 155 007c 7047     		bx	lr
 156              	.L12:
 157 007e 00BF     		.align	2
 158              	.L11:
 159 0080 00004242 		.word	1111621632
 160              		.cfi_endproc
 161              	.LFE115:
 163              		.align	1
 164              		.global	RCC_LSEConfig
 165              		.thumb
 166              		.thumb_func
 168              	RCC_LSEConfig:
 169              	.LFB116:
 335:/home/user/Desktop/STM32-Projekte/FH-Vertibot/src/STM32F30x_StdPeriph_Driver/src/stm32f30x_rcc.c **** }
 336:/home/user/Desktop/STM32-Projekte/FH-Vertibot/src/STM32F30x_StdPeriph_Driver/src/stm32f30x_rcc.c **** 
 337:/home/user/Desktop/STM32-Projekte/FH-Vertibot/src/STM32F30x_StdPeriph_Driver/src/stm32f30x_rcc.c **** /**
 338:/home/user/Desktop/STM32-Projekte/FH-Vertibot/src/STM32F30x_StdPeriph_Driver/src/stm32f30x_rcc.c ****   * @brief  Configures the External Low Speed oscillator (LSE).
 339:/home/user/Desktop/STM32-Projekte/FH-Vertibot/src/STM32F30x_StdPeriph_Driver/src/stm32f30x_rcc.c ****   * @note     As the LSE is in the Backup domain and write access is denied to this
 340:/home/user/Desktop/STM32-Projekte/FH-Vertibot/src/STM32F30x_StdPeriph_Driver/src/stm32f30x_rcc.c ****   *           domain after reset, you have to enable write access using 
 341:/home/user/Desktop/STM32-Projekte/FH-Vertibot/src/STM32F30x_StdPeriph_Driver/src/stm32f30x_rcc.c ****   *           PWR_BackupAccessCmd(ENABLE) function before to configure the LSE
 342:/home/user/Desktop/STM32-Projekte/FH-Vertibot/src/STM32F30x_StdPeriph_Driver/src/stm32f30x_rcc.c ****   *           (to be done once after reset).
 343:/home/user/Desktop/STM32-Projekte/FH-Vertibot/src/STM32F30x_StdPeriph_Driver/src/stm32f30x_rcc.c ****   * @note     After enabling the LSE (RCC_LSE_ON or RCC_LSE_Bypass), the application
 344:/home/user/Desktop/STM32-Projekte/FH-Vertibot/src/STM32F30x_StdPeriph_Driver/src/stm32f30x_rcc.c ****   *           software should wait on LSERDY flag to be set indicating that LSE clock
 345:/home/user/Desktop/STM32-Projekte/FH-Vertibot/src/STM32F30x_StdPeriph_Driver/src/stm32f30x_rcc.c ****   *           is stable and can be used to clock the RTC.
 346:/home/user/Desktop/STM32-Projekte/FH-Vertibot/src/STM32F30x_StdPeriph_Driver/src/stm32f30x_rcc.c ****   * @param  RCC_LSE: specifies the new state of the LSE.
 347:/home/user/Desktop/STM32-Projekte/FH-Vertibot/src/STM32F30x_StdPeriph_Driver/src/stm32f30x_rcc.c ****   *   This parameter can be one of the following values:
 348:/home/user/Desktop/STM32-Projekte/FH-Vertibot/src/STM32F30x_StdPeriph_Driver/src/stm32f30x_rcc.c ****   *     @arg RCC_LSE_OFF: turn OFF the LSE oscillator, LSERDY flag goes low after
 349:/home/user/Desktop/STM32-Projekte/FH-Vertibot/src/STM32F30x_StdPeriph_Driver/src/stm32f30x_rcc.c ****   *                       6 LSE oscillator clock cycles.
 350:/home/user/Desktop/STM32-Projekte/FH-Vertibot/src/STM32F30x_StdPeriph_Driver/src/stm32f30x_rcc.c ****   *     @arg RCC_LSE_ON: turn ON the LSE oscillator
 351:/home/user/Desktop/STM32-Projekte/FH-Vertibot/src/STM32F30x_StdPeriph_Driver/src/stm32f30x_rcc.c ****   *     @arg RCC_LSE_Bypass: LSE oscillator bypassed with external clock
 352:/home/user/Desktop/STM32-Projekte/FH-Vertibot/src/STM32F30x_StdPeriph_Driver/src/stm32f30x_rcc.c ****   * @retval None
 353:/home/user/Desktop/STM32-Projekte/FH-Vertibot/src/STM32F30x_StdPeriph_Driver/src/stm32f30x_rcc.c ****   */
 354:/home/user/Desktop/STM32-Projekte/FH-Vertibot/src/STM32F30x_StdPeriph_Driver/src/stm32f30x_rcc.c **** void RCC_LSEConfig(uint32_t RCC_LSE)
 355:/home/user/Desktop/STM32-Projekte/FH-Vertibot/src/STM32F30x_StdPeriph_Driver/src/stm32f30x_rcc.c **** {
 170              		.loc 1 355 0
 171              		.cfi_startproc
 172              		@ args = 0, pretend = 0, frame = 0
 173              		@ frame_needed = 0, uses_anonymous_args = 0
 174              		@ link register save eliminated.
 175              	.LVL6:
 356:/home/user/Desktop/STM32-Projekte/FH-Vertibot/src/STM32F30x_StdPeriph_Driver/src/stm32f30x_rcc.c ****   /* Check the parameters */
 357:/home/user/Desktop/STM32-Projekte/FH-Vertibot/src/STM32F30x_StdPeriph_Driver/src/stm32f30x_rcc.c ****   assert_param(IS_RCC_LSE(RCC_LSE));
 358:/home/user/Desktop/STM32-Projekte/FH-Vertibot/src/STM32F30x_StdPeriph_Driver/src/stm32f30x_rcc.c **** 
 359:/home/user/Desktop/STM32-Projekte/FH-Vertibot/src/STM32F30x_StdPeriph_Driver/src/stm32f30x_rcc.c ****   /* Reset LSEON and LSEBYP bits before configuring the LSE ------------------*/
 360:/home/user/Desktop/STM32-Projekte/FH-Vertibot/src/STM32F30x_StdPeriph_Driver/src/stm32f30x_rcc.c ****   /* Reset LSEON bit */
 361:/home/user/Desktop/STM32-Projekte/FH-Vertibot/src/STM32F30x_StdPeriph_Driver/src/stm32f30x_rcc.c ****   RCC->BDCR &= ~(RCC_BDCR_LSEON);
 176              		.loc 1 361 0
 177 0084 064B     		ldr	r3, .L14
 178 0086 1A6A     		ldr	r2, [r3, #32]
 179 0088 22F00102 		bic	r2, r2, #1
 180 008c 1A62     		str	r2, [r3, #32]
 362:/home/user/Desktop/STM32-Projekte/FH-Vertibot/src/STM32F30x_StdPeriph_Driver/src/stm32f30x_rcc.c **** 
 363:/home/user/Desktop/STM32-Projekte/FH-Vertibot/src/STM32F30x_StdPeriph_Driver/src/stm32f30x_rcc.c ****   /* Reset LSEBYP bit */
 364:/home/user/Desktop/STM32-Projekte/FH-Vertibot/src/STM32F30x_StdPeriph_Driver/src/stm32f30x_rcc.c ****   RCC->BDCR &= ~(RCC_BDCR_LSEBYP);
 181              		.loc 1 364 0
 182 008e 1A6A     		ldr	r2, [r3, #32]
 183 0090 22F00402 		bic	r2, r2, #4
 184 0094 1A62     		str	r2, [r3, #32]
 365:/home/user/Desktop/STM32-Projekte/FH-Vertibot/src/STM32F30x_StdPeriph_Driver/src/stm32f30x_rcc.c **** 
 366:/home/user/Desktop/STM32-Projekte/FH-Vertibot/src/STM32F30x_StdPeriph_Driver/src/stm32f30x_rcc.c ****   /* Configure LSE */
 367:/home/user/Desktop/STM32-Projekte/FH-Vertibot/src/STM32F30x_StdPeriph_Driver/src/stm32f30x_rcc.c ****   RCC->BDCR |= RCC_LSE;
 185              		.loc 1 367 0
 186 0096 1A6A     		ldr	r2, [r3, #32]
 187 0098 1043     		orrs	r0, r0, r2
 188              	.LVL7:
 189 009a 1862     		str	r0, [r3, #32]
 190 009c 7047     		bx	lr
 191              	.L15:
 192 009e 00BF     		.align	2
 193              	.L14:
 194 00a0 00100240 		.word	1073876992
 195              		.cfi_endproc
 196              	.LFE116:
 198              		.align	1
 199              		.global	RCC_LSEDriveConfig
 200              		.thumb
 201              		.thumb_func
 203              	RCC_LSEDriveConfig:
 204              	.LFB117:
 368:/home/user/Desktop/STM32-Projekte/FH-Vertibot/src/STM32F30x_StdPeriph_Driver/src/stm32f30x_rcc.c **** }
 369:/home/user/Desktop/STM32-Projekte/FH-Vertibot/src/STM32F30x_StdPeriph_Driver/src/stm32f30x_rcc.c **** 
 370:/home/user/Desktop/STM32-Projekte/FH-Vertibot/src/STM32F30x_StdPeriph_Driver/src/stm32f30x_rcc.c **** /**
 371:/home/user/Desktop/STM32-Projekte/FH-Vertibot/src/STM32F30x_StdPeriph_Driver/src/stm32f30x_rcc.c ****   * @brief  Configures the External Low Speed oscillator (LSE) drive capability.
 372:/home/user/Desktop/STM32-Projekte/FH-Vertibot/src/STM32F30x_StdPeriph_Driver/src/stm32f30x_rcc.c ****   * @param  RCC_LSEDrive: specifies the new state of the LSE drive capability.
 373:/home/user/Desktop/STM32-Projekte/FH-Vertibot/src/STM32F30x_StdPeriph_Driver/src/stm32f30x_rcc.c ****   *   This parameter can be one of the following values:
 374:/home/user/Desktop/STM32-Projekte/FH-Vertibot/src/STM32F30x_StdPeriph_Driver/src/stm32f30x_rcc.c ****   *     @arg RCC_LSEDrive_Low: LSE oscillator low drive capability.
 375:/home/user/Desktop/STM32-Projekte/FH-Vertibot/src/STM32F30x_StdPeriph_Driver/src/stm32f30x_rcc.c ****   *     @arg RCC_LSEDrive_MediumLow: LSE oscillator medium low drive capability.
 376:/home/user/Desktop/STM32-Projekte/FH-Vertibot/src/STM32F30x_StdPeriph_Driver/src/stm32f30x_rcc.c ****   *     @arg RCC_LSEDrive_MediumHigh: LSE oscillator medium high drive capability.
 377:/home/user/Desktop/STM32-Projekte/FH-Vertibot/src/STM32F30x_StdPeriph_Driver/src/stm32f30x_rcc.c ****   *     @arg RCC_LSEDrive_High: LSE oscillator high drive capability.
 378:/home/user/Desktop/STM32-Projekte/FH-Vertibot/src/STM32F30x_StdPeriph_Driver/src/stm32f30x_rcc.c ****   * @retval None
 379:/home/user/Desktop/STM32-Projekte/FH-Vertibot/src/STM32F30x_StdPeriph_Driver/src/stm32f30x_rcc.c ****   */
 380:/home/user/Desktop/STM32-Projekte/FH-Vertibot/src/STM32F30x_StdPeriph_Driver/src/stm32f30x_rcc.c **** void RCC_LSEDriveConfig(uint32_t RCC_LSEDrive)
 381:/home/user/Desktop/STM32-Projekte/FH-Vertibot/src/STM32F30x_StdPeriph_Driver/src/stm32f30x_rcc.c **** {
 205              		.loc 1 381 0
 206              		.cfi_startproc
 207              		@ args = 0, pretend = 0, frame = 0
 208              		@ frame_needed = 0, uses_anonymous_args = 0
 209              		@ link register save eliminated.
 210              	.LVL8:
 382:/home/user/Desktop/STM32-Projekte/FH-Vertibot/src/STM32F30x_StdPeriph_Driver/src/stm32f30x_rcc.c ****   /* Check the parameters */
 383:/home/user/Desktop/STM32-Projekte/FH-Vertibot/src/STM32F30x_StdPeriph_Driver/src/stm32f30x_rcc.c ****   assert_param(IS_RCC_LSE_DRIVE(RCC_LSEDrive));
 384:/home/user/Desktop/STM32-Projekte/FH-Vertibot/src/STM32F30x_StdPeriph_Driver/src/stm32f30x_rcc.c ****   
 385:/home/user/Desktop/STM32-Projekte/FH-Vertibot/src/STM32F30x_StdPeriph_Driver/src/stm32f30x_rcc.c ****   /* Clear LSEDRV[1:0] bits */
 386:/home/user/Desktop/STM32-Projekte/FH-Vertibot/src/STM32F30x_StdPeriph_Driver/src/stm32f30x_rcc.c ****   RCC->BDCR &= ~(RCC_BDCR_LSEDRV);
 211              		.loc 1 386 0
 212 00a4 044B     		ldr	r3, .L17
 213 00a6 1A6A     		ldr	r2, [r3, #32]
 214 00a8 22F01802 		bic	r2, r2, #24
 215 00ac 1A62     		str	r2, [r3, #32]
 387:/home/user/Desktop/STM32-Projekte/FH-Vertibot/src/STM32F30x_StdPeriph_Driver/src/stm32f30x_rcc.c **** 
 388:/home/user/Desktop/STM32-Projekte/FH-Vertibot/src/STM32F30x_StdPeriph_Driver/src/stm32f30x_rcc.c ****   /* Set the LSE Drive */
 389:/home/user/Desktop/STM32-Projekte/FH-Vertibot/src/STM32F30x_StdPeriph_Driver/src/stm32f30x_rcc.c ****   RCC->BDCR |= RCC_LSEDrive;
 216              		.loc 1 389 0
 217 00ae 1A6A     		ldr	r2, [r3, #32]
 218 00b0 1043     		orrs	r0, r0, r2
 219              	.LVL9:
 220 00b2 1862     		str	r0, [r3, #32]
 221 00b4 7047     		bx	lr
 222              	.L18:
 223 00b6 00BF     		.align	2
 224              	.L17:
 225 00b8 00100240 		.word	1073876992
 226              		.cfi_endproc
 227              	.LFE117:
 229              		.align	1
 230              		.global	RCC_LSICmd
 231              		.thumb
 232              		.thumb_func
 234              	RCC_LSICmd:
 235              	.LFB118:
 390:/home/user/Desktop/STM32-Projekte/FH-Vertibot/src/STM32F30x_StdPeriph_Driver/src/stm32f30x_rcc.c **** }
 391:/home/user/Desktop/STM32-Projekte/FH-Vertibot/src/STM32F30x_StdPeriph_Driver/src/stm32f30x_rcc.c **** 
 392:/home/user/Desktop/STM32-Projekte/FH-Vertibot/src/STM32F30x_StdPeriph_Driver/src/stm32f30x_rcc.c **** /**
 393:/home/user/Desktop/STM32-Projekte/FH-Vertibot/src/STM32F30x_StdPeriph_Driver/src/stm32f30x_rcc.c ****   * @brief  Enables or disables the Internal Low Speed oscillator (LSI).  
 394:/home/user/Desktop/STM32-Projekte/FH-Vertibot/src/STM32F30x_StdPeriph_Driver/src/stm32f30x_rcc.c ****   * @note   After enabling the LSI, the application software should wait on 
 395:/home/user/Desktop/STM32-Projekte/FH-Vertibot/src/STM32F30x_StdPeriph_Driver/src/stm32f30x_rcc.c ****   *         LSIRDY flag to be set indicating that LSI clock is stable and can
 396:/home/user/Desktop/STM32-Projekte/FH-Vertibot/src/STM32F30x_StdPeriph_Driver/src/stm32f30x_rcc.c ****   *         be used to clock the IWDG and/or the RTC.
 397:/home/user/Desktop/STM32-Projekte/FH-Vertibot/src/STM32F30x_StdPeriph_Driver/src/stm32f30x_rcc.c ****   * @note   LSI can not be disabled if the IWDG is running.  
 398:/home/user/Desktop/STM32-Projekte/FH-Vertibot/src/STM32F30x_StdPeriph_Driver/src/stm32f30x_rcc.c ****   * @note   When the LSI is stopped, LSIRDY flag goes low after 6 LSI oscillator
 399:/home/user/Desktop/STM32-Projekte/FH-Vertibot/src/STM32F30x_StdPeriph_Driver/src/stm32f30x_rcc.c ****   *         clock cycles.
 400:/home/user/Desktop/STM32-Projekte/FH-Vertibot/src/STM32F30x_StdPeriph_Driver/src/stm32f30x_rcc.c ****   * @param  NewState: new state of the LSI.
 401:/home/user/Desktop/STM32-Projekte/FH-Vertibot/src/STM32F30x_StdPeriph_Driver/src/stm32f30x_rcc.c ****   *         This parameter can be: ENABLE or DISABLE. 
 402:/home/user/Desktop/STM32-Projekte/FH-Vertibot/src/STM32F30x_StdPeriph_Driver/src/stm32f30x_rcc.c ****   * @retval None
 403:/home/user/Desktop/STM32-Projekte/FH-Vertibot/src/STM32F30x_StdPeriph_Driver/src/stm32f30x_rcc.c ****   */
 404:/home/user/Desktop/STM32-Projekte/FH-Vertibot/src/STM32F30x_StdPeriph_Driver/src/stm32f30x_rcc.c **** void RCC_LSICmd(FunctionalState NewState)
 405:/home/user/Desktop/STM32-Projekte/FH-Vertibot/src/STM32F30x_StdPeriph_Driver/src/stm32f30x_rcc.c **** {
 236              		.loc 1 405 0
 237              		.cfi_startproc
 238              		@ args = 0, pretend = 0, frame = 0
 239              		@ frame_needed = 0, uses_anonymous_args = 0
 240              		@ link register save eliminated.
 241              	.LVL10:
 406:/home/user/Desktop/STM32-Projekte/FH-Vertibot/src/STM32F30x_StdPeriph_Driver/src/stm32f30x_rcc.c ****   /* Check the parameters */
 407:/home/user/Desktop/STM32-Projekte/FH-Vertibot/src/STM32F30x_StdPeriph_Driver/src/stm32f30x_rcc.c ****   assert_param(IS_FUNCTIONAL_STATE(NewState));
 408:/home/user/Desktop/STM32-Projekte/FH-Vertibot/src/STM32F30x_StdPeriph_Driver/src/stm32f30x_rcc.c ****   
 409:/home/user/Desktop/STM32-Projekte/FH-Vertibot/src/STM32F30x_StdPeriph_Driver/src/stm32f30x_rcc.c ****   *(__IO uint32_t *) CSR_LSION_BB = (uint32_t)NewState;
 242              		.loc 1 409 0
 243 00bc 014B     		ldr	r3, .L20
 244 00be 1860     		str	r0, [r3, #0]
 245 00c0 7047     		bx	lr
 246              	.L21:
 247 00c2 00BF     		.align	2
 248              	.L20:
 249 00c4 80044242 		.word	1111622784
 250              		.cfi_endproc
 251              	.LFE118:
 253              		.align	1
 254              		.global	RCC_PLLConfig
 255              		.thumb
 256              		.thumb_func
 258              	RCC_PLLConfig:
 259              	.LFB119:
 410:/home/user/Desktop/STM32-Projekte/FH-Vertibot/src/STM32F30x_StdPeriph_Driver/src/stm32f30x_rcc.c **** }
 411:/home/user/Desktop/STM32-Projekte/FH-Vertibot/src/STM32F30x_StdPeriph_Driver/src/stm32f30x_rcc.c **** 
 412:/home/user/Desktop/STM32-Projekte/FH-Vertibot/src/STM32F30x_StdPeriph_Driver/src/stm32f30x_rcc.c **** /**
 413:/home/user/Desktop/STM32-Projekte/FH-Vertibot/src/STM32F30x_StdPeriph_Driver/src/stm32f30x_rcc.c ****   * @brief  Configures the PLL clock source and multiplication factor.
 414:/home/user/Desktop/STM32-Projekte/FH-Vertibot/src/STM32F30x_StdPeriph_Driver/src/stm32f30x_rcc.c ****   * @note   This function must be used only when the PLL is disabled.
 415:/home/user/Desktop/STM32-Projekte/FH-Vertibot/src/STM32F30x_StdPeriph_Driver/src/stm32f30x_rcc.c ****   * @note   The minimum input clock frequency for PLL is 2 MHz (when using HSE as
 416:/home/user/Desktop/STM32-Projekte/FH-Vertibot/src/STM32F30x_StdPeriph_Driver/src/stm32f30x_rcc.c ****   *         PLL source).   
 417:/home/user/Desktop/STM32-Projekte/FH-Vertibot/src/STM32F30x_StdPeriph_Driver/src/stm32f30x_rcc.c ****   * @param  RCC_PLLSource: specifies the PLL entry clock source.
 418:/home/user/Desktop/STM32-Projekte/FH-Vertibot/src/STM32F30x_StdPeriph_Driver/src/stm32f30x_rcc.c ****   *   This parameter can be one of the following values:
 419:/home/user/Desktop/STM32-Projekte/FH-Vertibot/src/STM32F30x_StdPeriph_Driver/src/stm32f30x_rcc.c ****   *     @arg RCC_PLLSource_HSI_Div2: HSI oscillator clock divided by 2 selected as
 420:/home/user/Desktop/STM32-Projekte/FH-Vertibot/src/STM32F30x_StdPeriph_Driver/src/stm32f30x_rcc.c ****   *         PLL clock entry
 421:/home/user/Desktop/STM32-Projekte/FH-Vertibot/src/STM32F30x_StdPeriph_Driver/src/stm32f30x_rcc.c ****   *     @arg RCC_PLLSource_PREDIV1: PREDIV1 clock selected as PLL clock source              
 422:/home/user/Desktop/STM32-Projekte/FH-Vertibot/src/STM32F30x_StdPeriph_Driver/src/stm32f30x_rcc.c ****   * @param  RCC_PLLMul: specifies the PLL multiplication factor, which drive the PLLVCO clock
 423:/home/user/Desktop/STM32-Projekte/FH-Vertibot/src/STM32F30x_StdPeriph_Driver/src/stm32f30x_rcc.c ****   *   This parameter can be RCC_PLLMul_x where x:[2,16] 
 424:/home/user/Desktop/STM32-Projekte/FH-Vertibot/src/STM32F30x_StdPeriph_Driver/src/stm32f30x_rcc.c ****   *                                               
 425:/home/user/Desktop/STM32-Projekte/FH-Vertibot/src/STM32F30x_StdPeriph_Driver/src/stm32f30x_rcc.c ****   * @retval None
 426:/home/user/Desktop/STM32-Projekte/FH-Vertibot/src/STM32F30x_StdPeriph_Driver/src/stm32f30x_rcc.c ****   */
 427:/home/user/Desktop/STM32-Projekte/FH-Vertibot/src/STM32F30x_StdPeriph_Driver/src/stm32f30x_rcc.c **** void RCC_PLLConfig(uint32_t RCC_PLLSource, uint32_t RCC_PLLMul)
 428:/home/user/Desktop/STM32-Projekte/FH-Vertibot/src/STM32F30x_StdPeriph_Driver/src/stm32f30x_rcc.c **** {
 260              		.loc 1 428 0
 261              		.cfi_startproc
 262              		@ args = 0, pretend = 0, frame = 0
 263              		@ frame_needed = 0, uses_anonymous_args = 0
 264              		@ link register save eliminated.
 265              	.LVL11:
 429:/home/user/Desktop/STM32-Projekte/FH-Vertibot/src/STM32F30x_StdPeriph_Driver/src/stm32f30x_rcc.c ****   /* Check the parameters */
 430:/home/user/Desktop/STM32-Projekte/FH-Vertibot/src/STM32F30x_StdPeriph_Driver/src/stm32f30x_rcc.c ****   assert_param(IS_RCC_PLL_SOURCE(RCC_PLLSource));
 431:/home/user/Desktop/STM32-Projekte/FH-Vertibot/src/STM32F30x_StdPeriph_Driver/src/stm32f30x_rcc.c ****   assert_param(IS_RCC_PLL_MUL(RCC_PLLMul));
 432:/home/user/Desktop/STM32-Projekte/FH-Vertibot/src/STM32F30x_StdPeriph_Driver/src/stm32f30x_rcc.c ****   
 433:/home/user/Desktop/STM32-Projekte/FH-Vertibot/src/STM32F30x_StdPeriph_Driver/src/stm32f30x_rcc.c ****   /* Clear PLL Source [16] and Multiplier [21:18] bits */
 434:/home/user/Desktop/STM32-Projekte/FH-Vertibot/src/STM32F30x_StdPeriph_Driver/src/stm32f30x_rcc.c ****   RCC->CFGR &= ~(RCC_CFGR_PLLMULL | RCC_CFGR_PLLSRC);
 266              		.loc 1 434 0
 267 00c8 044B     		ldr	r3, .L23
 268 00ca 5A68     		ldr	r2, [r3, #4]
 269 00cc 22F47412 		bic	r2, r2, #3997696
 270 00d0 5A60     		str	r2, [r3, #4]
 435:/home/user/Desktop/STM32-Projekte/FH-Vertibot/src/STM32F30x_StdPeriph_Driver/src/stm32f30x_rcc.c **** 
 436:/home/user/Desktop/STM32-Projekte/FH-Vertibot/src/STM32F30x_StdPeriph_Driver/src/stm32f30x_rcc.c ****   /* Set the PLL Source and Multiplier */
 437:/home/user/Desktop/STM32-Projekte/FH-Vertibot/src/STM32F30x_StdPeriph_Driver/src/stm32f30x_rcc.c ****   RCC->CFGR |= (uint32_t)(RCC_PLLSource | RCC_PLLMul);
 271              		.loc 1 437 0
 272 00d2 5A68     		ldr	r2, [r3, #4]
 273 00d4 1043     		orrs	r0, r0, r2
 274              	.LVL12:
 275 00d6 0143     		orrs	r1, r1, r0
 276              	.LVL13:
 277 00d8 5960     		str	r1, [r3, #4]
 278 00da 7047     		bx	lr
 279              	.L24:
 280              		.align	2
 281              	.L23:
 282 00dc 00100240 		.word	1073876992
 283              		.cfi_endproc
 284              	.LFE119:
 286              		.align	1
 287              		.global	RCC_PLLCmd
 288              		.thumb
 289              		.thumb_func
 291              	RCC_PLLCmd:
 292              	.LFB120:
 438:/home/user/Desktop/STM32-Projekte/FH-Vertibot/src/STM32F30x_StdPeriph_Driver/src/stm32f30x_rcc.c **** }
 439:/home/user/Desktop/STM32-Projekte/FH-Vertibot/src/STM32F30x_StdPeriph_Driver/src/stm32f30x_rcc.c **** 
 440:/home/user/Desktop/STM32-Projekte/FH-Vertibot/src/STM32F30x_StdPeriph_Driver/src/stm32f30x_rcc.c **** /**
 441:/home/user/Desktop/STM32-Projekte/FH-Vertibot/src/STM32F30x_StdPeriph_Driver/src/stm32f30x_rcc.c ****   * @brief  Enables or disables the PLL.
 442:/home/user/Desktop/STM32-Projekte/FH-Vertibot/src/STM32F30x_StdPeriph_Driver/src/stm32f30x_rcc.c ****   * @note   After enabling the PLL, the application software should wait on 
 443:/home/user/Desktop/STM32-Projekte/FH-Vertibot/src/STM32F30x_StdPeriph_Driver/src/stm32f30x_rcc.c ****   *         PLLRDY flag to be set indicating that PLL clock is stable and can
 444:/home/user/Desktop/STM32-Projekte/FH-Vertibot/src/STM32F30x_StdPeriph_Driver/src/stm32f30x_rcc.c ****   *         be used as system clock source.
 445:/home/user/Desktop/STM32-Projekte/FH-Vertibot/src/STM32F30x_StdPeriph_Driver/src/stm32f30x_rcc.c ****   * @note   The PLL can not be disabled if it is used as system clock source
 446:/home/user/Desktop/STM32-Projekte/FH-Vertibot/src/STM32F30x_StdPeriph_Driver/src/stm32f30x_rcc.c ****   * @note   The PLL is disabled by hardware when entering STOP and STANDBY modes.    
 447:/home/user/Desktop/STM32-Projekte/FH-Vertibot/src/STM32F30x_StdPeriph_Driver/src/stm32f30x_rcc.c ****   * @param  NewState: new state of the PLL.
 448:/home/user/Desktop/STM32-Projekte/FH-Vertibot/src/STM32F30x_StdPeriph_Driver/src/stm32f30x_rcc.c ****   *   This parameter can be: ENABLE or DISABLE.
 449:/home/user/Desktop/STM32-Projekte/FH-Vertibot/src/STM32F30x_StdPeriph_Driver/src/stm32f30x_rcc.c ****   * @retval None
 450:/home/user/Desktop/STM32-Projekte/FH-Vertibot/src/STM32F30x_StdPeriph_Driver/src/stm32f30x_rcc.c ****   */
 451:/home/user/Desktop/STM32-Projekte/FH-Vertibot/src/STM32F30x_StdPeriph_Driver/src/stm32f30x_rcc.c **** void RCC_PLLCmd(FunctionalState NewState)
 452:/home/user/Desktop/STM32-Projekte/FH-Vertibot/src/STM32F30x_StdPeriph_Driver/src/stm32f30x_rcc.c **** {
 293              		.loc 1 452 0
 294              		.cfi_startproc
 295              		@ args = 0, pretend = 0, frame = 0
 296              		@ frame_needed = 0, uses_anonymous_args = 0
 297              		@ link register save eliminated.
 298              	.LVL14:
 453:/home/user/Desktop/STM32-Projekte/FH-Vertibot/src/STM32F30x_StdPeriph_Driver/src/stm32f30x_rcc.c ****   /* Check the parameters */
 454:/home/user/Desktop/STM32-Projekte/FH-Vertibot/src/STM32F30x_StdPeriph_Driver/src/stm32f30x_rcc.c ****   assert_param(IS_FUNCTIONAL_STATE(NewState));
 455:/home/user/Desktop/STM32-Projekte/FH-Vertibot/src/STM32F30x_StdPeriph_Driver/src/stm32f30x_rcc.c **** 
 456:/home/user/Desktop/STM32-Projekte/FH-Vertibot/src/STM32F30x_StdPeriph_Driver/src/stm32f30x_rcc.c ****   *(__IO uint32_t *) CR_PLLON_BB = (uint32_t)NewState;
 299              		.loc 1 456 0
 300 00e0 014B     		ldr	r3, .L26
 301 00e2 1860     		str	r0, [r3, #0]
 302 00e4 7047     		bx	lr
 303              	.L27:
 304 00e6 00BF     		.align	2
 305              	.L26:
 306 00e8 60004242 		.word	1111621728
 307              		.cfi_endproc
 308              	.LFE120:
 310              		.align	1
 311              		.global	RCC_PREDIV1Config
 312              		.thumb
 313              		.thumb_func
 315              	RCC_PREDIV1Config:
 316              	.LFB121:
 457:/home/user/Desktop/STM32-Projekte/FH-Vertibot/src/STM32F30x_StdPeriph_Driver/src/stm32f30x_rcc.c **** }
 458:/home/user/Desktop/STM32-Projekte/FH-Vertibot/src/STM32F30x_StdPeriph_Driver/src/stm32f30x_rcc.c **** 
 459:/home/user/Desktop/STM32-Projekte/FH-Vertibot/src/STM32F30x_StdPeriph_Driver/src/stm32f30x_rcc.c **** /**
 460:/home/user/Desktop/STM32-Projekte/FH-Vertibot/src/STM32F30x_StdPeriph_Driver/src/stm32f30x_rcc.c ****   * @brief  Configures the PREDIV1 division factor.
 461:/home/user/Desktop/STM32-Projekte/FH-Vertibot/src/STM32F30x_StdPeriph_Driver/src/stm32f30x_rcc.c ****   * @note   This function must be used only when the PLL is disabled.
 462:/home/user/Desktop/STM32-Projekte/FH-Vertibot/src/STM32F30x_StdPeriph_Driver/src/stm32f30x_rcc.c ****   * @param  RCC_PREDIV1_Div: specifies the PREDIV1 clock division factor.
 463:/home/user/Desktop/STM32-Projekte/FH-Vertibot/src/STM32F30x_StdPeriph_Driver/src/stm32f30x_rcc.c ****   *         This parameter can be RCC_PREDIV1_Divx where x:[1,16]
 464:/home/user/Desktop/STM32-Projekte/FH-Vertibot/src/STM32F30x_StdPeriph_Driver/src/stm32f30x_rcc.c ****   * @retval None
 465:/home/user/Desktop/STM32-Projekte/FH-Vertibot/src/STM32F30x_StdPeriph_Driver/src/stm32f30x_rcc.c ****   */
 466:/home/user/Desktop/STM32-Projekte/FH-Vertibot/src/STM32F30x_StdPeriph_Driver/src/stm32f30x_rcc.c **** void RCC_PREDIV1Config(uint32_t RCC_PREDIV1_Div)
 467:/home/user/Desktop/STM32-Projekte/FH-Vertibot/src/STM32F30x_StdPeriph_Driver/src/stm32f30x_rcc.c **** {
 317              		.loc 1 467 0
 318              		.cfi_startproc
 319              		@ args = 0, pretend = 0, frame = 0
 320              		@ frame_needed = 0, uses_anonymous_args = 0
 321              		@ link register save eliminated.
 322              	.LVL15:
 468:/home/user/Desktop/STM32-Projekte/FH-Vertibot/src/STM32F30x_StdPeriph_Driver/src/stm32f30x_rcc.c ****   uint32_t tmpreg = 0;
 469:/home/user/Desktop/STM32-Projekte/FH-Vertibot/src/STM32F30x_StdPeriph_Driver/src/stm32f30x_rcc.c ****   
 470:/home/user/Desktop/STM32-Projekte/FH-Vertibot/src/STM32F30x_StdPeriph_Driver/src/stm32f30x_rcc.c ****   /* Check the parameters */
 471:/home/user/Desktop/STM32-Projekte/FH-Vertibot/src/STM32F30x_StdPeriph_Driver/src/stm32f30x_rcc.c ****   assert_param(IS_RCC_PREDIV1(RCC_PREDIV1_Div));
 472:/home/user/Desktop/STM32-Projekte/FH-Vertibot/src/STM32F30x_StdPeriph_Driver/src/stm32f30x_rcc.c **** 
 473:/home/user/Desktop/STM32-Projekte/FH-Vertibot/src/STM32F30x_StdPeriph_Driver/src/stm32f30x_rcc.c ****   tmpreg = RCC->CFGR2;
 323              		.loc 1 473 0
 324 00ec 034B     		ldr	r3, .L29
 325 00ee DA6A     		ldr	r2, [r3, #44]
 326              	.LVL16:
 474:/home/user/Desktop/STM32-Projekte/FH-Vertibot/src/STM32F30x_StdPeriph_Driver/src/stm32f30x_rcc.c ****   /* Clear PREDIV1[3:0] bits */
 475:/home/user/Desktop/STM32-Projekte/FH-Vertibot/src/STM32F30x_StdPeriph_Driver/src/stm32f30x_rcc.c ****   tmpreg &= ~(RCC_CFGR2_PREDIV1);
 327              		.loc 1 475 0
 328 00f0 22F00F02 		bic	r2, r2, #15
 329              	.LVL17:
 476:/home/user/Desktop/STM32-Projekte/FH-Vertibot/src/STM32F30x_StdPeriph_Driver/src/stm32f30x_rcc.c **** 
 477:/home/user/Desktop/STM32-Projekte/FH-Vertibot/src/STM32F30x_StdPeriph_Driver/src/stm32f30x_rcc.c ****   /* Set the PREDIV1 division factor */
 478:/home/user/Desktop/STM32-Projekte/FH-Vertibot/src/STM32F30x_StdPeriph_Driver/src/stm32f30x_rcc.c ****   tmpreg |= RCC_PREDIV1_Div;
 330              		.loc 1 478 0
 331 00f4 1043     		orrs	r0, r0, r2
 332              	.LVL18:
 479:/home/user/Desktop/STM32-Projekte/FH-Vertibot/src/STM32F30x_StdPeriph_Driver/src/stm32f30x_rcc.c **** 
 480:/home/user/Desktop/STM32-Projekte/FH-Vertibot/src/STM32F30x_StdPeriph_Driver/src/stm32f30x_rcc.c ****   /* Store the new value */
 481:/home/user/Desktop/STM32-Projekte/FH-Vertibot/src/STM32F30x_StdPeriph_Driver/src/stm32f30x_rcc.c ****   RCC->CFGR2 = tmpreg;
 333              		.loc 1 481 0
 334 00f6 D862     		str	r0, [r3, #44]
 335 00f8 7047     		bx	lr
 336              	.L30:
 337 00fa 00BF     		.align	2
 338              	.L29:
 339 00fc 00100240 		.word	1073876992
 340              		.cfi_endproc
 341              	.LFE121:
 343              		.align	1
 344              		.global	RCC_ClockSecuritySystemCmd
 345              		.thumb
 346              		.thumb_func
 348              	RCC_ClockSecuritySystemCmd:
 349              	.LFB122:
 482:/home/user/Desktop/STM32-Projekte/FH-Vertibot/src/STM32F30x_StdPeriph_Driver/src/stm32f30x_rcc.c **** }
 483:/home/user/Desktop/STM32-Projekte/FH-Vertibot/src/STM32F30x_StdPeriph_Driver/src/stm32f30x_rcc.c **** 
 484:/home/user/Desktop/STM32-Projekte/FH-Vertibot/src/STM32F30x_StdPeriph_Driver/src/stm32f30x_rcc.c **** /**
 485:/home/user/Desktop/STM32-Projekte/FH-Vertibot/src/STM32F30x_StdPeriph_Driver/src/stm32f30x_rcc.c ****   * @brief  Enables or disables the Clock Security System.
 486:/home/user/Desktop/STM32-Projekte/FH-Vertibot/src/STM32F30x_StdPeriph_Driver/src/stm32f30x_rcc.c ****   * @note   If a failure is detected on the HSE oscillator clock, this oscillator
 487:/home/user/Desktop/STM32-Projekte/FH-Vertibot/src/STM32F30x_StdPeriph_Driver/src/stm32f30x_rcc.c ****   *         is automatically disabled and an interrupt is generated to inform the
 488:/home/user/Desktop/STM32-Projekte/FH-Vertibot/src/STM32F30x_StdPeriph_Driver/src/stm32f30x_rcc.c ****   *         software about the failure (Clock Security System Interrupt, CSSI),
 489:/home/user/Desktop/STM32-Projekte/FH-Vertibot/src/STM32F30x_StdPeriph_Driver/src/stm32f30x_rcc.c ****   *         allowing the MCU to perform rescue operations. The CSSI is linked to 
 490:/home/user/Desktop/STM32-Projekte/FH-Vertibot/src/STM32F30x_StdPeriph_Driver/src/stm32f30x_rcc.c ****   *         the Cortex-M4 NMI (Non-Maskable Interrupt) exception vector.  
 491:/home/user/Desktop/STM32-Projekte/FH-Vertibot/src/STM32F30x_StdPeriph_Driver/src/stm32f30x_rcc.c ****   * @param  NewState: new state of the Clock Security System.
 492:/home/user/Desktop/STM32-Projekte/FH-Vertibot/src/STM32F30x_StdPeriph_Driver/src/stm32f30x_rcc.c ****   *         This parameter can be: ENABLE or DISABLE.
 493:/home/user/Desktop/STM32-Projekte/FH-Vertibot/src/STM32F30x_StdPeriph_Driver/src/stm32f30x_rcc.c ****   * @retval None
 494:/home/user/Desktop/STM32-Projekte/FH-Vertibot/src/STM32F30x_StdPeriph_Driver/src/stm32f30x_rcc.c ****   */
 495:/home/user/Desktop/STM32-Projekte/FH-Vertibot/src/STM32F30x_StdPeriph_Driver/src/stm32f30x_rcc.c **** void RCC_ClockSecuritySystemCmd(FunctionalState NewState)
 496:/home/user/Desktop/STM32-Projekte/FH-Vertibot/src/STM32F30x_StdPeriph_Driver/src/stm32f30x_rcc.c **** {
 350              		.loc 1 496 0
 351              		.cfi_startproc
 352              		@ args = 0, pretend = 0, frame = 0
 353              		@ frame_needed = 0, uses_anonymous_args = 0
 354              		@ link register save eliminated.
 355              	.LVL19:
 497:/home/user/Desktop/STM32-Projekte/FH-Vertibot/src/STM32F30x_StdPeriph_Driver/src/stm32f30x_rcc.c ****   /* Check the parameters */
 498:/home/user/Desktop/STM32-Projekte/FH-Vertibot/src/STM32F30x_StdPeriph_Driver/src/stm32f30x_rcc.c ****   assert_param(IS_FUNCTIONAL_STATE(NewState));
 499:/home/user/Desktop/STM32-Projekte/FH-Vertibot/src/STM32F30x_StdPeriph_Driver/src/stm32f30x_rcc.c ****   
 500:/home/user/Desktop/STM32-Projekte/FH-Vertibot/src/STM32F30x_StdPeriph_Driver/src/stm32f30x_rcc.c ****   *(__IO uint32_t *) CR_CSSON_BB = (uint32_t)NewState;
 356              		.loc 1 500 0
 357 0100 014B     		ldr	r3, .L32
 358 0102 1860     		str	r0, [r3, #0]
 359 0104 7047     		bx	lr
 360              	.L33:
 361 0106 00BF     		.align	2
 362              	.L32:
 363 0108 4C004242 		.word	1111621708
 364              		.cfi_endproc
 365              	.LFE122:
 367              		.align	1
 368              		.global	RCC_MCOConfig
 369              		.thumb
 370              		.thumb_func
 372              	RCC_MCOConfig:
 373              	.LFB123:
 501:/home/user/Desktop/STM32-Projekte/FH-Vertibot/src/STM32F30x_StdPeriph_Driver/src/stm32f30x_rcc.c **** }
 502:/home/user/Desktop/STM32-Projekte/FH-Vertibot/src/STM32F30x_StdPeriph_Driver/src/stm32f30x_rcc.c **** 
 503:/home/user/Desktop/STM32-Projekte/FH-Vertibot/src/STM32F30x_StdPeriph_Driver/src/stm32f30x_rcc.c **** /**
 504:/home/user/Desktop/STM32-Projekte/FH-Vertibot/src/STM32F30x_StdPeriph_Driver/src/stm32f30x_rcc.c ****   * @brief  Selects the clock source to output on MCO pin (PA8).
 505:/home/user/Desktop/STM32-Projekte/FH-Vertibot/src/STM32F30x_StdPeriph_Driver/src/stm32f30x_rcc.c ****   * @note   PA8 should be configured in alternate function mode.
 506:/home/user/Desktop/STM32-Projekte/FH-Vertibot/src/STM32F30x_StdPeriph_Driver/src/stm32f30x_rcc.c ****   * @note   The MCOF flag is set once the MCO clock source switch is effective.      
 507:/home/user/Desktop/STM32-Projekte/FH-Vertibot/src/STM32F30x_StdPeriph_Driver/src/stm32f30x_rcc.c ****   * @param  RCC_MCOSource: specifies the clock source to output.
 508:/home/user/Desktop/STM32-Projekte/FH-Vertibot/src/STM32F30x_StdPeriph_Driver/src/stm32f30x_rcc.c ****   *   This parameter can be one of the following values:
 509:/home/user/Desktop/STM32-Projekte/FH-Vertibot/src/STM32F30x_StdPeriph_Driver/src/stm32f30x_rcc.c ****   *     @arg RCC_MCOSource_NoClock: No clock selected.
 510:/home/user/Desktop/STM32-Projekte/FH-Vertibot/src/STM32F30x_StdPeriph_Driver/src/stm32f30x_rcc.c ****   *     @arg RCC_MCOSource_LSI: LSI oscillator clock selected.  
 511:/home/user/Desktop/STM32-Projekte/FH-Vertibot/src/STM32F30x_StdPeriph_Driver/src/stm32f30x_rcc.c ****   *     @arg RCC_MCOSource_LSE: LSE oscillator clock selected.  
 512:/home/user/Desktop/STM32-Projekte/FH-Vertibot/src/STM32F30x_StdPeriph_Driver/src/stm32f30x_rcc.c ****   *     @arg RCC_MCOSource_SYSCLK: System clock selected.
 513:/home/user/Desktop/STM32-Projekte/FH-Vertibot/src/STM32F30x_StdPeriph_Driver/src/stm32f30x_rcc.c ****   *     @arg RCC_MCOSource_HSI: HSI oscillator clock selected.  
 514:/home/user/Desktop/STM32-Projekte/FH-Vertibot/src/STM32F30x_StdPeriph_Driver/src/stm32f30x_rcc.c ****   *     @arg RCC_MCOSource_HSE: HSE oscillator clock selected.
 515:/home/user/Desktop/STM32-Projekte/FH-Vertibot/src/STM32F30x_StdPeriph_Driver/src/stm32f30x_rcc.c ****   *     @arg RCC_MCOSource_PLLCLK_Div2: PLL clock selected.
 516:/home/user/Desktop/STM32-Projekte/FH-Vertibot/src/STM32F30x_StdPeriph_Driver/src/stm32f30x_rcc.c ****   * @retval None
 517:/home/user/Desktop/STM32-Projekte/FH-Vertibot/src/STM32F30x_StdPeriph_Driver/src/stm32f30x_rcc.c ****   */
 518:/home/user/Desktop/STM32-Projekte/FH-Vertibot/src/STM32F30x_StdPeriph_Driver/src/stm32f30x_rcc.c **** void RCC_MCOConfig(uint8_t RCC_MCOSource)
 519:/home/user/Desktop/STM32-Projekte/FH-Vertibot/src/STM32F30x_StdPeriph_Driver/src/stm32f30x_rcc.c **** {
 374              		.loc 1 519 0
 375              		.cfi_startproc
 376              		@ args = 0, pretend = 0, frame = 0
 377              		@ frame_needed = 0, uses_anonymous_args = 0
 378              		@ link register save eliminated.
 379              	.LVL20:
 520:/home/user/Desktop/STM32-Projekte/FH-Vertibot/src/STM32F30x_StdPeriph_Driver/src/stm32f30x_rcc.c ****   /* Check the parameters */
 521:/home/user/Desktop/STM32-Projekte/FH-Vertibot/src/STM32F30x_StdPeriph_Driver/src/stm32f30x_rcc.c ****   assert_param(IS_RCC_MCO_SOURCE(RCC_MCOSource));
 522:/home/user/Desktop/STM32-Projekte/FH-Vertibot/src/STM32F30x_StdPeriph_Driver/src/stm32f30x_rcc.c ****     
 523:/home/user/Desktop/STM32-Projekte/FH-Vertibot/src/STM32F30x_StdPeriph_Driver/src/stm32f30x_rcc.c ****   /* Select MCO clock source and prescaler */
 524:/home/user/Desktop/STM32-Projekte/FH-Vertibot/src/STM32F30x_StdPeriph_Driver/src/stm32f30x_rcc.c ****   *(__IO uint8_t *) CFGR_BYTE3_ADDRESS =  RCC_MCOSource; 
 380              		.loc 1 524 0
 381 010c 014B     		ldr	r3, .L35
 382 010e 1870     		strb	r0, [r3, #0]
 383 0110 7047     		bx	lr
 384              	.L36:
 385 0112 00BF     		.align	2
 386              	.L35:
 387 0114 07100240 		.word	1073876999
 388              		.cfi_endproc
 389              	.LFE123:
 391              		.align	1
 392              		.global	RCC_SYSCLKConfig
 393              		.thumb
 394              		.thumb_func
 396              	RCC_SYSCLKConfig:
 397              	.LFB124:
 525:/home/user/Desktop/STM32-Projekte/FH-Vertibot/src/STM32F30x_StdPeriph_Driver/src/stm32f30x_rcc.c **** }
 526:/home/user/Desktop/STM32-Projekte/FH-Vertibot/src/STM32F30x_StdPeriph_Driver/src/stm32f30x_rcc.c **** 
 527:/home/user/Desktop/STM32-Projekte/FH-Vertibot/src/STM32F30x_StdPeriph_Driver/src/stm32f30x_rcc.c **** /**
 528:/home/user/Desktop/STM32-Projekte/FH-Vertibot/src/STM32F30x_StdPeriph_Driver/src/stm32f30x_rcc.c ****   * @}
 529:/home/user/Desktop/STM32-Projekte/FH-Vertibot/src/STM32F30x_StdPeriph_Driver/src/stm32f30x_rcc.c ****   */
 530:/home/user/Desktop/STM32-Projekte/FH-Vertibot/src/STM32F30x_StdPeriph_Driver/src/stm32f30x_rcc.c **** 
 531:/home/user/Desktop/STM32-Projekte/FH-Vertibot/src/STM32F30x_StdPeriph_Driver/src/stm32f30x_rcc.c **** /** @defgroup RCC_Group2 System AHB, APB1 and APB2 busses clocks configuration functions
 532:/home/user/Desktop/STM32-Projekte/FH-Vertibot/src/STM32F30x_StdPeriph_Driver/src/stm32f30x_rcc.c ****  *  @brief   System, AHB and APB busses clocks configuration functions
 533:/home/user/Desktop/STM32-Projekte/FH-Vertibot/src/STM32F30x_StdPeriph_Driver/src/stm32f30x_rcc.c ****  *
 534:/home/user/Desktop/STM32-Projekte/FH-Vertibot/src/STM32F30x_StdPeriph_Driver/src/stm32f30x_rcc.c **** @verbatim   
 535:/home/user/Desktop/STM32-Projekte/FH-Vertibot/src/STM32F30x_StdPeriph_Driver/src/stm32f30x_rcc.c ****  ===============================================================================
 536:/home/user/Desktop/STM32-Projekte/FH-Vertibot/src/STM32F30x_StdPeriph_Driver/src/stm32f30x_rcc.c ****   ##### System, AHB, APB1 and APB2 busses clocks configuration functions #####
 537:/home/user/Desktop/STM32-Projekte/FH-Vertibot/src/STM32F30x_StdPeriph_Driver/src/stm32f30x_rcc.c ****  ===============================================================================  
 538:/home/user/Desktop/STM32-Projekte/FH-Vertibot/src/STM32F30x_StdPeriph_Driver/src/stm32f30x_rcc.c ****     [..] This section provide functions allowing to configure the System, AHB, APB1 and 
 539:/home/user/Desktop/STM32-Projekte/FH-Vertibot/src/STM32F30x_StdPeriph_Driver/src/stm32f30x_rcc.c ****          APB2 busses clocks.
 540:/home/user/Desktop/STM32-Projekte/FH-Vertibot/src/STM32F30x_StdPeriph_Driver/src/stm32f30x_rcc.c ****          (#) Several clock sources can be used to drive the System clock (SYSCLK): HSI,
 541:/home/user/Desktop/STM32-Projekte/FH-Vertibot/src/STM32F30x_StdPeriph_Driver/src/stm32f30x_rcc.c ****              HSE and PLL.
 542:/home/user/Desktop/STM32-Projekte/FH-Vertibot/src/STM32F30x_StdPeriph_Driver/src/stm32f30x_rcc.c ****              The AHB clock (HCLK) is derived from System clock through configurable prescaler
 543:/home/user/Desktop/STM32-Projekte/FH-Vertibot/src/STM32F30x_StdPeriph_Driver/src/stm32f30x_rcc.c ****              and used to clock the CPU, memory and peripherals mapped on AHB bus (DMA and GPIO).
 544:/home/user/Desktop/STM32-Projekte/FH-Vertibot/src/STM32F30x_StdPeriph_Driver/src/stm32f30x_rcc.c ****              APB1 (PCLK1) and APB2 (PCLK2) clocks are derived from AHB clock through 
 545:/home/user/Desktop/STM32-Projekte/FH-Vertibot/src/STM32F30x_StdPeriph_Driver/src/stm32f30x_rcc.c ****              configurable prescalers and used to clock the peripherals mapped on these busses.
 546:/home/user/Desktop/STM32-Projekte/FH-Vertibot/src/STM32F30x_StdPeriph_Driver/src/stm32f30x_rcc.c ****              You can use "RCC_GetClocksFreq()" function to retrieve the frequencies of these clocks
 547:/home/user/Desktop/STM32-Projekte/FH-Vertibot/src/STM32F30x_StdPeriph_Driver/src/stm32f30x_rcc.c **** 
 548:/home/user/Desktop/STM32-Projekte/FH-Vertibot/src/STM32F30x_StdPeriph_Driver/src/stm32f30x_rcc.c ****          (#) The maximum frequency of the SYSCLK, HCLK, PCLK1 and PCLK2 is 72 MHz.
 549:/home/user/Desktop/STM32-Projekte/FH-Vertibot/src/STM32F30x_StdPeriph_Driver/src/stm32f30x_rcc.c ****              Depending on the maximum frequency, the FLASH wait states (WS) should be 
 550:/home/user/Desktop/STM32-Projekte/FH-Vertibot/src/STM32F30x_StdPeriph_Driver/src/stm32f30x_rcc.c ****              adapted accordingly:
 551:/home/user/Desktop/STM32-Projekte/FH-Vertibot/src/STM32F30x_StdPeriph_Driver/src/stm32f30x_rcc.c ****         +---------------------------------+
 552:/home/user/Desktop/STM32-Projekte/FH-Vertibot/src/STM32F30x_StdPeriph_Driver/src/stm32f30x_rcc.c ****         |  Wait states  |   HCLK clock    |
 553:/home/user/Desktop/STM32-Projekte/FH-Vertibot/src/STM32F30x_StdPeriph_Driver/src/stm32f30x_rcc.c ****         |   (Latency)   | frequency (MHz) |
 554:/home/user/Desktop/STM32-Projekte/FH-Vertibot/src/STM32F30x_StdPeriph_Driver/src/stm32f30x_rcc.c ****         |-------------- |-----------------|             
 555:/home/user/Desktop/STM32-Projekte/FH-Vertibot/src/STM32F30x_StdPeriph_Driver/src/stm32f30x_rcc.c ****         |0WS(1CPU cycle)| 0 < HCLK <= 24  |
 556:/home/user/Desktop/STM32-Projekte/FH-Vertibot/src/STM32F30x_StdPeriph_Driver/src/stm32f30x_rcc.c ****         |---------------|-----------------| 
 557:/home/user/Desktop/STM32-Projekte/FH-Vertibot/src/STM32F30x_StdPeriph_Driver/src/stm32f30x_rcc.c ****         |1WS(2CPU cycle)|24 < HCLK <=48   |
 558:/home/user/Desktop/STM32-Projekte/FH-Vertibot/src/STM32F30x_StdPeriph_Driver/src/stm32f30x_rcc.c ****         |---------------|-----------------| 
 559:/home/user/Desktop/STM32-Projekte/FH-Vertibot/src/STM32F30x_StdPeriph_Driver/src/stm32f30x_rcc.c ****         |2WS(3CPU cycle)|48 < HCLK <= 72  |
 560:/home/user/Desktop/STM32-Projekte/FH-Vertibot/src/STM32F30x_StdPeriph_Driver/src/stm32f30x_rcc.c ****         +---------------------------------+
 561:/home/user/Desktop/STM32-Projekte/FH-Vertibot/src/STM32F30x_StdPeriph_Driver/src/stm32f30x_rcc.c **** 
 562:/home/user/Desktop/STM32-Projekte/FH-Vertibot/src/STM32F30x_StdPeriph_Driver/src/stm32f30x_rcc.c ****          (#) After reset, the System clock source is the HSI (8 MHz) with 0 WS and 
 563:/home/user/Desktop/STM32-Projekte/FH-Vertibot/src/STM32F30x_StdPeriph_Driver/src/stm32f30x_rcc.c ****              prefetch is disabled.
 564:/home/user/Desktop/STM32-Projekte/FH-Vertibot/src/STM32F30x_StdPeriph_Driver/src/stm32f30x_rcc.c ****         [..]
 565:/home/user/Desktop/STM32-Projekte/FH-Vertibot/src/STM32F30x_StdPeriph_Driver/src/stm32f30x_rcc.c ****          (@) All the peripheral clocks are derived from the System clock (SYSCLK) 
 566:/home/user/Desktop/STM32-Projekte/FH-Vertibot/src/STM32F30x_StdPeriph_Driver/src/stm32f30x_rcc.c ****              except:
 567:/home/user/Desktop/STM32-Projekte/FH-Vertibot/src/STM32F30x_StdPeriph_Driver/src/stm32f30x_rcc.c ****              (+@) The FLASH program/erase clock  which is always HSI 8MHz clock.
 568:/home/user/Desktop/STM32-Projekte/FH-Vertibot/src/STM32F30x_StdPeriph_Driver/src/stm32f30x_rcc.c ****              (+@) The USB 48 MHz clock which is derived from the PLL VCO clock.
 569:/home/user/Desktop/STM32-Projekte/FH-Vertibot/src/STM32F30x_StdPeriph_Driver/src/stm32f30x_rcc.c ****              (+@) The USART clock which can be derived as well from HSI 8MHz, LSI or LSE.
 570:/home/user/Desktop/STM32-Projekte/FH-Vertibot/src/STM32F30x_StdPeriph_Driver/src/stm32f30x_rcc.c ****              (+@) The I2C clock which can be derived as well from HSI 8MHz clock.
 571:/home/user/Desktop/STM32-Projekte/FH-Vertibot/src/STM32F30x_StdPeriph_Driver/src/stm32f30x_rcc.c ****              (+@) The ADC clock which is derived from PLL output.
 572:/home/user/Desktop/STM32-Projekte/FH-Vertibot/src/STM32F30x_StdPeriph_Driver/src/stm32f30x_rcc.c ****              (+@) The RTC clock which is derived from the LSE, LSI or 1 MHz HSE_RTC 
 573:/home/user/Desktop/STM32-Projekte/FH-Vertibot/src/STM32F30x_StdPeriph_Driver/src/stm32f30x_rcc.c ****                   (HSE divided by a programmable prescaler). The System clock (SYSCLK) 
 574:/home/user/Desktop/STM32-Projekte/FH-Vertibot/src/STM32F30x_StdPeriph_Driver/src/stm32f30x_rcc.c ****                   frequency must be higher or equal to the RTC clock frequency.
 575:/home/user/Desktop/STM32-Projekte/FH-Vertibot/src/STM32F30x_StdPeriph_Driver/src/stm32f30x_rcc.c ****              (+@) IWDG clock which is always the LSI clock.
 576:/home/user/Desktop/STM32-Projekte/FH-Vertibot/src/STM32F30x_StdPeriph_Driver/src/stm32f30x_rcc.c ****     [..] It is recommended to use the following software sequences to tune the number
 577:/home/user/Desktop/STM32-Projekte/FH-Vertibot/src/STM32F30x_StdPeriph_Driver/src/stm32f30x_rcc.c ****          of wait states needed to access the Flash memory with the CPU frequency (HCLK).
 578:/home/user/Desktop/STM32-Projekte/FH-Vertibot/src/STM32F30x_StdPeriph_Driver/src/stm32f30x_rcc.c ****          (+) Increasing the CPU frequency
 579:/home/user/Desktop/STM32-Projekte/FH-Vertibot/src/STM32F30x_StdPeriph_Driver/src/stm32f30x_rcc.c ****             (++) Program the Flash Prefetch buffer, using "FLASH_PrefetchBufferCmd(ENABLE)" 
 580:/home/user/Desktop/STM32-Projekte/FH-Vertibot/src/STM32F30x_StdPeriph_Driver/src/stm32f30x_rcc.c ****                  function
 581:/home/user/Desktop/STM32-Projekte/FH-Vertibot/src/STM32F30x_StdPeriph_Driver/src/stm32f30x_rcc.c ****             (++) Check that Flash Prefetch buffer activation is taken into account by 
 582:/home/user/Desktop/STM32-Projekte/FH-Vertibot/src/STM32F30x_StdPeriph_Driver/src/stm32f30x_rcc.c ****                  reading FLASH_ACR using the FLASH_GetPrefetchBufferStatus() function
 583:/home/user/Desktop/STM32-Projekte/FH-Vertibot/src/STM32F30x_StdPeriph_Driver/src/stm32f30x_rcc.c ****             (++) Program Flash WS to 1 or 2, using "FLASH_SetLatency()" function
 584:/home/user/Desktop/STM32-Projekte/FH-Vertibot/src/STM32F30x_StdPeriph_Driver/src/stm32f30x_rcc.c ****             (++) Check that the new number of WS is taken into account by reading FLASH_ACR
 585:/home/user/Desktop/STM32-Projekte/FH-Vertibot/src/STM32F30x_StdPeriph_Driver/src/stm32f30x_rcc.c ****             (++) Modify the CPU clock source, using "RCC_SYSCLKConfig()" function
 586:/home/user/Desktop/STM32-Projekte/FH-Vertibot/src/STM32F30x_StdPeriph_Driver/src/stm32f30x_rcc.c ****             (++) If needed, modify the CPU clock prescaler by using "RCC_HCLKConfig()" function
 587:/home/user/Desktop/STM32-Projekte/FH-Vertibot/src/STM32F30x_StdPeriph_Driver/src/stm32f30x_rcc.c ****             (++) Check that the new CPU clock source is taken into account by reading 
 588:/home/user/Desktop/STM32-Projekte/FH-Vertibot/src/STM32F30x_StdPeriph_Driver/src/stm32f30x_rcc.c ****                  the clock source status, using "RCC_GetSYSCLKSource()" function 
 589:/home/user/Desktop/STM32-Projekte/FH-Vertibot/src/STM32F30x_StdPeriph_Driver/src/stm32f30x_rcc.c ****          (+) Decreasing the CPU frequency
 590:/home/user/Desktop/STM32-Projekte/FH-Vertibot/src/STM32F30x_StdPeriph_Driver/src/stm32f30x_rcc.c ****             (++) Modify the CPU clock source, using "RCC_SYSCLKConfig()" function
 591:/home/user/Desktop/STM32-Projekte/FH-Vertibot/src/STM32F30x_StdPeriph_Driver/src/stm32f30x_rcc.c ****             (++) If needed, modify the CPU clock prescaler by using "RCC_HCLKConfig()" function
 592:/home/user/Desktop/STM32-Projekte/FH-Vertibot/src/STM32F30x_StdPeriph_Driver/src/stm32f30x_rcc.c ****             (++) Check that the new CPU clock source is taken into account by reading 
 593:/home/user/Desktop/STM32-Projekte/FH-Vertibot/src/STM32F30x_StdPeriph_Driver/src/stm32f30x_rcc.c ****                  the clock source status, using "RCC_GetSYSCLKSource()" function
 594:/home/user/Desktop/STM32-Projekte/FH-Vertibot/src/STM32F30x_StdPeriph_Driver/src/stm32f30x_rcc.c ****             (++) Program the new number of WS, using "FLASH_SetLatency()" function
 595:/home/user/Desktop/STM32-Projekte/FH-Vertibot/src/STM32F30x_StdPeriph_Driver/src/stm32f30x_rcc.c ****             (++) Check that the new number of WS is taken into account by reading FLASH_ACR
 596:/home/user/Desktop/STM32-Projekte/FH-Vertibot/src/STM32F30x_StdPeriph_Driver/src/stm32f30x_rcc.c ****             (++) Disable the Flash Prefetch buffer using "FLASH_PrefetchBufferCmd(DISABLE)" 
 597:/home/user/Desktop/STM32-Projekte/FH-Vertibot/src/STM32F30x_StdPeriph_Driver/src/stm32f30x_rcc.c ****                  function
 598:/home/user/Desktop/STM32-Projekte/FH-Vertibot/src/STM32F30x_StdPeriph_Driver/src/stm32f30x_rcc.c ****             (++) Check that Flash Prefetch buffer deactivation is taken into account by reading FLA
 599:/home/user/Desktop/STM32-Projekte/FH-Vertibot/src/STM32F30x_StdPeriph_Driver/src/stm32f30x_rcc.c ****                  using the FLASH_GetPrefetchBufferStatus() function.
 600:/home/user/Desktop/STM32-Projekte/FH-Vertibot/src/STM32F30x_StdPeriph_Driver/src/stm32f30x_rcc.c **** 
 601:/home/user/Desktop/STM32-Projekte/FH-Vertibot/src/STM32F30x_StdPeriph_Driver/src/stm32f30x_rcc.c **** @endverbatim
 602:/home/user/Desktop/STM32-Projekte/FH-Vertibot/src/STM32F30x_StdPeriph_Driver/src/stm32f30x_rcc.c ****   * @{
 603:/home/user/Desktop/STM32-Projekte/FH-Vertibot/src/STM32F30x_StdPeriph_Driver/src/stm32f30x_rcc.c ****   */
 604:/home/user/Desktop/STM32-Projekte/FH-Vertibot/src/STM32F30x_StdPeriph_Driver/src/stm32f30x_rcc.c **** 
 605:/home/user/Desktop/STM32-Projekte/FH-Vertibot/src/STM32F30x_StdPeriph_Driver/src/stm32f30x_rcc.c **** /**
 606:/home/user/Desktop/STM32-Projekte/FH-Vertibot/src/STM32F30x_StdPeriph_Driver/src/stm32f30x_rcc.c ****   * @brief  Configures the system clock (SYSCLK).
 607:/home/user/Desktop/STM32-Projekte/FH-Vertibot/src/STM32F30x_StdPeriph_Driver/src/stm32f30x_rcc.c ****   * @note     The HSI is used (enabled by hardware) as system clock source after
 608:/home/user/Desktop/STM32-Projekte/FH-Vertibot/src/STM32F30x_StdPeriph_Driver/src/stm32f30x_rcc.c ****   *           startup from Reset, wake-up from STOP and STANDBY mode, or in case
 609:/home/user/Desktop/STM32-Projekte/FH-Vertibot/src/STM32F30x_StdPeriph_Driver/src/stm32f30x_rcc.c ****   *           of failure of the HSE used directly or indirectly as system clock
 610:/home/user/Desktop/STM32-Projekte/FH-Vertibot/src/STM32F30x_StdPeriph_Driver/src/stm32f30x_rcc.c ****   *           (if the Clock Security System CSS is enabled).
 611:/home/user/Desktop/STM32-Projekte/FH-Vertibot/src/STM32F30x_StdPeriph_Driver/src/stm32f30x_rcc.c ****   * @note     A switch from one clock source to another occurs only if the target
 612:/home/user/Desktop/STM32-Projekte/FH-Vertibot/src/STM32F30x_StdPeriph_Driver/src/stm32f30x_rcc.c ****   *           clock source is ready (clock stable after startup delay or PLL locked). 
 613:/home/user/Desktop/STM32-Projekte/FH-Vertibot/src/STM32F30x_StdPeriph_Driver/src/stm32f30x_rcc.c ****   *           If a clock source which is not yet ready is selected, the switch will
 614:/home/user/Desktop/STM32-Projekte/FH-Vertibot/src/STM32F30x_StdPeriph_Driver/src/stm32f30x_rcc.c ****   *           occur when the clock source will be ready. 
 615:/home/user/Desktop/STM32-Projekte/FH-Vertibot/src/STM32F30x_StdPeriph_Driver/src/stm32f30x_rcc.c ****   *           You can use RCC_GetSYSCLKSource() function to know which clock is
 616:/home/user/Desktop/STM32-Projekte/FH-Vertibot/src/STM32F30x_StdPeriph_Driver/src/stm32f30x_rcc.c ****   *           currently used as system clock source.  
 617:/home/user/Desktop/STM32-Projekte/FH-Vertibot/src/STM32F30x_StdPeriph_Driver/src/stm32f30x_rcc.c ****   * @param  RCC_SYSCLKSource: specifies the clock source used as system clock source 
 618:/home/user/Desktop/STM32-Projekte/FH-Vertibot/src/STM32F30x_StdPeriph_Driver/src/stm32f30x_rcc.c ****   *   This parameter can be one of the following values:
 619:/home/user/Desktop/STM32-Projekte/FH-Vertibot/src/STM32F30x_StdPeriph_Driver/src/stm32f30x_rcc.c ****   *     @arg RCC_SYSCLKSource_HSI:    HSI selected as system clock source
 620:/home/user/Desktop/STM32-Projekte/FH-Vertibot/src/STM32F30x_StdPeriph_Driver/src/stm32f30x_rcc.c ****   *     @arg RCC_SYSCLKSource_HSE:    HSE selected as system clock source
 621:/home/user/Desktop/STM32-Projekte/FH-Vertibot/src/STM32F30x_StdPeriph_Driver/src/stm32f30x_rcc.c ****   *     @arg RCC_SYSCLKSource_PLLCLK: PLL selected as system clock source
 622:/home/user/Desktop/STM32-Projekte/FH-Vertibot/src/STM32F30x_StdPeriph_Driver/src/stm32f30x_rcc.c ****   * @retval None
 623:/home/user/Desktop/STM32-Projekte/FH-Vertibot/src/STM32F30x_StdPeriph_Driver/src/stm32f30x_rcc.c ****   */
 624:/home/user/Desktop/STM32-Projekte/FH-Vertibot/src/STM32F30x_StdPeriph_Driver/src/stm32f30x_rcc.c **** void RCC_SYSCLKConfig(uint32_t RCC_SYSCLKSource)
 625:/home/user/Desktop/STM32-Projekte/FH-Vertibot/src/STM32F30x_StdPeriph_Driver/src/stm32f30x_rcc.c **** {
 398              		.loc 1 625 0
 399              		.cfi_startproc
 400              		@ args = 0, pretend = 0, frame = 0
 401              		@ frame_needed = 0, uses_anonymous_args = 0
 402              		@ link register save eliminated.
 403              	.LVL21:
 626:/home/user/Desktop/STM32-Projekte/FH-Vertibot/src/STM32F30x_StdPeriph_Driver/src/stm32f30x_rcc.c ****   uint32_t tmpreg = 0;
 627:/home/user/Desktop/STM32-Projekte/FH-Vertibot/src/STM32F30x_StdPeriph_Driver/src/stm32f30x_rcc.c ****   
 628:/home/user/Desktop/STM32-Projekte/FH-Vertibot/src/STM32F30x_StdPeriph_Driver/src/stm32f30x_rcc.c ****   /* Check the parameters */
 629:/home/user/Desktop/STM32-Projekte/FH-Vertibot/src/STM32F30x_StdPeriph_Driver/src/stm32f30x_rcc.c ****   assert_param(IS_RCC_SYSCLK_SOURCE(RCC_SYSCLKSource));
 630:/home/user/Desktop/STM32-Projekte/FH-Vertibot/src/STM32F30x_StdPeriph_Driver/src/stm32f30x_rcc.c ****   
 631:/home/user/Desktop/STM32-Projekte/FH-Vertibot/src/STM32F30x_StdPeriph_Driver/src/stm32f30x_rcc.c ****   tmpreg = RCC->CFGR;
 404              		.loc 1 631 0
 405 0118 034B     		ldr	r3, .L38
 406 011a 5A68     		ldr	r2, [r3, #4]
 407              	.LVL22:
 632:/home/user/Desktop/STM32-Projekte/FH-Vertibot/src/STM32F30x_StdPeriph_Driver/src/stm32f30x_rcc.c ****   
 633:/home/user/Desktop/STM32-Projekte/FH-Vertibot/src/STM32F30x_StdPeriph_Driver/src/stm32f30x_rcc.c ****   /* Clear SW[1:0] bits */
 634:/home/user/Desktop/STM32-Projekte/FH-Vertibot/src/STM32F30x_StdPeriph_Driver/src/stm32f30x_rcc.c ****   tmpreg &= ~RCC_CFGR_SW;
 408              		.loc 1 634 0
 409 011c 22F00302 		bic	r2, r2, #3
 410              	.LVL23:
 635:/home/user/Desktop/STM32-Projekte/FH-Vertibot/src/STM32F30x_StdPeriph_Driver/src/stm32f30x_rcc.c ****   
 636:/home/user/Desktop/STM32-Projekte/FH-Vertibot/src/STM32F30x_StdPeriph_Driver/src/stm32f30x_rcc.c ****   /* Set SW[1:0] bits according to RCC_SYSCLKSource value */
 637:/home/user/Desktop/STM32-Projekte/FH-Vertibot/src/STM32F30x_StdPeriph_Driver/src/stm32f30x_rcc.c ****   tmpreg |= RCC_SYSCLKSource;
 411              		.loc 1 637 0
 412 0120 1043     		orrs	r0, r0, r2
 413              	.LVL24:
 638:/home/user/Desktop/STM32-Projekte/FH-Vertibot/src/STM32F30x_StdPeriph_Driver/src/stm32f30x_rcc.c ****   
 639:/home/user/Desktop/STM32-Projekte/FH-Vertibot/src/STM32F30x_StdPeriph_Driver/src/stm32f30x_rcc.c ****   /* Store the new value */
 640:/home/user/Desktop/STM32-Projekte/FH-Vertibot/src/STM32F30x_StdPeriph_Driver/src/stm32f30x_rcc.c ****   RCC->CFGR = tmpreg;
 414              		.loc 1 640 0
 415 0122 5860     		str	r0, [r3, #4]
 416 0124 7047     		bx	lr
 417              	.L39:
 418 0126 00BF     		.align	2
 419              	.L38:
 420 0128 00100240 		.word	1073876992
 421              		.cfi_endproc
 422              	.LFE124:
 424              		.align	1
 425              		.global	RCC_GetSYSCLKSource
 426              		.thumb
 427              		.thumb_func
 429              	RCC_GetSYSCLKSource:
 430              	.LFB125:
 641:/home/user/Desktop/STM32-Projekte/FH-Vertibot/src/STM32F30x_StdPeriph_Driver/src/stm32f30x_rcc.c **** }
 642:/home/user/Desktop/STM32-Projekte/FH-Vertibot/src/STM32F30x_StdPeriph_Driver/src/stm32f30x_rcc.c **** 
 643:/home/user/Desktop/STM32-Projekte/FH-Vertibot/src/STM32F30x_StdPeriph_Driver/src/stm32f30x_rcc.c **** /**
 644:/home/user/Desktop/STM32-Projekte/FH-Vertibot/src/STM32F30x_StdPeriph_Driver/src/stm32f30x_rcc.c ****   * @brief  Returns the clock source used as system clock.
 645:/home/user/Desktop/STM32-Projekte/FH-Vertibot/src/STM32F30x_StdPeriph_Driver/src/stm32f30x_rcc.c ****   * @param  None
 646:/home/user/Desktop/STM32-Projekte/FH-Vertibot/src/STM32F30x_StdPeriph_Driver/src/stm32f30x_rcc.c ****   * @retval The clock source used as system clock. The returned value can be one 
 647:/home/user/Desktop/STM32-Projekte/FH-Vertibot/src/STM32F30x_StdPeriph_Driver/src/stm32f30x_rcc.c ****   *         of the following values:
 648:/home/user/Desktop/STM32-Projekte/FH-Vertibot/src/STM32F30x_StdPeriph_Driver/src/stm32f30x_rcc.c ****   *              - 0x00: HSI used as system clock
 649:/home/user/Desktop/STM32-Projekte/FH-Vertibot/src/STM32F30x_StdPeriph_Driver/src/stm32f30x_rcc.c ****   *              - 0x04: HSE used as system clock  
 650:/home/user/Desktop/STM32-Projekte/FH-Vertibot/src/STM32F30x_StdPeriph_Driver/src/stm32f30x_rcc.c ****   *              - 0x08: PLL used as system clock
 651:/home/user/Desktop/STM32-Projekte/FH-Vertibot/src/STM32F30x_StdPeriph_Driver/src/stm32f30x_rcc.c ****   */
 652:/home/user/Desktop/STM32-Projekte/FH-Vertibot/src/STM32F30x_StdPeriph_Driver/src/stm32f30x_rcc.c **** uint8_t RCC_GetSYSCLKSource(void)
 653:/home/user/Desktop/STM32-Projekte/FH-Vertibot/src/STM32F30x_StdPeriph_Driver/src/stm32f30x_rcc.c **** {
 431              		.loc 1 653 0
 432              		.cfi_startproc
 433              		@ args = 0, pretend = 0, frame = 0
 434              		@ frame_needed = 0, uses_anonymous_args = 0
 435              		@ link register save eliminated.
 654:/home/user/Desktop/STM32-Projekte/FH-Vertibot/src/STM32F30x_StdPeriph_Driver/src/stm32f30x_rcc.c ****   return ((uint8_t)(RCC->CFGR & RCC_CFGR_SWS));
 436              		.loc 1 654 0
 437 012c 024B     		ldr	r3, .L41
 438 012e 5868     		ldr	r0, [r3, #4]
 655:/home/user/Desktop/STM32-Projekte/FH-Vertibot/src/STM32F30x_StdPeriph_Driver/src/stm32f30x_rcc.c **** }
 439              		.loc 1 655 0
 440 0130 00F00C00 		and	r0, r0, #12
 441 0134 7047     		bx	lr
 442              	.L42:
 443 0136 00BF     		.align	2
 444              	.L41:
 445 0138 00100240 		.word	1073876992
 446              		.cfi_endproc
 447              	.LFE125:
 449              		.align	1
 450              		.global	RCC_HCLKConfig
 451              		.thumb
 452              		.thumb_func
 454              	RCC_HCLKConfig:
 455              	.LFB126:
 656:/home/user/Desktop/STM32-Projekte/FH-Vertibot/src/STM32F30x_StdPeriph_Driver/src/stm32f30x_rcc.c **** 
 657:/home/user/Desktop/STM32-Projekte/FH-Vertibot/src/STM32F30x_StdPeriph_Driver/src/stm32f30x_rcc.c **** /**
 658:/home/user/Desktop/STM32-Projekte/FH-Vertibot/src/STM32F30x_StdPeriph_Driver/src/stm32f30x_rcc.c ****   * @brief  Configures the AHB clock (HCLK).
 659:/home/user/Desktop/STM32-Projekte/FH-Vertibot/src/STM32F30x_StdPeriph_Driver/src/stm32f30x_rcc.c ****   * @note   Depending on the device voltage range, the software has to set correctly
 660:/home/user/Desktop/STM32-Projekte/FH-Vertibot/src/STM32F30x_StdPeriph_Driver/src/stm32f30x_rcc.c ****   *         these bits to ensure that the system frequency does not exceed the
 661:/home/user/Desktop/STM32-Projekte/FH-Vertibot/src/STM32F30x_StdPeriph_Driver/src/stm32f30x_rcc.c ****   *         maximum allowed frequency (for more details refer to section above
 662:/home/user/Desktop/STM32-Projekte/FH-Vertibot/src/STM32F30x_StdPeriph_Driver/src/stm32f30x_rcc.c ****   *         "CPU, AHB and APB busses clocks configuration functions").
 663:/home/user/Desktop/STM32-Projekte/FH-Vertibot/src/STM32F30x_StdPeriph_Driver/src/stm32f30x_rcc.c ****   * @param  RCC_SYSCLK: defines the AHB clock divider. This clock is derived from 
 664:/home/user/Desktop/STM32-Projekte/FH-Vertibot/src/STM32F30x_StdPeriph_Driver/src/stm32f30x_rcc.c ****   *                     the system clock (SYSCLK).
 665:/home/user/Desktop/STM32-Projekte/FH-Vertibot/src/STM32F30x_StdPeriph_Driver/src/stm32f30x_rcc.c ****   *   This parameter can be one of the following values:
 666:/home/user/Desktop/STM32-Projekte/FH-Vertibot/src/STM32F30x_StdPeriph_Driver/src/stm32f30x_rcc.c ****   *     @arg RCC_SYSCLK_Div1:   AHB clock = SYSCLK
 667:/home/user/Desktop/STM32-Projekte/FH-Vertibot/src/STM32F30x_StdPeriph_Driver/src/stm32f30x_rcc.c ****   *     @arg RCC_SYSCLK_Div2:   AHB clock = SYSCLK/2
 668:/home/user/Desktop/STM32-Projekte/FH-Vertibot/src/STM32F30x_StdPeriph_Driver/src/stm32f30x_rcc.c ****   *     @arg RCC_SYSCLK_Div4:   AHB clock = SYSCLK/4
 669:/home/user/Desktop/STM32-Projekte/FH-Vertibot/src/STM32F30x_StdPeriph_Driver/src/stm32f30x_rcc.c ****   *     @arg RCC_SYSCLK_Div8:   AHB clock = SYSCLK/8
 670:/home/user/Desktop/STM32-Projekte/FH-Vertibot/src/STM32F30x_StdPeriph_Driver/src/stm32f30x_rcc.c ****   *     @arg RCC_SYSCLK_Div16:  AHB clock = SYSCLK/16
 671:/home/user/Desktop/STM32-Projekte/FH-Vertibot/src/STM32F30x_StdPeriph_Driver/src/stm32f30x_rcc.c ****   *     @arg RCC_SYSCLK_Div64:  AHB clock = SYSCLK/64
 672:/home/user/Desktop/STM32-Projekte/FH-Vertibot/src/STM32F30x_StdPeriph_Driver/src/stm32f30x_rcc.c ****   *     @arg RCC_SYSCLK_Div128: AHB clock = SYSCLK/128
 673:/home/user/Desktop/STM32-Projekte/FH-Vertibot/src/STM32F30x_StdPeriph_Driver/src/stm32f30x_rcc.c ****   *     @arg RCC_SYSCLK_Div256: AHB clock = SYSCLK/256
 674:/home/user/Desktop/STM32-Projekte/FH-Vertibot/src/STM32F30x_StdPeriph_Driver/src/stm32f30x_rcc.c ****   *     @arg RCC_SYSCLK_Div512: AHB clock = SYSCLK/512
 675:/home/user/Desktop/STM32-Projekte/FH-Vertibot/src/STM32F30x_StdPeriph_Driver/src/stm32f30x_rcc.c ****   * @retval None
 676:/home/user/Desktop/STM32-Projekte/FH-Vertibot/src/STM32F30x_StdPeriph_Driver/src/stm32f30x_rcc.c ****   */
 677:/home/user/Desktop/STM32-Projekte/FH-Vertibot/src/STM32F30x_StdPeriph_Driver/src/stm32f30x_rcc.c **** void RCC_HCLKConfig(uint32_t RCC_SYSCLK)
 678:/home/user/Desktop/STM32-Projekte/FH-Vertibot/src/STM32F30x_StdPeriph_Driver/src/stm32f30x_rcc.c **** {
 456              		.loc 1 678 0
 457              		.cfi_startproc
 458              		@ args = 0, pretend = 0, frame = 0
 459              		@ frame_needed = 0, uses_anonymous_args = 0
 460              		@ link register save eliminated.
 461              	.LVL25:
 679:/home/user/Desktop/STM32-Projekte/FH-Vertibot/src/STM32F30x_StdPeriph_Driver/src/stm32f30x_rcc.c ****   uint32_t tmpreg = 0;
 680:/home/user/Desktop/STM32-Projekte/FH-Vertibot/src/STM32F30x_StdPeriph_Driver/src/stm32f30x_rcc.c ****   
 681:/home/user/Desktop/STM32-Projekte/FH-Vertibot/src/STM32F30x_StdPeriph_Driver/src/stm32f30x_rcc.c ****   /* Check the parameters */
 682:/home/user/Desktop/STM32-Projekte/FH-Vertibot/src/STM32F30x_StdPeriph_Driver/src/stm32f30x_rcc.c ****   assert_param(IS_RCC_HCLK(RCC_SYSCLK));
 683:/home/user/Desktop/STM32-Projekte/FH-Vertibot/src/STM32F30x_StdPeriph_Driver/src/stm32f30x_rcc.c ****   
 684:/home/user/Desktop/STM32-Projekte/FH-Vertibot/src/STM32F30x_StdPeriph_Driver/src/stm32f30x_rcc.c ****   tmpreg = RCC->CFGR;
 462              		.loc 1 684 0
 463 013c 034B     		ldr	r3, .L44
 464 013e 5A68     		ldr	r2, [r3, #4]
 465              	.LVL26:
 685:/home/user/Desktop/STM32-Projekte/FH-Vertibot/src/STM32F30x_StdPeriph_Driver/src/stm32f30x_rcc.c ****   
 686:/home/user/Desktop/STM32-Projekte/FH-Vertibot/src/STM32F30x_StdPeriph_Driver/src/stm32f30x_rcc.c ****   /* Clear HPRE[3:0] bits */
 687:/home/user/Desktop/STM32-Projekte/FH-Vertibot/src/STM32F30x_StdPeriph_Driver/src/stm32f30x_rcc.c ****   tmpreg &= ~RCC_CFGR_HPRE;
 466              		.loc 1 687 0
 467 0140 22F0F002 		bic	r2, r2, #240
 468              	.LVL27:
 688:/home/user/Desktop/STM32-Projekte/FH-Vertibot/src/STM32F30x_StdPeriph_Driver/src/stm32f30x_rcc.c ****   
 689:/home/user/Desktop/STM32-Projekte/FH-Vertibot/src/STM32F30x_StdPeriph_Driver/src/stm32f30x_rcc.c ****   /* Set HPRE[3:0] bits according to RCC_SYSCLK value */
 690:/home/user/Desktop/STM32-Projekte/FH-Vertibot/src/STM32F30x_StdPeriph_Driver/src/stm32f30x_rcc.c ****   tmpreg |= RCC_SYSCLK;
 469              		.loc 1 690 0
 470 0144 1043     		orrs	r0, r0, r2
 471              	.LVL28:
 691:/home/user/Desktop/STM32-Projekte/FH-Vertibot/src/STM32F30x_StdPeriph_Driver/src/stm32f30x_rcc.c ****   
 692:/home/user/Desktop/STM32-Projekte/FH-Vertibot/src/STM32F30x_StdPeriph_Driver/src/stm32f30x_rcc.c ****   /* Store the new value */
 693:/home/user/Desktop/STM32-Projekte/FH-Vertibot/src/STM32F30x_StdPeriph_Driver/src/stm32f30x_rcc.c ****   RCC->CFGR = tmpreg;
 472              		.loc 1 693 0
 473 0146 5860     		str	r0, [r3, #4]
 474 0148 7047     		bx	lr
 475              	.L45:
 476 014a 00BF     		.align	2
 477              	.L44:
 478 014c 00100240 		.word	1073876992
 479              		.cfi_endproc
 480              	.LFE126:
 482              		.align	1
 483              		.global	RCC_PCLK1Config
 484              		.thumb
 485              		.thumb_func
 487              	RCC_PCLK1Config:
 488              	.LFB127:
 694:/home/user/Desktop/STM32-Projekte/FH-Vertibot/src/STM32F30x_StdPeriph_Driver/src/stm32f30x_rcc.c **** }
 695:/home/user/Desktop/STM32-Projekte/FH-Vertibot/src/STM32F30x_StdPeriph_Driver/src/stm32f30x_rcc.c **** 
 696:/home/user/Desktop/STM32-Projekte/FH-Vertibot/src/STM32F30x_StdPeriph_Driver/src/stm32f30x_rcc.c **** /**
 697:/home/user/Desktop/STM32-Projekte/FH-Vertibot/src/STM32F30x_StdPeriph_Driver/src/stm32f30x_rcc.c ****   * @brief  Configures the Low Speed APB clock (PCLK1).
 698:/home/user/Desktop/STM32-Projekte/FH-Vertibot/src/STM32F30x_StdPeriph_Driver/src/stm32f30x_rcc.c ****   * @param  RCC_HCLK: defines the APB1 clock divider. This clock is derived from 
 699:/home/user/Desktop/STM32-Projekte/FH-Vertibot/src/STM32F30x_StdPeriph_Driver/src/stm32f30x_rcc.c ****   *         the AHB clock (HCLK).
 700:/home/user/Desktop/STM32-Projekte/FH-Vertibot/src/STM32F30x_StdPeriph_Driver/src/stm32f30x_rcc.c ****   *   This parameter can be one of the following values:
 701:/home/user/Desktop/STM32-Projekte/FH-Vertibot/src/STM32F30x_StdPeriph_Driver/src/stm32f30x_rcc.c ****   *     @arg RCC_HCLK_Div1: APB1 clock = HCLK
 702:/home/user/Desktop/STM32-Projekte/FH-Vertibot/src/STM32F30x_StdPeriph_Driver/src/stm32f30x_rcc.c ****   *     @arg RCC_HCLK_Div2: APB1 clock = HCLK/2
 703:/home/user/Desktop/STM32-Projekte/FH-Vertibot/src/STM32F30x_StdPeriph_Driver/src/stm32f30x_rcc.c ****   *     @arg RCC_HCLK_Div4: APB1 clock = HCLK/4
 704:/home/user/Desktop/STM32-Projekte/FH-Vertibot/src/STM32F30x_StdPeriph_Driver/src/stm32f30x_rcc.c ****   *     @arg RCC_HCLK_Div8: APB1 clock = HCLK/8
 705:/home/user/Desktop/STM32-Projekte/FH-Vertibot/src/STM32F30x_StdPeriph_Driver/src/stm32f30x_rcc.c ****   *     @arg RCC_HCLK_Div16: APB1 clock = HCLK/16
 706:/home/user/Desktop/STM32-Projekte/FH-Vertibot/src/STM32F30x_StdPeriph_Driver/src/stm32f30x_rcc.c ****   * @retval None
 707:/home/user/Desktop/STM32-Projekte/FH-Vertibot/src/STM32F30x_StdPeriph_Driver/src/stm32f30x_rcc.c ****   */
 708:/home/user/Desktop/STM32-Projekte/FH-Vertibot/src/STM32F30x_StdPeriph_Driver/src/stm32f30x_rcc.c **** void RCC_PCLK1Config(uint32_t RCC_HCLK)
 709:/home/user/Desktop/STM32-Projekte/FH-Vertibot/src/STM32F30x_StdPeriph_Driver/src/stm32f30x_rcc.c **** {
 489              		.loc 1 709 0
 490              		.cfi_startproc
 491              		@ args = 0, pretend = 0, frame = 0
 492              		@ frame_needed = 0, uses_anonymous_args = 0
 493              		@ link register save eliminated.
 494              	.LVL29:
 710:/home/user/Desktop/STM32-Projekte/FH-Vertibot/src/STM32F30x_StdPeriph_Driver/src/stm32f30x_rcc.c ****   uint32_t tmpreg = 0;
 711:/home/user/Desktop/STM32-Projekte/FH-Vertibot/src/STM32F30x_StdPeriph_Driver/src/stm32f30x_rcc.c ****   
 712:/home/user/Desktop/STM32-Projekte/FH-Vertibot/src/STM32F30x_StdPeriph_Driver/src/stm32f30x_rcc.c ****   /* Check the parameters */
 713:/home/user/Desktop/STM32-Projekte/FH-Vertibot/src/STM32F30x_StdPeriph_Driver/src/stm32f30x_rcc.c ****   assert_param(IS_RCC_PCLK(RCC_HCLK));
 714:/home/user/Desktop/STM32-Projekte/FH-Vertibot/src/STM32F30x_StdPeriph_Driver/src/stm32f30x_rcc.c ****   
 715:/home/user/Desktop/STM32-Projekte/FH-Vertibot/src/STM32F30x_StdPeriph_Driver/src/stm32f30x_rcc.c ****   tmpreg = RCC->CFGR;
 495              		.loc 1 715 0
 496 0150 034B     		ldr	r3, .L47
 497 0152 5A68     		ldr	r2, [r3, #4]
 498              	.LVL30:
 716:/home/user/Desktop/STM32-Projekte/FH-Vertibot/src/STM32F30x_StdPeriph_Driver/src/stm32f30x_rcc.c ****   /* Clear PPRE1[2:0] bits */
 717:/home/user/Desktop/STM32-Projekte/FH-Vertibot/src/STM32F30x_StdPeriph_Driver/src/stm32f30x_rcc.c ****   tmpreg &= ~RCC_CFGR_PPRE1;
 499              		.loc 1 717 0
 500 0154 22F4E062 		bic	r2, r2, #1792
 501              	.LVL31:
 718:/home/user/Desktop/STM32-Projekte/FH-Vertibot/src/STM32F30x_StdPeriph_Driver/src/stm32f30x_rcc.c ****   
 719:/home/user/Desktop/STM32-Projekte/FH-Vertibot/src/STM32F30x_StdPeriph_Driver/src/stm32f30x_rcc.c ****   /* Set PPRE1[2:0] bits according to RCC_HCLK value */
 720:/home/user/Desktop/STM32-Projekte/FH-Vertibot/src/STM32F30x_StdPeriph_Driver/src/stm32f30x_rcc.c ****   tmpreg |= RCC_HCLK;
 502              		.loc 1 720 0
 503 0158 1043     		orrs	r0, r0, r2
 504              	.LVL32:
 721:/home/user/Desktop/STM32-Projekte/FH-Vertibot/src/STM32F30x_StdPeriph_Driver/src/stm32f30x_rcc.c ****   
 722:/home/user/Desktop/STM32-Projekte/FH-Vertibot/src/STM32F30x_StdPeriph_Driver/src/stm32f30x_rcc.c ****   /* Store the new value */
 723:/home/user/Desktop/STM32-Projekte/FH-Vertibot/src/STM32F30x_StdPeriph_Driver/src/stm32f30x_rcc.c ****   RCC->CFGR = tmpreg;
 505              		.loc 1 723 0
 506 015a 5860     		str	r0, [r3, #4]
 507 015c 7047     		bx	lr
 508              	.L48:
 509 015e 00BF     		.align	2
 510              	.L47:
 511 0160 00100240 		.word	1073876992
 512              		.cfi_endproc
 513              	.LFE127:
 515              		.align	1
 516              		.global	RCC_PCLK2Config
 517              		.thumb
 518              		.thumb_func
 520              	RCC_PCLK2Config:
 521              	.LFB128:
 724:/home/user/Desktop/STM32-Projekte/FH-Vertibot/src/STM32F30x_StdPeriph_Driver/src/stm32f30x_rcc.c **** }
 725:/home/user/Desktop/STM32-Projekte/FH-Vertibot/src/STM32F30x_StdPeriph_Driver/src/stm32f30x_rcc.c **** 
 726:/home/user/Desktop/STM32-Projekte/FH-Vertibot/src/STM32F30x_StdPeriph_Driver/src/stm32f30x_rcc.c **** /**
 727:/home/user/Desktop/STM32-Projekte/FH-Vertibot/src/STM32F30x_StdPeriph_Driver/src/stm32f30x_rcc.c ****   * @brief  Configures the High Speed APB clock (PCLK2).
 728:/home/user/Desktop/STM32-Projekte/FH-Vertibot/src/STM32F30x_StdPeriph_Driver/src/stm32f30x_rcc.c ****   * @param  RCC_HCLK: defines the APB2 clock divider. This clock is derived from 
 729:/home/user/Desktop/STM32-Projekte/FH-Vertibot/src/STM32F30x_StdPeriph_Driver/src/stm32f30x_rcc.c ****   *         the AHB clock (HCLK).
 730:/home/user/Desktop/STM32-Projekte/FH-Vertibot/src/STM32F30x_StdPeriph_Driver/src/stm32f30x_rcc.c ****   *         This parameter can be one of the following values:
 731:/home/user/Desktop/STM32-Projekte/FH-Vertibot/src/STM32F30x_StdPeriph_Driver/src/stm32f30x_rcc.c ****   *             @arg RCC_HCLK_Div1: APB2 clock = HCLK
 732:/home/user/Desktop/STM32-Projekte/FH-Vertibot/src/STM32F30x_StdPeriph_Driver/src/stm32f30x_rcc.c ****   *             @arg RCC_HCLK_Div2: APB2 clock = HCLK/2
 733:/home/user/Desktop/STM32-Projekte/FH-Vertibot/src/STM32F30x_StdPeriph_Driver/src/stm32f30x_rcc.c ****   *             @arg RCC_HCLK_Div4: APB2 clock = HCLK/4
 734:/home/user/Desktop/STM32-Projekte/FH-Vertibot/src/STM32F30x_StdPeriph_Driver/src/stm32f30x_rcc.c ****   *             @arg RCC_HCLK_Div8: APB2 clock = HCLK/8
 735:/home/user/Desktop/STM32-Projekte/FH-Vertibot/src/STM32F30x_StdPeriph_Driver/src/stm32f30x_rcc.c ****   *             @arg RCC_HCLK_Div16: APB2 clock = HCLK/16
 736:/home/user/Desktop/STM32-Projekte/FH-Vertibot/src/STM32F30x_StdPeriph_Driver/src/stm32f30x_rcc.c ****   * @retval None
 737:/home/user/Desktop/STM32-Projekte/FH-Vertibot/src/STM32F30x_StdPeriph_Driver/src/stm32f30x_rcc.c ****   */
 738:/home/user/Desktop/STM32-Projekte/FH-Vertibot/src/STM32F30x_StdPeriph_Driver/src/stm32f30x_rcc.c **** void RCC_PCLK2Config(uint32_t RCC_HCLK)
 739:/home/user/Desktop/STM32-Projekte/FH-Vertibot/src/STM32F30x_StdPeriph_Driver/src/stm32f30x_rcc.c **** {
 522              		.loc 1 739 0
 523              		.cfi_startproc
 524              		@ args = 0, pretend = 0, frame = 0
 525              		@ frame_needed = 0, uses_anonymous_args = 0
 526              		@ link register save eliminated.
 527              	.LVL33:
 740:/home/user/Desktop/STM32-Projekte/FH-Vertibot/src/STM32F30x_StdPeriph_Driver/src/stm32f30x_rcc.c ****   uint32_t tmpreg = 0;
 741:/home/user/Desktop/STM32-Projekte/FH-Vertibot/src/STM32F30x_StdPeriph_Driver/src/stm32f30x_rcc.c ****   
 742:/home/user/Desktop/STM32-Projekte/FH-Vertibot/src/STM32F30x_StdPeriph_Driver/src/stm32f30x_rcc.c ****   /* Check the parameters */
 743:/home/user/Desktop/STM32-Projekte/FH-Vertibot/src/STM32F30x_StdPeriph_Driver/src/stm32f30x_rcc.c ****   assert_param(IS_RCC_PCLK(RCC_HCLK));
 744:/home/user/Desktop/STM32-Projekte/FH-Vertibot/src/STM32F30x_StdPeriph_Driver/src/stm32f30x_rcc.c ****   
 745:/home/user/Desktop/STM32-Projekte/FH-Vertibot/src/STM32F30x_StdPeriph_Driver/src/stm32f30x_rcc.c ****   tmpreg = RCC->CFGR;
 528              		.loc 1 745 0
 529 0164 034B     		ldr	r3, .L50
 530 0166 5A68     		ldr	r2, [r3, #4]
 531              	.LVL34:
 746:/home/user/Desktop/STM32-Projekte/FH-Vertibot/src/STM32F30x_StdPeriph_Driver/src/stm32f30x_rcc.c ****   /* Clear PPRE2[2:0] bits */
 747:/home/user/Desktop/STM32-Projekte/FH-Vertibot/src/STM32F30x_StdPeriph_Driver/src/stm32f30x_rcc.c ****   tmpreg &= ~RCC_CFGR_PPRE2;
 532              		.loc 1 747 0
 533 0168 22F46052 		bic	r2, r2, #14336
 534              	.LVL35:
 748:/home/user/Desktop/STM32-Projekte/FH-Vertibot/src/STM32F30x_StdPeriph_Driver/src/stm32f30x_rcc.c ****   /* Set PPRE2[2:0] bits according to RCC_HCLK value */
 749:/home/user/Desktop/STM32-Projekte/FH-Vertibot/src/STM32F30x_StdPeriph_Driver/src/stm32f30x_rcc.c ****   tmpreg |= RCC_HCLK << 3;
 535              		.loc 1 749 0
 536 016c 42EAC000 		orr	r0, r2, r0, lsl #3
 537              	.LVL36:
 750:/home/user/Desktop/STM32-Projekte/FH-Vertibot/src/STM32F30x_StdPeriph_Driver/src/stm32f30x_rcc.c ****   /* Store the new value */
 751:/home/user/Desktop/STM32-Projekte/FH-Vertibot/src/STM32F30x_StdPeriph_Driver/src/stm32f30x_rcc.c ****   RCC->CFGR = tmpreg;
 538              		.loc 1 751 0
 539 0170 5860     		str	r0, [r3, #4]
 540 0172 7047     		bx	lr
 541              	.L51:
 542              		.align	2
 543              	.L50:
 544 0174 00100240 		.word	1073876992
 545              		.cfi_endproc
 546              	.LFE128:
 548              		.align	1
 549              		.global	RCC_GetClocksFreq
 550              		.thumb
 551              		.thumb_func
 553              	RCC_GetClocksFreq:
 554              	.LFB129:
 752:/home/user/Desktop/STM32-Projekte/FH-Vertibot/src/STM32F30x_StdPeriph_Driver/src/stm32f30x_rcc.c **** }
 753:/home/user/Desktop/STM32-Projekte/FH-Vertibot/src/STM32F30x_StdPeriph_Driver/src/stm32f30x_rcc.c **** 
 754:/home/user/Desktop/STM32-Projekte/FH-Vertibot/src/STM32F30x_StdPeriph_Driver/src/stm32f30x_rcc.c **** /**
 755:/home/user/Desktop/STM32-Projekte/FH-Vertibot/src/STM32F30x_StdPeriph_Driver/src/stm32f30x_rcc.c ****   * @brief  Returns the frequencies of the System, AHB, APB2 and APB1 busses clocks.
 756:/home/user/Desktop/STM32-Projekte/FH-Vertibot/src/STM32F30x_StdPeriph_Driver/src/stm32f30x_rcc.c ****   * 
 757:/home/user/Desktop/STM32-Projekte/FH-Vertibot/src/STM32F30x_StdPeriph_Driver/src/stm32f30x_rcc.c ****   *  @note    This function returns the frequencies of :
 758:/home/user/Desktop/STM32-Projekte/FH-Vertibot/src/STM32F30x_StdPeriph_Driver/src/stm32f30x_rcc.c ****   *           System, AHB, APB2 and APB1 busses clocks, ADC1/2/3/4 clocks, 
 759:/home/user/Desktop/STM32-Projekte/FH-Vertibot/src/STM32F30x_StdPeriph_Driver/src/stm32f30x_rcc.c ****   *           USART1/2/3/4/5 clocks, I2C1/2 clocks and TIM1/8 Clocks.
 760:/home/user/Desktop/STM32-Projekte/FH-Vertibot/src/STM32F30x_StdPeriph_Driver/src/stm32f30x_rcc.c ****   *                         
 761:/home/user/Desktop/STM32-Projekte/FH-Vertibot/src/STM32F30x_StdPeriph_Driver/src/stm32f30x_rcc.c ****   * @note     The frequency returned by this function is not the real frequency
 762:/home/user/Desktop/STM32-Projekte/FH-Vertibot/src/STM32F30x_StdPeriph_Driver/src/stm32f30x_rcc.c ****   *           in the chip. It is calculated based on the predefined constant and
 763:/home/user/Desktop/STM32-Projekte/FH-Vertibot/src/STM32F30x_StdPeriph_Driver/src/stm32f30x_rcc.c ****   *           the source selected by RCC_SYSCLKConfig().
 764:/home/user/Desktop/STM32-Projekte/FH-Vertibot/src/STM32F30x_StdPeriph_Driver/src/stm32f30x_rcc.c ****   *                                              
 765:/home/user/Desktop/STM32-Projekte/FH-Vertibot/src/STM32F30x_StdPeriph_Driver/src/stm32f30x_rcc.c ****   * @note      If SYSCLK source is HSI, function returns constant HSI_VALUE(*)
 766:/home/user/Desktop/STM32-Projekte/FH-Vertibot/src/STM32F30x_StdPeriph_Driver/src/stm32f30x_rcc.c ****   *                                              
 767:/home/user/Desktop/STM32-Projekte/FH-Vertibot/src/STM32F30x_StdPeriph_Driver/src/stm32f30x_rcc.c ****   * @note      If SYSCLK source is HSE, function returns constant HSE_VALUE(**)
 768:/home/user/Desktop/STM32-Projekte/FH-Vertibot/src/STM32F30x_StdPeriph_Driver/src/stm32f30x_rcc.c ****   *                          
 769:/home/user/Desktop/STM32-Projekte/FH-Vertibot/src/STM32F30x_StdPeriph_Driver/src/stm32f30x_rcc.c ****   * @note      If SYSCLK source is PLL, function returns constant HSE_VALUE(**) 
 770:/home/user/Desktop/STM32-Projekte/FH-Vertibot/src/STM32F30x_StdPeriph_Driver/src/stm32f30x_rcc.c ****   *             or HSI_VALUE(*) multiplied by the PLL factors.
 771:/home/user/Desktop/STM32-Projekte/FH-Vertibot/src/STM32F30x_StdPeriph_Driver/src/stm32f30x_rcc.c ****   *         
 772:/home/user/Desktop/STM32-Projekte/FH-Vertibot/src/STM32F30x_StdPeriph_Driver/src/stm32f30x_rcc.c ****   * @note     (*) HSI_VALUE is a constant defined in stm32f30x.h file (default value
 773:/home/user/Desktop/STM32-Projekte/FH-Vertibot/src/STM32F30x_StdPeriph_Driver/src/stm32f30x_rcc.c ****   *               8 MHz) but the real value may vary depending on the variations
 774:/home/user/Desktop/STM32-Projekte/FH-Vertibot/src/STM32F30x_StdPeriph_Driver/src/stm32f30x_rcc.c ****   *               in voltage and temperature, refer to RCC_AdjustHSICalibrationValue().   
 775:/home/user/Desktop/STM32-Projekte/FH-Vertibot/src/STM32F30x_StdPeriph_Driver/src/stm32f30x_rcc.c ****   *    
 776:/home/user/Desktop/STM32-Projekte/FH-Vertibot/src/STM32F30x_StdPeriph_Driver/src/stm32f30x_rcc.c ****   * @note     (**) HSE_VALUE is a constant defined in stm32f30x.h file (default value
 777:/home/user/Desktop/STM32-Projekte/FH-Vertibot/src/STM32F30x_StdPeriph_Driver/src/stm32f30x_rcc.c ****   *                8 MHz), user has to ensure that HSE_VALUE is same as the real
 778:/home/user/Desktop/STM32-Projekte/FH-Vertibot/src/STM32F30x_StdPeriph_Driver/src/stm32f30x_rcc.c ****   *                frequency of the crystal used. Otherwise, this function may
 779:/home/user/Desktop/STM32-Projekte/FH-Vertibot/src/STM32F30x_StdPeriph_Driver/src/stm32f30x_rcc.c ****   *                return wrong result.
 780:/home/user/Desktop/STM32-Projekte/FH-Vertibot/src/STM32F30x_StdPeriph_Driver/src/stm32f30x_rcc.c ****   *                
 781:/home/user/Desktop/STM32-Projekte/FH-Vertibot/src/STM32F30x_StdPeriph_Driver/src/stm32f30x_rcc.c ****   * @note     The result of this function could be not correct when using fractional
 782:/home/user/Desktop/STM32-Projekte/FH-Vertibot/src/STM32F30x_StdPeriph_Driver/src/stm32f30x_rcc.c ****   *           value for HSE crystal.   
 783:/home/user/Desktop/STM32-Projekte/FH-Vertibot/src/STM32F30x_StdPeriph_Driver/src/stm32f30x_rcc.c ****   *             
 784:/home/user/Desktop/STM32-Projekte/FH-Vertibot/src/STM32F30x_StdPeriph_Driver/src/stm32f30x_rcc.c ****   * @param  RCC_Clocks: pointer to a RCC_ClocksTypeDef structure which will hold 
 785:/home/user/Desktop/STM32-Projekte/FH-Vertibot/src/STM32F30x_StdPeriph_Driver/src/stm32f30x_rcc.c ****   *         the clocks frequencies. 
 786:/home/user/Desktop/STM32-Projekte/FH-Vertibot/src/STM32F30x_StdPeriph_Driver/src/stm32f30x_rcc.c ****   *     
 787:/home/user/Desktop/STM32-Projekte/FH-Vertibot/src/STM32F30x_StdPeriph_Driver/src/stm32f30x_rcc.c ****   * @note     This function can be used by the user application to compute the 
 788:/home/user/Desktop/STM32-Projekte/FH-Vertibot/src/STM32F30x_StdPeriph_Driver/src/stm32f30x_rcc.c ****   *           baudrate for the communication peripherals or configure other parameters.
 789:/home/user/Desktop/STM32-Projekte/FH-Vertibot/src/STM32F30x_StdPeriph_Driver/src/stm32f30x_rcc.c ****   * @note     Each time SYSCLK, HCLK, PCLK1 and/or PCLK2 clock changes, this function
 790:/home/user/Desktop/STM32-Projekte/FH-Vertibot/src/STM32F30x_StdPeriph_Driver/src/stm32f30x_rcc.c ****   *           must be called to update the structure's field. Otherwise, any
 791:/home/user/Desktop/STM32-Projekte/FH-Vertibot/src/STM32F30x_StdPeriph_Driver/src/stm32f30x_rcc.c ****   *           configuration based on this function will be incorrect.
 792:/home/user/Desktop/STM32-Projekte/FH-Vertibot/src/STM32F30x_StdPeriph_Driver/src/stm32f30x_rcc.c ****   *    
 793:/home/user/Desktop/STM32-Projekte/FH-Vertibot/src/STM32F30x_StdPeriph_Driver/src/stm32f30x_rcc.c ****   * @retval None
 794:/home/user/Desktop/STM32-Projekte/FH-Vertibot/src/STM32F30x_StdPeriph_Driver/src/stm32f30x_rcc.c ****   */
 795:/home/user/Desktop/STM32-Projekte/FH-Vertibot/src/STM32F30x_StdPeriph_Driver/src/stm32f30x_rcc.c **** void RCC_GetClocksFreq(RCC_ClocksTypeDef* RCC_Clocks)
 796:/home/user/Desktop/STM32-Projekte/FH-Vertibot/src/STM32F30x_StdPeriph_Driver/src/stm32f30x_rcc.c **** {
 555              		.loc 1 796 0
 556              		.cfi_startproc
 557              		@ args = 0, pretend = 0, frame = 0
 558              		@ frame_needed = 0, uses_anonymous_args = 0
 559              	.LVL37:
 797:/home/user/Desktop/STM32-Projekte/FH-Vertibot/src/STM32F30x_StdPeriph_Driver/src/stm32f30x_rcc.c ****   uint32_t tmp = 0, pllmull = 0, pllsource = 0, prediv1factor = 0, presc = 0, pllclk = 0;
 798:/home/user/Desktop/STM32-Projekte/FH-Vertibot/src/STM32F30x_StdPeriph_Driver/src/stm32f30x_rcc.c ****   uint32_t apb2presc = 0, ahbpresc = 0;
 799:/home/user/Desktop/STM32-Projekte/FH-Vertibot/src/STM32F30x_StdPeriph_Driver/src/stm32f30x_rcc.c ****   
 800:/home/user/Desktop/STM32-Projekte/FH-Vertibot/src/STM32F30x_StdPeriph_Driver/src/stm32f30x_rcc.c ****   /* Get SYSCLK source -------------------------------------------------------*/
 801:/home/user/Desktop/STM32-Projekte/FH-Vertibot/src/STM32F30x_StdPeriph_Driver/src/stm32f30x_rcc.c ****   tmp = RCC->CFGR & RCC_CFGR_SWS;
 560              		.loc 1 801 0
 561 0178 944B     		ldr	r3, .L105
 562 017a 5A68     		ldr	r2, [r3, #4]
 563              	.LVL38:
 564 017c 02F00C02 		and	r2, r2, #12
 565              	.LVL39:
 802:/home/user/Desktop/STM32-Projekte/FH-Vertibot/src/STM32F30x_StdPeriph_Driver/src/stm32f30x_rcc.c ****   
 803:/home/user/Desktop/STM32-Projekte/FH-Vertibot/src/STM32F30x_StdPeriph_Driver/src/stm32f30x_rcc.c ****   switch (tmp)
 566              		.loc 1 803 0
 567 0180 042A     		cmp	r2, #4
 796:/home/user/Desktop/STM32-Projekte/FH-Vertibot/src/STM32F30x_StdPeriph_Driver/src/stm32f30x_rcc.c **** {
 568              		.loc 1 796 0
 569 0182 2DE9F043 		push	{r4, r5, r6, r7, r8, r9, lr}
 570              	.LCFI0:
 571              		.cfi_def_cfa_offset 28
 572              		.cfi_offset 4, -28
 573              		.cfi_offset 5, -24
 574              		.cfi_offset 6, -20
 575              		.cfi_offset 7, -16
 576              		.cfi_offset 8, -12
 577              		.cfi_offset 9, -8
 578              		.cfi_offset 14, -4
 579              		.loc 1 803 0
 580 0186 05D0     		beq	.L55
 581 0188 082A     		cmp	r2, #8
 582 018a 06D0     		beq	.L56
 583 018c 904B     		ldr	r3, .L105+4
 804:/home/user/Desktop/STM32-Projekte/FH-Vertibot/src/STM32F30x_StdPeriph_Driver/src/stm32f30x_rcc.c ****   {
 805:/home/user/Desktop/STM32-Projekte/FH-Vertibot/src/STM32F30x_StdPeriph_Driver/src/stm32f30x_rcc.c ****     case 0x00:  /* HSI used as system clock */
 806:/home/user/Desktop/STM32-Projekte/FH-Vertibot/src/STM32F30x_StdPeriph_Driver/src/stm32f30x_rcc.c ****       RCC_Clocks->SYSCLK_Frequency = HSI_VALUE;
 584              		.loc 1 806 0
 585 018e 0360     		str	r3, [r0, #0]
 803:/home/user/Desktop/STM32-Projekte/FH-Vertibot/src/STM32F30x_StdPeriph_Driver/src/stm32f30x_rcc.c ****   switch (tmp)
 586              		.loc 1 803 0
 587 0190 B2B9     		cbnz	r2, .L98
 807:/home/user/Desktop/STM32-Projekte/FH-Vertibot/src/STM32F30x_StdPeriph_Driver/src/stm32f30x_rcc.c ****       break;
 588              		.loc 1 807 0
 589 0192 16E0     		b	.L57
 590              	.L55:
 808:/home/user/Desktop/STM32-Projekte/FH-Vertibot/src/STM32F30x_StdPeriph_Driver/src/stm32f30x_rcc.c ****     case 0x04:  /* HSE used as system clock */
 809:/home/user/Desktop/STM32-Projekte/FH-Vertibot/src/STM32F30x_StdPeriph_Driver/src/stm32f30x_rcc.c ****       RCC_Clocks->SYSCLK_Frequency = HSE_VALUE;
 591              		.loc 1 809 0
 592 0194 8E4B     		ldr	r3, .L105+4
 593 0196 0360     		str	r3, [r0, #0]
 594 0198 12E0     		b	.L98
 595              	.L56:
 810:/home/user/Desktop/STM32-Projekte/FH-Vertibot/src/STM32F30x_StdPeriph_Driver/src/stm32f30x_rcc.c ****       break;
 811:/home/user/Desktop/STM32-Projekte/FH-Vertibot/src/STM32F30x_StdPeriph_Driver/src/stm32f30x_rcc.c ****     case 0x08:  /* PLL used as system clock */
 812:/home/user/Desktop/STM32-Projekte/FH-Vertibot/src/STM32F30x_StdPeriph_Driver/src/stm32f30x_rcc.c ****       /* Get PLL clock source and multiplication factor ----------------------*/
 813:/home/user/Desktop/STM32-Projekte/FH-Vertibot/src/STM32F30x_StdPeriph_Driver/src/stm32f30x_rcc.c ****       pllmull = RCC->CFGR & RCC_CFGR_PLLMULL;
 596              		.loc 1 813 0
 597 019a 5968     		ldr	r1, [r3, #4]
 598              	.LVL40:
 814:/home/user/Desktop/STM32-Projekte/FH-Vertibot/src/STM32F30x_StdPeriph_Driver/src/stm32f30x_rcc.c ****       pllsource = RCC->CFGR & RCC_CFGR_PLLSRC;
 599              		.loc 1 814 0
 600 019c 5C68     		ldr	r4, [r3, #4]
 601              	.LVL41:
 815:/home/user/Desktop/STM32-Projekte/FH-Vertibot/src/STM32F30x_StdPeriph_Driver/src/stm32f30x_rcc.c ****       pllmull = ( pllmull >> 18) + 2;
 602              		.loc 1 815 0
 603 019e C1F38341 		ubfx	r1, r1, #18, #4
 604              	.LVL42:
 605 01a2 0231     		adds	r1, r1, #2
 606              	.LVL43:
 816:/home/user/Desktop/STM32-Projekte/FH-Vertibot/src/STM32F30x_StdPeriph_Driver/src/stm32f30x_rcc.c ****       
 817:/home/user/Desktop/STM32-Projekte/FH-Vertibot/src/STM32F30x_StdPeriph_Driver/src/stm32f30x_rcc.c ****       if (pllsource == 0x00)
 607              		.loc 1 817 0
 608 01a4 E603     		lsls	r6, r4, #15
 609 01a6 01D4     		bmi	.L58
 818:/home/user/Desktop/STM32-Projekte/FH-Vertibot/src/STM32F30x_StdPeriph_Driver/src/stm32f30x_rcc.c ****       {
 819:/home/user/Desktop/STM32-Projekte/FH-Vertibot/src/STM32F30x_StdPeriph_Driver/src/stm32f30x_rcc.c ****         /* HSI oscillator clock divided by 2 selected as PLL clock entry */
 820:/home/user/Desktop/STM32-Projekte/FH-Vertibot/src/STM32F30x_StdPeriph_Driver/src/stm32f30x_rcc.c ****         pllclk = (HSI_VALUE >> 1) * pllmull;
 610              		.loc 1 820 0
 611 01a8 8A4A     		ldr	r2, .L105+8
 612              	.LVL44:
 613 01aa 06E0     		b	.L99
 614              	.LVL45:
 615              	.L58:
 821:/home/user/Desktop/STM32-Projekte/FH-Vertibot/src/STM32F30x_StdPeriph_Driver/src/stm32f30x_rcc.c ****       }
 822:/home/user/Desktop/STM32-Projekte/FH-Vertibot/src/STM32F30x_StdPeriph_Driver/src/stm32f30x_rcc.c ****       else
 823:/home/user/Desktop/STM32-Projekte/FH-Vertibot/src/STM32F30x_StdPeriph_Driver/src/stm32f30x_rcc.c ****       {
 824:/home/user/Desktop/STM32-Projekte/FH-Vertibot/src/STM32F30x_StdPeriph_Driver/src/stm32f30x_rcc.c ****         prediv1factor = (RCC->CFGR2 & RCC_CFGR2_PREDIV1) + 1;
 616              		.loc 1 824 0
 617 01ac DA6A     		ldr	r2, [r3, #44]
 618              	.LVL46:
 825:/home/user/Desktop/STM32-Projekte/FH-Vertibot/src/STM32F30x_StdPeriph_Driver/src/stm32f30x_rcc.c ****         /* HSE oscillator clock selected as PREDIV1 clock entry */
 826:/home/user/Desktop/STM32-Projekte/FH-Vertibot/src/STM32F30x_StdPeriph_Driver/src/stm32f30x_rcc.c ****         pllclk = (HSE_VALUE / prediv1factor) * pllmull; 
 619              		.loc 1 826 0
 620 01ae 884B     		ldr	r3, .L105+4
 824:/home/user/Desktop/STM32-Projekte/FH-Vertibot/src/STM32F30x_StdPeriph_Driver/src/stm32f30x_rcc.c ****         prediv1factor = (RCC->CFGR2 & RCC_CFGR2_PREDIV1) + 1;
 621              		.loc 1 824 0
 622 01b0 02F00F02 		and	r2, r2, #15
 623              	.LVL47:
 624 01b4 0132     		adds	r2, r2, #1
 625              	.LVL48:
 626              		.loc 1 826 0
 627 01b6 B3FBF2F2 		udiv	r2, r3, r2
 628              	.LVL49:
 629              	.L99:
 630 01ba 4A43     		muls	r2, r1, r2
 631              	.LVL50:
 827:/home/user/Desktop/STM32-Projekte/FH-Vertibot/src/STM32F30x_StdPeriph_Driver/src/stm32f30x_rcc.c ****       }
 828:/home/user/Desktop/STM32-Projekte/FH-Vertibot/src/STM32F30x_StdPeriph_Driver/src/stm32f30x_rcc.c ****       RCC_Clocks->SYSCLK_Frequency = pllclk;      
 632              		.loc 1 828 0
 633 01bc 0260     		str	r2, [r0, #0]
 829:/home/user/Desktop/STM32-Projekte/FH-Vertibot/src/STM32F30x_StdPeriph_Driver/src/stm32f30x_rcc.c ****       break;
 634              		.loc 1 829 0
 635 01be 00E0     		b	.L57
 636              	.LVL51:
 637              	.L98:
 797:/home/user/Desktop/STM32-Projekte/FH-Vertibot/src/STM32F30x_StdPeriph_Driver/src/stm32f30x_rcc.c ****   uint32_t tmp = 0, pllmull = 0, pllsource = 0, prediv1factor = 0, presc = 0, pllclk = 0;
 638              		.loc 1 797 0
 639 01c0 0022     		movs	r2, #0
 640              	.LVL52:
 641              	.L57:
 830:/home/user/Desktop/STM32-Projekte/FH-Vertibot/src/STM32F30x_StdPeriph_Driver/src/stm32f30x_rcc.c ****     default: /* HSI used as system clock */
 831:/home/user/Desktop/STM32-Projekte/FH-Vertibot/src/STM32F30x_StdPeriph_Driver/src/stm32f30x_rcc.c ****       RCC_Clocks->SYSCLK_Frequency = HSI_VALUE;
 832:/home/user/Desktop/STM32-Projekte/FH-Vertibot/src/STM32F30x_StdPeriph_Driver/src/stm32f30x_rcc.c ****       break;
 833:/home/user/Desktop/STM32-Projekte/FH-Vertibot/src/STM32F30x_StdPeriph_Driver/src/stm32f30x_rcc.c ****   }
 834:/home/user/Desktop/STM32-Projekte/FH-Vertibot/src/STM32F30x_StdPeriph_Driver/src/stm32f30x_rcc.c ****     /* Compute HCLK, PCLK clocks frequencies -----------------------------------*/
 835:/home/user/Desktop/STM32-Projekte/FH-Vertibot/src/STM32F30x_StdPeriph_Driver/src/stm32f30x_rcc.c ****   /* Get HCLK prescaler */
 836:/home/user/Desktop/STM32-Projekte/FH-Vertibot/src/STM32F30x_StdPeriph_Driver/src/stm32f30x_rcc.c ****   tmp = RCC->CFGR & RCC_CFGR_HPRE;
 642              		.loc 1 836 0
 643 01c2 824D     		ldr	r5, .L105
 837:/home/user/Desktop/STM32-Projekte/FH-Vertibot/src/STM32F30x_StdPeriph_Driver/src/stm32f30x_rcc.c ****   tmp = tmp >> 4;
 838:/home/user/Desktop/STM32-Projekte/FH-Vertibot/src/STM32F30x_StdPeriph_Driver/src/stm32f30x_rcc.c ****   ahbpresc = APBAHBPrescTable[tmp]; 
 644              		.loc 1 838 0
 645 01c4 844C     		ldr	r4, .L105+12
 836:/home/user/Desktop/STM32-Projekte/FH-Vertibot/src/STM32F30x_StdPeriph_Driver/src/stm32f30x_rcc.c ****   tmp = RCC->CFGR & RCC_CFGR_HPRE;
 646              		.loc 1 836 0
 647 01c6 6B68     		ldr	r3, [r5, #4]
 648              	.LVL53:
 837:/home/user/Desktop/STM32-Projekte/FH-Vertibot/src/STM32F30x_StdPeriph_Driver/src/stm32f30x_rcc.c ****   tmp = tmp >> 4;
 649              		.loc 1 837 0
 650 01c8 C3F30313 		ubfx	r3, r3, #4, #4
 651              	.LVL54:
 652              		.loc 1 838 0
 653 01cc E75C     		ldrb	r7, [r4, r3]	@ zero_extendqisi2
 654              	.LVL55:
 839:/home/user/Desktop/STM32-Projekte/FH-Vertibot/src/STM32F30x_StdPeriph_Driver/src/stm32f30x_rcc.c ****   /* HCLK clock frequency */
 840:/home/user/Desktop/STM32-Projekte/FH-Vertibot/src/STM32F30x_StdPeriph_Driver/src/stm32f30x_rcc.c ****   RCC_Clocks->HCLK_Frequency = RCC_Clocks->SYSCLK_Frequency >> ahbpresc;
 655              		.loc 1 840 0
 656 01ce 0368     		ldr	r3, [r0, #0]
 657              	.LVL56:
 658 01d0 23FA07F6 		lsr	r6, r3, r7
 659 01d4 4660     		str	r6, [r0, #4]
 841:/home/user/Desktop/STM32-Projekte/FH-Vertibot/src/STM32F30x_StdPeriph_Driver/src/stm32f30x_rcc.c **** 
 842:/home/user/Desktop/STM32-Projekte/FH-Vertibot/src/STM32F30x_StdPeriph_Driver/src/stm32f30x_rcc.c ****   /* Get PCLK1 prescaler */
 843:/home/user/Desktop/STM32-Projekte/FH-Vertibot/src/STM32F30x_StdPeriph_Driver/src/stm32f30x_rcc.c ****   tmp = RCC->CFGR & RCC_CFGR_PPRE1;
 660              		.loc 1 843 0
 661 01d6 6968     		ldr	r1, [r5, #4]
 662              	.LVL57:
 844:/home/user/Desktop/STM32-Projekte/FH-Vertibot/src/STM32F30x_StdPeriph_Driver/src/stm32f30x_rcc.c ****   tmp = tmp >> 8;
 663              		.loc 1 844 0
 664 01d8 C1F30221 		ubfx	r1, r1, #8, #3
 665              	.LVL58:
 845:/home/user/Desktop/STM32-Projekte/FH-Vertibot/src/STM32F30x_StdPeriph_Driver/src/stm32f30x_rcc.c ****   presc = APBAHBPrescTable[tmp];
 666              		.loc 1 845 0
 667 01dc 615C     		ldrb	r1, [r4, r1]	@ zero_extendqisi2
 668              	.LVL59:
 846:/home/user/Desktop/STM32-Projekte/FH-Vertibot/src/STM32F30x_StdPeriph_Driver/src/stm32f30x_rcc.c ****   /* PCLK1 clock frequency */
 847:/home/user/Desktop/STM32-Projekte/FH-Vertibot/src/STM32F30x_StdPeriph_Driver/src/stm32f30x_rcc.c ****   RCC_Clocks->PCLK1_Frequency = RCC_Clocks->HCLK_Frequency >> presc;
 669              		.loc 1 847 0
 670 01de 26FA01F1 		lsr	r1, r6, r1
 671              	.LVL60:
 672 01e2 8160     		str	r1, [r0, #8]
 848:/home/user/Desktop/STM32-Projekte/FH-Vertibot/src/STM32F30x_StdPeriph_Driver/src/stm32f30x_rcc.c ****   
 849:/home/user/Desktop/STM32-Projekte/FH-Vertibot/src/STM32F30x_StdPeriph_Driver/src/stm32f30x_rcc.c ****   /* Get PCLK2 prescaler */
 850:/home/user/Desktop/STM32-Projekte/FH-Vertibot/src/STM32F30x_StdPeriph_Driver/src/stm32f30x_rcc.c ****   tmp = RCC->CFGR & RCC_CFGR_PPRE2;
 673              		.loc 1 850 0
 674 01e4 D5F804C0 		ldr	ip, [r5, #4]
 675              	.LVL61:
 851:/home/user/Desktop/STM32-Projekte/FH-Vertibot/src/STM32F30x_StdPeriph_Driver/src/stm32f30x_rcc.c ****   tmp = tmp >> 11;
 676              		.loc 1 851 0
 677 01e8 CCF3C22C 		ubfx	ip, ip, #11, #3
 678              	.LVL62:
 852:/home/user/Desktop/STM32-Projekte/FH-Vertibot/src/STM32F30x_StdPeriph_Driver/src/stm32f30x_rcc.c ****   apb2presc = APBAHBPrescTable[tmp];
 679              		.loc 1 852 0
 680 01ec 14F80CC0 		ldrb	ip, [r4, ip]	@ zero_extendqisi2
 681              	.LVL63:
 853:/home/user/Desktop/STM32-Projekte/FH-Vertibot/src/STM32F30x_StdPeriph_Driver/src/stm32f30x_rcc.c ****   /* PCLK2 clock frequency */
 854:/home/user/Desktop/STM32-Projekte/FH-Vertibot/src/STM32F30x_StdPeriph_Driver/src/stm32f30x_rcc.c ****   RCC_Clocks->PCLK2_Frequency = RCC_Clocks->HCLK_Frequency >> apb2presc;
 682              		.loc 1 854 0
 683 01f0 26FA0CF6 		lsr	r6, r6, ip
 684 01f4 C660     		str	r6, [r0, #12]
 855:/home/user/Desktop/STM32-Projekte/FH-Vertibot/src/STM32F30x_StdPeriph_Driver/src/stm32f30x_rcc.c ****   
 856:/home/user/Desktop/STM32-Projekte/FH-Vertibot/src/STM32F30x_StdPeriph_Driver/src/stm32f30x_rcc.c ****   /* Get ADC12CLK prescaler */
 857:/home/user/Desktop/STM32-Projekte/FH-Vertibot/src/STM32F30x_StdPeriph_Driver/src/stm32f30x_rcc.c ****   tmp = RCC->CFGR2 & RCC_CFGR2_ADCPRE12;
 685              		.loc 1 857 0
 686 01f6 D5F82C80 		ldr	r8, [r5, #44]
 687              	.LVL64:
 858:/home/user/Desktop/STM32-Projekte/FH-Vertibot/src/STM32F30x_StdPeriph_Driver/src/stm32f30x_rcc.c ****   tmp = tmp >> 4;
 688              		.loc 1 858 0
 689 01fa C8F30418 		ubfx	r8, r8, #4, #5
 690              	.LVL65:
 859:/home/user/Desktop/STM32-Projekte/FH-Vertibot/src/STM32F30x_StdPeriph_Driver/src/stm32f30x_rcc.c ****   presc = ADCPrescTable[tmp];
 691              		.loc 1 859 0
 692 01fe 04EB4808 		add	r8, r4, r8, lsl #1
 693              	.LVL66:
 694 0202 B8F81080 		ldrh	r8, [r8, #16]
 695 0206 1FFA88F8 		uxth	r8, r8
 696              	.LVL67:
 860:/home/user/Desktop/STM32-Projekte/FH-Vertibot/src/STM32F30x_StdPeriph_Driver/src/stm32f30x_rcc.c ****   if ((presc & 0x10) != 0)
 697              		.loc 1 860 0
 698 020a 08F01009 		and	r9, r8, #16
 699 020e 1FFA89F9 		uxth	r9, r9
 700 0212 B9F1000F 		cmp	r9, #0
 701 0216 04D0     		beq	.L60
 861:/home/user/Desktop/STM32-Projekte/FH-Vertibot/src/STM32F30x_StdPeriph_Driver/src/stm32f30x_rcc.c ****   {
 862:/home/user/Desktop/STM32-Projekte/FH-Vertibot/src/STM32F30x_StdPeriph_Driver/src/stm32f30x_rcc.c ****      /* ADC12CLK clock frequency is derived from PLL clock */
 863:/home/user/Desktop/STM32-Projekte/FH-Vertibot/src/STM32F30x_StdPeriph_Driver/src/stm32f30x_rcc.c ****      RCC_Clocks->ADC12CLK_Frequency = pllclk / presc;
 702              		.loc 1 863 0
 703 0218 B2FBF8F8 		udiv	r8, r2, r8
 704              	.LVL68:
 705 021c C0F81080 		str	r8, [r0, #16]
 706 0220 00E0     		b	.L61
 707              	.LVL69:
 708              	.L60:
 864:/home/user/Desktop/STM32-Projekte/FH-Vertibot/src/STM32F30x_StdPeriph_Driver/src/stm32f30x_rcc.c ****   }
 865:/home/user/Desktop/STM32-Projekte/FH-Vertibot/src/STM32F30x_StdPeriph_Driver/src/stm32f30x_rcc.c ****   else
 866:/home/user/Desktop/STM32-Projekte/FH-Vertibot/src/STM32F30x_StdPeriph_Driver/src/stm32f30x_rcc.c ****   {
 867:/home/user/Desktop/STM32-Projekte/FH-Vertibot/src/STM32F30x_StdPeriph_Driver/src/stm32f30x_rcc.c ****    /* ADC12CLK clock frequency is AHB clock */
 868:/home/user/Desktop/STM32-Projekte/FH-Vertibot/src/STM32F30x_StdPeriph_Driver/src/stm32f30x_rcc.c ****      RCC_Clocks->ADC12CLK_Frequency = RCC_Clocks->SYSCLK_Frequency;
 709              		.loc 1 868 0
 710 0222 0361     		str	r3, [r0, #16]
 711              	.LVL70:
 712              	.L61:
 869:/home/user/Desktop/STM32-Projekte/FH-Vertibot/src/STM32F30x_StdPeriph_Driver/src/stm32f30x_rcc.c ****   }
 870:/home/user/Desktop/STM32-Projekte/FH-Vertibot/src/STM32F30x_StdPeriph_Driver/src/stm32f30x_rcc.c ****   
 871:/home/user/Desktop/STM32-Projekte/FH-Vertibot/src/STM32F30x_StdPeriph_Driver/src/stm32f30x_rcc.c ****   /* Get ADC34CLK prescaler */
 872:/home/user/Desktop/STM32-Projekte/FH-Vertibot/src/STM32F30x_StdPeriph_Driver/src/stm32f30x_rcc.c ****   tmp = RCC->CFGR2 & RCC_CFGR2_ADCPRE34;
 713              		.loc 1 872 0
 714 0224 ED6A     		ldr	r5, [r5, #44]
 715              	.LVL71:
 873:/home/user/Desktop/STM32-Projekte/FH-Vertibot/src/STM32F30x_StdPeriph_Driver/src/stm32f30x_rcc.c ****   tmp = tmp >> 9;
 716              		.loc 1 873 0
 717 0226 C5F34425 		ubfx	r5, r5, #9, #5
 718              	.LVL72:
 874:/home/user/Desktop/STM32-Projekte/FH-Vertibot/src/STM32F30x_StdPeriph_Driver/src/stm32f30x_rcc.c ****   presc = ADCPrescTable[tmp];
 719              		.loc 1 874 0
 720 022a 04EB4504 		add	r4, r4, r5, lsl #1
 721 022e 248A     		ldrh	r4, [r4, #16]
 722 0230 A4B2     		uxth	r4, r4
 723              	.LVL73:
 875:/home/user/Desktop/STM32-Projekte/FH-Vertibot/src/STM32F30x_StdPeriph_Driver/src/stm32f30x_rcc.c ****   if ((presc & 0x10) != 0)
 724              		.loc 1 875 0
 725 0232 04F01005 		and	r5, r4, #16
 726              	.LVL74:
 727 0236 ADB2     		uxth	r5, r5
 728 0238 1DB1     		cbz	r5, .L62
 876:/home/user/Desktop/STM32-Projekte/FH-Vertibot/src/STM32F30x_StdPeriph_Driver/src/stm32f30x_rcc.c ****   {
 877:/home/user/Desktop/STM32-Projekte/FH-Vertibot/src/STM32F30x_StdPeriph_Driver/src/stm32f30x_rcc.c ****      /* ADC34CLK clock frequency is derived from PLL clock */
 878:/home/user/Desktop/STM32-Projekte/FH-Vertibot/src/STM32F30x_StdPeriph_Driver/src/stm32f30x_rcc.c ****      RCC_Clocks->ADC34CLK_Frequency = pllclk / presc;
 729              		.loc 1 878 0
 730 023a B2FBF4F4 		udiv	r4, r2, r4
 731              	.LVL75:
 732 023e 4461     		str	r4, [r0, #20]
 733 0240 00E0     		b	.L63
 734              	.LVL76:
 735              	.L62:
 879:/home/user/Desktop/STM32-Projekte/FH-Vertibot/src/STM32F30x_StdPeriph_Driver/src/stm32f30x_rcc.c ****   }
 880:/home/user/Desktop/STM32-Projekte/FH-Vertibot/src/STM32F30x_StdPeriph_Driver/src/stm32f30x_rcc.c ****   else
 881:/home/user/Desktop/STM32-Projekte/FH-Vertibot/src/STM32F30x_StdPeriph_Driver/src/stm32f30x_rcc.c ****   {
 882:/home/user/Desktop/STM32-Projekte/FH-Vertibot/src/STM32F30x_StdPeriph_Driver/src/stm32f30x_rcc.c ****    /* ADC34CLK clock frequency is AHB clock */
 883:/home/user/Desktop/STM32-Projekte/FH-Vertibot/src/STM32F30x_StdPeriph_Driver/src/stm32f30x_rcc.c ****      RCC_Clocks->ADC34CLK_Frequency = RCC_Clocks->SYSCLK_Frequency;
 736              		.loc 1 883 0
 737 0242 4361     		str	r3, [r0, #20]
 738              	.LVL77:
 739              	.L63:
 884:/home/user/Desktop/STM32-Projekte/FH-Vertibot/src/STM32F30x_StdPeriph_Driver/src/stm32f30x_rcc.c ****   }
 885:/home/user/Desktop/STM32-Projekte/FH-Vertibot/src/STM32F30x_StdPeriph_Driver/src/stm32f30x_rcc.c **** 
 886:/home/user/Desktop/STM32-Projekte/FH-Vertibot/src/STM32F30x_StdPeriph_Driver/src/stm32f30x_rcc.c ****   /* I2C1CLK clock frequency */
 887:/home/user/Desktop/STM32-Projekte/FH-Vertibot/src/STM32F30x_StdPeriph_Driver/src/stm32f30x_rcc.c ****   if((RCC->CFGR3 & RCC_CFGR3_I2C1SW) != RCC_CFGR3_I2C1SW)
 740              		.loc 1 887 0
 741 0244 614C     		ldr	r4, .L105
 742 0246 256B     		ldr	r5, [r4, #48]
 743 0248 ED06     		lsls	r5, r5, #27
 888:/home/user/Desktop/STM32-Projekte/FH-Vertibot/src/STM32F30x_StdPeriph_Driver/src/stm32f30x_rcc.c ****   {
 889:/home/user/Desktop/STM32-Projekte/FH-Vertibot/src/STM32F30x_StdPeriph_Driver/src/stm32f30x_rcc.c ****     /* I2C1 Clock is HSI Osc. */
 890:/home/user/Desktop/STM32-Projekte/FH-Vertibot/src/STM32F30x_StdPeriph_Driver/src/stm32f30x_rcc.c ****     RCC_Clocks->I2C1CLK_Frequency = HSI_VALUE;
 744              		.loc 1 890 0
 745 024a 56BF     		itet	pl
 746 024c 604D     		ldrpl	r5, .L105+4
 891:/home/user/Desktop/STM32-Projekte/FH-Vertibot/src/STM32F30x_StdPeriph_Driver/src/stm32f30x_rcc.c ****   }
 892:/home/user/Desktop/STM32-Projekte/FH-Vertibot/src/STM32F30x_StdPeriph_Driver/src/stm32f30x_rcc.c ****   else
 893:/home/user/Desktop/STM32-Projekte/FH-Vertibot/src/STM32F30x_StdPeriph_Driver/src/stm32f30x_rcc.c ****   {
 894:/home/user/Desktop/STM32-Projekte/FH-Vertibot/src/STM32F30x_StdPeriph_Driver/src/stm32f30x_rcc.c ****     /* I2C1 Clock is System Clock */
 895:/home/user/Desktop/STM32-Projekte/FH-Vertibot/src/STM32F30x_StdPeriph_Driver/src/stm32f30x_rcc.c ****     RCC_Clocks->I2C1CLK_Frequency = RCC_Clocks->SYSCLK_Frequency;
 747              		.loc 1 895 0
 748 024e 8361     		strmi	r3, [r0, #24]
 890:/home/user/Desktop/STM32-Projekte/FH-Vertibot/src/STM32F30x_StdPeriph_Driver/src/stm32f30x_rcc.c ****     RCC_Clocks->I2C1CLK_Frequency = HSI_VALUE;
 749              		.loc 1 890 0
 750 0250 8561     		strpl	r5, [r0, #24]
 896:/home/user/Desktop/STM32-Projekte/FH-Vertibot/src/STM32F30x_StdPeriph_Driver/src/stm32f30x_rcc.c ****   }
 897:/home/user/Desktop/STM32-Projekte/FH-Vertibot/src/STM32F30x_StdPeriph_Driver/src/stm32f30x_rcc.c **** 
 898:/home/user/Desktop/STM32-Projekte/FH-Vertibot/src/STM32F30x_StdPeriph_Driver/src/stm32f30x_rcc.c ****   /* I2C2CLK clock frequency */
 899:/home/user/Desktop/STM32-Projekte/FH-Vertibot/src/STM32F30x_StdPeriph_Driver/src/stm32f30x_rcc.c ****   if((RCC->CFGR3 & RCC_CFGR3_I2C2SW) != RCC_CFGR3_I2C2SW)
 751              		.loc 1 899 0
 752 0252 246B     		ldr	r4, [r4, #48]
 753 0254 A406     		lsls	r4, r4, #26
 900:/home/user/Desktop/STM32-Projekte/FH-Vertibot/src/STM32F30x_StdPeriph_Driver/src/stm32f30x_rcc.c ****   {
 901:/home/user/Desktop/STM32-Projekte/FH-Vertibot/src/STM32F30x_StdPeriph_Driver/src/stm32f30x_rcc.c ****     /* I2C2 Clock is HSI Osc. */
 902:/home/user/Desktop/STM32-Projekte/FH-Vertibot/src/STM32F30x_StdPeriph_Driver/src/stm32f30x_rcc.c ****     RCC_Clocks->I2C2CLK_Frequency = HSI_VALUE;
 754              		.loc 1 902 0
 755 0256 56BF     		itet	pl
 756 0258 5D4C     		ldrpl	r4, .L105+4
 903:/home/user/Desktop/STM32-Projekte/FH-Vertibot/src/STM32F30x_StdPeriph_Driver/src/stm32f30x_rcc.c ****   }
 904:/home/user/Desktop/STM32-Projekte/FH-Vertibot/src/STM32F30x_StdPeriph_Driver/src/stm32f30x_rcc.c ****   else
 905:/home/user/Desktop/STM32-Projekte/FH-Vertibot/src/STM32F30x_StdPeriph_Driver/src/stm32f30x_rcc.c ****   {
 906:/home/user/Desktop/STM32-Projekte/FH-Vertibot/src/STM32F30x_StdPeriph_Driver/src/stm32f30x_rcc.c ****     /* I2C2 Clock is System Clock */
 907:/home/user/Desktop/STM32-Projekte/FH-Vertibot/src/STM32F30x_StdPeriph_Driver/src/stm32f30x_rcc.c ****     RCC_Clocks->I2C2CLK_Frequency = RCC_Clocks->SYSCLK_Frequency;
 757              		.loc 1 907 0
 758 025a C361     		strmi	r3, [r0, #28]
 902:/home/user/Desktop/STM32-Projekte/FH-Vertibot/src/STM32F30x_StdPeriph_Driver/src/stm32f30x_rcc.c ****     RCC_Clocks->I2C2CLK_Frequency = HSI_VALUE;
 759              		.loc 1 902 0
 760 025c C461     		strpl	r4, [r0, #28]
 908:/home/user/Desktop/STM32-Projekte/FH-Vertibot/src/STM32F30x_StdPeriph_Driver/src/stm32f30x_rcc.c ****   }
 909:/home/user/Desktop/STM32-Projekte/FH-Vertibot/src/STM32F30x_StdPeriph_Driver/src/stm32f30x_rcc.c ****   
 910:/home/user/Desktop/STM32-Projekte/FH-Vertibot/src/STM32F30x_StdPeriph_Driver/src/stm32f30x_rcc.c ****     /* TIM1CLK clock frequency */
 911:/home/user/Desktop/STM32-Projekte/FH-Vertibot/src/STM32F30x_StdPeriph_Driver/src/stm32f30x_rcc.c ****   if(((RCC->CFGR3 & RCC_CFGR3_TIM1SW) == RCC_CFGR3_TIM1SW)&& (RCC_Clocks->SYSCLK_Frequency == pllcl
 761              		.loc 1 911 0
 762 025e 5B4C     		ldr	r4, .L105
 763 0260 256B     		ldr	r5, [r4, #48]
 764 0262 15F4807F 		tst	r5, #256
 765 0266 06D0     		beq	.L68
 766              		.loc 1 911 0 is_stmt 0 discriminator 1
 767 0268 9342     		cmp	r3, r2
 768 026a 04D1     		bne	.L68
 912:/home/user/Desktop/STM32-Projekte/FH-Vertibot/src/STM32F30x_StdPeriph_Driver/src/stm32f30x_rcc.c ****   && (apb2presc == ahbpresc)) 
 769              		.loc 1 912 0 is_stmt 1
 770 026c BC45     		cmp	ip, r7
 771 026e 02D1     		bne	.L68
 913:/home/user/Desktop/STM32-Projekte/FH-Vertibot/src/STM32F30x_StdPeriph_Driver/src/stm32f30x_rcc.c ****   {
 914:/home/user/Desktop/STM32-Projekte/FH-Vertibot/src/STM32F30x_StdPeriph_Driver/src/stm32f30x_rcc.c ****     /* TIM1 Clock is 2 * pllclk */
 915:/home/user/Desktop/STM32-Projekte/FH-Vertibot/src/STM32F30x_StdPeriph_Driver/src/stm32f30x_rcc.c ****     RCC_Clocks->TIM1CLK_Frequency = pllclk * 2;
 772              		.loc 1 915 0
 773 0270 5D00     		lsls	r5, r3, #1
 774 0272 0562     		str	r5, [r0, #32]
 775 0274 00E0     		b	.L69
 776              	.L68:
 916:/home/user/Desktop/STM32-Projekte/FH-Vertibot/src/STM32F30x_StdPeriph_Driver/src/stm32f30x_rcc.c ****   }
 917:/home/user/Desktop/STM32-Projekte/FH-Vertibot/src/STM32F30x_StdPeriph_Driver/src/stm32f30x_rcc.c ****   else
 918:/home/user/Desktop/STM32-Projekte/FH-Vertibot/src/STM32F30x_StdPeriph_Driver/src/stm32f30x_rcc.c ****   {
 919:/home/user/Desktop/STM32-Projekte/FH-Vertibot/src/STM32F30x_StdPeriph_Driver/src/stm32f30x_rcc.c ****     /* TIM1 Clock is APB2 clock. */
 920:/home/user/Desktop/STM32-Projekte/FH-Vertibot/src/STM32F30x_StdPeriph_Driver/src/stm32f30x_rcc.c ****     RCC_Clocks->TIM1CLK_Frequency = RCC_Clocks->PCLK2_Frequency;
 777              		.loc 1 920 0
 778 0276 0662     		str	r6, [r0, #32]
 779              	.L69:
 921:/home/user/Desktop/STM32-Projekte/FH-Vertibot/src/STM32F30x_StdPeriph_Driver/src/stm32f30x_rcc.c ****   }
 922:/home/user/Desktop/STM32-Projekte/FH-Vertibot/src/STM32F30x_StdPeriph_Driver/src/stm32f30x_rcc.c **** 
 923:/home/user/Desktop/STM32-Projekte/FH-Vertibot/src/STM32F30x_StdPeriph_Driver/src/stm32f30x_rcc.c ****     /* TIM8CLK clock frequency */
 924:/home/user/Desktop/STM32-Projekte/FH-Vertibot/src/STM32F30x_StdPeriph_Driver/src/stm32f30x_rcc.c ****   if(((RCC->CFGR3 & RCC_CFGR3_TIM8SW) == RCC_CFGR3_TIM8SW)&& (RCC_Clocks->SYSCLK_Frequency == pllcl
 780              		.loc 1 924 0
 781 0278 246B     		ldr	r4, [r4, #48]
 782 027a A405     		lsls	r4, r4, #22
 783 027c 06D5     		bpl	.L70
 784              		.loc 1 924 0 is_stmt 0 discriminator 1
 785 027e 9342     		cmp	r3, r2
 786 0280 04D1     		bne	.L70
 925:/home/user/Desktop/STM32-Projekte/FH-Vertibot/src/STM32F30x_StdPeriph_Driver/src/stm32f30x_rcc.c ****   && (apb2presc == ahbpresc))
 787              		.loc 1 925 0 is_stmt 1
 788 0282 BC45     		cmp	ip, r7
 789 0284 02D1     		bne	.L70
 926:/home/user/Desktop/STM32-Projekte/FH-Vertibot/src/STM32F30x_StdPeriph_Driver/src/stm32f30x_rcc.c ****   {
 927:/home/user/Desktop/STM32-Projekte/FH-Vertibot/src/STM32F30x_StdPeriph_Driver/src/stm32f30x_rcc.c ****     /* TIM8 Clock is 2 * pllclk */
 928:/home/user/Desktop/STM32-Projekte/FH-Vertibot/src/STM32F30x_StdPeriph_Driver/src/stm32f30x_rcc.c ****     RCC_Clocks->TIM8CLK_Frequency = pllclk * 2;
 790              		.loc 1 928 0
 791 0286 5A00     		lsls	r2, r3, #1
 792              	.LVL78:
 793 0288 4262     		str	r2, [r0, #36]
 794 028a 00E0     		b	.L71
 795              	.LVL79:
 796              	.L70:
 929:/home/user/Desktop/STM32-Projekte/FH-Vertibot/src/STM32F30x_StdPeriph_Driver/src/stm32f30x_rcc.c ****   }
 930:/home/user/Desktop/STM32-Projekte/FH-Vertibot/src/STM32F30x_StdPeriph_Driver/src/stm32f30x_rcc.c ****   else
 931:/home/user/Desktop/STM32-Projekte/FH-Vertibot/src/STM32F30x_StdPeriph_Driver/src/stm32f30x_rcc.c ****   {
 932:/home/user/Desktop/STM32-Projekte/FH-Vertibot/src/STM32F30x_StdPeriph_Driver/src/stm32f30x_rcc.c ****     /* TIM8 Clock is APB2 clock. */
 933:/home/user/Desktop/STM32-Projekte/FH-Vertibot/src/STM32F30x_StdPeriph_Driver/src/stm32f30x_rcc.c ****     RCC_Clocks->TIM8CLK_Frequency = RCC_Clocks->PCLK2_Frequency;
 797              		.loc 1 933 0
 798 028c 4662     		str	r6, [r0, #36]
 799              	.LVL80:
 800              	.L71:
 934:/home/user/Desktop/STM32-Projekte/FH-Vertibot/src/STM32F30x_StdPeriph_Driver/src/stm32f30x_rcc.c ****   }
 935:/home/user/Desktop/STM32-Projekte/FH-Vertibot/src/STM32F30x_StdPeriph_Driver/src/stm32f30x_rcc.c ****   
 936:/home/user/Desktop/STM32-Projekte/FH-Vertibot/src/STM32F30x_StdPeriph_Driver/src/stm32f30x_rcc.c ****   /* USART1CLK clock frequency */
 937:/home/user/Desktop/STM32-Projekte/FH-Vertibot/src/STM32F30x_StdPeriph_Driver/src/stm32f30x_rcc.c ****   if((RCC->CFGR3 & RCC_CFGR3_USART1SW) == 0x0)
 801              		.loc 1 937 0
 802 028e 4F4A     		ldr	r2, .L105
 803 0290 146B     		ldr	r4, [r2, #48]
 804 0292 A407     		lsls	r4, r4, #30
 805 0294 01D1     		bne	.L72
 938:/home/user/Desktop/STM32-Projekte/FH-Vertibot/src/STM32F30x_StdPeriph_Driver/src/stm32f30x_rcc.c ****   {
 939:/home/user/Desktop/STM32-Projekte/FH-Vertibot/src/STM32F30x_StdPeriph_Driver/src/stm32f30x_rcc.c ****     /* USART Clock is PCLK */
 940:/home/user/Desktop/STM32-Projekte/FH-Vertibot/src/STM32F30x_StdPeriph_Driver/src/stm32f30x_rcc.c ****     RCC_Clocks->USART1CLK_Frequency = RCC_Clocks->PCLK2_Frequency;
 806              		.loc 1 940 0
 807 0296 8662     		str	r6, [r0, #40]
 808 0298 15E0     		b	.L73
 809              	.L72:
 941:/home/user/Desktop/STM32-Projekte/FH-Vertibot/src/STM32F30x_StdPeriph_Driver/src/stm32f30x_rcc.c ****   }
 942:/home/user/Desktop/STM32-Projekte/FH-Vertibot/src/STM32F30x_StdPeriph_Driver/src/stm32f30x_rcc.c ****   else if((RCC->CFGR3 & RCC_CFGR3_USART1SW) == RCC_CFGR3_USART1SW_0)
 810              		.loc 1 942 0
 811 029a 146B     		ldr	r4, [r2, #48]
 812 029c 04F00304 		and	r4, r4, #3
 813 02a0 012C     		cmp	r4, #1
 814 02a2 01D1     		bne	.L74
 943:/home/user/Desktop/STM32-Projekte/FH-Vertibot/src/STM32F30x_StdPeriph_Driver/src/stm32f30x_rcc.c ****   {
 944:/home/user/Desktop/STM32-Projekte/FH-Vertibot/src/STM32F30x_StdPeriph_Driver/src/stm32f30x_rcc.c ****     /* USART Clock is System Clock */
 945:/home/user/Desktop/STM32-Projekte/FH-Vertibot/src/STM32F30x_StdPeriph_Driver/src/stm32f30x_rcc.c ****     RCC_Clocks->USART1CLK_Frequency = RCC_Clocks->SYSCLK_Frequency;
 815              		.loc 1 945 0
 816 02a4 8362     		str	r3, [r0, #40]
 817 02a6 0EE0     		b	.L73
 818              	.L74:
 946:/home/user/Desktop/STM32-Projekte/FH-Vertibot/src/STM32F30x_StdPeriph_Driver/src/stm32f30x_rcc.c ****   }
 947:/home/user/Desktop/STM32-Projekte/FH-Vertibot/src/STM32F30x_StdPeriph_Driver/src/stm32f30x_rcc.c ****   else if((RCC->CFGR3 & RCC_CFGR3_USART1SW) == RCC_CFGR3_USART1SW_1)
 819              		.loc 1 947 0
 820 02a8 146B     		ldr	r4, [r2, #48]
 821 02aa 04F00304 		and	r4, r4, #3
 822 02ae 022C     		cmp	r4, #2
 823 02b0 02D1     		bne	.L75
 948:/home/user/Desktop/STM32-Projekte/FH-Vertibot/src/STM32F30x_StdPeriph_Driver/src/stm32f30x_rcc.c ****   {
 949:/home/user/Desktop/STM32-Projekte/FH-Vertibot/src/STM32F30x_StdPeriph_Driver/src/stm32f30x_rcc.c ****     /* USART Clock is LSE Osc. */
 950:/home/user/Desktop/STM32-Projekte/FH-Vertibot/src/STM32F30x_StdPeriph_Driver/src/stm32f30x_rcc.c ****     RCC_Clocks->USART1CLK_Frequency = LSE_VALUE;
 824              		.loc 1 950 0
 825 02b2 4FF40044 		mov	r4, #32768
 826 02b6 05E0     		b	.L100
 827              	.L75:
 951:/home/user/Desktop/STM32-Projekte/FH-Vertibot/src/STM32F30x_StdPeriph_Driver/src/stm32f30x_rcc.c ****   }
 952:/home/user/Desktop/STM32-Projekte/FH-Vertibot/src/STM32F30x_StdPeriph_Driver/src/stm32f30x_rcc.c ****   else if((RCC->CFGR3 & RCC_CFGR3_USART1SW) == RCC_CFGR3_USART1SW)
 828              		.loc 1 952 0
 829 02b8 146B     		ldr	r4, [r2, #48]
 830 02ba 04F00304 		and	r4, r4, #3
 831 02be 032C     		cmp	r4, #3
 832 02c0 01D1     		bne	.L73
 953:/home/user/Desktop/STM32-Projekte/FH-Vertibot/src/STM32F30x_StdPeriph_Driver/src/stm32f30x_rcc.c ****   {
 954:/home/user/Desktop/STM32-Projekte/FH-Vertibot/src/STM32F30x_StdPeriph_Driver/src/stm32f30x_rcc.c ****     /* USART Clock is HSI Osc. */
 955:/home/user/Desktop/STM32-Projekte/FH-Vertibot/src/STM32F30x_StdPeriph_Driver/src/stm32f30x_rcc.c ****     RCC_Clocks->USART1CLK_Frequency = HSI_VALUE;
 833              		.loc 1 955 0
 834 02c2 434C     		ldr	r4, .L105+4
 835              	.L100:
 836 02c4 8462     		str	r4, [r0, #40]
 837              	.L73:
 956:/home/user/Desktop/STM32-Projekte/FH-Vertibot/src/STM32F30x_StdPeriph_Driver/src/stm32f30x_rcc.c ****   }
 957:/home/user/Desktop/STM32-Projekte/FH-Vertibot/src/STM32F30x_StdPeriph_Driver/src/stm32f30x_rcc.c **** 
 958:/home/user/Desktop/STM32-Projekte/FH-Vertibot/src/STM32F30x_StdPeriph_Driver/src/stm32f30x_rcc.c ****   /* USART2CLK clock frequency */
 959:/home/user/Desktop/STM32-Projekte/FH-Vertibot/src/STM32F30x_StdPeriph_Driver/src/stm32f30x_rcc.c ****   if((RCC->CFGR3 & RCC_CFGR3_USART2SW) == 0x0)
 838              		.loc 1 959 0
 839 02c6 126B     		ldr	r2, [r2, #48]
 840 02c8 404C     		ldr	r4, .L105
 841 02ca 12F4403F 		tst	r2, #196608
 842 02ce 01D1     		bne	.L76
 960:/home/user/Desktop/STM32-Projekte/FH-Vertibot/src/STM32F30x_StdPeriph_Driver/src/stm32f30x_rcc.c ****   {
 961:/home/user/Desktop/STM32-Projekte/FH-Vertibot/src/STM32F30x_StdPeriph_Driver/src/stm32f30x_rcc.c ****     /* USART Clock is PCLK */
 962:/home/user/Desktop/STM32-Projekte/FH-Vertibot/src/STM32F30x_StdPeriph_Driver/src/stm32f30x_rcc.c ****     RCC_Clocks->USART2CLK_Frequency = RCC_Clocks->PCLK1_Frequency;
 843              		.loc 1 962 0
 844 02d0 C162     		str	r1, [r0, #44]
 845 02d2 18E0     		b	.L77
 846              	.L76:
 963:/home/user/Desktop/STM32-Projekte/FH-Vertibot/src/STM32F30x_StdPeriph_Driver/src/stm32f30x_rcc.c ****   }
 964:/home/user/Desktop/STM32-Projekte/FH-Vertibot/src/STM32F30x_StdPeriph_Driver/src/stm32f30x_rcc.c ****   else if((RCC->CFGR3 & RCC_CFGR3_USART2SW) == RCC_CFGR3_USART2SW_0)
 847              		.loc 1 964 0
 848 02d4 226B     		ldr	r2, [r4, #48]
 849 02d6 02F44032 		and	r2, r2, #196608
 850 02da B2F5803F 		cmp	r2, #65536
 851 02de 01D1     		bne	.L78
 965:/home/user/Desktop/STM32-Projekte/FH-Vertibot/src/STM32F30x_StdPeriph_Driver/src/stm32f30x_rcc.c ****   {
 966:/home/user/Desktop/STM32-Projekte/FH-Vertibot/src/STM32F30x_StdPeriph_Driver/src/stm32f30x_rcc.c ****     /* USART Clock is System Clock */
 967:/home/user/Desktop/STM32-Projekte/FH-Vertibot/src/STM32F30x_StdPeriph_Driver/src/stm32f30x_rcc.c ****     RCC_Clocks->USART2CLK_Frequency = RCC_Clocks->SYSCLK_Frequency;
 852              		.loc 1 967 0
 853 02e0 C362     		str	r3, [r0, #44]
 854 02e2 10E0     		b	.L77
 855              	.L78:
 968:/home/user/Desktop/STM32-Projekte/FH-Vertibot/src/STM32F30x_StdPeriph_Driver/src/stm32f30x_rcc.c ****   }
 969:/home/user/Desktop/STM32-Projekte/FH-Vertibot/src/STM32F30x_StdPeriph_Driver/src/stm32f30x_rcc.c ****   else if((RCC->CFGR3 & RCC_CFGR3_USART2SW) == RCC_CFGR3_USART2SW_1)
 856              		.loc 1 969 0
 857 02e4 226B     		ldr	r2, [r4, #48]
 858 02e6 02F44032 		and	r2, r2, #196608
 859 02ea B2F5003F 		cmp	r2, #131072
 860 02ee 02D1     		bne	.L79
 970:/home/user/Desktop/STM32-Projekte/FH-Vertibot/src/STM32F30x_StdPeriph_Driver/src/stm32f30x_rcc.c ****   {
 971:/home/user/Desktop/STM32-Projekte/FH-Vertibot/src/STM32F30x_StdPeriph_Driver/src/stm32f30x_rcc.c ****     /* USART Clock is LSE Osc. */
 972:/home/user/Desktop/STM32-Projekte/FH-Vertibot/src/STM32F30x_StdPeriph_Driver/src/stm32f30x_rcc.c ****     RCC_Clocks->USART2CLK_Frequency = LSE_VALUE;
 861              		.loc 1 972 0
 862 02f0 4FF40042 		mov	r2, #32768
 863 02f4 06E0     		b	.L101
 864              	.L79:
 973:/home/user/Desktop/STM32-Projekte/FH-Vertibot/src/STM32F30x_StdPeriph_Driver/src/stm32f30x_rcc.c ****   }
 974:/home/user/Desktop/STM32-Projekte/FH-Vertibot/src/STM32F30x_StdPeriph_Driver/src/stm32f30x_rcc.c ****   else if((RCC->CFGR3 & RCC_CFGR3_USART2SW) == RCC_CFGR3_USART2SW)
 865              		.loc 1 974 0
 866 02f6 226B     		ldr	r2, [r4, #48]
 867 02f8 02F44032 		and	r2, r2, #196608
 868 02fc B2F5403F 		cmp	r2, #196608
 869 0300 01D1     		bne	.L77
 975:/home/user/Desktop/STM32-Projekte/FH-Vertibot/src/STM32F30x_StdPeriph_Driver/src/stm32f30x_rcc.c ****   {
 976:/home/user/Desktop/STM32-Projekte/FH-Vertibot/src/STM32F30x_StdPeriph_Driver/src/stm32f30x_rcc.c ****     /* USART Clock is HSI Osc. */
 977:/home/user/Desktop/STM32-Projekte/FH-Vertibot/src/STM32F30x_StdPeriph_Driver/src/stm32f30x_rcc.c ****     RCC_Clocks->USART2CLK_Frequency = HSI_VALUE;
 870              		.loc 1 977 0
 871 0302 334A     		ldr	r2, .L105+4
 872              	.L101:
 873 0304 C262     		str	r2, [r0, #44]
 874              	.L77:
 978:/home/user/Desktop/STM32-Projekte/FH-Vertibot/src/STM32F30x_StdPeriph_Driver/src/stm32f30x_rcc.c ****   }    
 979:/home/user/Desktop/STM32-Projekte/FH-Vertibot/src/STM32F30x_StdPeriph_Driver/src/stm32f30x_rcc.c **** 
 980:/home/user/Desktop/STM32-Projekte/FH-Vertibot/src/STM32F30x_StdPeriph_Driver/src/stm32f30x_rcc.c ****   /* USART3CLK clock frequency */
 981:/home/user/Desktop/STM32-Projekte/FH-Vertibot/src/STM32F30x_StdPeriph_Driver/src/stm32f30x_rcc.c ****   if((RCC->CFGR3 & RCC_CFGR3_USART3SW) == 0x0)
 875              		.loc 1 981 0
 876 0306 314A     		ldr	r2, .L105
 877 0308 146B     		ldr	r4, [r2, #48]
 878 030a 14F4402F 		tst	r4, #786432
 879 030e 01D1     		bne	.L80
 982:/home/user/Desktop/STM32-Projekte/FH-Vertibot/src/STM32F30x_StdPeriph_Driver/src/stm32f30x_rcc.c ****   {
 983:/home/user/Desktop/STM32-Projekte/FH-Vertibot/src/STM32F30x_StdPeriph_Driver/src/stm32f30x_rcc.c ****     /* USART Clock is PCLK */
 984:/home/user/Desktop/STM32-Projekte/FH-Vertibot/src/STM32F30x_StdPeriph_Driver/src/stm32f30x_rcc.c ****     RCC_Clocks->USART3CLK_Frequency = RCC_Clocks->PCLK1_Frequency;
 880              		.loc 1 984 0
 881 0310 0163     		str	r1, [r0, #48]
 882 0312 18E0     		b	.L81
 883              	.L80:
 985:/home/user/Desktop/STM32-Projekte/FH-Vertibot/src/STM32F30x_StdPeriph_Driver/src/stm32f30x_rcc.c ****   }
 986:/home/user/Desktop/STM32-Projekte/FH-Vertibot/src/STM32F30x_StdPeriph_Driver/src/stm32f30x_rcc.c ****   else if((RCC->CFGR3 & RCC_CFGR3_USART3SW) == RCC_CFGR3_USART3SW_0)
 884              		.loc 1 986 0
 885 0314 146B     		ldr	r4, [r2, #48]
 886 0316 04F44024 		and	r4, r4, #786432
 887 031a B4F5802F 		cmp	r4, #262144
 888 031e 01D1     		bne	.L82
 987:/home/user/Desktop/STM32-Projekte/FH-Vertibot/src/STM32F30x_StdPeriph_Driver/src/stm32f30x_rcc.c ****   {
 988:/home/user/Desktop/STM32-Projekte/FH-Vertibot/src/STM32F30x_StdPeriph_Driver/src/stm32f30x_rcc.c ****     /* USART Clock is System Clock */
 989:/home/user/Desktop/STM32-Projekte/FH-Vertibot/src/STM32F30x_StdPeriph_Driver/src/stm32f30x_rcc.c ****     RCC_Clocks->USART3CLK_Frequency = RCC_Clocks->SYSCLK_Frequency;
 889              		.loc 1 989 0
 890 0320 0363     		str	r3, [r0, #48]
 891 0322 10E0     		b	.L81
 892              	.L82:
 990:/home/user/Desktop/STM32-Projekte/FH-Vertibot/src/STM32F30x_StdPeriph_Driver/src/stm32f30x_rcc.c ****   }
 991:/home/user/Desktop/STM32-Projekte/FH-Vertibot/src/STM32F30x_StdPeriph_Driver/src/stm32f30x_rcc.c ****   else if((RCC->CFGR3 & RCC_CFGR3_USART3SW) == RCC_CFGR3_USART3SW_1)
 893              		.loc 1 991 0
 894 0324 146B     		ldr	r4, [r2, #48]
 895 0326 04F44024 		and	r4, r4, #786432
 896 032a B4F5002F 		cmp	r4, #524288
 897 032e 02D1     		bne	.L83
 992:/home/user/Desktop/STM32-Projekte/FH-Vertibot/src/STM32F30x_StdPeriph_Driver/src/stm32f30x_rcc.c ****   {
 993:/home/user/Desktop/STM32-Projekte/FH-Vertibot/src/STM32F30x_StdPeriph_Driver/src/stm32f30x_rcc.c ****     /* USART Clock is LSE Osc. */
 994:/home/user/Desktop/STM32-Projekte/FH-Vertibot/src/STM32F30x_StdPeriph_Driver/src/stm32f30x_rcc.c ****     RCC_Clocks->USART3CLK_Frequency = LSE_VALUE;
 898              		.loc 1 994 0
 899 0330 4FF40044 		mov	r4, #32768
 900 0334 06E0     		b	.L102
 901              	.L83:
 995:/home/user/Desktop/STM32-Projekte/FH-Vertibot/src/STM32F30x_StdPeriph_Driver/src/stm32f30x_rcc.c ****   }
 996:/home/user/Desktop/STM32-Projekte/FH-Vertibot/src/STM32F30x_StdPeriph_Driver/src/stm32f30x_rcc.c ****   else if((RCC->CFGR3 & RCC_CFGR3_USART3SW) == RCC_CFGR3_USART3SW)
 902              		.loc 1 996 0
 903 0336 146B     		ldr	r4, [r2, #48]
 904 0338 04F44024 		and	r4, r4, #786432
 905 033c B4F5402F 		cmp	r4, #786432
 906 0340 01D1     		bne	.L81
 997:/home/user/Desktop/STM32-Projekte/FH-Vertibot/src/STM32F30x_StdPeriph_Driver/src/stm32f30x_rcc.c ****   {
 998:/home/user/Desktop/STM32-Projekte/FH-Vertibot/src/STM32F30x_StdPeriph_Driver/src/stm32f30x_rcc.c ****     /* USART Clock is HSI Osc. */
 999:/home/user/Desktop/STM32-Projekte/FH-Vertibot/src/STM32F30x_StdPeriph_Driver/src/stm32f30x_rcc.c ****     RCC_Clocks->USART3CLK_Frequency = HSI_VALUE;
 907              		.loc 1 999 0
 908 0342 234C     		ldr	r4, .L105+4
 909              	.L102:
 910 0344 0463     		str	r4, [r0, #48]
 911              	.L81:
1000:/home/user/Desktop/STM32-Projekte/FH-Vertibot/src/STM32F30x_StdPeriph_Driver/src/stm32f30x_rcc.c ****   }
1001:/home/user/Desktop/STM32-Projekte/FH-Vertibot/src/STM32F30x_StdPeriph_Driver/src/stm32f30x_rcc.c ****   
1002:/home/user/Desktop/STM32-Projekte/FH-Vertibot/src/STM32F30x_StdPeriph_Driver/src/stm32f30x_rcc.c ****     /* UART4CLK clock frequency */
1003:/home/user/Desktop/STM32-Projekte/FH-Vertibot/src/STM32F30x_StdPeriph_Driver/src/stm32f30x_rcc.c ****   if((RCC->CFGR3 & RCC_CFGR3_UART4SW) == 0x0)
 912              		.loc 1 1003 0
 913 0346 126B     		ldr	r2, [r2, #48]
 914 0348 204C     		ldr	r4, .L105
 915 034a 12F4401F 		tst	r2, #3145728
 916 034e 01D1     		bne	.L84
1004:/home/user/Desktop/STM32-Projekte/FH-Vertibot/src/STM32F30x_StdPeriph_Driver/src/stm32f30x_rcc.c ****   {
1005:/home/user/Desktop/STM32-Projekte/FH-Vertibot/src/STM32F30x_StdPeriph_Driver/src/stm32f30x_rcc.c ****     /* USART Clock is PCLK */
1006:/home/user/Desktop/STM32-Projekte/FH-Vertibot/src/STM32F30x_StdPeriph_Driver/src/stm32f30x_rcc.c ****     RCC_Clocks->UART4CLK_Frequency = RCC_Clocks->PCLK1_Frequency;
 917              		.loc 1 1006 0
 918 0350 4163     		str	r1, [r0, #52]
 919 0352 18E0     		b	.L85
 920              	.L84:
1007:/home/user/Desktop/STM32-Projekte/FH-Vertibot/src/STM32F30x_StdPeriph_Driver/src/stm32f30x_rcc.c ****   }
1008:/home/user/Desktop/STM32-Projekte/FH-Vertibot/src/STM32F30x_StdPeriph_Driver/src/stm32f30x_rcc.c ****   else if((RCC->CFGR3 & RCC_CFGR3_UART4SW) == RCC_CFGR3_UART4SW_0)
 921              		.loc 1 1008 0
 922 0354 226B     		ldr	r2, [r4, #48]
 923 0356 02F44012 		and	r2, r2, #3145728
 924 035a B2F5801F 		cmp	r2, #1048576
 925 035e 01D1     		bne	.L86
1009:/home/user/Desktop/STM32-Projekte/FH-Vertibot/src/STM32F30x_StdPeriph_Driver/src/stm32f30x_rcc.c ****   {
1010:/home/user/Desktop/STM32-Projekte/FH-Vertibot/src/STM32F30x_StdPeriph_Driver/src/stm32f30x_rcc.c ****     /* USART Clock is System Clock */
1011:/home/user/Desktop/STM32-Projekte/FH-Vertibot/src/STM32F30x_StdPeriph_Driver/src/stm32f30x_rcc.c ****     RCC_Clocks->UART4CLK_Frequency = RCC_Clocks->SYSCLK_Frequency;
 926              		.loc 1 1011 0
 927 0360 4363     		str	r3, [r0, #52]
 928 0362 10E0     		b	.L85
 929              	.L86:
1012:/home/user/Desktop/STM32-Projekte/FH-Vertibot/src/STM32F30x_StdPeriph_Driver/src/stm32f30x_rcc.c ****   }
1013:/home/user/Desktop/STM32-Projekte/FH-Vertibot/src/STM32F30x_StdPeriph_Driver/src/stm32f30x_rcc.c ****   else if((RCC->CFGR3 & RCC_CFGR3_UART4SW) == RCC_CFGR3_UART4SW_1)
 930              		.loc 1 1013 0
 931 0364 226B     		ldr	r2, [r4, #48]
 932 0366 02F44012 		and	r2, r2, #3145728
 933 036a B2F5001F 		cmp	r2, #2097152
 934 036e 02D1     		bne	.L87
1014:/home/user/Desktop/STM32-Projekte/FH-Vertibot/src/STM32F30x_StdPeriph_Driver/src/stm32f30x_rcc.c ****   {
1015:/home/user/Desktop/STM32-Projekte/FH-Vertibot/src/STM32F30x_StdPeriph_Driver/src/stm32f30x_rcc.c ****     /* USART Clock is LSE Osc. */
1016:/home/user/Desktop/STM32-Projekte/FH-Vertibot/src/STM32F30x_StdPeriph_Driver/src/stm32f30x_rcc.c ****     RCC_Clocks->UART4CLK_Frequency = LSE_VALUE;
 935              		.loc 1 1016 0
 936 0370 4FF40042 		mov	r2, #32768
 937 0374 06E0     		b	.L103
 938              	.L87:
1017:/home/user/Desktop/STM32-Projekte/FH-Vertibot/src/STM32F30x_StdPeriph_Driver/src/stm32f30x_rcc.c ****   }
1018:/home/user/Desktop/STM32-Projekte/FH-Vertibot/src/STM32F30x_StdPeriph_Driver/src/stm32f30x_rcc.c ****   else if((RCC->CFGR3 & RCC_CFGR3_UART4SW) == RCC_CFGR3_UART4SW)
 939              		.loc 1 1018 0
 940 0376 226B     		ldr	r2, [r4, #48]
 941 0378 02F44012 		and	r2, r2, #3145728
 942 037c B2F5401F 		cmp	r2, #3145728
 943 0380 01D1     		bne	.L85
1019:/home/user/Desktop/STM32-Projekte/FH-Vertibot/src/STM32F30x_StdPeriph_Driver/src/stm32f30x_rcc.c ****   {
1020:/home/user/Desktop/STM32-Projekte/FH-Vertibot/src/STM32F30x_StdPeriph_Driver/src/stm32f30x_rcc.c ****     /* USART Clock is HSI Osc. */
1021:/home/user/Desktop/STM32-Projekte/FH-Vertibot/src/STM32F30x_StdPeriph_Driver/src/stm32f30x_rcc.c ****     RCC_Clocks->UART4CLK_Frequency = HSI_VALUE;
 944              		.loc 1 1021 0
 945 0382 134A     		ldr	r2, .L105+4
 946              	.L103:
 947 0384 4263     		str	r2, [r0, #52]
 948              	.L85:
1022:/home/user/Desktop/STM32-Projekte/FH-Vertibot/src/STM32F30x_StdPeriph_Driver/src/stm32f30x_rcc.c ****   }   
1023:/home/user/Desktop/STM32-Projekte/FH-Vertibot/src/STM32F30x_StdPeriph_Driver/src/stm32f30x_rcc.c ****   
1024:/home/user/Desktop/STM32-Projekte/FH-Vertibot/src/STM32F30x_StdPeriph_Driver/src/stm32f30x_rcc.c ****   /* UART5CLK clock frequency */
1025:/home/user/Desktop/STM32-Projekte/FH-Vertibot/src/STM32F30x_StdPeriph_Driver/src/stm32f30x_rcc.c ****   if((RCC->CFGR3 & RCC_CFGR3_UART5SW) == 0x0)
 949              		.loc 1 1025 0
 950 0386 114A     		ldr	r2, .L105
 951 0388 146B     		ldr	r4, [r2, #48]
 952 038a 14F4400F 		tst	r4, #12582912
 953 038e 02D1     		bne	.L88
1026:/home/user/Desktop/STM32-Projekte/FH-Vertibot/src/STM32F30x_StdPeriph_Driver/src/stm32f30x_rcc.c ****   {
1027:/home/user/Desktop/STM32-Projekte/FH-Vertibot/src/STM32F30x_StdPeriph_Driver/src/stm32f30x_rcc.c ****     /* USART Clock is PCLK */
1028:/home/user/Desktop/STM32-Projekte/FH-Vertibot/src/STM32F30x_StdPeriph_Driver/src/stm32f30x_rcc.c ****     RCC_Clocks->UART5CLK_Frequency = RCC_Clocks->PCLK1_Frequency;
 954              		.loc 1 1028 0
 955 0390 8163     		str	r1, [r0, #56]
 956 0392 BDE8F083 		pop	{r4, r5, r6, r7, r8, r9, pc}
 957              	.L88:
1029:/home/user/Desktop/STM32-Projekte/FH-Vertibot/src/STM32F30x_StdPeriph_Driver/src/stm32f30x_rcc.c ****   }
1030:/home/user/Desktop/STM32-Projekte/FH-Vertibot/src/STM32F30x_StdPeriph_Driver/src/stm32f30x_rcc.c ****   else if((RCC->CFGR3 & RCC_CFGR3_UART5SW) == RCC_CFGR3_UART5SW_0)
 958              		.loc 1 1030 0
 959 0396 116B     		ldr	r1, [r2, #48]
 960 0398 01F44001 		and	r1, r1, #12582912
 961 039c B1F5800F 		cmp	r1, #4194304
 962 03a0 00D1     		bne	.L90
 963 03a2 0FE0     		b	.L104
 964              	.L90:
1031:/home/user/Desktop/STM32-Projekte/FH-Vertibot/src/STM32F30x_StdPeriph_Driver/src/stm32f30x_rcc.c ****   {
1032:/home/user/Desktop/STM32-Projekte/FH-Vertibot/src/STM32F30x_StdPeriph_Driver/src/stm32f30x_rcc.c ****     /* USART Clock is System Clock */
1033:/home/user/Desktop/STM32-Projekte/FH-Vertibot/src/STM32F30x_StdPeriph_Driver/src/stm32f30x_rcc.c ****     RCC_Clocks->UART5CLK_Frequency = RCC_Clocks->SYSCLK_Frequency;
1034:/home/user/Desktop/STM32-Projekte/FH-Vertibot/src/STM32F30x_StdPeriph_Driver/src/stm32f30x_rcc.c ****   }
1035:/home/user/Desktop/STM32-Projekte/FH-Vertibot/src/STM32F30x_StdPeriph_Driver/src/stm32f30x_rcc.c ****   else if((RCC->CFGR3 & RCC_CFGR3_UART5SW) == RCC_CFGR3_UART5SW_1)
 965              		.loc 1 1035 0
 966 03a4 136B     		ldr	r3, [r2, #48]
 967 03a6 03F44003 		and	r3, r3, #12582912
 968 03aa B3F5000F 		cmp	r3, #8388608
 969 03ae 02D1     		bne	.L91
1036:/home/user/Desktop/STM32-Projekte/FH-Vertibot/src/STM32F30x_StdPeriph_Driver/src/stm32f30x_rcc.c ****   {
1037:/home/user/Desktop/STM32-Projekte/FH-Vertibot/src/STM32F30x_StdPeriph_Driver/src/stm32f30x_rcc.c ****     /* USART Clock is LSE Osc. */
1038:/home/user/Desktop/STM32-Projekte/FH-Vertibot/src/STM32F30x_StdPeriph_Driver/src/stm32f30x_rcc.c ****     RCC_Clocks->UART5CLK_Frequency = LSE_VALUE;
 970              		.loc 1 1038 0
 971 03b0 4FF40043 		mov	r3, #32768
 972 03b4 06E0     		b	.L104
 973              	.L91:
1039:/home/user/Desktop/STM32-Projekte/FH-Vertibot/src/STM32F30x_StdPeriph_Driver/src/stm32f30x_rcc.c ****   }
1040:/home/user/Desktop/STM32-Projekte/FH-Vertibot/src/STM32F30x_StdPeriph_Driver/src/stm32f30x_rcc.c ****   else if((RCC->CFGR3 & RCC_CFGR3_UART5SW) == RCC_CFGR3_UART5SW)
 974              		.loc 1 1040 0
 975 03b6 136B     		ldr	r3, [r2, #48]
 976 03b8 03F44003 		and	r3, r3, #12582912
 977 03bc B3F5400F 		cmp	r3, #12582912
 978 03c0 01D1     		bne	.L52
1041:/home/user/Desktop/STM32-Projekte/FH-Vertibot/src/STM32F30x_StdPeriph_Driver/src/stm32f30x_rcc.c ****   {
1042:/home/user/Desktop/STM32-Projekte/FH-Vertibot/src/STM32F30x_StdPeriph_Driver/src/stm32f30x_rcc.c ****     /* USART Clock is HSI Osc. */
1043:/home/user/Desktop/STM32-Projekte/FH-Vertibot/src/STM32F30x_StdPeriph_Driver/src/stm32f30x_rcc.c ****     RCC_Clocks->UART5CLK_Frequency = HSI_VALUE;
 979              		.loc 1 1043 0
 980 03c2 034B     		ldr	r3, .L105+4
 981              	.L104:
 982 03c4 8363     		str	r3, [r0, #56]
 983              	.L52:
 984 03c6 BDE8F083 		pop	{r4, r5, r6, r7, r8, r9, pc}
 985              	.L106:
 986 03ca 00BF     		.align	2
 987              	.L105:
 988 03cc 00100240 		.word	1073876992
 989 03d0 00127A00 		.word	8000000
 990 03d4 00093D00 		.word	4000000
 991 03d8 00000000 		.word	.LANCHOR0
 992              		.cfi_endproc
 993              	.LFE129:
 995              		.align	1
 996              		.global	RCC_ADCCLKConfig
 997              		.thumb
 998              		.thumb_func
 1000              	RCC_ADCCLKConfig:
 1001              	.LFB130:
1044:/home/user/Desktop/STM32-Projekte/FH-Vertibot/src/STM32F30x_StdPeriph_Driver/src/stm32f30x_rcc.c ****   } 
1045:/home/user/Desktop/STM32-Projekte/FH-Vertibot/src/STM32F30x_StdPeriph_Driver/src/stm32f30x_rcc.c **** }
1046:/home/user/Desktop/STM32-Projekte/FH-Vertibot/src/STM32F30x_StdPeriph_Driver/src/stm32f30x_rcc.c **** 
1047:/home/user/Desktop/STM32-Projekte/FH-Vertibot/src/STM32F30x_StdPeriph_Driver/src/stm32f30x_rcc.c **** /**
1048:/home/user/Desktop/STM32-Projekte/FH-Vertibot/src/STM32F30x_StdPeriph_Driver/src/stm32f30x_rcc.c ****   * @}
1049:/home/user/Desktop/STM32-Projekte/FH-Vertibot/src/STM32F30x_StdPeriph_Driver/src/stm32f30x_rcc.c ****   */
1050:/home/user/Desktop/STM32-Projekte/FH-Vertibot/src/STM32F30x_StdPeriph_Driver/src/stm32f30x_rcc.c **** 
1051:/home/user/Desktop/STM32-Projekte/FH-Vertibot/src/STM32F30x_StdPeriph_Driver/src/stm32f30x_rcc.c **** /** @defgroup RCC_Group3 Peripheral clocks configuration functions
1052:/home/user/Desktop/STM32-Projekte/FH-Vertibot/src/STM32F30x_StdPeriph_Driver/src/stm32f30x_rcc.c ****  *  @brief   Peripheral clocks configuration functions 
1053:/home/user/Desktop/STM32-Projekte/FH-Vertibot/src/STM32F30x_StdPeriph_Driver/src/stm32f30x_rcc.c ****  *
1054:/home/user/Desktop/STM32-Projekte/FH-Vertibot/src/STM32F30x_StdPeriph_Driver/src/stm32f30x_rcc.c **** @verbatim   
1055:/home/user/Desktop/STM32-Projekte/FH-Vertibot/src/STM32F30x_StdPeriph_Driver/src/stm32f30x_rcc.c ****  ===============================================================================
1056:/home/user/Desktop/STM32-Projekte/FH-Vertibot/src/STM32F30x_StdPeriph_Driver/src/stm32f30x_rcc.c ****             ##### Peripheral clocks configuration functions #####
1057:/home/user/Desktop/STM32-Projekte/FH-Vertibot/src/STM32F30x_StdPeriph_Driver/src/stm32f30x_rcc.c ****  ===============================================================================  
1058:/home/user/Desktop/STM32-Projekte/FH-Vertibot/src/STM32F30x_StdPeriph_Driver/src/stm32f30x_rcc.c ****     [..] This section provide functions allowing to configure the Peripheral clocks. 
1059:/home/user/Desktop/STM32-Projekte/FH-Vertibot/src/STM32F30x_StdPeriph_Driver/src/stm32f30x_rcc.c ****          (#) The RTC clock which is derived from the LSE, LSI or  HSE_Div32 
1060:/home/user/Desktop/STM32-Projekte/FH-Vertibot/src/STM32F30x_StdPeriph_Driver/src/stm32f30x_rcc.c ****              (HSE divided by 32).
1061:/home/user/Desktop/STM32-Projekte/FH-Vertibot/src/STM32F30x_StdPeriph_Driver/src/stm32f30x_rcc.c ****          (#) After restart from Reset or wakeup from STANDBY, all peripherals are 
1062:/home/user/Desktop/STM32-Projekte/FH-Vertibot/src/STM32F30x_StdPeriph_Driver/src/stm32f30x_rcc.c ****              off except internal SRAM, Flash and SWD. Before to start using 
1063:/home/user/Desktop/STM32-Projekte/FH-Vertibot/src/STM32F30x_StdPeriph_Driver/src/stm32f30x_rcc.c ****              a peripheral you have to enable its interface clock. You can do this 
1064:/home/user/Desktop/STM32-Projekte/FH-Vertibot/src/STM32F30x_StdPeriph_Driver/src/stm32f30x_rcc.c ****              using RCC_AHBPeriphClockCmd(), RCC_APB2PeriphClockCmd() 
1065:/home/user/Desktop/STM32-Projekte/FH-Vertibot/src/STM32F30x_StdPeriph_Driver/src/stm32f30x_rcc.c ****              and RCC_APB1PeriphClockCmd() functions.
1066:/home/user/Desktop/STM32-Projekte/FH-Vertibot/src/STM32F30x_StdPeriph_Driver/src/stm32f30x_rcc.c ****          (#) To reset the peripherals configuration (to the default state after 
1067:/home/user/Desktop/STM32-Projekte/FH-Vertibot/src/STM32F30x_StdPeriph_Driver/src/stm32f30x_rcc.c ****              device reset) you can use RCC_AHBPeriphResetCmd(), RCC_APB2PeriphResetCmd() 
1068:/home/user/Desktop/STM32-Projekte/FH-Vertibot/src/STM32F30x_StdPeriph_Driver/src/stm32f30x_rcc.c ****              and RCC_APB1PeriphResetCmd() functions.
1069:/home/user/Desktop/STM32-Projekte/FH-Vertibot/src/STM32F30x_StdPeriph_Driver/src/stm32f30x_rcc.c **** @endverbatim
1070:/home/user/Desktop/STM32-Projekte/FH-Vertibot/src/STM32F30x_StdPeriph_Driver/src/stm32f30x_rcc.c ****   * @{
1071:/home/user/Desktop/STM32-Projekte/FH-Vertibot/src/STM32F30x_StdPeriph_Driver/src/stm32f30x_rcc.c ****   */
1072:/home/user/Desktop/STM32-Projekte/FH-Vertibot/src/STM32F30x_StdPeriph_Driver/src/stm32f30x_rcc.c **** 
1073:/home/user/Desktop/STM32-Projekte/FH-Vertibot/src/STM32F30x_StdPeriph_Driver/src/stm32f30x_rcc.c **** /**
1074:/home/user/Desktop/STM32-Projekte/FH-Vertibot/src/STM32F30x_StdPeriph_Driver/src/stm32f30x_rcc.c ****   * @brief  Configures the ADC clock (ADCCLK).
1075:/home/user/Desktop/STM32-Projekte/FH-Vertibot/src/STM32F30x_StdPeriph_Driver/src/stm32f30x_rcc.c ****   * @param  RCC_PLLCLK: defines the ADC clock divider. This clock is derived from 
1076:/home/user/Desktop/STM32-Projekte/FH-Vertibot/src/STM32F30x_StdPeriph_Driver/src/stm32f30x_rcc.c ****   *         the PLL Clock.
1077:/home/user/Desktop/STM32-Projekte/FH-Vertibot/src/STM32F30x_StdPeriph_Driver/src/stm32f30x_rcc.c ****   *   This parameter can be one of the following values:
1078:/home/user/Desktop/STM32-Projekte/FH-Vertibot/src/STM32F30x_StdPeriph_Driver/src/stm32f30x_rcc.c ****   *     @arg RCC_ADC12PLLCLK_OFF: ADC12 clock disabled
1079:/home/user/Desktop/STM32-Projekte/FH-Vertibot/src/STM32F30x_StdPeriph_Driver/src/stm32f30x_rcc.c ****   *     @arg RCC_ADC12PLLCLK_Div1: ADC12 clock = PLLCLK/1
1080:/home/user/Desktop/STM32-Projekte/FH-Vertibot/src/STM32F30x_StdPeriph_Driver/src/stm32f30x_rcc.c ****   *     @arg RCC_ADC12PLLCLK_Div2: ADC12 clock = PLLCLK/2
1081:/home/user/Desktop/STM32-Projekte/FH-Vertibot/src/STM32F30x_StdPeriph_Driver/src/stm32f30x_rcc.c ****   *     @arg RCC_ADC12PLLCLK_Div4: ADC12 clock = PLLCLK/4
1082:/home/user/Desktop/STM32-Projekte/FH-Vertibot/src/STM32F30x_StdPeriph_Driver/src/stm32f30x_rcc.c ****   *     @arg RCC_ADC12PLLCLK_Div6: ADC12 clock = PLLCLK/6
1083:/home/user/Desktop/STM32-Projekte/FH-Vertibot/src/STM32F30x_StdPeriph_Driver/src/stm32f30x_rcc.c ****   *     @arg RCC_ADC12PLLCLK_Div8: ADC12 clock = PLLCLK/8
1084:/home/user/Desktop/STM32-Projekte/FH-Vertibot/src/STM32F30x_StdPeriph_Driver/src/stm32f30x_rcc.c ****   *     @arg RCC_ADC12PLLCLK_Div10: ADC12 clock = PLLCLK/10
1085:/home/user/Desktop/STM32-Projekte/FH-Vertibot/src/STM32F30x_StdPeriph_Driver/src/stm32f30x_rcc.c ****   *     @arg RCC_ADC12PLLCLK_Div12: ADC12 clock = PLLCLK/12
1086:/home/user/Desktop/STM32-Projekte/FH-Vertibot/src/STM32F30x_StdPeriph_Driver/src/stm32f30x_rcc.c ****   *     @arg RCC_ADC12PLLCLK_Div16: ADC12 clock = PLLCLK/16
1087:/home/user/Desktop/STM32-Projekte/FH-Vertibot/src/STM32F30x_StdPeriph_Driver/src/stm32f30x_rcc.c ****   *     @arg RCC_ADC12PLLCLK_Div32: ADC12 clock = PLLCLK/32
1088:/home/user/Desktop/STM32-Projekte/FH-Vertibot/src/STM32F30x_StdPeriph_Driver/src/stm32f30x_rcc.c ****   *     @arg RCC_ADC12PLLCLK_Div64: ADC12 clock = PLLCLK/64
1089:/home/user/Desktop/STM32-Projekte/FH-Vertibot/src/STM32F30x_StdPeriph_Driver/src/stm32f30x_rcc.c ****   *     @arg RCC_ADC12PLLCLK_Div128: ADC12 clock = PLLCLK/128
1090:/home/user/Desktop/STM32-Projekte/FH-Vertibot/src/STM32F30x_StdPeriph_Driver/src/stm32f30x_rcc.c ****   *     @arg RCC_ADC12PLLCLK_Div256: ADC12 clock = PLLCLK/256
1091:/home/user/Desktop/STM32-Projekte/FH-Vertibot/src/STM32F30x_StdPeriph_Driver/src/stm32f30x_rcc.c ****   *     @arg RCC_ADC34PLLCLK_OFF: ADC34 clock disabled
1092:/home/user/Desktop/STM32-Projekte/FH-Vertibot/src/STM32F30x_StdPeriph_Driver/src/stm32f30x_rcc.c ****   *     @arg RCC_ADC34PLLCLK_Div1: ADC34 clock = PLLCLK/1
1093:/home/user/Desktop/STM32-Projekte/FH-Vertibot/src/STM32F30x_StdPeriph_Driver/src/stm32f30x_rcc.c ****   *     @arg RCC_ADC34PLLCLK_Div2: ADC34 clock = PLLCLK/2
1094:/home/user/Desktop/STM32-Projekte/FH-Vertibot/src/STM32F30x_StdPeriph_Driver/src/stm32f30x_rcc.c ****   *     @arg RCC_ADC34PLLCLK_Div4: ADC34 clock = PLLCLK/4
1095:/home/user/Desktop/STM32-Projekte/FH-Vertibot/src/STM32F30x_StdPeriph_Driver/src/stm32f30x_rcc.c ****   *     @arg RCC_ADC34PLLCLK_Div6: ADC34 clock = PLLCLK/6
1096:/home/user/Desktop/STM32-Projekte/FH-Vertibot/src/STM32F30x_StdPeriph_Driver/src/stm32f30x_rcc.c ****   *     @arg RCC_ADC34PLLCLK_Div8: ADC34 clock = PLLCLK/8
1097:/home/user/Desktop/STM32-Projekte/FH-Vertibot/src/STM32F30x_StdPeriph_Driver/src/stm32f30x_rcc.c ****   *     @arg RCC_ADC34PLLCLK_Div10: ADC34 clock = PLLCLK/10
1098:/home/user/Desktop/STM32-Projekte/FH-Vertibot/src/STM32F30x_StdPeriph_Driver/src/stm32f30x_rcc.c ****   *     @arg RCC_ADC34PLLCLK_Div12: ADC34 clock = PLLCLK/12
1099:/home/user/Desktop/STM32-Projekte/FH-Vertibot/src/STM32F30x_StdPeriph_Driver/src/stm32f30x_rcc.c ****   *     @arg RCC_ADC34PLLCLK_Div16: ADC34 clock = PLLCLK/16
1100:/home/user/Desktop/STM32-Projekte/FH-Vertibot/src/STM32F30x_StdPeriph_Driver/src/stm32f30x_rcc.c ****   *     @arg RCC_ADC34PLLCLK_Div32: ADC34 clock = PLLCLK/32
1101:/home/user/Desktop/STM32-Projekte/FH-Vertibot/src/STM32F30x_StdPeriph_Driver/src/stm32f30x_rcc.c ****   *     @arg RCC_ADC34PLLCLK_Div64: ADC34 clock = PLLCLK/64       
1102:/home/user/Desktop/STM32-Projekte/FH-Vertibot/src/STM32F30x_StdPeriph_Driver/src/stm32f30x_rcc.c ****   *     @arg RCC_ADC34PLLCLK_Div128: ADC34 clock = PLLCLK/128                                  
1103:/home/user/Desktop/STM32-Projekte/FH-Vertibot/src/STM32F30x_StdPeriph_Driver/src/stm32f30x_rcc.c ****   *     @arg RCC_ADC34PLLCLK_Div256: ADC34 clock = PLLCLK/256
1104:/home/user/Desktop/STM32-Projekte/FH-Vertibot/src/STM32F30x_StdPeriph_Driver/src/stm32f30x_rcc.c ****   * @retval None
1105:/home/user/Desktop/STM32-Projekte/FH-Vertibot/src/STM32F30x_StdPeriph_Driver/src/stm32f30x_rcc.c ****   */
1106:/home/user/Desktop/STM32-Projekte/FH-Vertibot/src/STM32F30x_StdPeriph_Driver/src/stm32f30x_rcc.c **** void RCC_ADCCLKConfig(uint32_t RCC_PLLCLK)
1107:/home/user/Desktop/STM32-Projekte/FH-Vertibot/src/STM32F30x_StdPeriph_Driver/src/stm32f30x_rcc.c **** {
 1002              		.loc 1 1107 0
 1003              		.cfi_startproc
 1004              		@ args = 0, pretend = 0, frame = 0
 1005              		@ frame_needed = 0, uses_anonymous_args = 0
 1006              		@ link register save eliminated.
 1007              	.LVL81:
1108:/home/user/Desktop/STM32-Projekte/FH-Vertibot/src/STM32F30x_StdPeriph_Driver/src/stm32f30x_rcc.c ****   uint32_t tmp = 0;
1109:/home/user/Desktop/STM32-Projekte/FH-Vertibot/src/STM32F30x_StdPeriph_Driver/src/stm32f30x_rcc.c ****   
1110:/home/user/Desktop/STM32-Projekte/FH-Vertibot/src/STM32F30x_StdPeriph_Driver/src/stm32f30x_rcc.c ****   /* Check the parameters */
1111:/home/user/Desktop/STM32-Projekte/FH-Vertibot/src/STM32F30x_StdPeriph_Driver/src/stm32f30x_rcc.c ****   assert_param(IS_RCC_ADCCLK(RCC_PLLCLK));
1112:/home/user/Desktop/STM32-Projekte/FH-Vertibot/src/STM32F30x_StdPeriph_Driver/src/stm32f30x_rcc.c **** 
1113:/home/user/Desktop/STM32-Projekte/FH-Vertibot/src/STM32F30x_StdPeriph_Driver/src/stm32f30x_rcc.c ****   tmp = (RCC_PLLCLK >> 28);
1114:/home/user/Desktop/STM32-Projekte/FH-Vertibot/src/STM32F30x_StdPeriph_Driver/src/stm32f30x_rcc.c ****   
1115:/home/user/Desktop/STM32-Projekte/FH-Vertibot/src/STM32F30x_StdPeriph_Driver/src/stm32f30x_rcc.c ****   /* Clears ADCPRE34 bits */
1116:/home/user/Desktop/STM32-Projekte/FH-Vertibot/src/STM32F30x_StdPeriph_Driver/src/stm32f30x_rcc.c ****   if (tmp != 0)
 1008              		.loc 1 1116 0
 1009 03dc 030F     		lsrs	r3, r0, #28
 1010 03de 064B     		ldr	r3, .L111
1117:/home/user/Desktop/STM32-Projekte/FH-Vertibot/src/STM32F30x_StdPeriph_Driver/src/stm32f30x_rcc.c ****   {
1118:/home/user/Desktop/STM32-Projekte/FH-Vertibot/src/STM32F30x_StdPeriph_Driver/src/stm32f30x_rcc.c ****     RCC->CFGR2 &= ~RCC_CFGR2_ADCPRE34;
 1011              		.loc 1 1118 0
 1012 03e0 DA6A     		ldr	r2, [r3, #44]
 1013 03e2 14BF     		ite	ne
 1014 03e4 22F47852 		bicne	r2, r2, #15872
1119:/home/user/Desktop/STM32-Projekte/FH-Vertibot/src/STM32F30x_StdPeriph_Driver/src/stm32f30x_rcc.c ****   }
1120:/home/user/Desktop/STM32-Projekte/FH-Vertibot/src/STM32F30x_StdPeriph_Driver/src/stm32f30x_rcc.c ****    /* Clears ADCPRE12 bits */
1121:/home/user/Desktop/STM32-Projekte/FH-Vertibot/src/STM32F30x_StdPeriph_Driver/src/stm32f30x_rcc.c ****   else
1122:/home/user/Desktop/STM32-Projekte/FH-Vertibot/src/STM32F30x_StdPeriph_Driver/src/stm32f30x_rcc.c ****   {
1123:/home/user/Desktop/STM32-Projekte/FH-Vertibot/src/STM32F30x_StdPeriph_Driver/src/stm32f30x_rcc.c ****     RCC->CFGR2 &= ~RCC_CFGR2_ADCPRE12;
 1015              		.loc 1 1123 0
 1016 03e8 22F4F872 		biceq	r2, r2, #496
 1017 03ec DA62     		str	r2, [r3, #44]
1124:/home/user/Desktop/STM32-Projekte/FH-Vertibot/src/STM32F30x_StdPeriph_Driver/src/stm32f30x_rcc.c ****   }
1125:/home/user/Desktop/STM32-Projekte/FH-Vertibot/src/STM32F30x_StdPeriph_Driver/src/stm32f30x_rcc.c ****   /* Set ADCPRE bits according to RCC_PLLCLK value */
1126:/home/user/Desktop/STM32-Projekte/FH-Vertibot/src/STM32F30x_StdPeriph_Driver/src/stm32f30x_rcc.c ****   RCC->CFGR2 |= RCC_PLLCLK;
 1018              		.loc 1 1126 0
 1019 03ee DA6A     		ldr	r2, [r3, #44]
 1020 03f0 1043     		orrs	r0, r0, r2
 1021              	.LVL82:
 1022 03f2 D862     		str	r0, [r3, #44]
 1023 03f4 7047     		bx	lr
 1024              	.L112:
 1025 03f6 00BF     		.align	2
 1026              	.L111:
 1027 03f8 00100240 		.word	1073876992
 1028              		.cfi_endproc
 1029              	.LFE130:
 1031              		.align	1
 1032              		.global	RCC_I2CCLKConfig
 1033              		.thumb
 1034              		.thumb_func
 1036              	RCC_I2CCLKConfig:
 1037              	.LFB131:
1127:/home/user/Desktop/STM32-Projekte/FH-Vertibot/src/STM32F30x_StdPeriph_Driver/src/stm32f30x_rcc.c **** }
1128:/home/user/Desktop/STM32-Projekte/FH-Vertibot/src/STM32F30x_StdPeriph_Driver/src/stm32f30x_rcc.c **** 
1129:/home/user/Desktop/STM32-Projekte/FH-Vertibot/src/STM32F30x_StdPeriph_Driver/src/stm32f30x_rcc.c **** /**
1130:/home/user/Desktop/STM32-Projekte/FH-Vertibot/src/STM32F30x_StdPeriph_Driver/src/stm32f30x_rcc.c ****   * @brief  Configures the I2C clock (I2CCLK).
1131:/home/user/Desktop/STM32-Projekte/FH-Vertibot/src/STM32F30x_StdPeriph_Driver/src/stm32f30x_rcc.c ****   * @param  RCC_I2CCLK: defines the I2C clock source. This clock is derived 
1132:/home/user/Desktop/STM32-Projekte/FH-Vertibot/src/STM32F30x_StdPeriph_Driver/src/stm32f30x_rcc.c ****   *         from the HSI or System clock.
1133:/home/user/Desktop/STM32-Projekte/FH-Vertibot/src/STM32F30x_StdPeriph_Driver/src/stm32f30x_rcc.c ****   *   This parameter can be one of the following values:
1134:/home/user/Desktop/STM32-Projekte/FH-Vertibot/src/STM32F30x_StdPeriph_Driver/src/stm32f30x_rcc.c ****   *     @arg RCC_I2CxCLK_HSI: I2Cx clock = HSI
1135:/home/user/Desktop/STM32-Projekte/FH-Vertibot/src/STM32F30x_StdPeriph_Driver/src/stm32f30x_rcc.c ****   *     @arg RCC_I2CxCLK_SYSCLK: I2Cx clock = System Clock
1136:/home/user/Desktop/STM32-Projekte/FH-Vertibot/src/STM32F30x_StdPeriph_Driver/src/stm32f30x_rcc.c ****   *          (x can be 1 or 2).  
1137:/home/user/Desktop/STM32-Projekte/FH-Vertibot/src/STM32F30x_StdPeriph_Driver/src/stm32f30x_rcc.c ****   * @retval None
1138:/home/user/Desktop/STM32-Projekte/FH-Vertibot/src/STM32F30x_StdPeriph_Driver/src/stm32f30x_rcc.c ****   */
1139:/home/user/Desktop/STM32-Projekte/FH-Vertibot/src/STM32F30x_StdPeriph_Driver/src/stm32f30x_rcc.c **** void RCC_I2CCLKConfig(uint32_t RCC_I2CCLK)
1140:/home/user/Desktop/STM32-Projekte/FH-Vertibot/src/STM32F30x_StdPeriph_Driver/src/stm32f30x_rcc.c **** { 
 1038              		.loc 1 1140 0
 1039              		.cfi_startproc
 1040              		@ args = 0, pretend = 0, frame = 0
 1041              		@ frame_needed = 0, uses_anonymous_args = 0
 1042              		@ link register save eliminated.
 1043              	.LVL83:
1141:/home/user/Desktop/STM32-Projekte/FH-Vertibot/src/STM32F30x_StdPeriph_Driver/src/stm32f30x_rcc.c ****   uint32_t tmp = 0;
1142:/home/user/Desktop/STM32-Projekte/FH-Vertibot/src/STM32F30x_StdPeriph_Driver/src/stm32f30x_rcc.c ****   
1143:/home/user/Desktop/STM32-Projekte/FH-Vertibot/src/STM32F30x_StdPeriph_Driver/src/stm32f30x_rcc.c ****   /* Check the parameters */
1144:/home/user/Desktop/STM32-Projekte/FH-Vertibot/src/STM32F30x_StdPeriph_Driver/src/stm32f30x_rcc.c ****   assert_param(IS_RCC_I2CCLK(RCC_I2CCLK));
1145:/home/user/Desktop/STM32-Projekte/FH-Vertibot/src/STM32F30x_StdPeriph_Driver/src/stm32f30x_rcc.c **** 
1146:/home/user/Desktop/STM32-Projekte/FH-Vertibot/src/STM32F30x_StdPeriph_Driver/src/stm32f30x_rcc.c ****   tmp = (RCC_I2CCLK >> 28);
1147:/home/user/Desktop/STM32-Projekte/FH-Vertibot/src/STM32F30x_StdPeriph_Driver/src/stm32f30x_rcc.c ****   
1148:/home/user/Desktop/STM32-Projekte/FH-Vertibot/src/STM32F30x_StdPeriph_Driver/src/stm32f30x_rcc.c ****   /* Clear I2CSW bit */
1149:/home/user/Desktop/STM32-Projekte/FH-Vertibot/src/STM32F30x_StdPeriph_Driver/src/stm32f30x_rcc.c ****   if (tmp != 0)
 1044              		.loc 1 1149 0
 1045 03fc 030F     		lsrs	r3, r0, #28
 1046 03fe 064B     		ldr	r3, .L117
1150:/home/user/Desktop/STM32-Projekte/FH-Vertibot/src/STM32F30x_StdPeriph_Driver/src/stm32f30x_rcc.c ****   {
1151:/home/user/Desktop/STM32-Projekte/FH-Vertibot/src/STM32F30x_StdPeriph_Driver/src/stm32f30x_rcc.c ****     RCC->CFGR3 &= ~RCC_CFGR3_I2C2SW;
 1047              		.loc 1 1151 0
 1048 0400 1A6B     		ldr	r2, [r3, #48]
 1049 0402 14BF     		ite	ne
 1050 0404 22F02002 		bicne	r2, r2, #32
1152:/home/user/Desktop/STM32-Projekte/FH-Vertibot/src/STM32F30x_StdPeriph_Driver/src/stm32f30x_rcc.c ****   }
1153:/home/user/Desktop/STM32-Projekte/FH-Vertibot/src/STM32F30x_StdPeriph_Driver/src/stm32f30x_rcc.c ****   else
1154:/home/user/Desktop/STM32-Projekte/FH-Vertibot/src/STM32F30x_StdPeriph_Driver/src/stm32f30x_rcc.c ****   {
1155:/home/user/Desktop/STM32-Projekte/FH-Vertibot/src/STM32F30x_StdPeriph_Driver/src/stm32f30x_rcc.c ****     RCC->CFGR3 &= ~RCC_CFGR3_I2C1SW;
 1051              		.loc 1 1155 0
 1052 0408 22F01002 		biceq	r2, r2, #16
 1053 040c 1A63     		str	r2, [r3, #48]
1156:/home/user/Desktop/STM32-Projekte/FH-Vertibot/src/STM32F30x_StdPeriph_Driver/src/stm32f30x_rcc.c ****   }
1157:/home/user/Desktop/STM32-Projekte/FH-Vertibot/src/STM32F30x_StdPeriph_Driver/src/stm32f30x_rcc.c ****   /* Set I2CSW bits according to RCC_I2CCLK value */
1158:/home/user/Desktop/STM32-Projekte/FH-Vertibot/src/STM32F30x_StdPeriph_Driver/src/stm32f30x_rcc.c ****   RCC->CFGR3 |= RCC_I2CCLK;
 1054              		.loc 1 1158 0
 1055 040e 1A6B     		ldr	r2, [r3, #48]
 1056 0410 1043     		orrs	r0, r0, r2
 1057              	.LVL84:
 1058 0412 1863     		str	r0, [r3, #48]
 1059 0414 7047     		bx	lr
 1060              	.L118:
 1061 0416 00BF     		.align	2
 1062              	.L117:
 1063 0418 00100240 		.word	1073876992
 1064              		.cfi_endproc
 1065              	.LFE131:
 1067              		.align	1
 1068              		.global	RCC_TIMCLKConfig
 1069              		.thumb
 1070              		.thumb_func
 1072              	RCC_TIMCLKConfig:
 1073              	.LFB132:
1159:/home/user/Desktop/STM32-Projekte/FH-Vertibot/src/STM32F30x_StdPeriph_Driver/src/stm32f30x_rcc.c **** }
1160:/home/user/Desktop/STM32-Projekte/FH-Vertibot/src/STM32F30x_StdPeriph_Driver/src/stm32f30x_rcc.c **** 
1161:/home/user/Desktop/STM32-Projekte/FH-Vertibot/src/STM32F30x_StdPeriph_Driver/src/stm32f30x_rcc.c **** /**
1162:/home/user/Desktop/STM32-Projekte/FH-Vertibot/src/STM32F30x_StdPeriph_Driver/src/stm32f30x_rcc.c ****   * @brief  Configures the TIM1 and TIM8 clock sources(TIMCLK).
1163:/home/user/Desktop/STM32-Projekte/FH-Vertibot/src/STM32F30x_StdPeriph_Driver/src/stm32f30x_rcc.c ****   * @note     The configuration of the TIMx clock source is only possible when the 
1164:/home/user/Desktop/STM32-Projekte/FH-Vertibot/src/STM32F30x_StdPeriph_Driver/src/stm32f30x_rcc.c ****   *           SYSCLK = PLL and HCLK and PCLK2 clocks are not divided in respect to SYSCLK
1165:/home/user/Desktop/STM32-Projekte/FH-Vertibot/src/STM32F30x_StdPeriph_Driver/src/stm32f30x_rcc.c ****   * @note     If one of the previous conditions is missed, the TIM clock source 
1166:/home/user/Desktop/STM32-Projekte/FH-Vertibot/src/STM32F30x_StdPeriph_Driver/src/stm32f30x_rcc.c ****   *           configuration is lost and calling again this function becomes mandatory.  
1167:/home/user/Desktop/STM32-Projekte/FH-Vertibot/src/STM32F30x_StdPeriph_Driver/src/stm32f30x_rcc.c ****   * @param  RCC_TIMCLK: defines the TIMx clock source.
1168:/home/user/Desktop/STM32-Projekte/FH-Vertibot/src/STM32F30x_StdPeriph_Driver/src/stm32f30x_rcc.c ****   *   This parameter can be one of the following values:
1169:/home/user/Desktop/STM32-Projekte/FH-Vertibot/src/STM32F30x_StdPeriph_Driver/src/stm32f30x_rcc.c ****   *     @arg RCC_TIMxCLK_HCLK: TIMx clock = APB high speed clock (doubled frequency
1170:/home/user/Desktop/STM32-Projekte/FH-Vertibot/src/STM32F30x_StdPeriph_Driver/src/stm32f30x_rcc.c ****   *          when prescaled)
1171:/home/user/Desktop/STM32-Projekte/FH-Vertibot/src/STM32F30x_StdPeriph_Driver/src/stm32f30x_rcc.c ****   *     @arg RCC_TIMxCLK_PLLCLK: TIMx clock = PLL output (running up to 144 MHz)
1172:/home/user/Desktop/STM32-Projekte/FH-Vertibot/src/STM32F30x_StdPeriph_Driver/src/stm32f30x_rcc.c ****   *          (x can be 1 or 8).
1173:/home/user/Desktop/STM32-Projekte/FH-Vertibot/src/STM32F30x_StdPeriph_Driver/src/stm32f30x_rcc.c ****   * @retval None
1174:/home/user/Desktop/STM32-Projekte/FH-Vertibot/src/STM32F30x_StdPeriph_Driver/src/stm32f30x_rcc.c ****   */
1175:/home/user/Desktop/STM32-Projekte/FH-Vertibot/src/STM32F30x_StdPeriph_Driver/src/stm32f30x_rcc.c **** void RCC_TIMCLKConfig(uint32_t RCC_TIMCLK)
1176:/home/user/Desktop/STM32-Projekte/FH-Vertibot/src/STM32F30x_StdPeriph_Driver/src/stm32f30x_rcc.c **** { 
 1074              		.loc 1 1176 0
 1075              		.cfi_startproc
 1076              		@ args = 0, pretend = 0, frame = 0
 1077              		@ frame_needed = 0, uses_anonymous_args = 0
 1078              		@ link register save eliminated.
 1079              	.LVL85:
1177:/home/user/Desktop/STM32-Projekte/FH-Vertibot/src/STM32F30x_StdPeriph_Driver/src/stm32f30x_rcc.c ****   uint32_t tmp = 0;
1178:/home/user/Desktop/STM32-Projekte/FH-Vertibot/src/STM32F30x_StdPeriph_Driver/src/stm32f30x_rcc.c ****   
1179:/home/user/Desktop/STM32-Projekte/FH-Vertibot/src/STM32F30x_StdPeriph_Driver/src/stm32f30x_rcc.c ****   /* Check the parameters */
1180:/home/user/Desktop/STM32-Projekte/FH-Vertibot/src/STM32F30x_StdPeriph_Driver/src/stm32f30x_rcc.c ****   assert_param(IS_RCC_TIMCLK(RCC_TIMCLK));
1181:/home/user/Desktop/STM32-Projekte/FH-Vertibot/src/STM32F30x_StdPeriph_Driver/src/stm32f30x_rcc.c **** 
1182:/home/user/Desktop/STM32-Projekte/FH-Vertibot/src/STM32F30x_StdPeriph_Driver/src/stm32f30x_rcc.c ****   tmp = (RCC_TIMCLK >> 28);
1183:/home/user/Desktop/STM32-Projekte/FH-Vertibot/src/STM32F30x_StdPeriph_Driver/src/stm32f30x_rcc.c ****   
1184:/home/user/Desktop/STM32-Projekte/FH-Vertibot/src/STM32F30x_StdPeriph_Driver/src/stm32f30x_rcc.c ****   /* Clear I2CSW bit */
1185:/home/user/Desktop/STM32-Projekte/FH-Vertibot/src/STM32F30x_StdPeriph_Driver/src/stm32f30x_rcc.c ****   if (tmp != 0)
 1080              		.loc 1 1185 0
 1081 041c 030F     		lsrs	r3, r0, #28
 1082 041e 064B     		ldr	r3, .L123
1186:/home/user/Desktop/STM32-Projekte/FH-Vertibot/src/STM32F30x_StdPeriph_Driver/src/stm32f30x_rcc.c ****   {
1187:/home/user/Desktop/STM32-Projekte/FH-Vertibot/src/STM32F30x_StdPeriph_Driver/src/stm32f30x_rcc.c ****     RCC->CFGR3 &= ~RCC_CFGR3_TIM8SW;
 1083              		.loc 1 1187 0
 1084 0420 1A6B     		ldr	r2, [r3, #48]
 1085 0422 14BF     		ite	ne
 1086 0424 22F40072 		bicne	r2, r2, #512
1188:/home/user/Desktop/STM32-Projekte/FH-Vertibot/src/STM32F30x_StdPeriph_Driver/src/stm32f30x_rcc.c ****   }
1189:/home/user/Desktop/STM32-Projekte/FH-Vertibot/src/STM32F30x_StdPeriph_Driver/src/stm32f30x_rcc.c ****   else
1190:/home/user/Desktop/STM32-Projekte/FH-Vertibot/src/STM32F30x_StdPeriph_Driver/src/stm32f30x_rcc.c ****   {
1191:/home/user/Desktop/STM32-Projekte/FH-Vertibot/src/STM32F30x_StdPeriph_Driver/src/stm32f30x_rcc.c ****     RCC->CFGR3 &= ~RCC_CFGR3_TIM1SW;
 1087              		.loc 1 1191 0
 1088 0428 22F48072 		biceq	r2, r2, #256
 1089 042c 1A63     		str	r2, [r3, #48]
1192:/home/user/Desktop/STM32-Projekte/FH-Vertibot/src/STM32F30x_StdPeriph_Driver/src/stm32f30x_rcc.c ****   }
1193:/home/user/Desktop/STM32-Projekte/FH-Vertibot/src/STM32F30x_StdPeriph_Driver/src/stm32f30x_rcc.c ****   /* Set I2CSW bits according to RCC_TIMCLK value */
1194:/home/user/Desktop/STM32-Projekte/FH-Vertibot/src/STM32F30x_StdPeriph_Driver/src/stm32f30x_rcc.c ****   RCC->CFGR3 |= RCC_TIMCLK;
 1090              		.loc 1 1194 0
 1091 042e 1A6B     		ldr	r2, [r3, #48]
 1092 0430 1043     		orrs	r0, r0, r2
 1093              	.LVL86:
 1094 0432 1863     		str	r0, [r3, #48]
 1095 0434 7047     		bx	lr
 1096              	.L124:
 1097 0436 00BF     		.align	2
 1098              	.L123:
 1099 0438 00100240 		.word	1073876992
 1100              		.cfi_endproc
 1101              	.LFE132:
 1103              		.align	1
 1104              		.global	RCC_USARTCLKConfig
 1105              		.thumb
 1106              		.thumb_func
 1108              	RCC_USARTCLKConfig:
 1109              	.LFB133:
1195:/home/user/Desktop/STM32-Projekte/FH-Vertibot/src/STM32F30x_StdPeriph_Driver/src/stm32f30x_rcc.c **** }
1196:/home/user/Desktop/STM32-Projekte/FH-Vertibot/src/STM32F30x_StdPeriph_Driver/src/stm32f30x_rcc.c **** 
1197:/home/user/Desktop/STM32-Projekte/FH-Vertibot/src/STM32F30x_StdPeriph_Driver/src/stm32f30x_rcc.c **** /**
1198:/home/user/Desktop/STM32-Projekte/FH-Vertibot/src/STM32F30x_StdPeriph_Driver/src/stm32f30x_rcc.c ****   * @brief  Configures the USART clock (USARTCLK).
1199:/home/user/Desktop/STM32-Projekte/FH-Vertibot/src/STM32F30x_StdPeriph_Driver/src/stm32f30x_rcc.c ****   * @param  RCC_USARTCLK: defines the USART clock source. This clock is derived 
1200:/home/user/Desktop/STM32-Projekte/FH-Vertibot/src/STM32F30x_StdPeriph_Driver/src/stm32f30x_rcc.c ****   *         from the HSI or System clock.
1201:/home/user/Desktop/STM32-Projekte/FH-Vertibot/src/STM32F30x_StdPeriph_Driver/src/stm32f30x_rcc.c ****   *   This parameter can be one of the following values:
1202:/home/user/Desktop/STM32-Projekte/FH-Vertibot/src/STM32F30x_StdPeriph_Driver/src/stm32f30x_rcc.c ****   *     @arg RCC_USARTxCLK_PCLK: USART clock = APB Clock (PCLK)
1203:/home/user/Desktop/STM32-Projekte/FH-Vertibot/src/STM32F30x_StdPeriph_Driver/src/stm32f30x_rcc.c ****   *     @arg RCC_USARTxCLK_SYSCLK: USART clock = System Clock
1204:/home/user/Desktop/STM32-Projekte/FH-Vertibot/src/STM32F30x_StdPeriph_Driver/src/stm32f30x_rcc.c ****   *     @arg RCC_USARTxCLK_LSE: USART clock = LSE Clock
1205:/home/user/Desktop/STM32-Projekte/FH-Vertibot/src/STM32F30x_StdPeriph_Driver/src/stm32f30x_rcc.c ****   *     @arg RCC_USARTxCLK_HSI: USART clock = HSI Clock
1206:/home/user/Desktop/STM32-Projekte/FH-Vertibot/src/STM32F30x_StdPeriph_Driver/src/stm32f30x_rcc.c ****   *          (x can be 1, 2, 3, 4 or 5).  
1207:/home/user/Desktop/STM32-Projekte/FH-Vertibot/src/STM32F30x_StdPeriph_Driver/src/stm32f30x_rcc.c ****   * @retval None
1208:/home/user/Desktop/STM32-Projekte/FH-Vertibot/src/STM32F30x_StdPeriph_Driver/src/stm32f30x_rcc.c ****   */
1209:/home/user/Desktop/STM32-Projekte/FH-Vertibot/src/STM32F30x_StdPeriph_Driver/src/stm32f30x_rcc.c **** void RCC_USARTCLKConfig(uint32_t RCC_USARTCLK)
1210:/home/user/Desktop/STM32-Projekte/FH-Vertibot/src/STM32F30x_StdPeriph_Driver/src/stm32f30x_rcc.c **** { 
 1110              		.loc 1 1210 0
 1111              		.cfi_startproc
 1112              		@ args = 0, pretend = 0, frame = 0
 1113              		@ frame_needed = 0, uses_anonymous_args = 0
 1114              		@ link register save eliminated.
 1115              	.LVL87:
1211:/home/user/Desktop/STM32-Projekte/FH-Vertibot/src/STM32F30x_StdPeriph_Driver/src/stm32f30x_rcc.c ****   uint32_t tmp = 0;
1212:/home/user/Desktop/STM32-Projekte/FH-Vertibot/src/STM32F30x_StdPeriph_Driver/src/stm32f30x_rcc.c ****   
1213:/home/user/Desktop/STM32-Projekte/FH-Vertibot/src/STM32F30x_StdPeriph_Driver/src/stm32f30x_rcc.c ****   /* Check the parameters */
1214:/home/user/Desktop/STM32-Projekte/FH-Vertibot/src/STM32F30x_StdPeriph_Driver/src/stm32f30x_rcc.c ****   assert_param(IS_RCC_USARTCLK(RCC_USARTCLK));
1215:/home/user/Desktop/STM32-Projekte/FH-Vertibot/src/STM32F30x_StdPeriph_Driver/src/stm32f30x_rcc.c **** 
1216:/home/user/Desktop/STM32-Projekte/FH-Vertibot/src/STM32F30x_StdPeriph_Driver/src/stm32f30x_rcc.c ****   tmp = (RCC_USARTCLK >> 28);
 1116              		.loc 1 1216 0
 1117 043c 020F     		lsrs	r2, r0, #28
 1118              	.LVL88:
1217:/home/user/Desktop/STM32-Projekte/FH-Vertibot/src/STM32F30x_StdPeriph_Driver/src/stm32f30x_rcc.c **** 
1218:/home/user/Desktop/STM32-Projekte/FH-Vertibot/src/STM32F30x_StdPeriph_Driver/src/stm32f30x_rcc.c ****   /* Clear USARTSW[1:0] bit */
1219:/home/user/Desktop/STM32-Projekte/FH-Vertibot/src/STM32F30x_StdPeriph_Driver/src/stm32f30x_rcc.c ****   switch (tmp)
 1119              		.loc 1 1219 0
 1120 043e 013A     		subs	r2, r2, #1
 1121              	.LVL89:
 1122 0440 0F4B     		ldr	r3, .L134
 1123 0442 042A     		cmp	r2, #4
 1124 0444 18D8     		bhi	.L126
 1125 0446 DFE802F0 		tbb	[pc, r2]
 1126              	.L132:
 1127 044a 03       		.byte	(.L127-.L132)/2
 1128 044b 07       		.byte	(.L128-.L132)/2
 1129 044c 0B       		.byte	(.L129-.L132)/2
 1130 044d 0F       		.byte	(.L130-.L132)/2
 1131 044e 13       		.byte	(.L131-.L132)/2
 1132 044f 00       		.align	1
 1133              	.L127:
1220:/home/user/Desktop/STM32-Projekte/FH-Vertibot/src/STM32F30x_StdPeriph_Driver/src/stm32f30x_rcc.c ****   {
1221:/home/user/Desktop/STM32-Projekte/FH-Vertibot/src/STM32F30x_StdPeriph_Driver/src/stm32f30x_rcc.c ****     case 0x01:  /* clear USART1SW */
1222:/home/user/Desktop/STM32-Projekte/FH-Vertibot/src/STM32F30x_StdPeriph_Driver/src/stm32f30x_rcc.c ****       RCC->CFGR3 &= ~RCC_CFGR3_USART1SW;
 1134              		.loc 1 1222 0
 1135 0450 1A6B     		ldr	r2, [r3, #48]
 1136              	.LVL90:
 1137 0452 22F00302 		bic	r2, r2, #3
 1138 0456 0EE0     		b	.L133
 1139              	.L128:
1223:/home/user/Desktop/STM32-Projekte/FH-Vertibot/src/STM32F30x_StdPeriph_Driver/src/stm32f30x_rcc.c ****       break;
1224:/home/user/Desktop/STM32-Projekte/FH-Vertibot/src/STM32F30x_StdPeriph_Driver/src/stm32f30x_rcc.c ****     case 0x02:  /* clear USART2SW */
1225:/home/user/Desktop/STM32-Projekte/FH-Vertibot/src/STM32F30x_StdPeriph_Driver/src/stm32f30x_rcc.c ****       RCC->CFGR3 &= ~RCC_CFGR3_USART2SW;
 1140              		.loc 1 1225 0
 1141 0458 1A6B     		ldr	r2, [r3, #48]
 1142 045a 22F44032 		bic	r2, r2, #196608
 1143 045e 0AE0     		b	.L133
 1144              	.L129:
1226:/home/user/Desktop/STM32-Projekte/FH-Vertibot/src/STM32F30x_StdPeriph_Driver/src/stm32f30x_rcc.c ****       break;
1227:/home/user/Desktop/STM32-Projekte/FH-Vertibot/src/STM32F30x_StdPeriph_Driver/src/stm32f30x_rcc.c ****     case 0x03:  /* clear USART3SW */
1228:/home/user/Desktop/STM32-Projekte/FH-Vertibot/src/STM32F30x_StdPeriph_Driver/src/stm32f30x_rcc.c ****       RCC->CFGR3 &= ~RCC_CFGR3_USART3SW;
 1145              		.loc 1 1228 0
 1146 0460 1A6B     		ldr	r2, [r3, #48]
 1147 0462 22F44022 		bic	r2, r2, #786432
 1148 0466 06E0     		b	.L133
 1149              	.L130:
1229:/home/user/Desktop/STM32-Projekte/FH-Vertibot/src/STM32F30x_StdPeriph_Driver/src/stm32f30x_rcc.c ****       break;
1230:/home/user/Desktop/STM32-Projekte/FH-Vertibot/src/STM32F30x_StdPeriph_Driver/src/stm32f30x_rcc.c ****     case 0x04:  /* clear UART4SW */
1231:/home/user/Desktop/STM32-Projekte/FH-Vertibot/src/STM32F30x_StdPeriph_Driver/src/stm32f30x_rcc.c ****       RCC->CFGR3 &= ~RCC_CFGR3_UART4SW;
 1150              		.loc 1 1231 0
 1151 0468 1A6B     		ldr	r2, [r3, #48]
 1152 046a 22F44012 		bic	r2, r2, #3145728
 1153 046e 02E0     		b	.L133
 1154              	.L131:
1232:/home/user/Desktop/STM32-Projekte/FH-Vertibot/src/STM32F30x_StdPeriph_Driver/src/stm32f30x_rcc.c ****       break;
1233:/home/user/Desktop/STM32-Projekte/FH-Vertibot/src/STM32F30x_StdPeriph_Driver/src/stm32f30x_rcc.c ****     case 0x05:  /* clear UART5SW */
1234:/home/user/Desktop/STM32-Projekte/FH-Vertibot/src/STM32F30x_StdPeriph_Driver/src/stm32f30x_rcc.c ****       RCC->CFGR3 &= ~RCC_CFGR3_UART5SW;
 1155              		.loc 1 1234 0
 1156 0470 1A6B     		ldr	r2, [r3, #48]
 1157 0472 22F44002 		bic	r2, r2, #12582912
 1158              	.L133:
 1159 0476 1A63     		str	r2, [r3, #48]
 1160              	.L126:
1235:/home/user/Desktop/STM32-Projekte/FH-Vertibot/src/STM32F30x_StdPeriph_Driver/src/stm32f30x_rcc.c ****       break;
1236:/home/user/Desktop/STM32-Projekte/FH-Vertibot/src/STM32F30x_StdPeriph_Driver/src/stm32f30x_rcc.c ****     default:
1237:/home/user/Desktop/STM32-Projekte/FH-Vertibot/src/STM32F30x_StdPeriph_Driver/src/stm32f30x_rcc.c ****       break;
1238:/home/user/Desktop/STM32-Projekte/FH-Vertibot/src/STM32F30x_StdPeriph_Driver/src/stm32f30x_rcc.c ****   }
1239:/home/user/Desktop/STM32-Projekte/FH-Vertibot/src/STM32F30x_StdPeriph_Driver/src/stm32f30x_rcc.c **** 
1240:/home/user/Desktop/STM32-Projekte/FH-Vertibot/src/STM32F30x_StdPeriph_Driver/src/stm32f30x_rcc.c ****   /* Set USARTSW bits according to RCC_USARTCLK value */
1241:/home/user/Desktop/STM32-Projekte/FH-Vertibot/src/STM32F30x_StdPeriph_Driver/src/stm32f30x_rcc.c ****   RCC->CFGR3 |= RCC_USARTCLK;
 1161              		.loc 1 1241 0
 1162 0478 1A6B     		ldr	r2, [r3, #48]
 1163 047a 1043     		orrs	r0, r0, r2
 1164              	.LVL91:
 1165 047c 1863     		str	r0, [r3, #48]
 1166 047e 7047     		bx	lr
 1167              	.L135:
 1168              		.align	2
 1169              	.L134:
 1170 0480 00100240 		.word	1073876992
 1171              		.cfi_endproc
 1172              	.LFE133:
 1174              		.align	1
 1175              		.global	RCC_USBCLKConfig
 1176              		.thumb
 1177              		.thumb_func
 1179              	RCC_USBCLKConfig:
 1180              	.LFB134:
1242:/home/user/Desktop/STM32-Projekte/FH-Vertibot/src/STM32F30x_StdPeriph_Driver/src/stm32f30x_rcc.c **** }
1243:/home/user/Desktop/STM32-Projekte/FH-Vertibot/src/STM32F30x_StdPeriph_Driver/src/stm32f30x_rcc.c **** 
1244:/home/user/Desktop/STM32-Projekte/FH-Vertibot/src/STM32F30x_StdPeriph_Driver/src/stm32f30x_rcc.c **** /**
1245:/home/user/Desktop/STM32-Projekte/FH-Vertibot/src/STM32F30x_StdPeriph_Driver/src/stm32f30x_rcc.c ****   * @brief  Configures the USB clock (USBCLK).
1246:/home/user/Desktop/STM32-Projekte/FH-Vertibot/src/STM32F30x_StdPeriph_Driver/src/stm32f30x_rcc.c ****   * @param  RCC_USBCLKSource: specifies the USB clock source. This clock is 
1247:/home/user/Desktop/STM32-Projekte/FH-Vertibot/src/STM32F30x_StdPeriph_Driver/src/stm32f30x_rcc.c ****   *   derived from the PLL output.
1248:/home/user/Desktop/STM32-Projekte/FH-Vertibot/src/STM32F30x_StdPeriph_Driver/src/stm32f30x_rcc.c ****   *   This parameter can be one of the following values:
1249:/home/user/Desktop/STM32-Projekte/FH-Vertibot/src/STM32F30x_StdPeriph_Driver/src/stm32f30x_rcc.c ****   *     @arg RCC_USBCLKSource_PLLCLK_1Div5: PLL clock divided by 1,5 selected as USB 
1250:/home/user/Desktop/STM32-Projekte/FH-Vertibot/src/STM32F30x_StdPeriph_Driver/src/stm32f30x_rcc.c ****   *                                     clock source
1251:/home/user/Desktop/STM32-Projekte/FH-Vertibot/src/STM32F30x_StdPeriph_Driver/src/stm32f30x_rcc.c ****   *     @arg RCC_USBCLKSource_PLLCLK_Div1: PLL clock selected as USB clock source
1252:/home/user/Desktop/STM32-Projekte/FH-Vertibot/src/STM32F30x_StdPeriph_Driver/src/stm32f30x_rcc.c ****   * @retval None
1253:/home/user/Desktop/STM32-Projekte/FH-Vertibot/src/STM32F30x_StdPeriph_Driver/src/stm32f30x_rcc.c ****   */
1254:/home/user/Desktop/STM32-Projekte/FH-Vertibot/src/STM32F30x_StdPeriph_Driver/src/stm32f30x_rcc.c **** void RCC_USBCLKConfig(uint32_t RCC_USBCLKSource)
1255:/home/user/Desktop/STM32-Projekte/FH-Vertibot/src/STM32F30x_StdPeriph_Driver/src/stm32f30x_rcc.c **** {
 1181              		.loc 1 1255 0
 1182              		.cfi_startproc
 1183              		@ args = 0, pretend = 0, frame = 0
 1184              		@ frame_needed = 0, uses_anonymous_args = 0
 1185              		@ link register save eliminated.
 1186              	.LVL92:
1256:/home/user/Desktop/STM32-Projekte/FH-Vertibot/src/STM32F30x_StdPeriph_Driver/src/stm32f30x_rcc.c ****   /* Check the parameters */
1257:/home/user/Desktop/STM32-Projekte/FH-Vertibot/src/STM32F30x_StdPeriph_Driver/src/stm32f30x_rcc.c ****   assert_param(IS_RCC_USBCLK_SOURCE(RCC_USBCLKSource));
1258:/home/user/Desktop/STM32-Projekte/FH-Vertibot/src/STM32F30x_StdPeriph_Driver/src/stm32f30x_rcc.c **** 
1259:/home/user/Desktop/STM32-Projekte/FH-Vertibot/src/STM32F30x_StdPeriph_Driver/src/stm32f30x_rcc.c ****   *(__IO uint32_t *) CFGR_USBPRE_BB = RCC_USBCLKSource;
 1187              		.loc 1 1259 0
 1188 0484 014B     		ldr	r3, .L137
 1189 0486 1860     		str	r0, [r3, #0]
 1190 0488 7047     		bx	lr
 1191              	.L138:
 1192 048a 00BF     		.align	2
 1193              	.L137:
 1194 048c D8004242 		.word	1111621848
 1195              		.cfi_endproc
 1196              	.LFE134:
 1198              		.align	1
 1199              		.global	RCC_RTCCLKConfig
 1200              		.thumb
 1201              		.thumb_func
 1203              	RCC_RTCCLKConfig:
 1204              	.LFB135:
1260:/home/user/Desktop/STM32-Projekte/FH-Vertibot/src/STM32F30x_StdPeriph_Driver/src/stm32f30x_rcc.c **** }
1261:/home/user/Desktop/STM32-Projekte/FH-Vertibot/src/STM32F30x_StdPeriph_Driver/src/stm32f30x_rcc.c **** 
1262:/home/user/Desktop/STM32-Projekte/FH-Vertibot/src/STM32F30x_StdPeriph_Driver/src/stm32f30x_rcc.c **** /**
1263:/home/user/Desktop/STM32-Projekte/FH-Vertibot/src/STM32F30x_StdPeriph_Driver/src/stm32f30x_rcc.c ****   * @brief  Configures the RTC clock (RTCCLK).
1264:/home/user/Desktop/STM32-Projekte/FH-Vertibot/src/STM32F30x_StdPeriph_Driver/src/stm32f30x_rcc.c ****   * @note     As the RTC clock configuration bits are in the Backup domain and write
1265:/home/user/Desktop/STM32-Projekte/FH-Vertibot/src/STM32F30x_StdPeriph_Driver/src/stm32f30x_rcc.c ****   *           access is denied to this domain after reset, you have to enable write
1266:/home/user/Desktop/STM32-Projekte/FH-Vertibot/src/STM32F30x_StdPeriph_Driver/src/stm32f30x_rcc.c ****   *           access using PWR_BackupAccessCmd(ENABLE) function before to configure
1267:/home/user/Desktop/STM32-Projekte/FH-Vertibot/src/STM32F30x_StdPeriph_Driver/src/stm32f30x_rcc.c ****   *           the RTC clock source (to be done once after reset).    
1268:/home/user/Desktop/STM32-Projekte/FH-Vertibot/src/STM32F30x_StdPeriph_Driver/src/stm32f30x_rcc.c ****   * @note     Once the RTC clock is configured it can't be changed unless the RTC
1269:/home/user/Desktop/STM32-Projekte/FH-Vertibot/src/STM32F30x_StdPeriph_Driver/src/stm32f30x_rcc.c ****   *           is reset using RCC_BackupResetCmd function, or by a Power On Reset (POR)
1270:/home/user/Desktop/STM32-Projekte/FH-Vertibot/src/STM32F30x_StdPeriph_Driver/src/stm32f30x_rcc.c ****   *             
1271:/home/user/Desktop/STM32-Projekte/FH-Vertibot/src/STM32F30x_StdPeriph_Driver/src/stm32f30x_rcc.c ****   * @param  RCC_RTCCLKSource: specifies the RTC clock source.
1272:/home/user/Desktop/STM32-Projekte/FH-Vertibot/src/STM32F30x_StdPeriph_Driver/src/stm32f30x_rcc.c ****   *   This parameter can be one of the following values:
1273:/home/user/Desktop/STM32-Projekte/FH-Vertibot/src/STM32F30x_StdPeriph_Driver/src/stm32f30x_rcc.c ****   *     @arg RCC_RTCCLKSource_LSE: LSE selected as RTC clock
1274:/home/user/Desktop/STM32-Projekte/FH-Vertibot/src/STM32F30x_StdPeriph_Driver/src/stm32f30x_rcc.c ****   *     @arg RCC_RTCCLKSource_LSI: LSI selected as RTC clock
1275:/home/user/Desktop/STM32-Projekte/FH-Vertibot/src/STM32F30x_StdPeriph_Driver/src/stm32f30x_rcc.c ****   *     @arg RCC_RTCCLKSource_HSE_Div32: HSE divided by 32 selected as RTC clock
1276:/home/user/Desktop/STM32-Projekte/FH-Vertibot/src/STM32F30x_StdPeriph_Driver/src/stm32f30x_rcc.c ****   *       
1277:/home/user/Desktop/STM32-Projekte/FH-Vertibot/src/STM32F30x_StdPeriph_Driver/src/stm32f30x_rcc.c ****   * @note     If the LSE or LSI is used as RTC clock source, the RTC continues to
1278:/home/user/Desktop/STM32-Projekte/FH-Vertibot/src/STM32F30x_StdPeriph_Driver/src/stm32f30x_rcc.c ****   *           work in STOP and STANDBY modes, and can be used as wakeup source.
1279:/home/user/Desktop/STM32-Projekte/FH-Vertibot/src/STM32F30x_StdPeriph_Driver/src/stm32f30x_rcc.c ****   *           However, when the HSE clock is used as RTC clock source, the RTC
1280:/home/user/Desktop/STM32-Projekte/FH-Vertibot/src/STM32F30x_StdPeriph_Driver/src/stm32f30x_rcc.c ****   *           cannot be used in STOP and STANDBY modes.             
1281:/home/user/Desktop/STM32-Projekte/FH-Vertibot/src/STM32F30x_StdPeriph_Driver/src/stm32f30x_rcc.c ****   * @note     The maximum input clock frequency for RTC is 2MHz (when using HSE as
1282:/home/user/Desktop/STM32-Projekte/FH-Vertibot/src/STM32F30x_StdPeriph_Driver/src/stm32f30x_rcc.c ****   *           RTC clock source).             
1283:/home/user/Desktop/STM32-Projekte/FH-Vertibot/src/STM32F30x_StdPeriph_Driver/src/stm32f30x_rcc.c ****   * @retval None
1284:/home/user/Desktop/STM32-Projekte/FH-Vertibot/src/STM32F30x_StdPeriph_Driver/src/stm32f30x_rcc.c ****   */
1285:/home/user/Desktop/STM32-Projekte/FH-Vertibot/src/STM32F30x_StdPeriph_Driver/src/stm32f30x_rcc.c **** void RCC_RTCCLKConfig(uint32_t RCC_RTCCLKSource)
1286:/home/user/Desktop/STM32-Projekte/FH-Vertibot/src/STM32F30x_StdPeriph_Driver/src/stm32f30x_rcc.c **** {
 1205              		.loc 1 1286 0
 1206              		.cfi_startproc
 1207              		@ args = 0, pretend = 0, frame = 0
 1208              		@ frame_needed = 0, uses_anonymous_args = 0
 1209              		@ link register save eliminated.
 1210              	.LVL93:
1287:/home/user/Desktop/STM32-Projekte/FH-Vertibot/src/STM32F30x_StdPeriph_Driver/src/stm32f30x_rcc.c ****   /* Check the parameters */
1288:/home/user/Desktop/STM32-Projekte/FH-Vertibot/src/STM32F30x_StdPeriph_Driver/src/stm32f30x_rcc.c ****   assert_param(IS_RCC_RTCCLK_SOURCE(RCC_RTCCLKSource));
1289:/home/user/Desktop/STM32-Projekte/FH-Vertibot/src/STM32F30x_StdPeriph_Driver/src/stm32f30x_rcc.c ****   
1290:/home/user/Desktop/STM32-Projekte/FH-Vertibot/src/STM32F30x_StdPeriph_Driver/src/stm32f30x_rcc.c ****   /* Select the RTC clock source */
1291:/home/user/Desktop/STM32-Projekte/FH-Vertibot/src/STM32F30x_StdPeriph_Driver/src/stm32f30x_rcc.c ****   RCC->BDCR |= RCC_RTCCLKSource;
 1211              		.loc 1 1291 0
 1212 0490 024B     		ldr	r3, .L140
 1213 0492 1A6A     		ldr	r2, [r3, #32]
 1214 0494 1043     		orrs	r0, r0, r2
 1215              	.LVL94:
 1216 0496 1862     		str	r0, [r3, #32]
 1217 0498 7047     		bx	lr
 1218              	.L141:
 1219 049a 00BF     		.align	2
 1220              	.L140:
 1221 049c 00100240 		.word	1073876992
 1222              		.cfi_endproc
 1223              	.LFE135:
 1225              		.align	1
 1226              		.global	RCC_I2SCLKConfig
 1227              		.thumb
 1228              		.thumb_func
 1230              	RCC_I2SCLKConfig:
 1231              	.LFB136:
1292:/home/user/Desktop/STM32-Projekte/FH-Vertibot/src/STM32F30x_StdPeriph_Driver/src/stm32f30x_rcc.c **** }
1293:/home/user/Desktop/STM32-Projekte/FH-Vertibot/src/STM32F30x_StdPeriph_Driver/src/stm32f30x_rcc.c **** 
1294:/home/user/Desktop/STM32-Projekte/FH-Vertibot/src/STM32F30x_StdPeriph_Driver/src/stm32f30x_rcc.c **** /**
1295:/home/user/Desktop/STM32-Projekte/FH-Vertibot/src/STM32F30x_StdPeriph_Driver/src/stm32f30x_rcc.c ****   * @brief  Configures the I2S clock source (I2SCLK).
1296:/home/user/Desktop/STM32-Projekte/FH-Vertibot/src/STM32F30x_StdPeriph_Driver/src/stm32f30x_rcc.c ****   * @note   This function must be called before enabling the SPI2 and SPI3 clocks.
1297:/home/user/Desktop/STM32-Projekte/FH-Vertibot/src/STM32F30x_StdPeriph_Driver/src/stm32f30x_rcc.c ****   * @param  RCC_I2SCLKSource: specifies the I2S clock source.
1298:/home/user/Desktop/STM32-Projekte/FH-Vertibot/src/STM32F30x_StdPeriph_Driver/src/stm32f30x_rcc.c ****   *          This parameter can be one of the following values:
1299:/home/user/Desktop/STM32-Projekte/FH-Vertibot/src/STM32F30x_StdPeriph_Driver/src/stm32f30x_rcc.c ****   *            @arg RCC_I2S2CLKSource_SYSCLK: SYSCLK clock used as I2S clock source
1300:/home/user/Desktop/STM32-Projekte/FH-Vertibot/src/STM32F30x_StdPeriph_Driver/src/stm32f30x_rcc.c ****   *            @arg RCC_I2S2CLKSource_Ext: External clock mapped on the I2S_CKIN pin
1301:/home/user/Desktop/STM32-Projekte/FH-Vertibot/src/STM32F30x_StdPeriph_Driver/src/stm32f30x_rcc.c ****   *                                        used as I2S clock source
1302:/home/user/Desktop/STM32-Projekte/FH-Vertibot/src/STM32F30x_StdPeriph_Driver/src/stm32f30x_rcc.c ****   * @retval None
1303:/home/user/Desktop/STM32-Projekte/FH-Vertibot/src/STM32F30x_StdPeriph_Driver/src/stm32f30x_rcc.c ****   */
1304:/home/user/Desktop/STM32-Projekte/FH-Vertibot/src/STM32F30x_StdPeriph_Driver/src/stm32f30x_rcc.c **** void RCC_I2SCLKConfig(uint32_t RCC_I2SCLKSource)
1305:/home/user/Desktop/STM32-Projekte/FH-Vertibot/src/STM32F30x_StdPeriph_Driver/src/stm32f30x_rcc.c **** {
 1232              		.loc 1 1305 0
 1233              		.cfi_startproc
 1234              		@ args = 0, pretend = 0, frame = 0
 1235              		@ frame_needed = 0, uses_anonymous_args = 0
 1236              		@ link register save eliminated.
 1237              	.LVL95:
1306:/home/user/Desktop/STM32-Projekte/FH-Vertibot/src/STM32F30x_StdPeriph_Driver/src/stm32f30x_rcc.c ****   /* Check the parameters */
1307:/home/user/Desktop/STM32-Projekte/FH-Vertibot/src/STM32F30x_StdPeriph_Driver/src/stm32f30x_rcc.c ****   assert_param(IS_RCC_I2SCLK_SOURCE(RCC_I2SCLKSource));
1308:/home/user/Desktop/STM32-Projekte/FH-Vertibot/src/STM32F30x_StdPeriph_Driver/src/stm32f30x_rcc.c **** 
1309:/home/user/Desktop/STM32-Projekte/FH-Vertibot/src/STM32F30x_StdPeriph_Driver/src/stm32f30x_rcc.c ****   *(__IO uint32_t *) CFGR_I2SSRC_BB = RCC_I2SCLKSource;
 1238              		.loc 1 1309 0
 1239 04a0 014B     		ldr	r3, .L143
 1240 04a2 1860     		str	r0, [r3, #0]
 1241 04a4 7047     		bx	lr
 1242              	.L144:
 1243 04a6 00BF     		.align	2
 1244              	.L143:
 1245 04a8 DC004242 		.word	1111621852
 1246              		.cfi_endproc
 1247              	.LFE136:
 1249              		.align	1
 1250              		.global	RCC_RTCCLKCmd
 1251              		.thumb
 1252              		.thumb_func
 1254              	RCC_RTCCLKCmd:
 1255              	.LFB137:
1310:/home/user/Desktop/STM32-Projekte/FH-Vertibot/src/STM32F30x_StdPeriph_Driver/src/stm32f30x_rcc.c **** }
1311:/home/user/Desktop/STM32-Projekte/FH-Vertibot/src/STM32F30x_StdPeriph_Driver/src/stm32f30x_rcc.c **** 
1312:/home/user/Desktop/STM32-Projekte/FH-Vertibot/src/STM32F30x_StdPeriph_Driver/src/stm32f30x_rcc.c **** /**
1313:/home/user/Desktop/STM32-Projekte/FH-Vertibot/src/STM32F30x_StdPeriph_Driver/src/stm32f30x_rcc.c ****   * @brief  Enables or disables the RTC clock.
1314:/home/user/Desktop/STM32-Projekte/FH-Vertibot/src/STM32F30x_StdPeriph_Driver/src/stm32f30x_rcc.c ****   * @note   This function must be used only after the RTC clock source was selected
1315:/home/user/Desktop/STM32-Projekte/FH-Vertibot/src/STM32F30x_StdPeriph_Driver/src/stm32f30x_rcc.c ****   *         using the RCC_RTCCLKConfig function.
1316:/home/user/Desktop/STM32-Projekte/FH-Vertibot/src/STM32F30x_StdPeriph_Driver/src/stm32f30x_rcc.c ****   * @param  NewState: new state of the RTC clock.
1317:/home/user/Desktop/STM32-Projekte/FH-Vertibot/src/STM32F30x_StdPeriph_Driver/src/stm32f30x_rcc.c ****   *         This parameter can be: ENABLE or DISABLE.
1318:/home/user/Desktop/STM32-Projekte/FH-Vertibot/src/STM32F30x_StdPeriph_Driver/src/stm32f30x_rcc.c ****   * @retval None
1319:/home/user/Desktop/STM32-Projekte/FH-Vertibot/src/STM32F30x_StdPeriph_Driver/src/stm32f30x_rcc.c ****   */
1320:/home/user/Desktop/STM32-Projekte/FH-Vertibot/src/STM32F30x_StdPeriph_Driver/src/stm32f30x_rcc.c **** void RCC_RTCCLKCmd(FunctionalState NewState)
1321:/home/user/Desktop/STM32-Projekte/FH-Vertibot/src/STM32F30x_StdPeriph_Driver/src/stm32f30x_rcc.c **** {
 1256              		.loc 1 1321 0
 1257              		.cfi_startproc
 1258              		@ args = 0, pretend = 0, frame = 0
 1259              		@ frame_needed = 0, uses_anonymous_args = 0
 1260              		@ link register save eliminated.
 1261              	.LVL96:
1322:/home/user/Desktop/STM32-Projekte/FH-Vertibot/src/STM32F30x_StdPeriph_Driver/src/stm32f30x_rcc.c ****   /* Check the parameters */
1323:/home/user/Desktop/STM32-Projekte/FH-Vertibot/src/STM32F30x_StdPeriph_Driver/src/stm32f30x_rcc.c ****   assert_param(IS_FUNCTIONAL_STATE(NewState));
1324:/home/user/Desktop/STM32-Projekte/FH-Vertibot/src/STM32F30x_StdPeriph_Driver/src/stm32f30x_rcc.c ****   
1325:/home/user/Desktop/STM32-Projekte/FH-Vertibot/src/STM32F30x_StdPeriph_Driver/src/stm32f30x_rcc.c ****   *(__IO uint32_t *) BDCR_RTCEN_BB = (uint32_t)NewState;
 1262              		.loc 1 1325 0
 1263 04ac 014B     		ldr	r3, .L146
 1264 04ae 1860     		str	r0, [r3, #0]
 1265 04b0 7047     		bx	lr
 1266              	.L147:
 1267 04b2 00BF     		.align	2
 1268              	.L146:
 1269 04b4 3C044242 		.word	1111622716
 1270              		.cfi_endproc
 1271              	.LFE137:
 1273              		.align	1
 1274              		.global	RCC_BackupResetCmd
 1275              		.thumb
 1276              		.thumb_func
 1278              	RCC_BackupResetCmd:
 1279              	.LFB138:
1326:/home/user/Desktop/STM32-Projekte/FH-Vertibot/src/STM32F30x_StdPeriph_Driver/src/stm32f30x_rcc.c **** }
1327:/home/user/Desktop/STM32-Projekte/FH-Vertibot/src/STM32F30x_StdPeriph_Driver/src/stm32f30x_rcc.c **** 
1328:/home/user/Desktop/STM32-Projekte/FH-Vertibot/src/STM32F30x_StdPeriph_Driver/src/stm32f30x_rcc.c **** /**
1329:/home/user/Desktop/STM32-Projekte/FH-Vertibot/src/STM32F30x_StdPeriph_Driver/src/stm32f30x_rcc.c ****   * @brief  Forces or releases the Backup domain reset.
1330:/home/user/Desktop/STM32-Projekte/FH-Vertibot/src/STM32F30x_StdPeriph_Driver/src/stm32f30x_rcc.c ****   * @note   This function resets the RTC peripheral (including the backup registers)
1331:/home/user/Desktop/STM32-Projekte/FH-Vertibot/src/STM32F30x_StdPeriph_Driver/src/stm32f30x_rcc.c ****   *         and the RTC clock source selection in RCC_BDCR register.
1332:/home/user/Desktop/STM32-Projekte/FH-Vertibot/src/STM32F30x_StdPeriph_Driver/src/stm32f30x_rcc.c ****   * @param  NewState: new state of the Backup domain reset.
1333:/home/user/Desktop/STM32-Projekte/FH-Vertibot/src/STM32F30x_StdPeriph_Driver/src/stm32f30x_rcc.c ****   *         This parameter can be: ENABLE or DISABLE.
1334:/home/user/Desktop/STM32-Projekte/FH-Vertibot/src/STM32F30x_StdPeriph_Driver/src/stm32f30x_rcc.c ****   * @retval None
1335:/home/user/Desktop/STM32-Projekte/FH-Vertibot/src/STM32F30x_StdPeriph_Driver/src/stm32f30x_rcc.c ****   */
1336:/home/user/Desktop/STM32-Projekte/FH-Vertibot/src/STM32F30x_StdPeriph_Driver/src/stm32f30x_rcc.c **** void RCC_BackupResetCmd(FunctionalState NewState)
1337:/home/user/Desktop/STM32-Projekte/FH-Vertibot/src/STM32F30x_StdPeriph_Driver/src/stm32f30x_rcc.c **** {
 1280              		.loc 1 1337 0
 1281              		.cfi_startproc
 1282              		@ args = 0, pretend = 0, frame = 0
 1283              		@ frame_needed = 0, uses_anonymous_args = 0
 1284              		@ link register save eliminated.
 1285              	.LVL97:
1338:/home/user/Desktop/STM32-Projekte/FH-Vertibot/src/STM32F30x_StdPeriph_Driver/src/stm32f30x_rcc.c ****   /* Check the parameters */
1339:/home/user/Desktop/STM32-Projekte/FH-Vertibot/src/STM32F30x_StdPeriph_Driver/src/stm32f30x_rcc.c ****   assert_param(IS_FUNCTIONAL_STATE(NewState));
1340:/home/user/Desktop/STM32-Projekte/FH-Vertibot/src/STM32F30x_StdPeriph_Driver/src/stm32f30x_rcc.c ****   
1341:/home/user/Desktop/STM32-Projekte/FH-Vertibot/src/STM32F30x_StdPeriph_Driver/src/stm32f30x_rcc.c ****   *(__IO uint32_t *) BDCR_BDRST_BB = (uint32_t)NewState;
 1286              		.loc 1 1341 0
 1287 04b8 014B     		ldr	r3, .L149
 1288 04ba 1860     		str	r0, [r3, #0]
 1289 04bc 7047     		bx	lr
 1290              	.L150:
 1291 04be 00BF     		.align	2
 1292              	.L149:
 1293 04c0 40044242 		.word	1111622720
 1294              		.cfi_endproc
 1295              	.LFE138:
 1297              		.align	1
 1298              		.global	RCC_AHBPeriphClockCmd
 1299              		.thumb
 1300              		.thumb_func
 1302              	RCC_AHBPeriphClockCmd:
 1303              	.LFB139:
1342:/home/user/Desktop/STM32-Projekte/FH-Vertibot/src/STM32F30x_StdPeriph_Driver/src/stm32f30x_rcc.c **** }
1343:/home/user/Desktop/STM32-Projekte/FH-Vertibot/src/STM32F30x_StdPeriph_Driver/src/stm32f30x_rcc.c **** 
1344:/home/user/Desktop/STM32-Projekte/FH-Vertibot/src/STM32F30x_StdPeriph_Driver/src/stm32f30x_rcc.c **** /**
1345:/home/user/Desktop/STM32-Projekte/FH-Vertibot/src/STM32F30x_StdPeriph_Driver/src/stm32f30x_rcc.c ****   * @brief  Enables or disables the AHB peripheral clock.
1346:/home/user/Desktop/STM32-Projekte/FH-Vertibot/src/STM32F30x_StdPeriph_Driver/src/stm32f30x_rcc.c ****   * @note   After reset, the peripheral clock (used for registers read/write access)
1347:/home/user/Desktop/STM32-Projekte/FH-Vertibot/src/STM32F30x_StdPeriph_Driver/src/stm32f30x_rcc.c ****   *         is disabled and the application software has to enable this clock before 
1348:/home/user/Desktop/STM32-Projekte/FH-Vertibot/src/STM32F30x_StdPeriph_Driver/src/stm32f30x_rcc.c ****   *         using it.    
1349:/home/user/Desktop/STM32-Projekte/FH-Vertibot/src/STM32F30x_StdPeriph_Driver/src/stm32f30x_rcc.c ****   * @param  RCC_AHBPeriph: specifies the AHB peripheral to gates its clock.
1350:/home/user/Desktop/STM32-Projekte/FH-Vertibot/src/STM32F30x_StdPeriph_Driver/src/stm32f30x_rcc.c ****   *   This parameter can be any combination of the following values:
1351:/home/user/Desktop/STM32-Projekte/FH-Vertibot/src/STM32F30x_StdPeriph_Driver/src/stm32f30x_rcc.c ****   *     @arg RCC_AHBPeriph_GPIOA
1352:/home/user/Desktop/STM32-Projekte/FH-Vertibot/src/STM32F30x_StdPeriph_Driver/src/stm32f30x_rcc.c ****   *     @arg RCC_AHBPeriph_GPIOB
1353:/home/user/Desktop/STM32-Projekte/FH-Vertibot/src/STM32F30x_StdPeriph_Driver/src/stm32f30x_rcc.c ****   *     @arg RCC_AHBPeriph_GPIOC  
1354:/home/user/Desktop/STM32-Projekte/FH-Vertibot/src/STM32F30x_StdPeriph_Driver/src/stm32f30x_rcc.c ****   *     @arg RCC_AHBPeriph_GPIOD
1355:/home/user/Desktop/STM32-Projekte/FH-Vertibot/src/STM32F30x_StdPeriph_Driver/src/stm32f30x_rcc.c ****   *     @arg RCC_AHBPeriph_GPIOE  
1356:/home/user/Desktop/STM32-Projekte/FH-Vertibot/src/STM32F30x_StdPeriph_Driver/src/stm32f30x_rcc.c ****   *     @arg RCC_AHBPeriph_GPIOF
1357:/home/user/Desktop/STM32-Projekte/FH-Vertibot/src/STM32F30x_StdPeriph_Driver/src/stm32f30x_rcc.c ****   *     @arg RCC_AHBPeriph_TS
1358:/home/user/Desktop/STM32-Projekte/FH-Vertibot/src/STM32F30x_StdPeriph_Driver/src/stm32f30x_rcc.c ****   *     @arg RCC_AHBPeriph_CRC
1359:/home/user/Desktop/STM32-Projekte/FH-Vertibot/src/STM32F30x_StdPeriph_Driver/src/stm32f30x_rcc.c ****   *     @arg RCC_AHBPeriph_FLITF (has effect only when the Flash memory is in power down mode)  
1360:/home/user/Desktop/STM32-Projekte/FH-Vertibot/src/STM32F30x_StdPeriph_Driver/src/stm32f30x_rcc.c ****   *     @arg RCC_AHBPeriph_SRAM
1361:/home/user/Desktop/STM32-Projekte/FH-Vertibot/src/STM32F30x_StdPeriph_Driver/src/stm32f30x_rcc.c ****   *     @arg RCC_AHBPeriph_DMA2
1362:/home/user/Desktop/STM32-Projekte/FH-Vertibot/src/STM32F30x_StdPeriph_Driver/src/stm32f30x_rcc.c ****   *     @arg RCC_AHBPeriph_DMA1
1363:/home/user/Desktop/STM32-Projekte/FH-Vertibot/src/STM32F30x_StdPeriph_Driver/src/stm32f30x_rcc.c ****   *     @arg RCC_AHBPeriph_ADC34
1364:/home/user/Desktop/STM32-Projekte/FH-Vertibot/src/STM32F30x_StdPeriph_Driver/src/stm32f30x_rcc.c ****   *     @arg RCC_AHBPeriph_ADC12      
1365:/home/user/Desktop/STM32-Projekte/FH-Vertibot/src/STM32F30x_StdPeriph_Driver/src/stm32f30x_rcc.c ****   * @param  NewState: new state of the specified peripheral clock.
1366:/home/user/Desktop/STM32-Projekte/FH-Vertibot/src/STM32F30x_StdPeriph_Driver/src/stm32f30x_rcc.c ****   *         This parameter can be: ENABLE or DISABLE.
1367:/home/user/Desktop/STM32-Projekte/FH-Vertibot/src/STM32F30x_StdPeriph_Driver/src/stm32f30x_rcc.c ****   * @retval None
1368:/home/user/Desktop/STM32-Projekte/FH-Vertibot/src/STM32F30x_StdPeriph_Driver/src/stm32f30x_rcc.c ****   */
1369:/home/user/Desktop/STM32-Projekte/FH-Vertibot/src/STM32F30x_StdPeriph_Driver/src/stm32f30x_rcc.c **** void RCC_AHBPeriphClockCmd(uint32_t RCC_AHBPeriph, FunctionalState NewState)
1370:/home/user/Desktop/STM32-Projekte/FH-Vertibot/src/STM32F30x_StdPeriph_Driver/src/stm32f30x_rcc.c **** {
 1304              		.loc 1 1370 0
 1305              		.cfi_startproc
 1306              		@ args = 0, pretend = 0, frame = 0
 1307              		@ frame_needed = 0, uses_anonymous_args = 0
 1308              		@ link register save eliminated.
 1309              	.LVL98:
 1310 04c4 044B     		ldr	r3, .L155
1371:/home/user/Desktop/STM32-Projekte/FH-Vertibot/src/STM32F30x_StdPeriph_Driver/src/stm32f30x_rcc.c ****   /* Check the parameters */
1372:/home/user/Desktop/STM32-Projekte/FH-Vertibot/src/STM32F30x_StdPeriph_Driver/src/stm32f30x_rcc.c ****   assert_param(IS_RCC_AHB_PERIPH(RCC_AHBPeriph));
1373:/home/user/Desktop/STM32-Projekte/FH-Vertibot/src/STM32F30x_StdPeriph_Driver/src/stm32f30x_rcc.c ****   assert_param(IS_FUNCTIONAL_STATE(NewState));
1374:/home/user/Desktop/STM32-Projekte/FH-Vertibot/src/STM32F30x_StdPeriph_Driver/src/stm32f30x_rcc.c ****   
1375:/home/user/Desktop/STM32-Projekte/FH-Vertibot/src/STM32F30x_StdPeriph_Driver/src/stm32f30x_rcc.c ****   if (NewState != DISABLE)
1376:/home/user/Desktop/STM32-Projekte/FH-Vertibot/src/STM32F30x_StdPeriph_Driver/src/stm32f30x_rcc.c ****   {
1377:/home/user/Desktop/STM32-Projekte/FH-Vertibot/src/STM32F30x_StdPeriph_Driver/src/stm32f30x_rcc.c ****     RCC->AHBENR |= RCC_AHBPeriph;
 1311              		.loc 1 1377 0
 1312 04c6 5A69     		ldr	r2, [r3, #20]
1375:/home/user/Desktop/STM32-Projekte/FH-Vertibot/src/STM32F30x_StdPeriph_Driver/src/stm32f30x_rcc.c ****   if (NewState != DISABLE)
 1313              		.loc 1 1375 0
 1314 04c8 09B1     		cbz	r1, .L152
 1315              		.loc 1 1377 0
 1316 04ca 1043     		orrs	r0, r0, r2
 1317              	.LVL99:
 1318 04cc 01E0     		b	.L154
 1319              	.LVL100:
 1320              	.L152:
1378:/home/user/Desktop/STM32-Projekte/FH-Vertibot/src/STM32F30x_StdPeriph_Driver/src/stm32f30x_rcc.c ****   }
1379:/home/user/Desktop/STM32-Projekte/FH-Vertibot/src/STM32F30x_StdPeriph_Driver/src/stm32f30x_rcc.c ****   else
1380:/home/user/Desktop/STM32-Projekte/FH-Vertibot/src/STM32F30x_StdPeriph_Driver/src/stm32f30x_rcc.c ****   {
1381:/home/user/Desktop/STM32-Projekte/FH-Vertibot/src/STM32F30x_StdPeriph_Driver/src/stm32f30x_rcc.c ****     RCC->AHBENR &= ~RCC_AHBPeriph;
 1321              		.loc 1 1381 0
 1322 04ce 22EA0000 		bic	r0, r2, r0
 1323              	.LVL101:
 1324              	.L154:
 1325 04d2 5861     		str	r0, [r3, #20]
 1326 04d4 7047     		bx	lr
 1327              	.L156:
 1328 04d6 00BF     		.align	2
 1329              	.L155:
 1330 04d8 00100240 		.word	1073876992
 1331              		.cfi_endproc
 1332              	.LFE139:
 1334              		.align	1
 1335              		.global	RCC_APB2PeriphClockCmd
 1336              		.thumb
 1337              		.thumb_func
 1339              	RCC_APB2PeriphClockCmd:
 1340              	.LFB140:
1382:/home/user/Desktop/STM32-Projekte/FH-Vertibot/src/STM32F30x_StdPeriph_Driver/src/stm32f30x_rcc.c ****   }
1383:/home/user/Desktop/STM32-Projekte/FH-Vertibot/src/STM32F30x_StdPeriph_Driver/src/stm32f30x_rcc.c **** }
1384:/home/user/Desktop/STM32-Projekte/FH-Vertibot/src/STM32F30x_StdPeriph_Driver/src/stm32f30x_rcc.c **** 
1385:/home/user/Desktop/STM32-Projekte/FH-Vertibot/src/STM32F30x_StdPeriph_Driver/src/stm32f30x_rcc.c **** /**
1386:/home/user/Desktop/STM32-Projekte/FH-Vertibot/src/STM32F30x_StdPeriph_Driver/src/stm32f30x_rcc.c ****   * @brief  Enables or disables the High Speed APB (APB2) peripheral clock.
1387:/home/user/Desktop/STM32-Projekte/FH-Vertibot/src/STM32F30x_StdPeriph_Driver/src/stm32f30x_rcc.c ****   * @note   After reset, the peripheral clock (used for registers read/write access)
1388:/home/user/Desktop/STM32-Projekte/FH-Vertibot/src/STM32F30x_StdPeriph_Driver/src/stm32f30x_rcc.c ****   *         is disabled and the application software has to enable this clock before 
1389:/home/user/Desktop/STM32-Projekte/FH-Vertibot/src/STM32F30x_StdPeriph_Driver/src/stm32f30x_rcc.c ****   *         using it.
1390:/home/user/Desktop/STM32-Projekte/FH-Vertibot/src/STM32F30x_StdPeriph_Driver/src/stm32f30x_rcc.c ****   * @param  RCC_APB2Periph: specifies the APB2 peripheral to gates its clock.
1391:/home/user/Desktop/STM32-Projekte/FH-Vertibot/src/STM32F30x_StdPeriph_Driver/src/stm32f30x_rcc.c ****   *   This parameter can be any combination of the following values:
1392:/home/user/Desktop/STM32-Projekte/FH-Vertibot/src/STM32F30x_StdPeriph_Driver/src/stm32f30x_rcc.c ****   *     @arg RCC_APB2Periph_SYSCFG
1393:/home/user/Desktop/STM32-Projekte/FH-Vertibot/src/STM32F30x_StdPeriph_Driver/src/stm32f30x_rcc.c ****   *     @arg RCC_APB2Periph_SPI1
1394:/home/user/Desktop/STM32-Projekte/FH-Vertibot/src/STM32F30x_StdPeriph_Driver/src/stm32f30x_rcc.c ****   *     @arg RCC_APB2Periph_USART1
1395:/home/user/Desktop/STM32-Projekte/FH-Vertibot/src/STM32F30x_StdPeriph_Driver/src/stm32f30x_rcc.c ****   *     @arg RCC_APB2Periph_TIM15
1396:/home/user/Desktop/STM32-Projekte/FH-Vertibot/src/STM32F30x_StdPeriph_Driver/src/stm32f30x_rcc.c ****   *     @arg RCC_APB2Periph_TIM16
1397:/home/user/Desktop/STM32-Projekte/FH-Vertibot/src/STM32F30x_StdPeriph_Driver/src/stm32f30x_rcc.c ****   *     @arg RCC_APB2Periph_TIM17
1398:/home/user/Desktop/STM32-Projekte/FH-Vertibot/src/STM32F30x_StdPeriph_Driver/src/stm32f30x_rcc.c ****   *     @arg RCC_APB2Periph_TIM1       
1399:/home/user/Desktop/STM32-Projekte/FH-Vertibot/src/STM32F30x_StdPeriph_Driver/src/stm32f30x_rcc.c ****   *     @arg RCC_APB2Periph_TIM8
1400:/home/user/Desktop/STM32-Projekte/FH-Vertibot/src/STM32F30x_StdPeriph_Driver/src/stm32f30x_rcc.c ****   * @param  NewState: new state of the specified peripheral clock.
1401:/home/user/Desktop/STM32-Projekte/FH-Vertibot/src/STM32F30x_StdPeriph_Driver/src/stm32f30x_rcc.c ****   *         This parameter can be: ENABLE or DISABLE.
1402:/home/user/Desktop/STM32-Projekte/FH-Vertibot/src/STM32F30x_StdPeriph_Driver/src/stm32f30x_rcc.c ****   * @retval None
1403:/home/user/Desktop/STM32-Projekte/FH-Vertibot/src/STM32F30x_StdPeriph_Driver/src/stm32f30x_rcc.c ****   */
1404:/home/user/Desktop/STM32-Projekte/FH-Vertibot/src/STM32F30x_StdPeriph_Driver/src/stm32f30x_rcc.c **** void RCC_APB2PeriphClockCmd(uint32_t RCC_APB2Periph, FunctionalState NewState)
1405:/home/user/Desktop/STM32-Projekte/FH-Vertibot/src/STM32F30x_StdPeriph_Driver/src/stm32f30x_rcc.c **** {
 1341              		.loc 1 1405 0
 1342              		.cfi_startproc
 1343              		@ args = 0, pretend = 0, frame = 0
 1344              		@ frame_needed = 0, uses_anonymous_args = 0
 1345              		@ link register save eliminated.
 1346              	.LVL102:
 1347 04dc 044B     		ldr	r3, .L161
1406:/home/user/Desktop/STM32-Projekte/FH-Vertibot/src/STM32F30x_StdPeriph_Driver/src/stm32f30x_rcc.c ****   /* Check the parameters */
1407:/home/user/Desktop/STM32-Projekte/FH-Vertibot/src/STM32F30x_StdPeriph_Driver/src/stm32f30x_rcc.c ****   assert_param(IS_RCC_APB2_PERIPH(RCC_APB2Periph));
1408:/home/user/Desktop/STM32-Projekte/FH-Vertibot/src/STM32F30x_StdPeriph_Driver/src/stm32f30x_rcc.c ****   assert_param(IS_FUNCTIONAL_STATE(NewState));
1409:/home/user/Desktop/STM32-Projekte/FH-Vertibot/src/STM32F30x_StdPeriph_Driver/src/stm32f30x_rcc.c **** 
1410:/home/user/Desktop/STM32-Projekte/FH-Vertibot/src/STM32F30x_StdPeriph_Driver/src/stm32f30x_rcc.c ****   if (NewState != DISABLE)
1411:/home/user/Desktop/STM32-Projekte/FH-Vertibot/src/STM32F30x_StdPeriph_Driver/src/stm32f30x_rcc.c ****   {
1412:/home/user/Desktop/STM32-Projekte/FH-Vertibot/src/STM32F30x_StdPeriph_Driver/src/stm32f30x_rcc.c ****     RCC->APB2ENR |= RCC_APB2Periph;
 1348              		.loc 1 1412 0
 1349 04de 9A69     		ldr	r2, [r3, #24]
1410:/home/user/Desktop/STM32-Projekte/FH-Vertibot/src/STM32F30x_StdPeriph_Driver/src/stm32f30x_rcc.c ****   if (NewState != DISABLE)
 1350              		.loc 1 1410 0
 1351 04e0 09B1     		cbz	r1, .L158
 1352              		.loc 1 1412 0
 1353 04e2 1043     		orrs	r0, r0, r2
 1354              	.LVL103:
 1355 04e4 01E0     		b	.L160
 1356              	.LVL104:
 1357              	.L158:
1413:/home/user/Desktop/STM32-Projekte/FH-Vertibot/src/STM32F30x_StdPeriph_Driver/src/stm32f30x_rcc.c ****   }
1414:/home/user/Desktop/STM32-Projekte/FH-Vertibot/src/STM32F30x_StdPeriph_Driver/src/stm32f30x_rcc.c ****   else
1415:/home/user/Desktop/STM32-Projekte/FH-Vertibot/src/STM32F30x_StdPeriph_Driver/src/stm32f30x_rcc.c ****   {
1416:/home/user/Desktop/STM32-Projekte/FH-Vertibot/src/STM32F30x_StdPeriph_Driver/src/stm32f30x_rcc.c ****     RCC->APB2ENR &= ~RCC_APB2Periph;
 1358              		.loc 1 1416 0
 1359 04e6 22EA0000 		bic	r0, r2, r0
 1360              	.LVL105:
 1361              	.L160:
 1362 04ea 9861     		str	r0, [r3, #24]
 1363 04ec 7047     		bx	lr
 1364              	.L162:
 1365 04ee 00BF     		.align	2
 1366              	.L161:
 1367 04f0 00100240 		.word	1073876992
 1368              		.cfi_endproc
 1369              	.LFE140:
 1371              		.align	1
 1372              		.global	RCC_APB1PeriphClockCmd
 1373              		.thumb
 1374              		.thumb_func
 1376              	RCC_APB1PeriphClockCmd:
 1377              	.LFB141:
1417:/home/user/Desktop/STM32-Projekte/FH-Vertibot/src/STM32F30x_StdPeriph_Driver/src/stm32f30x_rcc.c ****   }
1418:/home/user/Desktop/STM32-Projekte/FH-Vertibot/src/STM32F30x_StdPeriph_Driver/src/stm32f30x_rcc.c **** }
1419:/home/user/Desktop/STM32-Projekte/FH-Vertibot/src/STM32F30x_StdPeriph_Driver/src/stm32f30x_rcc.c **** 
1420:/home/user/Desktop/STM32-Projekte/FH-Vertibot/src/STM32F30x_StdPeriph_Driver/src/stm32f30x_rcc.c **** /**
1421:/home/user/Desktop/STM32-Projekte/FH-Vertibot/src/STM32F30x_StdPeriph_Driver/src/stm32f30x_rcc.c ****   * @brief  Enables or disables the Low Speed APB (APB1) peripheral clock.
1422:/home/user/Desktop/STM32-Projekte/FH-Vertibot/src/STM32F30x_StdPeriph_Driver/src/stm32f30x_rcc.c ****   * @note   After reset, the peripheral clock (used for registers read/write access)
1423:/home/user/Desktop/STM32-Projekte/FH-Vertibot/src/STM32F30x_StdPeriph_Driver/src/stm32f30x_rcc.c ****   *         is disabled and the application software has to enable this clock before 
1424:/home/user/Desktop/STM32-Projekte/FH-Vertibot/src/STM32F30x_StdPeriph_Driver/src/stm32f30x_rcc.c ****   *         using it.
1425:/home/user/Desktop/STM32-Projekte/FH-Vertibot/src/STM32F30x_StdPeriph_Driver/src/stm32f30x_rcc.c ****   * @param  RCC_APB1Periph: specifies the APB1 peripheral to gates its clock.
1426:/home/user/Desktop/STM32-Projekte/FH-Vertibot/src/STM32F30x_StdPeriph_Driver/src/stm32f30x_rcc.c ****   *   This parameter can be any combination of the following values:
1427:/home/user/Desktop/STM32-Projekte/FH-Vertibot/src/STM32F30x_StdPeriph_Driver/src/stm32f30x_rcc.c ****   *     @arg RCC_APB1Periph_TIM2
1428:/home/user/Desktop/STM32-Projekte/FH-Vertibot/src/STM32F30x_StdPeriph_Driver/src/stm32f30x_rcc.c ****   *     @arg RCC_APB1Periph_TIM3
1429:/home/user/Desktop/STM32-Projekte/FH-Vertibot/src/STM32F30x_StdPeriph_Driver/src/stm32f30x_rcc.c ****   *     @arg RCC_APB1Periph_TIM4
1430:/home/user/Desktop/STM32-Projekte/FH-Vertibot/src/STM32F30x_StdPeriph_Driver/src/stm32f30x_rcc.c ****   *     @arg RCC_APB1Periph_TIM6
1431:/home/user/Desktop/STM32-Projekte/FH-Vertibot/src/STM32F30x_StdPeriph_Driver/src/stm32f30x_rcc.c ****   *     @arg RCC_APB1Periph_TIM7
1432:/home/user/Desktop/STM32-Projekte/FH-Vertibot/src/STM32F30x_StdPeriph_Driver/src/stm32f30x_rcc.c ****   *     @arg RCC_APB1Periph_WWDG
1433:/home/user/Desktop/STM32-Projekte/FH-Vertibot/src/STM32F30x_StdPeriph_Driver/src/stm32f30x_rcc.c ****   *     @arg RCC_APB1Periph_SPI2
1434:/home/user/Desktop/STM32-Projekte/FH-Vertibot/src/STM32F30x_StdPeriph_Driver/src/stm32f30x_rcc.c ****   *     @arg RCC_APB1Periph_SPI3  
1435:/home/user/Desktop/STM32-Projekte/FH-Vertibot/src/STM32F30x_StdPeriph_Driver/src/stm32f30x_rcc.c ****   *     @arg RCC_APB1Periph_USART2
1436:/home/user/Desktop/STM32-Projekte/FH-Vertibot/src/STM32F30x_StdPeriph_Driver/src/stm32f30x_rcc.c ****   *     @arg RCC_APB1Periph_USART3
1437:/home/user/Desktop/STM32-Projekte/FH-Vertibot/src/STM32F30x_StdPeriph_Driver/src/stm32f30x_rcc.c ****   *     @arg RCC_APB1Periph_UART4 
1438:/home/user/Desktop/STM32-Projekte/FH-Vertibot/src/STM32F30x_StdPeriph_Driver/src/stm32f30x_rcc.c ****   *     @arg RCC_APB1Periph_UART5     
1439:/home/user/Desktop/STM32-Projekte/FH-Vertibot/src/STM32F30x_StdPeriph_Driver/src/stm32f30x_rcc.c ****   *     @arg RCC_APB1Periph_I2C1
1440:/home/user/Desktop/STM32-Projekte/FH-Vertibot/src/STM32F30x_StdPeriph_Driver/src/stm32f30x_rcc.c ****   *     @arg RCC_APB1Periph_I2C2
1441:/home/user/Desktop/STM32-Projekte/FH-Vertibot/src/STM32F30x_StdPeriph_Driver/src/stm32f30x_rcc.c ****   *     @arg RCC_APB1Periph_USB
1442:/home/user/Desktop/STM32-Projekte/FH-Vertibot/src/STM32F30x_StdPeriph_Driver/src/stm32f30x_rcc.c ****   *     @arg RCC_APB1Periph_CAN1
1443:/home/user/Desktop/STM32-Projekte/FH-Vertibot/src/STM32F30x_StdPeriph_Driver/src/stm32f30x_rcc.c ****   *     @arg RCC_APB1Periph_PWR
1444:/home/user/Desktop/STM32-Projekte/FH-Vertibot/src/STM32F30x_StdPeriph_Driver/src/stm32f30x_rcc.c ****   *     @arg RCC_APB1Periph_DAC
1445:/home/user/Desktop/STM32-Projekte/FH-Vertibot/src/STM32F30x_StdPeriph_Driver/src/stm32f30x_rcc.c ****   * @param  NewState: new state of the specified peripheral clock.
1446:/home/user/Desktop/STM32-Projekte/FH-Vertibot/src/STM32F30x_StdPeriph_Driver/src/stm32f30x_rcc.c ****   *         This parameter can be: ENABLE or DISABLE.
1447:/home/user/Desktop/STM32-Projekte/FH-Vertibot/src/STM32F30x_StdPeriph_Driver/src/stm32f30x_rcc.c ****   * @retval None
1448:/home/user/Desktop/STM32-Projekte/FH-Vertibot/src/STM32F30x_StdPeriph_Driver/src/stm32f30x_rcc.c ****   */
1449:/home/user/Desktop/STM32-Projekte/FH-Vertibot/src/STM32F30x_StdPeriph_Driver/src/stm32f30x_rcc.c **** void RCC_APB1PeriphClockCmd(uint32_t RCC_APB1Periph, FunctionalState NewState)
1450:/home/user/Desktop/STM32-Projekte/FH-Vertibot/src/STM32F30x_StdPeriph_Driver/src/stm32f30x_rcc.c **** {
 1378              		.loc 1 1450 0
 1379              		.cfi_startproc
 1380              		@ args = 0, pretend = 0, frame = 0
 1381              		@ frame_needed = 0, uses_anonymous_args = 0
 1382              		@ link register save eliminated.
 1383              	.LVL106:
 1384 04f4 044B     		ldr	r3, .L167
1451:/home/user/Desktop/STM32-Projekte/FH-Vertibot/src/STM32F30x_StdPeriph_Driver/src/stm32f30x_rcc.c ****   /* Check the parameters */
1452:/home/user/Desktop/STM32-Projekte/FH-Vertibot/src/STM32F30x_StdPeriph_Driver/src/stm32f30x_rcc.c ****   assert_param(IS_RCC_APB1_PERIPH(RCC_APB1Periph));
1453:/home/user/Desktop/STM32-Projekte/FH-Vertibot/src/STM32F30x_StdPeriph_Driver/src/stm32f30x_rcc.c ****   assert_param(IS_FUNCTIONAL_STATE(NewState));
1454:/home/user/Desktop/STM32-Projekte/FH-Vertibot/src/STM32F30x_StdPeriph_Driver/src/stm32f30x_rcc.c **** 
1455:/home/user/Desktop/STM32-Projekte/FH-Vertibot/src/STM32F30x_StdPeriph_Driver/src/stm32f30x_rcc.c ****   if (NewState != DISABLE)
1456:/home/user/Desktop/STM32-Projekte/FH-Vertibot/src/STM32F30x_StdPeriph_Driver/src/stm32f30x_rcc.c ****   {
1457:/home/user/Desktop/STM32-Projekte/FH-Vertibot/src/STM32F30x_StdPeriph_Driver/src/stm32f30x_rcc.c ****     RCC->APB1ENR |= RCC_APB1Periph;
 1385              		.loc 1 1457 0
 1386 04f6 DA69     		ldr	r2, [r3, #28]
1455:/home/user/Desktop/STM32-Projekte/FH-Vertibot/src/STM32F30x_StdPeriph_Driver/src/stm32f30x_rcc.c ****   if (NewState != DISABLE)
 1387              		.loc 1 1455 0
 1388 04f8 09B1     		cbz	r1, .L164
 1389              		.loc 1 1457 0
 1390 04fa 1043     		orrs	r0, r0, r2
 1391              	.LVL107:
 1392 04fc 01E0     		b	.L166
 1393              	.LVL108:
 1394              	.L164:
1458:/home/user/Desktop/STM32-Projekte/FH-Vertibot/src/STM32F30x_StdPeriph_Driver/src/stm32f30x_rcc.c ****   }
1459:/home/user/Desktop/STM32-Projekte/FH-Vertibot/src/STM32F30x_StdPeriph_Driver/src/stm32f30x_rcc.c ****   else
1460:/home/user/Desktop/STM32-Projekte/FH-Vertibot/src/STM32F30x_StdPeriph_Driver/src/stm32f30x_rcc.c ****   {
1461:/home/user/Desktop/STM32-Projekte/FH-Vertibot/src/STM32F30x_StdPeriph_Driver/src/stm32f30x_rcc.c ****     RCC->APB1ENR &= ~RCC_APB1Periph;
 1395              		.loc 1 1461 0
 1396 04fe 22EA0000 		bic	r0, r2, r0
 1397              	.LVL109:
 1398              	.L166:
 1399 0502 D861     		str	r0, [r3, #28]
 1400 0504 7047     		bx	lr
 1401              	.L168:
 1402 0506 00BF     		.align	2
 1403              	.L167:
 1404 0508 00100240 		.word	1073876992
 1405              		.cfi_endproc
 1406              	.LFE141:
 1408              		.align	1
 1409              		.global	RCC_AHBPeriphResetCmd
 1410              		.thumb
 1411              		.thumb_func
 1413              	RCC_AHBPeriphResetCmd:
 1414              	.LFB142:
1462:/home/user/Desktop/STM32-Projekte/FH-Vertibot/src/STM32F30x_StdPeriph_Driver/src/stm32f30x_rcc.c ****   }
1463:/home/user/Desktop/STM32-Projekte/FH-Vertibot/src/STM32F30x_StdPeriph_Driver/src/stm32f30x_rcc.c **** }
1464:/home/user/Desktop/STM32-Projekte/FH-Vertibot/src/STM32F30x_StdPeriph_Driver/src/stm32f30x_rcc.c **** 
1465:/home/user/Desktop/STM32-Projekte/FH-Vertibot/src/STM32F30x_StdPeriph_Driver/src/stm32f30x_rcc.c **** /**
1466:/home/user/Desktop/STM32-Projekte/FH-Vertibot/src/STM32F30x_StdPeriph_Driver/src/stm32f30x_rcc.c ****   * @brief  Forces or releases AHB peripheral reset.
1467:/home/user/Desktop/STM32-Projekte/FH-Vertibot/src/STM32F30x_StdPeriph_Driver/src/stm32f30x_rcc.c ****   * @param  RCC_AHBPeriph: specifies the AHB peripheral to reset.
1468:/home/user/Desktop/STM32-Projekte/FH-Vertibot/src/STM32F30x_StdPeriph_Driver/src/stm32f30x_rcc.c ****   *   This parameter can be any combination of the following values:
1469:/home/user/Desktop/STM32-Projekte/FH-Vertibot/src/STM32F30x_StdPeriph_Driver/src/stm32f30x_rcc.c ****   *     @arg RCC_AHBPeriph_GPIOA
1470:/home/user/Desktop/STM32-Projekte/FH-Vertibot/src/STM32F30x_StdPeriph_Driver/src/stm32f30x_rcc.c ****   *     @arg RCC_AHBPeriph_GPIOB
1471:/home/user/Desktop/STM32-Projekte/FH-Vertibot/src/STM32F30x_StdPeriph_Driver/src/stm32f30x_rcc.c ****   *     @arg RCC_AHBPeriph_GPIOC  
1472:/home/user/Desktop/STM32-Projekte/FH-Vertibot/src/STM32F30x_StdPeriph_Driver/src/stm32f30x_rcc.c ****   *     @arg RCC_AHBPeriph_GPIOD
1473:/home/user/Desktop/STM32-Projekte/FH-Vertibot/src/STM32F30x_StdPeriph_Driver/src/stm32f30x_rcc.c ****   *     @arg RCC_AHBPeriph_GPIOE  
1474:/home/user/Desktop/STM32-Projekte/FH-Vertibot/src/STM32F30x_StdPeriph_Driver/src/stm32f30x_rcc.c ****   *     @arg RCC_AHBPeriph_GPIOF
1475:/home/user/Desktop/STM32-Projekte/FH-Vertibot/src/STM32F30x_StdPeriph_Driver/src/stm32f30x_rcc.c ****   *     @arg RCC_AHBPeriph_TS
1476:/home/user/Desktop/STM32-Projekte/FH-Vertibot/src/STM32F30x_StdPeriph_Driver/src/stm32f30x_rcc.c ****   *     @arg RCC_AHBPeriph_ADC34
1477:/home/user/Desktop/STM32-Projekte/FH-Vertibot/src/STM32F30x_StdPeriph_Driver/src/stm32f30x_rcc.c ****   *     @arg RCC_AHBPeriph_ADC12    
1478:/home/user/Desktop/STM32-Projekte/FH-Vertibot/src/STM32F30x_StdPeriph_Driver/src/stm32f30x_rcc.c ****   * @param  NewState: new state of the specified peripheral reset.
1479:/home/user/Desktop/STM32-Projekte/FH-Vertibot/src/STM32F30x_StdPeriph_Driver/src/stm32f30x_rcc.c ****   *         This parameter can be: ENABLE or DISABLE.
1480:/home/user/Desktop/STM32-Projekte/FH-Vertibot/src/STM32F30x_StdPeriph_Driver/src/stm32f30x_rcc.c ****   * @retval None
1481:/home/user/Desktop/STM32-Projekte/FH-Vertibot/src/STM32F30x_StdPeriph_Driver/src/stm32f30x_rcc.c ****   */
1482:/home/user/Desktop/STM32-Projekte/FH-Vertibot/src/STM32F30x_StdPeriph_Driver/src/stm32f30x_rcc.c **** void RCC_AHBPeriphResetCmd(uint32_t RCC_AHBPeriph, FunctionalState NewState)
1483:/home/user/Desktop/STM32-Projekte/FH-Vertibot/src/STM32F30x_StdPeriph_Driver/src/stm32f30x_rcc.c **** {
 1415              		.loc 1 1483 0
 1416              		.cfi_startproc
 1417              		@ args = 0, pretend = 0, frame = 0
 1418              		@ frame_needed = 0, uses_anonymous_args = 0
 1419              		@ link register save eliminated.
 1420              	.LVL110:
 1421 050c 044B     		ldr	r3, .L173
1484:/home/user/Desktop/STM32-Projekte/FH-Vertibot/src/STM32F30x_StdPeriph_Driver/src/stm32f30x_rcc.c ****   /* Check the parameters */
1485:/home/user/Desktop/STM32-Projekte/FH-Vertibot/src/STM32F30x_StdPeriph_Driver/src/stm32f30x_rcc.c ****   assert_param(IS_RCC_AHB_RST_PERIPH(RCC_AHBPeriph));
1486:/home/user/Desktop/STM32-Projekte/FH-Vertibot/src/STM32F30x_StdPeriph_Driver/src/stm32f30x_rcc.c ****   assert_param(IS_FUNCTIONAL_STATE(NewState));
1487:/home/user/Desktop/STM32-Projekte/FH-Vertibot/src/STM32F30x_StdPeriph_Driver/src/stm32f30x_rcc.c **** 
1488:/home/user/Desktop/STM32-Projekte/FH-Vertibot/src/STM32F30x_StdPeriph_Driver/src/stm32f30x_rcc.c ****   if (NewState != DISABLE)
1489:/home/user/Desktop/STM32-Projekte/FH-Vertibot/src/STM32F30x_StdPeriph_Driver/src/stm32f30x_rcc.c ****   {
1490:/home/user/Desktop/STM32-Projekte/FH-Vertibot/src/STM32F30x_StdPeriph_Driver/src/stm32f30x_rcc.c ****     RCC->AHBRSTR |= RCC_AHBPeriph;
 1422              		.loc 1 1490 0
 1423 050e 9A6A     		ldr	r2, [r3, #40]
1488:/home/user/Desktop/STM32-Projekte/FH-Vertibot/src/STM32F30x_StdPeriph_Driver/src/stm32f30x_rcc.c ****   if (NewState != DISABLE)
 1424              		.loc 1 1488 0
 1425 0510 09B1     		cbz	r1, .L170
 1426              		.loc 1 1490 0
 1427 0512 1043     		orrs	r0, r0, r2
 1428              	.LVL111:
 1429 0514 01E0     		b	.L172
 1430              	.LVL112:
 1431              	.L170:
1491:/home/user/Desktop/STM32-Projekte/FH-Vertibot/src/STM32F30x_StdPeriph_Driver/src/stm32f30x_rcc.c ****   }
1492:/home/user/Desktop/STM32-Projekte/FH-Vertibot/src/STM32F30x_StdPeriph_Driver/src/stm32f30x_rcc.c ****   else
1493:/home/user/Desktop/STM32-Projekte/FH-Vertibot/src/STM32F30x_StdPeriph_Driver/src/stm32f30x_rcc.c ****   {
1494:/home/user/Desktop/STM32-Projekte/FH-Vertibot/src/STM32F30x_StdPeriph_Driver/src/stm32f30x_rcc.c ****     RCC->AHBRSTR &= ~RCC_AHBPeriph;
 1432              		.loc 1 1494 0
 1433 0516 22EA0000 		bic	r0, r2, r0
 1434              	.LVL113:
 1435              	.L172:
 1436 051a 9862     		str	r0, [r3, #40]
 1437 051c 7047     		bx	lr
 1438              	.L174:
 1439 051e 00BF     		.align	2
 1440              	.L173:
 1441 0520 00100240 		.word	1073876992
 1442              		.cfi_endproc
 1443              	.LFE142:
 1445              		.align	1
 1446              		.global	RCC_APB2PeriphResetCmd
 1447              		.thumb
 1448              		.thumb_func
 1450              	RCC_APB2PeriphResetCmd:
 1451              	.LFB143:
1495:/home/user/Desktop/STM32-Projekte/FH-Vertibot/src/STM32F30x_StdPeriph_Driver/src/stm32f30x_rcc.c ****   }
1496:/home/user/Desktop/STM32-Projekte/FH-Vertibot/src/STM32F30x_StdPeriph_Driver/src/stm32f30x_rcc.c **** }
1497:/home/user/Desktop/STM32-Projekte/FH-Vertibot/src/STM32F30x_StdPeriph_Driver/src/stm32f30x_rcc.c **** 
1498:/home/user/Desktop/STM32-Projekte/FH-Vertibot/src/STM32F30x_StdPeriph_Driver/src/stm32f30x_rcc.c **** /**
1499:/home/user/Desktop/STM32-Projekte/FH-Vertibot/src/STM32F30x_StdPeriph_Driver/src/stm32f30x_rcc.c ****   * @brief  Forces or releases High Speed APB (APB2) peripheral reset.
1500:/home/user/Desktop/STM32-Projekte/FH-Vertibot/src/STM32F30x_StdPeriph_Driver/src/stm32f30x_rcc.c ****   * @param  RCC_APB2Periph: specifies the APB2 peripheral to reset.
1501:/home/user/Desktop/STM32-Projekte/FH-Vertibot/src/STM32F30x_StdPeriph_Driver/src/stm32f30x_rcc.c ****   *   This parameter can be any combination of the following values:
1502:/home/user/Desktop/STM32-Projekte/FH-Vertibot/src/STM32F30x_StdPeriph_Driver/src/stm32f30x_rcc.c ****   *     @arg RCC_APB2Periph_SYSCFG
1503:/home/user/Desktop/STM32-Projekte/FH-Vertibot/src/STM32F30x_StdPeriph_Driver/src/stm32f30x_rcc.c ****   *     @arg RCC_APB2Periph_SPI1
1504:/home/user/Desktop/STM32-Projekte/FH-Vertibot/src/STM32F30x_StdPeriph_Driver/src/stm32f30x_rcc.c ****   *     @arg RCC_APB2Periph_USART1
1505:/home/user/Desktop/STM32-Projekte/FH-Vertibot/src/STM32F30x_StdPeriph_Driver/src/stm32f30x_rcc.c ****   *     @arg RCC_APB2Periph_TIM15
1506:/home/user/Desktop/STM32-Projekte/FH-Vertibot/src/STM32F30x_StdPeriph_Driver/src/stm32f30x_rcc.c ****   *     @arg RCC_APB2Periph_TIM16
1507:/home/user/Desktop/STM32-Projekte/FH-Vertibot/src/STM32F30x_StdPeriph_Driver/src/stm32f30x_rcc.c ****   *     @arg RCC_APB2Periph_TIM17
1508:/home/user/Desktop/STM32-Projekte/FH-Vertibot/src/STM32F30x_StdPeriph_Driver/src/stm32f30x_rcc.c ****   *     @arg RCC_APB2Periph_TIM1       
1509:/home/user/Desktop/STM32-Projekte/FH-Vertibot/src/STM32F30x_StdPeriph_Driver/src/stm32f30x_rcc.c ****   *     @arg RCC_APB2Periph_TIM8  
1510:/home/user/Desktop/STM32-Projekte/FH-Vertibot/src/STM32F30x_StdPeriph_Driver/src/stm32f30x_rcc.c ****   * @param  NewState: new state of the specified peripheral reset.
1511:/home/user/Desktop/STM32-Projekte/FH-Vertibot/src/STM32F30x_StdPeriph_Driver/src/stm32f30x_rcc.c ****   *         This parameter can be: ENABLE or DISABLE.
1512:/home/user/Desktop/STM32-Projekte/FH-Vertibot/src/STM32F30x_StdPeriph_Driver/src/stm32f30x_rcc.c ****   * @retval None
1513:/home/user/Desktop/STM32-Projekte/FH-Vertibot/src/STM32F30x_StdPeriph_Driver/src/stm32f30x_rcc.c ****   */
1514:/home/user/Desktop/STM32-Projekte/FH-Vertibot/src/STM32F30x_StdPeriph_Driver/src/stm32f30x_rcc.c **** void RCC_APB2PeriphResetCmd(uint32_t RCC_APB2Periph, FunctionalState NewState)
1515:/home/user/Desktop/STM32-Projekte/FH-Vertibot/src/STM32F30x_StdPeriph_Driver/src/stm32f30x_rcc.c **** {
 1452              		.loc 1 1515 0
 1453              		.cfi_startproc
 1454              		@ args = 0, pretend = 0, frame = 0
 1455              		@ frame_needed = 0, uses_anonymous_args = 0
 1456              		@ link register save eliminated.
 1457              	.LVL114:
 1458 0524 044B     		ldr	r3, .L179
1516:/home/user/Desktop/STM32-Projekte/FH-Vertibot/src/STM32F30x_StdPeriph_Driver/src/stm32f30x_rcc.c ****   /* Check the parameters */
1517:/home/user/Desktop/STM32-Projekte/FH-Vertibot/src/STM32F30x_StdPeriph_Driver/src/stm32f30x_rcc.c ****   assert_param(IS_RCC_APB2_PERIPH(RCC_APB2Periph));
1518:/home/user/Desktop/STM32-Projekte/FH-Vertibot/src/STM32F30x_StdPeriph_Driver/src/stm32f30x_rcc.c ****   assert_param(IS_FUNCTIONAL_STATE(NewState));
1519:/home/user/Desktop/STM32-Projekte/FH-Vertibot/src/STM32F30x_StdPeriph_Driver/src/stm32f30x_rcc.c **** 
1520:/home/user/Desktop/STM32-Projekte/FH-Vertibot/src/STM32F30x_StdPeriph_Driver/src/stm32f30x_rcc.c ****   if (NewState != DISABLE)
1521:/home/user/Desktop/STM32-Projekte/FH-Vertibot/src/STM32F30x_StdPeriph_Driver/src/stm32f30x_rcc.c ****   {
1522:/home/user/Desktop/STM32-Projekte/FH-Vertibot/src/STM32F30x_StdPeriph_Driver/src/stm32f30x_rcc.c ****     RCC->APB2RSTR |= RCC_APB2Periph;
 1459              		.loc 1 1522 0
 1460 0526 DA68     		ldr	r2, [r3, #12]
1520:/home/user/Desktop/STM32-Projekte/FH-Vertibot/src/STM32F30x_StdPeriph_Driver/src/stm32f30x_rcc.c ****   if (NewState != DISABLE)
 1461              		.loc 1 1520 0
 1462 0528 09B1     		cbz	r1, .L176
 1463              		.loc 1 1522 0
 1464 052a 1043     		orrs	r0, r0, r2
 1465              	.LVL115:
 1466 052c 01E0     		b	.L178
 1467              	.LVL116:
 1468              	.L176:
1523:/home/user/Desktop/STM32-Projekte/FH-Vertibot/src/STM32F30x_StdPeriph_Driver/src/stm32f30x_rcc.c ****   }
1524:/home/user/Desktop/STM32-Projekte/FH-Vertibot/src/STM32F30x_StdPeriph_Driver/src/stm32f30x_rcc.c ****   else
1525:/home/user/Desktop/STM32-Projekte/FH-Vertibot/src/STM32F30x_StdPeriph_Driver/src/stm32f30x_rcc.c ****   {
1526:/home/user/Desktop/STM32-Projekte/FH-Vertibot/src/STM32F30x_StdPeriph_Driver/src/stm32f30x_rcc.c ****     RCC->APB2RSTR &= ~RCC_APB2Periph;
 1469              		.loc 1 1526 0
 1470 052e 22EA0000 		bic	r0, r2, r0
 1471              	.LVL117:
 1472              	.L178:
 1473 0532 D860     		str	r0, [r3, #12]
 1474 0534 7047     		bx	lr
 1475              	.L180:
 1476 0536 00BF     		.align	2
 1477              	.L179:
 1478 0538 00100240 		.word	1073876992
 1479              		.cfi_endproc
 1480              	.LFE143:
 1482              		.align	1
 1483              		.global	RCC_APB1PeriphResetCmd
 1484              		.thumb
 1485              		.thumb_func
 1487              	RCC_APB1PeriphResetCmd:
 1488              	.LFB144:
1527:/home/user/Desktop/STM32-Projekte/FH-Vertibot/src/STM32F30x_StdPeriph_Driver/src/stm32f30x_rcc.c ****   }
1528:/home/user/Desktop/STM32-Projekte/FH-Vertibot/src/STM32F30x_StdPeriph_Driver/src/stm32f30x_rcc.c **** }
1529:/home/user/Desktop/STM32-Projekte/FH-Vertibot/src/STM32F30x_StdPeriph_Driver/src/stm32f30x_rcc.c **** 
1530:/home/user/Desktop/STM32-Projekte/FH-Vertibot/src/STM32F30x_StdPeriph_Driver/src/stm32f30x_rcc.c **** /**
1531:/home/user/Desktop/STM32-Projekte/FH-Vertibot/src/STM32F30x_StdPeriph_Driver/src/stm32f30x_rcc.c ****   * @brief  Forces or releases Low Speed APB (APB1) peripheral reset.
1532:/home/user/Desktop/STM32-Projekte/FH-Vertibot/src/STM32F30x_StdPeriph_Driver/src/stm32f30x_rcc.c ****   * @param  RCC_APB1Periph: specifies the APB1 peripheral to reset.
1533:/home/user/Desktop/STM32-Projekte/FH-Vertibot/src/STM32F30x_StdPeriph_Driver/src/stm32f30x_rcc.c ****   *   This parameter can be any combination of the following values:
1534:/home/user/Desktop/STM32-Projekte/FH-Vertibot/src/STM32F30x_StdPeriph_Driver/src/stm32f30x_rcc.c ****   *     @arg RCC_APB1Periph_TIM2
1535:/home/user/Desktop/STM32-Projekte/FH-Vertibot/src/STM32F30x_StdPeriph_Driver/src/stm32f30x_rcc.c ****   *     @arg RCC_APB1Periph_TIM3
1536:/home/user/Desktop/STM32-Projekte/FH-Vertibot/src/STM32F30x_StdPeriph_Driver/src/stm32f30x_rcc.c ****   *     @arg RCC_APB1Periph_TIM4
1537:/home/user/Desktop/STM32-Projekte/FH-Vertibot/src/STM32F30x_StdPeriph_Driver/src/stm32f30x_rcc.c ****   *     @arg RCC_APB1Periph_TIM6
1538:/home/user/Desktop/STM32-Projekte/FH-Vertibot/src/STM32F30x_StdPeriph_Driver/src/stm32f30x_rcc.c ****   *     @arg RCC_APB1Periph_TIM7
1539:/home/user/Desktop/STM32-Projekte/FH-Vertibot/src/STM32F30x_StdPeriph_Driver/src/stm32f30x_rcc.c ****   *     @arg RCC_APB1Periph_WWDG
1540:/home/user/Desktop/STM32-Projekte/FH-Vertibot/src/STM32F30x_StdPeriph_Driver/src/stm32f30x_rcc.c ****   *     @arg RCC_APB1Periph_SPI2
1541:/home/user/Desktop/STM32-Projekte/FH-Vertibot/src/STM32F30x_StdPeriph_Driver/src/stm32f30x_rcc.c ****   *     @arg RCC_APB1Periph_SPI3  
1542:/home/user/Desktop/STM32-Projekte/FH-Vertibot/src/STM32F30x_StdPeriph_Driver/src/stm32f30x_rcc.c ****   *     @arg RCC_APB1Periph_USART2
1543:/home/user/Desktop/STM32-Projekte/FH-Vertibot/src/STM32F30x_StdPeriph_Driver/src/stm32f30x_rcc.c ****   *     @arg RCC_APB1Periph_USART3
1544:/home/user/Desktop/STM32-Projekte/FH-Vertibot/src/STM32F30x_StdPeriph_Driver/src/stm32f30x_rcc.c ****   *     @arg RCC_APB1Periph_UART4
1545:/home/user/Desktop/STM32-Projekte/FH-Vertibot/src/STM32F30x_StdPeriph_Driver/src/stm32f30x_rcc.c ****   *     @arg RCC_APB1Periph_UART5      
1546:/home/user/Desktop/STM32-Projekte/FH-Vertibot/src/STM32F30x_StdPeriph_Driver/src/stm32f30x_rcc.c ****   *     @arg RCC_APB1Periph_I2C1
1547:/home/user/Desktop/STM32-Projekte/FH-Vertibot/src/STM32F30x_StdPeriph_Driver/src/stm32f30x_rcc.c ****   *     @arg RCC_APB1Periph_I2C2
1548:/home/user/Desktop/STM32-Projekte/FH-Vertibot/src/STM32F30x_StdPeriph_Driver/src/stm32f30x_rcc.c ****   *     @arg RCC_APB1Periph_USB
1549:/home/user/Desktop/STM32-Projekte/FH-Vertibot/src/STM32F30x_StdPeriph_Driver/src/stm32f30x_rcc.c ****   *     @arg RCC_APB1Periph_CAN1
1550:/home/user/Desktop/STM32-Projekte/FH-Vertibot/src/STM32F30x_StdPeriph_Driver/src/stm32f30x_rcc.c ****   *     @arg RCC_APB1Periph_PWR
1551:/home/user/Desktop/STM32-Projekte/FH-Vertibot/src/STM32F30x_StdPeriph_Driver/src/stm32f30x_rcc.c ****   *     @arg RCC_APB1Periph_DAC
1552:/home/user/Desktop/STM32-Projekte/FH-Vertibot/src/STM32F30x_StdPeriph_Driver/src/stm32f30x_rcc.c ****   * @param  NewState: new state of the specified peripheral clock.
1553:/home/user/Desktop/STM32-Projekte/FH-Vertibot/src/STM32F30x_StdPeriph_Driver/src/stm32f30x_rcc.c ****   *         This parameter can be: ENABLE or DISABLE.
1554:/home/user/Desktop/STM32-Projekte/FH-Vertibot/src/STM32F30x_StdPeriph_Driver/src/stm32f30x_rcc.c ****   * @retval None
1555:/home/user/Desktop/STM32-Projekte/FH-Vertibot/src/STM32F30x_StdPeriph_Driver/src/stm32f30x_rcc.c ****   */
1556:/home/user/Desktop/STM32-Projekte/FH-Vertibot/src/STM32F30x_StdPeriph_Driver/src/stm32f30x_rcc.c **** void RCC_APB1PeriphResetCmd(uint32_t RCC_APB1Periph, FunctionalState NewState)
1557:/home/user/Desktop/STM32-Projekte/FH-Vertibot/src/STM32F30x_StdPeriph_Driver/src/stm32f30x_rcc.c **** {
 1489              		.loc 1 1557 0
 1490              		.cfi_startproc
 1491              		@ args = 0, pretend = 0, frame = 0
 1492              		@ frame_needed = 0, uses_anonymous_args = 0
 1493              		@ link register save eliminated.
 1494              	.LVL118:
 1495 053c 044B     		ldr	r3, .L185
1558:/home/user/Desktop/STM32-Projekte/FH-Vertibot/src/STM32F30x_StdPeriph_Driver/src/stm32f30x_rcc.c ****   /* Check the parameters */
1559:/home/user/Desktop/STM32-Projekte/FH-Vertibot/src/STM32F30x_StdPeriph_Driver/src/stm32f30x_rcc.c ****   assert_param(IS_RCC_APB1_PERIPH(RCC_APB1Periph));
1560:/home/user/Desktop/STM32-Projekte/FH-Vertibot/src/STM32F30x_StdPeriph_Driver/src/stm32f30x_rcc.c ****   assert_param(IS_FUNCTIONAL_STATE(NewState));
1561:/home/user/Desktop/STM32-Projekte/FH-Vertibot/src/STM32F30x_StdPeriph_Driver/src/stm32f30x_rcc.c **** 
1562:/home/user/Desktop/STM32-Projekte/FH-Vertibot/src/STM32F30x_StdPeriph_Driver/src/stm32f30x_rcc.c ****   if (NewState != DISABLE)
1563:/home/user/Desktop/STM32-Projekte/FH-Vertibot/src/STM32F30x_StdPeriph_Driver/src/stm32f30x_rcc.c ****   {
1564:/home/user/Desktop/STM32-Projekte/FH-Vertibot/src/STM32F30x_StdPeriph_Driver/src/stm32f30x_rcc.c ****     RCC->APB1RSTR |= RCC_APB1Periph;
 1496              		.loc 1 1564 0
 1497 053e 1A69     		ldr	r2, [r3, #16]
1562:/home/user/Desktop/STM32-Projekte/FH-Vertibot/src/STM32F30x_StdPeriph_Driver/src/stm32f30x_rcc.c ****   if (NewState != DISABLE)
 1498              		.loc 1 1562 0
 1499 0540 09B1     		cbz	r1, .L182
 1500              		.loc 1 1564 0
 1501 0542 1043     		orrs	r0, r0, r2
 1502              	.LVL119:
 1503 0544 01E0     		b	.L184
 1504              	.LVL120:
 1505              	.L182:
1565:/home/user/Desktop/STM32-Projekte/FH-Vertibot/src/STM32F30x_StdPeriph_Driver/src/stm32f30x_rcc.c ****   }
1566:/home/user/Desktop/STM32-Projekte/FH-Vertibot/src/STM32F30x_StdPeriph_Driver/src/stm32f30x_rcc.c ****   else
1567:/home/user/Desktop/STM32-Projekte/FH-Vertibot/src/STM32F30x_StdPeriph_Driver/src/stm32f30x_rcc.c ****   {
1568:/home/user/Desktop/STM32-Projekte/FH-Vertibot/src/STM32F30x_StdPeriph_Driver/src/stm32f30x_rcc.c ****     RCC->APB1RSTR &= ~RCC_APB1Periph;
 1506              		.loc 1 1568 0
 1507 0546 22EA0000 		bic	r0, r2, r0
 1508              	.LVL121:
 1509              	.L184:
 1510 054a 1861     		str	r0, [r3, #16]
 1511 054c 7047     		bx	lr
 1512              	.L186:
 1513 054e 00BF     		.align	2
 1514              	.L185:
 1515 0550 00100240 		.word	1073876992
 1516              		.cfi_endproc
 1517              	.LFE144:
 1519              		.align	1
 1520              		.global	RCC_ITConfig
 1521              		.thumb
 1522              		.thumb_func
 1524              	RCC_ITConfig:
 1525              	.LFB145:
1569:/home/user/Desktop/STM32-Projekte/FH-Vertibot/src/STM32F30x_StdPeriph_Driver/src/stm32f30x_rcc.c ****   }
1570:/home/user/Desktop/STM32-Projekte/FH-Vertibot/src/STM32F30x_StdPeriph_Driver/src/stm32f30x_rcc.c **** }
1571:/home/user/Desktop/STM32-Projekte/FH-Vertibot/src/STM32F30x_StdPeriph_Driver/src/stm32f30x_rcc.c **** 
1572:/home/user/Desktop/STM32-Projekte/FH-Vertibot/src/STM32F30x_StdPeriph_Driver/src/stm32f30x_rcc.c **** /**
1573:/home/user/Desktop/STM32-Projekte/FH-Vertibot/src/STM32F30x_StdPeriph_Driver/src/stm32f30x_rcc.c ****   * @}
1574:/home/user/Desktop/STM32-Projekte/FH-Vertibot/src/STM32F30x_StdPeriph_Driver/src/stm32f30x_rcc.c ****   */
1575:/home/user/Desktop/STM32-Projekte/FH-Vertibot/src/STM32F30x_StdPeriph_Driver/src/stm32f30x_rcc.c **** 
1576:/home/user/Desktop/STM32-Projekte/FH-Vertibot/src/STM32F30x_StdPeriph_Driver/src/stm32f30x_rcc.c **** /** @defgroup RCC_Group4 Interrupts and flags management functions
1577:/home/user/Desktop/STM32-Projekte/FH-Vertibot/src/STM32F30x_StdPeriph_Driver/src/stm32f30x_rcc.c ****  *  @brief   Interrupts and flags management functions 
1578:/home/user/Desktop/STM32-Projekte/FH-Vertibot/src/STM32F30x_StdPeriph_Driver/src/stm32f30x_rcc.c ****  *
1579:/home/user/Desktop/STM32-Projekte/FH-Vertibot/src/STM32F30x_StdPeriph_Driver/src/stm32f30x_rcc.c **** @verbatim   
1580:/home/user/Desktop/STM32-Projekte/FH-Vertibot/src/STM32F30x_StdPeriph_Driver/src/stm32f30x_rcc.c ****  ===============================================================================
1581:/home/user/Desktop/STM32-Projekte/FH-Vertibot/src/STM32F30x_StdPeriph_Driver/src/stm32f30x_rcc.c ****             ##### Interrupts and flags management functions #####
1582:/home/user/Desktop/STM32-Projekte/FH-Vertibot/src/STM32F30x_StdPeriph_Driver/src/stm32f30x_rcc.c ****  ===============================================================================  
1583:/home/user/Desktop/STM32-Projekte/FH-Vertibot/src/STM32F30x_StdPeriph_Driver/src/stm32f30x_rcc.c **** 
1584:/home/user/Desktop/STM32-Projekte/FH-Vertibot/src/STM32F30x_StdPeriph_Driver/src/stm32f30x_rcc.c **** @endverbatim
1585:/home/user/Desktop/STM32-Projekte/FH-Vertibot/src/STM32F30x_StdPeriph_Driver/src/stm32f30x_rcc.c ****   * @{
1586:/home/user/Desktop/STM32-Projekte/FH-Vertibot/src/STM32F30x_StdPeriph_Driver/src/stm32f30x_rcc.c ****   */
1587:/home/user/Desktop/STM32-Projekte/FH-Vertibot/src/STM32F30x_StdPeriph_Driver/src/stm32f30x_rcc.c **** 
1588:/home/user/Desktop/STM32-Projekte/FH-Vertibot/src/STM32F30x_StdPeriph_Driver/src/stm32f30x_rcc.c **** /**
1589:/home/user/Desktop/STM32-Projekte/FH-Vertibot/src/STM32F30x_StdPeriph_Driver/src/stm32f30x_rcc.c ****   * @brief  Enables or disables the specified RCC interrupts.
1590:/home/user/Desktop/STM32-Projekte/FH-Vertibot/src/STM32F30x_StdPeriph_Driver/src/stm32f30x_rcc.c ****   * @note   The CSS interrupt doesn't have an enable bit; once the CSS is enabled
1591:/home/user/Desktop/STM32-Projekte/FH-Vertibot/src/STM32F30x_StdPeriph_Driver/src/stm32f30x_rcc.c ****   *         and if the HSE clock fails, the CSS interrupt occurs and an NMI is
1592:/home/user/Desktop/STM32-Projekte/FH-Vertibot/src/STM32F30x_StdPeriph_Driver/src/stm32f30x_rcc.c ****   *         automatically generated. The NMI will be executed indefinitely, and 
1593:/home/user/Desktop/STM32-Projekte/FH-Vertibot/src/STM32F30x_StdPeriph_Driver/src/stm32f30x_rcc.c ****   *         since NMI has higher priority than any other IRQ (and main program)
1594:/home/user/Desktop/STM32-Projekte/FH-Vertibot/src/STM32F30x_StdPeriph_Driver/src/stm32f30x_rcc.c ****   *         the application will be stacked in the NMI ISR unless the CSS interrupt
1595:/home/user/Desktop/STM32-Projekte/FH-Vertibot/src/STM32F30x_StdPeriph_Driver/src/stm32f30x_rcc.c ****   *         pending bit is cleared.
1596:/home/user/Desktop/STM32-Projekte/FH-Vertibot/src/STM32F30x_StdPeriph_Driver/src/stm32f30x_rcc.c ****   * @param  RCC_IT: specifies the RCC interrupt sources to be enabled or disabled.
1597:/home/user/Desktop/STM32-Projekte/FH-Vertibot/src/STM32F30x_StdPeriph_Driver/src/stm32f30x_rcc.c ****   *   This parameter can be any combination of the following values:
1598:/home/user/Desktop/STM32-Projekte/FH-Vertibot/src/STM32F30x_StdPeriph_Driver/src/stm32f30x_rcc.c ****   *     @arg RCC_IT_LSIRDY: LSI ready interrupt
1599:/home/user/Desktop/STM32-Projekte/FH-Vertibot/src/STM32F30x_StdPeriph_Driver/src/stm32f30x_rcc.c ****   *     @arg RCC_IT_LSERDY: LSE ready interrupt
1600:/home/user/Desktop/STM32-Projekte/FH-Vertibot/src/STM32F30x_StdPeriph_Driver/src/stm32f30x_rcc.c ****   *     @arg RCC_IT_HSIRDY: HSI ready interrupt
1601:/home/user/Desktop/STM32-Projekte/FH-Vertibot/src/STM32F30x_StdPeriph_Driver/src/stm32f30x_rcc.c ****   *     @arg RCC_IT_HSERDY: HSE ready interrupt
1602:/home/user/Desktop/STM32-Projekte/FH-Vertibot/src/STM32F30x_StdPeriph_Driver/src/stm32f30x_rcc.c ****   *     @arg RCC_IT_PLLRDY: PLL ready interrupt
1603:/home/user/Desktop/STM32-Projekte/FH-Vertibot/src/STM32F30x_StdPeriph_Driver/src/stm32f30x_rcc.c ****   * @param  NewState: new state of the specified RCC interrupts.
1604:/home/user/Desktop/STM32-Projekte/FH-Vertibot/src/STM32F30x_StdPeriph_Driver/src/stm32f30x_rcc.c ****   *   This parameter can be: ENABLE or DISABLE.
1605:/home/user/Desktop/STM32-Projekte/FH-Vertibot/src/STM32F30x_StdPeriph_Driver/src/stm32f30x_rcc.c ****   * @retval None
1606:/home/user/Desktop/STM32-Projekte/FH-Vertibot/src/STM32F30x_StdPeriph_Driver/src/stm32f30x_rcc.c ****   */
1607:/home/user/Desktop/STM32-Projekte/FH-Vertibot/src/STM32F30x_StdPeriph_Driver/src/stm32f30x_rcc.c **** void RCC_ITConfig(uint8_t RCC_IT, FunctionalState NewState)
1608:/home/user/Desktop/STM32-Projekte/FH-Vertibot/src/STM32F30x_StdPeriph_Driver/src/stm32f30x_rcc.c **** {
 1526              		.loc 1 1608 0
 1527              		.cfi_startproc
 1528              		@ args = 0, pretend = 0, frame = 0
 1529              		@ frame_needed = 0, uses_anonymous_args = 0
 1530              		@ link register save eliminated.
 1531              	.LVL122:
 1532 0554 044B     		ldr	r3, .L191
1609:/home/user/Desktop/STM32-Projekte/FH-Vertibot/src/STM32F30x_StdPeriph_Driver/src/stm32f30x_rcc.c ****   /* Check the parameters */
1610:/home/user/Desktop/STM32-Projekte/FH-Vertibot/src/STM32F30x_StdPeriph_Driver/src/stm32f30x_rcc.c ****   assert_param(IS_RCC_IT(RCC_IT));
1611:/home/user/Desktop/STM32-Projekte/FH-Vertibot/src/STM32F30x_StdPeriph_Driver/src/stm32f30x_rcc.c ****   assert_param(IS_FUNCTIONAL_STATE(NewState));
1612:/home/user/Desktop/STM32-Projekte/FH-Vertibot/src/STM32F30x_StdPeriph_Driver/src/stm32f30x_rcc.c ****   
1613:/home/user/Desktop/STM32-Projekte/FH-Vertibot/src/STM32F30x_StdPeriph_Driver/src/stm32f30x_rcc.c ****   if (NewState != DISABLE)
1614:/home/user/Desktop/STM32-Projekte/FH-Vertibot/src/STM32F30x_StdPeriph_Driver/src/stm32f30x_rcc.c ****   {
1615:/home/user/Desktop/STM32-Projekte/FH-Vertibot/src/STM32F30x_StdPeriph_Driver/src/stm32f30x_rcc.c ****     /* Perform Byte access to RCC_CIR[13:8] bits to enable the selected interrupts */
1616:/home/user/Desktop/STM32-Projekte/FH-Vertibot/src/STM32F30x_StdPeriph_Driver/src/stm32f30x_rcc.c ****     *(__IO uint8_t *) CIR_BYTE2_ADDRESS |= RCC_IT;
 1533              		.loc 1 1616 0
 1534 0556 1A78     		ldrb	r2, [r3, #0]	@ zero_extendqisi2
1613:/home/user/Desktop/STM32-Projekte/FH-Vertibot/src/STM32F30x_StdPeriph_Driver/src/stm32f30x_rcc.c ****   if (NewState != DISABLE)
 1535              		.loc 1 1613 0
 1536 0558 09B1     		cbz	r1, .L188
 1537              		.loc 1 1616 0
 1538 055a 1043     		orrs	r0, r0, r2
 1539              	.LVL123:
 1540 055c 01E0     		b	.L190
 1541              	.LVL124:
 1542              	.L188:
1617:/home/user/Desktop/STM32-Projekte/FH-Vertibot/src/STM32F30x_StdPeriph_Driver/src/stm32f30x_rcc.c ****   }
1618:/home/user/Desktop/STM32-Projekte/FH-Vertibot/src/STM32F30x_StdPeriph_Driver/src/stm32f30x_rcc.c ****   else
1619:/home/user/Desktop/STM32-Projekte/FH-Vertibot/src/STM32F30x_StdPeriph_Driver/src/stm32f30x_rcc.c ****   {
1620:/home/user/Desktop/STM32-Projekte/FH-Vertibot/src/STM32F30x_StdPeriph_Driver/src/stm32f30x_rcc.c ****     /* Perform Byte access to RCC_CIR[13:8] bits to disable the selected interrupts */
1621:/home/user/Desktop/STM32-Projekte/FH-Vertibot/src/STM32F30x_StdPeriph_Driver/src/stm32f30x_rcc.c ****     *(__IO uint8_t *) CIR_BYTE2_ADDRESS &= (uint8_t)~RCC_IT;
 1543              		.loc 1 1621 0
 1544 055e 22EA0000 		bic	r0, r2, r0
 1545              	.LVL125:
 1546              	.L190:
 1547 0562 1870     		strb	r0, [r3, #0]
 1548 0564 7047     		bx	lr
 1549              	.L192:
 1550 0566 00BF     		.align	2
 1551              	.L191:
 1552 0568 09100240 		.word	1073877001
 1553              		.cfi_endproc
 1554              	.LFE145:
 1556              		.align	1
 1557              		.global	RCC_GetFlagStatus
 1558              		.thumb
 1559              		.thumb_func
 1561              	RCC_GetFlagStatus:
 1562              	.LFB146:
1622:/home/user/Desktop/STM32-Projekte/FH-Vertibot/src/STM32F30x_StdPeriph_Driver/src/stm32f30x_rcc.c ****   }
1623:/home/user/Desktop/STM32-Projekte/FH-Vertibot/src/STM32F30x_StdPeriph_Driver/src/stm32f30x_rcc.c **** }
1624:/home/user/Desktop/STM32-Projekte/FH-Vertibot/src/STM32F30x_StdPeriph_Driver/src/stm32f30x_rcc.c **** 
1625:/home/user/Desktop/STM32-Projekte/FH-Vertibot/src/STM32F30x_StdPeriph_Driver/src/stm32f30x_rcc.c **** /**
1626:/home/user/Desktop/STM32-Projekte/FH-Vertibot/src/STM32F30x_StdPeriph_Driver/src/stm32f30x_rcc.c ****   * @brief  Checks whether the specified RCC flag is set or not.
1627:/home/user/Desktop/STM32-Projekte/FH-Vertibot/src/STM32F30x_StdPeriph_Driver/src/stm32f30x_rcc.c ****   * @param  RCC_FLAG: specifies the flag to check.
1628:/home/user/Desktop/STM32-Projekte/FH-Vertibot/src/STM32F30x_StdPeriph_Driver/src/stm32f30x_rcc.c ****   *   This parameter can be one of the following values:
1629:/home/user/Desktop/STM32-Projekte/FH-Vertibot/src/STM32F30x_StdPeriph_Driver/src/stm32f30x_rcc.c ****   *     @arg RCC_FLAG_HSIRDY: HSI oscillator clock ready  
1630:/home/user/Desktop/STM32-Projekte/FH-Vertibot/src/STM32F30x_StdPeriph_Driver/src/stm32f30x_rcc.c ****   *     @arg RCC_FLAG_HSERDY: HSE oscillator clock ready
1631:/home/user/Desktop/STM32-Projekte/FH-Vertibot/src/STM32F30x_StdPeriph_Driver/src/stm32f30x_rcc.c ****   *     @arg RCC_FLAG_PLLRDY: PLL clock ready
1632:/home/user/Desktop/STM32-Projekte/FH-Vertibot/src/STM32F30x_StdPeriph_Driver/src/stm32f30x_rcc.c ****   *     @arg RCC_FLAG_MCOF: MCO Flag  
1633:/home/user/Desktop/STM32-Projekte/FH-Vertibot/src/STM32F30x_StdPeriph_Driver/src/stm32f30x_rcc.c ****   *     @arg RCC_FLAG_LSERDY: LSE oscillator clock ready
1634:/home/user/Desktop/STM32-Projekte/FH-Vertibot/src/STM32F30x_StdPeriph_Driver/src/stm32f30x_rcc.c ****   *     @arg RCC_FLAG_LSIRDY: LSI oscillator clock ready
1635:/home/user/Desktop/STM32-Projekte/FH-Vertibot/src/STM32F30x_StdPeriph_Driver/src/stm32f30x_rcc.c ****   *     @arg RCC_FLAG_OBLRST: Option Byte Loader (OBL) reset 
1636:/home/user/Desktop/STM32-Projekte/FH-Vertibot/src/STM32F30x_StdPeriph_Driver/src/stm32f30x_rcc.c ****   *     @arg RCC_FLAG_PINRST: Pin reset
1637:/home/user/Desktop/STM32-Projekte/FH-Vertibot/src/STM32F30x_StdPeriph_Driver/src/stm32f30x_rcc.c ****   *     @arg RCC_FLAG_PORRST: POR/PDR reset
1638:/home/user/Desktop/STM32-Projekte/FH-Vertibot/src/STM32F30x_StdPeriph_Driver/src/stm32f30x_rcc.c ****   *     @arg RCC_FLAG_SFTRST: Software reset
1639:/home/user/Desktop/STM32-Projekte/FH-Vertibot/src/STM32F30x_StdPeriph_Driver/src/stm32f30x_rcc.c ****   *     @arg RCC_FLAG_IWDGRST: Independent Watchdog reset
1640:/home/user/Desktop/STM32-Projekte/FH-Vertibot/src/STM32F30x_StdPeriph_Driver/src/stm32f30x_rcc.c ****   *     @arg RCC_FLAG_WWDGRST: Window Watchdog reset
1641:/home/user/Desktop/STM32-Projekte/FH-Vertibot/src/STM32F30x_StdPeriph_Driver/src/stm32f30x_rcc.c ****   *     @arg RCC_FLAG_LPWRRST: Low Power reset
1642:/home/user/Desktop/STM32-Projekte/FH-Vertibot/src/STM32F30x_StdPeriph_Driver/src/stm32f30x_rcc.c ****   * @retval The new state of RCC_FLAG (SET or RESET).
1643:/home/user/Desktop/STM32-Projekte/FH-Vertibot/src/STM32F30x_StdPeriph_Driver/src/stm32f30x_rcc.c ****   */
1644:/home/user/Desktop/STM32-Projekte/FH-Vertibot/src/STM32F30x_StdPeriph_Driver/src/stm32f30x_rcc.c **** FlagStatus RCC_GetFlagStatus(uint8_t RCC_FLAG)
1645:/home/user/Desktop/STM32-Projekte/FH-Vertibot/src/STM32F30x_StdPeriph_Driver/src/stm32f30x_rcc.c **** {
 1563              		.loc 1 1645 0
 1564              		.cfi_startproc
 1565              		@ args = 0, pretend = 0, frame = 0
 1566              		@ frame_needed = 0, uses_anonymous_args = 0
 1567              		@ link register save eliminated.
 1568              	.LVL126:
1646:/home/user/Desktop/STM32-Projekte/FH-Vertibot/src/STM32F30x_StdPeriph_Driver/src/stm32f30x_rcc.c ****   uint32_t tmp = 0;
1647:/home/user/Desktop/STM32-Projekte/FH-Vertibot/src/STM32F30x_StdPeriph_Driver/src/stm32f30x_rcc.c ****   uint32_t statusreg = 0;
1648:/home/user/Desktop/STM32-Projekte/FH-Vertibot/src/STM32F30x_StdPeriph_Driver/src/stm32f30x_rcc.c ****   FlagStatus bitstatus = RESET;
1649:/home/user/Desktop/STM32-Projekte/FH-Vertibot/src/STM32F30x_StdPeriph_Driver/src/stm32f30x_rcc.c **** 
1650:/home/user/Desktop/STM32-Projekte/FH-Vertibot/src/STM32F30x_StdPeriph_Driver/src/stm32f30x_rcc.c ****   /* Check the parameters */
1651:/home/user/Desktop/STM32-Projekte/FH-Vertibot/src/STM32F30x_StdPeriph_Driver/src/stm32f30x_rcc.c ****   assert_param(IS_RCC_FLAG(RCC_FLAG));
1652:/home/user/Desktop/STM32-Projekte/FH-Vertibot/src/STM32F30x_StdPeriph_Driver/src/stm32f30x_rcc.c **** 
1653:/home/user/Desktop/STM32-Projekte/FH-Vertibot/src/STM32F30x_StdPeriph_Driver/src/stm32f30x_rcc.c ****   /* Get the RCC register index */
1654:/home/user/Desktop/STM32-Projekte/FH-Vertibot/src/STM32F30x_StdPeriph_Driver/src/stm32f30x_rcc.c ****   tmp = RCC_FLAG >> 5;
1655:/home/user/Desktop/STM32-Projekte/FH-Vertibot/src/STM32F30x_StdPeriph_Driver/src/stm32f30x_rcc.c **** 
1656:/home/user/Desktop/STM32-Projekte/FH-Vertibot/src/STM32F30x_StdPeriph_Driver/src/stm32f30x_rcc.c ****    if (tmp == 0)               /* The flag to check is in CR register */
 1569              		.loc 1 1656 0
 1570 056c 4309     		lsrs	r3, r0, #5
 1571              	.LVL127:
 1572 056e 094A     		ldr	r2, .L198
 1573 0570 01D1     		bne	.L194
1657:/home/user/Desktop/STM32-Projekte/FH-Vertibot/src/STM32F30x_StdPeriph_Driver/src/stm32f30x_rcc.c ****   {
1658:/home/user/Desktop/STM32-Projekte/FH-Vertibot/src/STM32F30x_StdPeriph_Driver/src/stm32f30x_rcc.c ****     statusreg = RCC->CR;
 1574              		.loc 1 1658 0
 1575 0572 1368     		ldr	r3, [r2, #0]
 1576              	.LVL128:
 1577 0574 07E0     		b	.L195
 1578              	.LVL129:
 1579              	.L194:
1659:/home/user/Desktop/STM32-Projekte/FH-Vertibot/src/STM32F30x_StdPeriph_Driver/src/stm32f30x_rcc.c ****   }
1660:/home/user/Desktop/STM32-Projekte/FH-Vertibot/src/STM32F30x_StdPeriph_Driver/src/stm32f30x_rcc.c ****   else if (tmp == 1)          /* The flag to check is in BDCR register */
 1580              		.loc 1 1660 0
 1581 0576 012B     		cmp	r3, #1
 1582 0578 01D1     		bne	.L196
1661:/home/user/Desktop/STM32-Projekte/FH-Vertibot/src/STM32F30x_StdPeriph_Driver/src/stm32f30x_rcc.c ****   {
1662:/home/user/Desktop/STM32-Projekte/FH-Vertibot/src/STM32F30x_StdPeriph_Driver/src/stm32f30x_rcc.c ****     statusreg = RCC->BDCR;
 1583              		.loc 1 1662 0
 1584 057a 136A     		ldr	r3, [r2, #32]
 1585              	.LVL130:
 1586 057c 03E0     		b	.L195
 1587              	.LVL131:
 1588              	.L196:
1663:/home/user/Desktop/STM32-Projekte/FH-Vertibot/src/STM32F30x_StdPeriph_Driver/src/stm32f30x_rcc.c ****   }
1664:/home/user/Desktop/STM32-Projekte/FH-Vertibot/src/STM32F30x_StdPeriph_Driver/src/stm32f30x_rcc.c ****   else if (tmp == 4)          /* The flag to check is in CFGR register */
 1589              		.loc 1 1664 0
 1590 057e 042B     		cmp	r3, #4
1665:/home/user/Desktop/STM32-Projekte/FH-Vertibot/src/STM32F30x_StdPeriph_Driver/src/stm32f30x_rcc.c ****   {
1666:/home/user/Desktop/STM32-Projekte/FH-Vertibot/src/STM32F30x_StdPeriph_Driver/src/stm32f30x_rcc.c ****     statusreg = RCC->CFGR;
 1591              		.loc 1 1666 0
 1592 0580 0CBF     		ite	eq
 1593 0582 5368     		ldreq	r3, [r2, #4]
 1594              	.LVL132:
1667:/home/user/Desktop/STM32-Projekte/FH-Vertibot/src/STM32F30x_StdPeriph_Driver/src/stm32f30x_rcc.c ****   }
1668:/home/user/Desktop/STM32-Projekte/FH-Vertibot/src/STM32F30x_StdPeriph_Driver/src/stm32f30x_rcc.c ****   else                       /* The flag to check is in CSR register */
1669:/home/user/Desktop/STM32-Projekte/FH-Vertibot/src/STM32F30x_StdPeriph_Driver/src/stm32f30x_rcc.c ****   {
1670:/home/user/Desktop/STM32-Projekte/FH-Vertibot/src/STM32F30x_StdPeriph_Driver/src/stm32f30x_rcc.c ****     statusreg = RCC->CSR;
 1595              		.loc 1 1670 0
 1596 0584 536A     		ldrne	r3, [r2, #36]
 1597              	.LVL133:
 1598              	.L195:
1671:/home/user/Desktop/STM32-Projekte/FH-Vertibot/src/STM32F30x_StdPeriph_Driver/src/stm32f30x_rcc.c ****   }
1672:/home/user/Desktop/STM32-Projekte/FH-Vertibot/src/STM32F30x_StdPeriph_Driver/src/stm32f30x_rcc.c **** 
1673:/home/user/Desktop/STM32-Projekte/FH-Vertibot/src/STM32F30x_StdPeriph_Driver/src/stm32f30x_rcc.c ****   /* Get the flag position */
1674:/home/user/Desktop/STM32-Projekte/FH-Vertibot/src/STM32F30x_StdPeriph_Driver/src/stm32f30x_rcc.c ****   tmp = RCC_FLAG & FLAG_MASK;
1675:/home/user/Desktop/STM32-Projekte/FH-Vertibot/src/STM32F30x_StdPeriph_Driver/src/stm32f30x_rcc.c **** 
1676:/home/user/Desktop/STM32-Projekte/FH-Vertibot/src/STM32F30x_StdPeriph_Driver/src/stm32f30x_rcc.c ****   if ((statusreg & ((uint32_t)1 << tmp)) != (uint32_t)RESET)
 1599              		.loc 1 1676 0
 1600 0586 00F01F00 		and	r0, r0, #31
 1601              	.LVL134:
 1602 058a 23FA00F0 		lsr	r0, r3, r0
1677:/home/user/Desktop/STM32-Projekte/FH-Vertibot/src/STM32F30x_StdPeriph_Driver/src/stm32f30x_rcc.c ****   {
1678:/home/user/Desktop/STM32-Projekte/FH-Vertibot/src/STM32F30x_StdPeriph_Driver/src/stm32f30x_rcc.c ****     bitstatus = SET;
1679:/home/user/Desktop/STM32-Projekte/FH-Vertibot/src/STM32F30x_StdPeriph_Driver/src/stm32f30x_rcc.c ****   }
1680:/home/user/Desktop/STM32-Projekte/FH-Vertibot/src/STM32F30x_StdPeriph_Driver/src/stm32f30x_rcc.c ****   else
1681:/home/user/Desktop/STM32-Projekte/FH-Vertibot/src/STM32F30x_StdPeriph_Driver/src/stm32f30x_rcc.c ****   {
1682:/home/user/Desktop/STM32-Projekte/FH-Vertibot/src/STM32F30x_StdPeriph_Driver/src/stm32f30x_rcc.c ****     bitstatus = RESET;
1683:/home/user/Desktop/STM32-Projekte/FH-Vertibot/src/STM32F30x_StdPeriph_Driver/src/stm32f30x_rcc.c ****   }
1684:/home/user/Desktop/STM32-Projekte/FH-Vertibot/src/STM32F30x_StdPeriph_Driver/src/stm32f30x_rcc.c ****   /* Return the flag status */
1685:/home/user/Desktop/STM32-Projekte/FH-Vertibot/src/STM32F30x_StdPeriph_Driver/src/stm32f30x_rcc.c ****   return bitstatus;
1686:/home/user/Desktop/STM32-Projekte/FH-Vertibot/src/STM32F30x_StdPeriph_Driver/src/stm32f30x_rcc.c **** }
 1603              		.loc 1 1686 0
 1604 058e 00F00100 		and	r0, r0, #1
 1605 0592 7047     		bx	lr
 1606              	.L199:
 1607              		.align	2
 1608              	.L198:
 1609 0594 00100240 		.word	1073876992
 1610              		.cfi_endproc
 1611              	.LFE146:
 1613              		.align	1
 1614              		.global	RCC_WaitForHSEStartUp
 1615              		.thumb
 1616              		.thumb_func
 1618              	RCC_WaitForHSEStartUp:
 1619              	.LFB113:
 262:/home/user/Desktop/STM32-Projekte/FH-Vertibot/src/STM32F30x_StdPeriph_Driver/src/stm32f30x_rcc.c **** {
 1620              		.loc 1 262 0
 1621              		.cfi_startproc
 1622              		@ args = 0, pretend = 0, frame = 8
 1623              		@ frame_needed = 0, uses_anonymous_args = 0
 1624 0598 07B5     		push	{r0, r1, r2, lr}
 1625              	.LCFI1:
 1626              		.cfi_def_cfa_offset 16
 1627              		.cfi_offset 0, -16
 1628              		.cfi_offset 1, -12
 1629              		.cfi_offset 2, -8
 1630              		.cfi_offset 14, -4
 263:/home/user/Desktop/STM32-Projekte/FH-Vertibot/src/STM32F30x_StdPeriph_Driver/src/stm32f30x_rcc.c ****   __IO uint32_t StartUpCounter = 0;
 1631              		.loc 1 263 0
 1632 059a 0023     		movs	r3, #0
 1633 059c 0193     		str	r3, [sp, #4]
 1634              	.LVL135:
 1635              	.L202:
 270:/home/user/Desktop/STM32-Projekte/FH-Vertibot/src/STM32F30x_StdPeriph_Driver/src/stm32f30x_rcc.c ****     HSEStatus = RCC_GetFlagStatus(RCC_FLAG_HSERDY);
 1636              		.loc 1 270 0 discriminator 1
 1637 059e 1120     		movs	r0, #17
 1638 05a0 FFF7FEFF 		bl	RCC_GetFlagStatus
 1639              	.LVL136:
 271:/home/user/Desktop/STM32-Projekte/FH-Vertibot/src/STM32F30x_StdPeriph_Driver/src/stm32f30x_rcc.c ****     StartUpCounter++;  
 1640              		.loc 1 271 0 discriminator 1
 1641 05a4 019B     		ldr	r3, [sp, #4]
 1642 05a6 0133     		adds	r3, r3, #1
 1643              	.LVL137:
 1644 05a8 0193     		str	r3, [sp, #4]
 1645              	.LVL138:
 272:/home/user/Desktop/STM32-Projekte/FH-Vertibot/src/STM32F30x_StdPeriph_Driver/src/stm32f30x_rcc.c ****   } while((StartUpCounter != HSE_STARTUP_TIMEOUT) && (HSEStatus == RESET));
 1646              		.loc 1 272 0 discriminator 1
 1647 05aa 019B     		ldr	r3, [sp, #4]
 1648              	.LVL139:
 1649 05ac B3F5A06F 		cmp	r3, #1280
 1650 05b0 01D0     		beq	.L201
 1651 05b2 0028     		cmp	r0, #0
 1652 05b4 F3D0     		beq	.L202
 1653              	.L201:
 274:/home/user/Desktop/STM32-Projekte/FH-Vertibot/src/STM32F30x_StdPeriph_Driver/src/stm32f30x_rcc.c ****   if (RCC_GetFlagStatus(RCC_FLAG_HSERDY) != RESET)
 1654              		.loc 1 274 0
 1655 05b6 1120     		movs	r0, #17
 1656              	.LVL140:
 1657 05b8 FFF7FEFF 		bl	RCC_GetFlagStatus
 1658              	.LVL141:
 283:/home/user/Desktop/STM32-Projekte/FH-Vertibot/src/STM32F30x_StdPeriph_Driver/src/stm32f30x_rcc.c **** }
 1659              		.loc 1 283 0
 1660 05bc 0030     		adds	r0, r0, #0
 1661              	.LVL142:
 1662 05be 18BF     		it	ne
 1663 05c0 0120     		movne	r0, #1
 1664 05c2 0EBD     		pop	{r1, r2, r3, pc}
 1665              		.cfi_endproc
 1666              	.LFE113:
 1668              		.align	1
 1669              		.global	RCC_ClearFlag
 1670              		.thumb
 1671              		.thumb_func
 1673              	RCC_ClearFlag:
 1674              	.LFB147:
1687:/home/user/Desktop/STM32-Projekte/FH-Vertibot/src/STM32F30x_StdPeriph_Driver/src/stm32f30x_rcc.c **** 
1688:/home/user/Desktop/STM32-Projekte/FH-Vertibot/src/STM32F30x_StdPeriph_Driver/src/stm32f30x_rcc.c **** /**
1689:/home/user/Desktop/STM32-Projekte/FH-Vertibot/src/STM32F30x_StdPeriph_Driver/src/stm32f30x_rcc.c ****   * @brief  Clears the RCC reset flags.
1690:/home/user/Desktop/STM32-Projekte/FH-Vertibot/src/STM32F30x_StdPeriph_Driver/src/stm32f30x_rcc.c ****   *         The reset flags are: RCC_FLAG_OBLRST, RCC_FLAG_PINRST, RCC_FLAG_PORRST, 
1691:/home/user/Desktop/STM32-Projekte/FH-Vertibot/src/STM32F30x_StdPeriph_Driver/src/stm32f30x_rcc.c ****   *         RCC_FLAG_SFTRST, RCC_FLAG_IWDGRST, RCC_FLAG_WWDGRST, RCC_FLAG_LPWRRST.
1692:/home/user/Desktop/STM32-Projekte/FH-Vertibot/src/STM32F30x_StdPeriph_Driver/src/stm32f30x_rcc.c ****   * @param  None
1693:/home/user/Desktop/STM32-Projekte/FH-Vertibot/src/STM32F30x_StdPeriph_Driver/src/stm32f30x_rcc.c ****   * @retval None
1694:/home/user/Desktop/STM32-Projekte/FH-Vertibot/src/STM32F30x_StdPeriph_Driver/src/stm32f30x_rcc.c ****   */
1695:/home/user/Desktop/STM32-Projekte/FH-Vertibot/src/STM32F30x_StdPeriph_Driver/src/stm32f30x_rcc.c **** void RCC_ClearFlag(void)
1696:/home/user/Desktop/STM32-Projekte/FH-Vertibot/src/STM32F30x_StdPeriph_Driver/src/stm32f30x_rcc.c **** {
 1675              		.loc 1 1696 0
 1676              		.cfi_startproc
 1677              		@ args = 0, pretend = 0, frame = 0
 1678              		@ frame_needed = 0, uses_anonymous_args = 0
 1679              		@ link register save eliminated.
1697:/home/user/Desktop/STM32-Projekte/FH-Vertibot/src/STM32F30x_StdPeriph_Driver/src/stm32f30x_rcc.c ****   /* Set RMVF bit to clear the reset flags */
1698:/home/user/Desktop/STM32-Projekte/FH-Vertibot/src/STM32F30x_StdPeriph_Driver/src/stm32f30x_rcc.c ****   RCC->CSR |= RCC_CSR_RMVF;
 1680              		.loc 1 1698 0
 1681 05c4 024B     		ldr	r3, .L211
 1682 05c6 5A6A     		ldr	r2, [r3, #36]
 1683 05c8 42F08072 		orr	r2, r2, #16777216
 1684 05cc 5A62     		str	r2, [r3, #36]
 1685 05ce 7047     		bx	lr
 1686              	.L212:
 1687              		.align	2
 1688              	.L211:
 1689 05d0 00100240 		.word	1073876992
 1690              		.cfi_endproc
 1691              	.LFE147:
 1693              		.align	1
 1694              		.global	RCC_GetITStatus
 1695              		.thumb
 1696              		.thumb_func
 1698              	RCC_GetITStatus:
 1699              	.LFB148:
1699:/home/user/Desktop/STM32-Projekte/FH-Vertibot/src/STM32F30x_StdPeriph_Driver/src/stm32f30x_rcc.c **** }
1700:/home/user/Desktop/STM32-Projekte/FH-Vertibot/src/STM32F30x_StdPeriph_Driver/src/stm32f30x_rcc.c **** 
1701:/home/user/Desktop/STM32-Projekte/FH-Vertibot/src/STM32F30x_StdPeriph_Driver/src/stm32f30x_rcc.c **** /**
1702:/home/user/Desktop/STM32-Projekte/FH-Vertibot/src/STM32F30x_StdPeriph_Driver/src/stm32f30x_rcc.c ****   * @brief  Checks whether the specified RCC interrupt has occurred or not.
1703:/home/user/Desktop/STM32-Projekte/FH-Vertibot/src/STM32F30x_StdPeriph_Driver/src/stm32f30x_rcc.c ****   * @param  RCC_IT: specifies the RCC interrupt source to check.
1704:/home/user/Desktop/STM32-Projekte/FH-Vertibot/src/STM32F30x_StdPeriph_Driver/src/stm32f30x_rcc.c ****   *   This parameter can be one of the following values:
1705:/home/user/Desktop/STM32-Projekte/FH-Vertibot/src/STM32F30x_StdPeriph_Driver/src/stm32f30x_rcc.c ****   *     @arg RCC_IT_LSIRDY: LSI ready interrupt
1706:/home/user/Desktop/STM32-Projekte/FH-Vertibot/src/STM32F30x_StdPeriph_Driver/src/stm32f30x_rcc.c ****   *     @arg RCC_IT_LSERDY: LSE ready interrupt
1707:/home/user/Desktop/STM32-Projekte/FH-Vertibot/src/STM32F30x_StdPeriph_Driver/src/stm32f30x_rcc.c ****   *     @arg RCC_IT_HSIRDY: HSI ready interrupt
1708:/home/user/Desktop/STM32-Projekte/FH-Vertibot/src/STM32F30x_StdPeriph_Driver/src/stm32f30x_rcc.c ****   *     @arg RCC_IT_HSERDY: HSE ready interrupt
1709:/home/user/Desktop/STM32-Projekte/FH-Vertibot/src/STM32F30x_StdPeriph_Driver/src/stm32f30x_rcc.c ****   *     @arg RCC_IT_PLLRDY: PLL ready interrupt
1710:/home/user/Desktop/STM32-Projekte/FH-Vertibot/src/STM32F30x_StdPeriph_Driver/src/stm32f30x_rcc.c ****   *     @arg RCC_IT_CSS: Clock Security System interrupt
1711:/home/user/Desktop/STM32-Projekte/FH-Vertibot/src/STM32F30x_StdPeriph_Driver/src/stm32f30x_rcc.c ****   * @retval The new state of RCC_IT (SET or RESET).
1712:/home/user/Desktop/STM32-Projekte/FH-Vertibot/src/STM32F30x_StdPeriph_Driver/src/stm32f30x_rcc.c ****   */
1713:/home/user/Desktop/STM32-Projekte/FH-Vertibot/src/STM32F30x_StdPeriph_Driver/src/stm32f30x_rcc.c **** ITStatus RCC_GetITStatus(uint8_t RCC_IT)
1714:/home/user/Desktop/STM32-Projekte/FH-Vertibot/src/STM32F30x_StdPeriph_Driver/src/stm32f30x_rcc.c **** {
 1700              		.loc 1 1714 0
 1701              		.cfi_startproc
 1702              		@ args = 0, pretend = 0, frame = 0
 1703              		@ frame_needed = 0, uses_anonymous_args = 0
 1704              		@ link register save eliminated.
 1705              	.LVL143:
1715:/home/user/Desktop/STM32-Projekte/FH-Vertibot/src/STM32F30x_StdPeriph_Driver/src/stm32f30x_rcc.c ****   ITStatus bitstatus = RESET;
1716:/home/user/Desktop/STM32-Projekte/FH-Vertibot/src/STM32F30x_StdPeriph_Driver/src/stm32f30x_rcc.c ****   
1717:/home/user/Desktop/STM32-Projekte/FH-Vertibot/src/STM32F30x_StdPeriph_Driver/src/stm32f30x_rcc.c ****   /* Check the parameters */
1718:/home/user/Desktop/STM32-Projekte/FH-Vertibot/src/STM32F30x_StdPeriph_Driver/src/stm32f30x_rcc.c ****   assert_param(IS_RCC_GET_IT(RCC_IT));
1719:/home/user/Desktop/STM32-Projekte/FH-Vertibot/src/STM32F30x_StdPeriph_Driver/src/stm32f30x_rcc.c ****   
1720:/home/user/Desktop/STM32-Projekte/FH-Vertibot/src/STM32F30x_StdPeriph_Driver/src/stm32f30x_rcc.c ****   /* Check the status of the specified RCC interrupt */
1721:/home/user/Desktop/STM32-Projekte/FH-Vertibot/src/STM32F30x_StdPeriph_Driver/src/stm32f30x_rcc.c ****   if ((RCC->CIR & RCC_IT) != (uint32_t)RESET)
 1706              		.loc 1 1721 0
 1707 05d4 034B     		ldr	r3, .L214
 1708 05d6 9B68     		ldr	r3, [r3, #8]
 1709              	.LVL144:
 1710 05d8 1842     		tst	r0, r3
1722:/home/user/Desktop/STM32-Projekte/FH-Vertibot/src/STM32F30x_StdPeriph_Driver/src/stm32f30x_rcc.c ****   {
1723:/home/user/Desktop/STM32-Projekte/FH-Vertibot/src/STM32F30x_StdPeriph_Driver/src/stm32f30x_rcc.c ****     bitstatus = SET;
1724:/home/user/Desktop/STM32-Projekte/FH-Vertibot/src/STM32F30x_StdPeriph_Driver/src/stm32f30x_rcc.c ****   }
1725:/home/user/Desktop/STM32-Projekte/FH-Vertibot/src/STM32F30x_StdPeriph_Driver/src/stm32f30x_rcc.c ****   else
1726:/home/user/Desktop/STM32-Projekte/FH-Vertibot/src/STM32F30x_StdPeriph_Driver/src/stm32f30x_rcc.c ****   {
1727:/home/user/Desktop/STM32-Projekte/FH-Vertibot/src/STM32F30x_StdPeriph_Driver/src/stm32f30x_rcc.c ****     bitstatus = RESET;
1728:/home/user/Desktop/STM32-Projekte/FH-Vertibot/src/STM32F30x_StdPeriph_Driver/src/stm32f30x_rcc.c ****   }
1729:/home/user/Desktop/STM32-Projekte/FH-Vertibot/src/STM32F30x_StdPeriph_Driver/src/stm32f30x_rcc.c ****   /* Return the RCC_IT status */
1730:/home/user/Desktop/STM32-Projekte/FH-Vertibot/src/STM32F30x_StdPeriph_Driver/src/stm32f30x_rcc.c ****   return  bitstatus;
1731:/home/user/Desktop/STM32-Projekte/FH-Vertibot/src/STM32F30x_StdPeriph_Driver/src/stm32f30x_rcc.c **** }
 1711              		.loc 1 1731 0
 1712 05da 0CBF     		ite	eq
 1713 05dc 0020     		moveq	r0, #0
 1714 05de 0120     		movne	r0, #1
 1715              	.LVL145:
 1716 05e0 7047     		bx	lr
 1717              	.L215:
 1718 05e2 00BF     		.align	2
 1719              	.L214:
 1720 05e4 00100240 		.word	1073876992
 1721              		.cfi_endproc
 1722              	.LFE148:
 1724              		.align	1
 1725              		.global	RCC_ClearITPendingBit
 1726              		.thumb
 1727              		.thumb_func
 1729              	RCC_ClearITPendingBit:
 1730              	.LFB149:
1732:/home/user/Desktop/STM32-Projekte/FH-Vertibot/src/STM32F30x_StdPeriph_Driver/src/stm32f30x_rcc.c **** 
1733:/home/user/Desktop/STM32-Projekte/FH-Vertibot/src/STM32F30x_StdPeriph_Driver/src/stm32f30x_rcc.c **** /**
1734:/home/user/Desktop/STM32-Projekte/FH-Vertibot/src/STM32F30x_StdPeriph_Driver/src/stm32f30x_rcc.c ****   * @brief  Clears the RCC's interrupt pending bits.
1735:/home/user/Desktop/STM32-Projekte/FH-Vertibot/src/STM32F30x_StdPeriph_Driver/src/stm32f30x_rcc.c ****   * @param  RCC_IT: specifies the interrupt pending bit to clear.
1736:/home/user/Desktop/STM32-Projekte/FH-Vertibot/src/STM32F30x_StdPeriph_Driver/src/stm32f30x_rcc.c ****   *   This parameter can be any combination of the following values:
1737:/home/user/Desktop/STM32-Projekte/FH-Vertibot/src/STM32F30x_StdPeriph_Driver/src/stm32f30x_rcc.c ****   *     @arg RCC_IT_LSIRDY: LSI ready interrupt
1738:/home/user/Desktop/STM32-Projekte/FH-Vertibot/src/STM32F30x_StdPeriph_Driver/src/stm32f30x_rcc.c ****   *     @arg RCC_IT_LSERDY: LSE ready interrupt
1739:/home/user/Desktop/STM32-Projekte/FH-Vertibot/src/STM32F30x_StdPeriph_Driver/src/stm32f30x_rcc.c ****   *     @arg RCC_IT_HSIRDY: HSI ready interrupt
1740:/home/user/Desktop/STM32-Projekte/FH-Vertibot/src/STM32F30x_StdPeriph_Driver/src/stm32f30x_rcc.c ****   *     @arg RCC_IT_HSERDY: HSE ready interrupt
1741:/home/user/Desktop/STM32-Projekte/FH-Vertibot/src/STM32F30x_StdPeriph_Driver/src/stm32f30x_rcc.c ****   *     @arg RCC_IT_PLLRDY: PLL ready interrupt
1742:/home/user/Desktop/STM32-Projekte/FH-Vertibot/src/STM32F30x_StdPeriph_Driver/src/stm32f30x_rcc.c ****   *     @arg RCC_IT_CSS: Clock Security System interrupt
1743:/home/user/Desktop/STM32-Projekte/FH-Vertibot/src/STM32F30x_StdPeriph_Driver/src/stm32f30x_rcc.c ****   * @retval None
1744:/home/user/Desktop/STM32-Projekte/FH-Vertibot/src/STM32F30x_StdPeriph_Driver/src/stm32f30x_rcc.c ****   */
1745:/home/user/Desktop/STM32-Projekte/FH-Vertibot/src/STM32F30x_StdPeriph_Driver/src/stm32f30x_rcc.c **** void RCC_ClearITPendingBit(uint8_t RCC_IT)
1746:/home/user/Desktop/STM32-Projekte/FH-Vertibot/src/STM32F30x_StdPeriph_Driver/src/stm32f30x_rcc.c **** {
 1731              		.loc 1 1746 0
 1732              		.cfi_startproc
 1733              		@ args = 0, pretend = 0, frame = 0
 1734              		@ frame_needed = 0, uses_anonymous_args = 0
 1735              		@ link register save eliminated.
 1736              	.LVL146:
1747:/home/user/Desktop/STM32-Projekte/FH-Vertibot/src/STM32F30x_StdPeriph_Driver/src/stm32f30x_rcc.c ****   /* Check the parameters */
1748:/home/user/Desktop/STM32-Projekte/FH-Vertibot/src/STM32F30x_StdPeriph_Driver/src/stm32f30x_rcc.c ****   assert_param(IS_RCC_CLEAR_IT(RCC_IT));
1749:/home/user/Desktop/STM32-Projekte/FH-Vertibot/src/STM32F30x_StdPeriph_Driver/src/stm32f30x_rcc.c ****   
1750:/home/user/Desktop/STM32-Projekte/FH-Vertibot/src/STM32F30x_StdPeriph_Driver/src/stm32f30x_rcc.c ****   /* Perform Byte access to RCC_CIR[23:16] bits to clear the selected interrupt
1751:/home/user/Desktop/STM32-Projekte/FH-Vertibot/src/STM32F30x_StdPeriph_Driver/src/stm32f30x_rcc.c ****      pending bits */
1752:/home/user/Desktop/STM32-Projekte/FH-Vertibot/src/STM32F30x_StdPeriph_Driver/src/stm32f30x_rcc.c ****   *(__IO uint8_t *) CIR_BYTE3_ADDRESS = RCC_IT;
 1737              		.loc 1 1752 0
 1738 05e8 014B     		ldr	r3, .L217
 1739 05ea 1870     		strb	r0, [r3, #0]
 1740 05ec 7047     		bx	lr
 1741              	.L218:
 1742 05ee 00BF     		.align	2
 1743              	.L217:
 1744 05f0 0A100240 		.word	1073877002
 1745              		.cfi_endproc
 1746              	.LFE149:
 1748              		.data
 1749              		.align	1
 1750              		.set	.LANCHOR0,. + 0
 1753              	APBAHBPrescTable:
 1754 0000 00       		.byte	0
 1755 0001 00       		.byte	0
 1756 0002 00       		.byte	0
 1757 0003 00       		.byte	0
 1758 0004 01       		.byte	1
 1759 0005 02       		.byte	2
 1760 0006 03       		.byte	3
 1761 0007 04       		.byte	4
 1762 0008 01       		.byte	1
 1763 0009 02       		.byte	2
 1764 000a 03       		.byte	3
 1765 000b 04       		.byte	4
 1766 000c 06       		.byte	6
 1767 000d 07       		.byte	7
 1768 000e 08       		.byte	8
 1769 000f 09       		.byte	9
 1772              	ADCPrescTable:
 1773 0010 0000     		.short	0
 1774 0012 0100     		.short	1
 1775 0014 0200     		.short	2
 1776 0016 0400     		.short	4
 1777 0018 0600     		.short	6
 1778 001a 0800     		.short	8
 1779 001c 0A00     		.short	10
 1780 001e 0C00     		.short	12
 1781 0020 1000     		.short	16
 1782 0022 2000     		.short	32
 1783 0024 4000     		.short	64
 1784 0026 8000     		.short	128
 1785 0028 0001     		.short	256
 1786              		.text
 1787              	.Letext0:
 1788              		.file 2 "/opt/CodeSourcery/Sourcery_CodeBench_Lite_for_ARM_EABI/bin/../lib/gcc/arm-none-eabi/4.7.2
 1789              		.file 3 "/home/user/Desktop/STM32-Projekte/FH-Vertibot/src/CMSIS/Device/ST/STM32F30x/Include/stm32
 1790              		.file 4 "/home/user/Desktop/STM32-Projekte/FH-Vertibot/src/STM32F30x_StdPeriph_Driver/inc/stm32f30
 1791              		.file 5 "/home/user/Desktop/STM32-Projekte/FH-Vertibot/src/CMSIS/Include/core_cm4.h"
DEFINED SYMBOLS
                            *ABS*:00000000 stm32f30x_rcc.c
     /tmp/cc3rgW2J.s:20     .text:00000000 $t
     /tmp/cc3rgW2J.s:25     .text:00000000 RCC_DeInit
     /tmp/cc3rgW2J.s:73     .text:00000048 $d
     /tmp/cc3rgW2J.s:79     .text:00000054 $t
     /tmp/cc3rgW2J.s:84     .text:00000054 RCC_HSEConfig
     /tmp/cc3rgW2J.s:102    .text:00000060 $d
     /tmp/cc3rgW2J.s:106    .text:00000064 $t
     /tmp/cc3rgW2J.s:111    .text:00000064 RCC_AdjustHSICalibrationValue
     /tmp/cc3rgW2J.s:135    .text:00000074 $d
     /tmp/cc3rgW2J.s:139    .text:00000078 $t
     /tmp/cc3rgW2J.s:144    .text:00000078 RCC_HSICmd
     /tmp/cc3rgW2J.s:159    .text:00000080 $d
     /tmp/cc3rgW2J.s:163    .text:00000084 $t
     /tmp/cc3rgW2J.s:168    .text:00000084 RCC_LSEConfig
     /tmp/cc3rgW2J.s:194    .text:000000a0 $d
     /tmp/cc3rgW2J.s:198    .text:000000a4 $t
     /tmp/cc3rgW2J.s:203    .text:000000a4 RCC_LSEDriveConfig
     /tmp/cc3rgW2J.s:225    .text:000000b8 $d
     /tmp/cc3rgW2J.s:229    .text:000000bc $t
     /tmp/cc3rgW2J.s:234    .text:000000bc RCC_LSICmd
     /tmp/cc3rgW2J.s:249    .text:000000c4 $d
     /tmp/cc3rgW2J.s:253    .text:000000c8 $t
     /tmp/cc3rgW2J.s:258    .text:000000c8 RCC_PLLConfig
     /tmp/cc3rgW2J.s:282    .text:000000dc $d
     /tmp/cc3rgW2J.s:286    .text:000000e0 $t
     /tmp/cc3rgW2J.s:291    .text:000000e0 RCC_PLLCmd
     /tmp/cc3rgW2J.s:306    .text:000000e8 $d
     /tmp/cc3rgW2J.s:310    .text:000000ec $t
     /tmp/cc3rgW2J.s:315    .text:000000ec RCC_PREDIV1Config
     /tmp/cc3rgW2J.s:339    .text:000000fc $d
     /tmp/cc3rgW2J.s:343    .text:00000100 $t
     /tmp/cc3rgW2J.s:348    .text:00000100 RCC_ClockSecuritySystemCmd
     /tmp/cc3rgW2J.s:363    .text:00000108 $d
     /tmp/cc3rgW2J.s:367    .text:0000010c $t
     /tmp/cc3rgW2J.s:372    .text:0000010c RCC_MCOConfig
     /tmp/cc3rgW2J.s:387    .text:00000114 $d
     /tmp/cc3rgW2J.s:391    .text:00000118 $t
     /tmp/cc3rgW2J.s:396    .text:00000118 RCC_SYSCLKConfig
     /tmp/cc3rgW2J.s:420    .text:00000128 $d
     /tmp/cc3rgW2J.s:424    .text:0000012c $t
     /tmp/cc3rgW2J.s:429    .text:0000012c RCC_GetSYSCLKSource
     /tmp/cc3rgW2J.s:445    .text:00000138 $d
     /tmp/cc3rgW2J.s:449    .text:0000013c $t
     /tmp/cc3rgW2J.s:454    .text:0000013c RCC_HCLKConfig
     /tmp/cc3rgW2J.s:478    .text:0000014c $d
     /tmp/cc3rgW2J.s:482    .text:00000150 $t
     /tmp/cc3rgW2J.s:487    .text:00000150 RCC_PCLK1Config
     /tmp/cc3rgW2J.s:511    .text:00000160 $d
     /tmp/cc3rgW2J.s:515    .text:00000164 $t
     /tmp/cc3rgW2J.s:520    .text:00000164 RCC_PCLK2Config
     /tmp/cc3rgW2J.s:544    .text:00000174 $d
     /tmp/cc3rgW2J.s:548    .text:00000178 $t
     /tmp/cc3rgW2J.s:553    .text:00000178 RCC_GetClocksFreq
     /tmp/cc3rgW2J.s:988    .text:000003cc $d
     /tmp/cc3rgW2J.s:995    .text:000003dc $t
     /tmp/cc3rgW2J.s:1000   .text:000003dc RCC_ADCCLKConfig
     /tmp/cc3rgW2J.s:1027   .text:000003f8 $d
     /tmp/cc3rgW2J.s:1031   .text:000003fc $t
     /tmp/cc3rgW2J.s:1036   .text:000003fc RCC_I2CCLKConfig
     /tmp/cc3rgW2J.s:1063   .text:00000418 $d
     /tmp/cc3rgW2J.s:1067   .text:0000041c $t
     /tmp/cc3rgW2J.s:1072   .text:0000041c RCC_TIMCLKConfig
     /tmp/cc3rgW2J.s:1099   .text:00000438 $d
     /tmp/cc3rgW2J.s:1103   .text:0000043c $t
     /tmp/cc3rgW2J.s:1108   .text:0000043c RCC_USARTCLKConfig
     /tmp/cc3rgW2J.s:1127   .text:0000044a $d
     /tmp/cc3rgW2J.s:1170   .text:00000480 $d
     /tmp/cc3rgW2J.s:1174   .text:00000484 $t
     /tmp/cc3rgW2J.s:1179   .text:00000484 RCC_USBCLKConfig
     /tmp/cc3rgW2J.s:1194   .text:0000048c $d
     /tmp/cc3rgW2J.s:1198   .text:00000490 $t
     /tmp/cc3rgW2J.s:1203   .text:00000490 RCC_RTCCLKConfig
     /tmp/cc3rgW2J.s:1221   .text:0000049c $d
     /tmp/cc3rgW2J.s:1225   .text:000004a0 $t
     /tmp/cc3rgW2J.s:1230   .text:000004a0 RCC_I2SCLKConfig
     /tmp/cc3rgW2J.s:1245   .text:000004a8 $d
     /tmp/cc3rgW2J.s:1249   .text:000004ac $t
     /tmp/cc3rgW2J.s:1254   .text:000004ac RCC_RTCCLKCmd
     /tmp/cc3rgW2J.s:1269   .text:000004b4 $d
     /tmp/cc3rgW2J.s:1273   .text:000004b8 $t
     /tmp/cc3rgW2J.s:1278   .text:000004b8 RCC_BackupResetCmd
     /tmp/cc3rgW2J.s:1293   .text:000004c0 $d
     /tmp/cc3rgW2J.s:1297   .text:000004c4 $t
     /tmp/cc3rgW2J.s:1302   .text:000004c4 RCC_AHBPeriphClockCmd
     /tmp/cc3rgW2J.s:1330   .text:000004d8 $d
     /tmp/cc3rgW2J.s:1334   .text:000004dc $t
     /tmp/cc3rgW2J.s:1339   .text:000004dc RCC_APB2PeriphClockCmd
     /tmp/cc3rgW2J.s:1367   .text:000004f0 $d
     /tmp/cc3rgW2J.s:1371   .text:000004f4 $t
     /tmp/cc3rgW2J.s:1376   .text:000004f4 RCC_APB1PeriphClockCmd
     /tmp/cc3rgW2J.s:1404   .text:00000508 $d
     /tmp/cc3rgW2J.s:1408   .text:0000050c $t
     /tmp/cc3rgW2J.s:1413   .text:0000050c RCC_AHBPeriphResetCmd
     /tmp/cc3rgW2J.s:1441   .text:00000520 $d
     /tmp/cc3rgW2J.s:1445   .text:00000524 $t
     /tmp/cc3rgW2J.s:1450   .text:00000524 RCC_APB2PeriphResetCmd
     /tmp/cc3rgW2J.s:1478   .text:00000538 $d
     /tmp/cc3rgW2J.s:1482   .text:0000053c $t
     /tmp/cc3rgW2J.s:1487   .text:0000053c RCC_APB1PeriphResetCmd
     /tmp/cc3rgW2J.s:1515   .text:00000550 $d
     /tmp/cc3rgW2J.s:1519   .text:00000554 $t
     /tmp/cc3rgW2J.s:1524   .text:00000554 RCC_ITConfig
     /tmp/cc3rgW2J.s:1552   .text:00000568 $d
     /tmp/cc3rgW2J.s:1556   .text:0000056c $t
     /tmp/cc3rgW2J.s:1561   .text:0000056c RCC_GetFlagStatus
     /tmp/cc3rgW2J.s:1609   .text:00000594 $d
     /tmp/cc3rgW2J.s:1613   .text:00000598 $t
     /tmp/cc3rgW2J.s:1618   .text:00000598 RCC_WaitForHSEStartUp
     /tmp/cc3rgW2J.s:1673   .text:000005c4 RCC_ClearFlag
     /tmp/cc3rgW2J.s:1689   .text:000005d0 $d
     /tmp/cc3rgW2J.s:1693   .text:000005d4 $t
     /tmp/cc3rgW2J.s:1698   .text:000005d4 RCC_GetITStatus
     /tmp/cc3rgW2J.s:1720   .text:000005e4 $d
     /tmp/cc3rgW2J.s:1724   .text:000005e8 $t
     /tmp/cc3rgW2J.s:1729   .text:000005e8 RCC_ClearITPendingBit
     /tmp/cc3rgW2J.s:1744   .text:000005f0 $d
     /tmp/cc3rgW2J.s:1749   .data:00000000 $d
     /tmp/cc3rgW2J.s:1753   .data:00000000 APBAHBPrescTable
     /tmp/cc3rgW2J.s:1772   .data:00000010 ADCPrescTable
                     .debug_frame:00000010 $d
     /tmp/cc3rgW2J.s:1132   .text:0000044f $d
     /tmp/cc3rgW2J.s:1132   .text:00000450 $t
                           .group:00000000 wm4.1.d481a9f4eba3ec0ceb0050fd0b2feec2
                           .group:00000000 wm4.stm32f30x.h.54.c7b24f715ee55ef38656f44540ae3be6
                           .group:00000000 wm4.core_cm4.h.32.1434cd257ff5806b1b03cd32ab0641e9
                           .group:00000000 wm4.stdint.h.10.90b695f550ca6cc3fb08fa83baf01e05
                           .group:00000000 wm4.core_cmInstr.h.25.d8165482ef3061013a2fc83e2d85f3d9
                           .group:00000000 wm4.core_cm4_simd.h.29.013e5bcf58dba2d27c60184174208e07
                           .group:00000000 wm4.core_cm4.h.155.cf7c793e178943e1bbf613f1b21cd51a
                           .group:00000000 wm4.stm32f30x.h.292.5f9271075d54fc48f1e25ff79df85cb2
                           .group:00000000 wm4.stm32f30x_adc.h.130.cbebad91f78fb87381fe0860eea6104e
                           .group:00000000 wm4.stm32f30x_comp.h.31.9bbc5f5f1a849069ea9062fbe7b81435
                           .group:00000000 wm4.stm32f30x_dma.h.31.73d173fa6d60026d432f3cf1d2fc4407
                           .group:00000000 wm4.stm32f30x_exti.h.31.22e280aa6e095108654ac8d3c74a2409
                           .group:00000000 wm4.stm32f30x_flash.h.31.bee86dc3079b7049419bdbeec073e2cd
                           .group:00000000 wm4.stm32f30x_gpio.h.31.3745297fee3728b346ad4d2a2467e40f
                           .group:00000000 wm4.stm32f30x_syscfg.h.31.96b023b7dbc3641f358604478433eb5c
                           .group:00000000 wm4.stm32f30x_i2c.h.31.52025acd7f154308042bf46a2835e9d3
                           .group:00000000 wm4.stm32f30x_pwr.h.31.cdef322c6e7f25cfc29954045d24e9b8
                           .group:00000000 wm4.stm32f30x_spi.h.31.c1ebebab897d23cecc617ec8ad9fd534
                           .group:00000000 wm4.stm32f30x_tim.h.31.336f9cd855fb4e2cd819ac260ded6518
                           .group:00000000 wm4.stm32f30x_usart.h.31.cd85313e29c0a128555b4a7b8ec0f487
                           .group:00000000 wm4.stm32f30x_misc.h.31.f08b0e9f53f0471613b5131bb95f8725
                           .group:00000000 wm4.stm32f30x.h.6173.8b641ba1d9b0040eda9120fe8a414b2d
                           .group:00000000 wm4.stm32f30x_rcc.h.79.5ba7cac1e74879861a72556c25322aa4

NO UNDEFINED SYMBOLS
