   1              		.syntax unified
   2              		.cpu cortex-m4
   3              		.eabi_attribute 27, 3
   4              		.eabi_attribute 28, 1
   5              		.fpu fpv4-sp-d16
   6              		.eabi_attribute 20, 1
   7              		.eabi_attribute 21, 1
   8              		.eabi_attribute 23, 3
   9              		.eabi_attribute 24, 1
  10              		.eabi_attribute 25, 1
  11              		.eabi_attribute 26, 1
  12              		.eabi_attribute 30, 4
  13              		.eabi_attribute 34, 1
  14              		.eabi_attribute 18, 4
  15              		.thumb
  16              		.file	"stm32f30x_i2c.c"
  17              		.text
  18              	.Ltext0:
  19              		.cfi_sections	.debug_frame
  20              		.align	1
  21              		.global	I2C_DeInit
  22              		.thumb
  23              		.thumb_func
  25              	I2C_DeInit:
  26              	.LFB111:
  27              		.file 1 "/home/user/Desktop/STM32-Projekte/FH-Vertibot/src/STM32F30x_StdPeriph_Driver/src/stm32f30
   1:/home/user/Desktop/STM32-Projekte/FH-Vertibot/src/STM32F30x_StdPeriph_Driver/src/stm32f30x_i2c.c **** /**
   2:/home/user/Desktop/STM32-Projekte/FH-Vertibot/src/STM32F30x_StdPeriph_Driver/src/stm32f30x_i2c.c ****   ******************************************************************************
   3:/home/user/Desktop/STM32-Projekte/FH-Vertibot/src/STM32F30x_StdPeriph_Driver/src/stm32f30x_i2c.c ****   * @file    stm32f30x_i2c.c
   4:/home/user/Desktop/STM32-Projekte/FH-Vertibot/src/STM32F30x_StdPeriph_Driver/src/stm32f30x_i2c.c ****   * @author  MCD Application Team
   5:/home/user/Desktop/STM32-Projekte/FH-Vertibot/src/STM32F30x_StdPeriph_Driver/src/stm32f30x_i2c.c ****   * @version V1.0.1
   6:/home/user/Desktop/STM32-Projekte/FH-Vertibot/src/STM32F30x_StdPeriph_Driver/src/stm32f30x_i2c.c ****   * @date    23-October-2012
   7:/home/user/Desktop/STM32-Projekte/FH-Vertibot/src/STM32F30x_StdPeriph_Driver/src/stm32f30x_i2c.c ****   * @brief   This file provides firmware functions to manage the following 
   8:/home/user/Desktop/STM32-Projekte/FH-Vertibot/src/STM32F30x_StdPeriph_Driver/src/stm32f30x_i2c.c ****   *          functionalities of the Inter-Integrated circuit (I2C):
   9:/home/user/Desktop/STM32-Projekte/FH-Vertibot/src/STM32F30x_StdPeriph_Driver/src/stm32f30x_i2c.c ****   *           + Initialization and Configuration
  10:/home/user/Desktop/STM32-Projekte/FH-Vertibot/src/STM32F30x_StdPeriph_Driver/src/stm32f30x_i2c.c ****   *           + Communications handling
  11:/home/user/Desktop/STM32-Projekte/FH-Vertibot/src/STM32F30x_StdPeriph_Driver/src/stm32f30x_i2c.c ****   *           + SMBUS management
  12:/home/user/Desktop/STM32-Projekte/FH-Vertibot/src/STM32F30x_StdPeriph_Driver/src/stm32f30x_i2c.c ****   *           + I2C registers management
  13:/home/user/Desktop/STM32-Projekte/FH-Vertibot/src/STM32F30x_StdPeriph_Driver/src/stm32f30x_i2c.c ****   *           + Data transfers management
  14:/home/user/Desktop/STM32-Projekte/FH-Vertibot/src/STM32F30x_StdPeriph_Driver/src/stm32f30x_i2c.c ****   *           + DMA transfers management
  15:/home/user/Desktop/STM32-Projekte/FH-Vertibot/src/STM32F30x_StdPeriph_Driver/src/stm32f30x_i2c.c ****   *           + Interrupts and flags management
  16:/home/user/Desktop/STM32-Projekte/FH-Vertibot/src/STM32F30x_StdPeriph_Driver/src/stm32f30x_i2c.c ****   *
  17:/home/user/Desktop/STM32-Projekte/FH-Vertibot/src/STM32F30x_StdPeriph_Driver/src/stm32f30x_i2c.c ****   *  @verbatim
  18:/home/user/Desktop/STM32-Projekte/FH-Vertibot/src/STM32F30x_StdPeriph_Driver/src/stm32f30x_i2c.c ****  ============================================================================
  19:/home/user/Desktop/STM32-Projekte/FH-Vertibot/src/STM32F30x_StdPeriph_Driver/src/stm32f30x_i2c.c ****                      ##### How to use this driver #####
  20:/home/user/Desktop/STM32-Projekte/FH-Vertibot/src/STM32F30x_StdPeriph_Driver/src/stm32f30x_i2c.c ****  ============================================================================
  21:/home/user/Desktop/STM32-Projekte/FH-Vertibot/src/STM32F30x_StdPeriph_Driver/src/stm32f30x_i2c.c ****    [..]
  22:/home/user/Desktop/STM32-Projekte/FH-Vertibot/src/STM32F30x_StdPeriph_Driver/src/stm32f30x_i2c.c ****    (#) Enable peripheral clock using RCC_APB1PeriphClockCmd(RCC_APB1Periph_I2Cx, ENABLE)
  23:/home/user/Desktop/STM32-Projekte/FH-Vertibot/src/STM32F30x_StdPeriph_Driver/src/stm32f30x_i2c.c ****        function for I2C1 or I2C2.
  24:/home/user/Desktop/STM32-Projekte/FH-Vertibot/src/STM32F30x_StdPeriph_Driver/src/stm32f30x_i2c.c ****    (#) Enable SDA, SCL  and SMBA (when used) GPIO clocks using 
  25:/home/user/Desktop/STM32-Projekte/FH-Vertibot/src/STM32F30x_StdPeriph_Driver/src/stm32f30x_i2c.c ****        RCC_AHBPeriphClockCmd() function. 
  26:/home/user/Desktop/STM32-Projekte/FH-Vertibot/src/STM32F30x_StdPeriph_Driver/src/stm32f30x_i2c.c ****    (#) Peripherals alternate function: 
  27:/home/user/Desktop/STM32-Projekte/FH-Vertibot/src/STM32F30x_StdPeriph_Driver/src/stm32f30x_i2c.c ****        (++) Connect the pin to the desired peripherals' Alternate 
  28:/home/user/Desktop/STM32-Projekte/FH-Vertibot/src/STM32F30x_StdPeriph_Driver/src/stm32f30x_i2c.c ****             Function (AF) using GPIO_PinAFConfig() function.
  29:/home/user/Desktop/STM32-Projekte/FH-Vertibot/src/STM32F30x_StdPeriph_Driver/src/stm32f30x_i2c.c ****        (++) Configure the desired pin in alternate function by:
  30:/home/user/Desktop/STM32-Projekte/FH-Vertibot/src/STM32F30x_StdPeriph_Driver/src/stm32f30x_i2c.c ****             GPIO_InitStruct->GPIO_Mode = GPIO_Mode_AF
  31:/home/user/Desktop/STM32-Projekte/FH-Vertibot/src/STM32F30x_StdPeriph_Driver/src/stm32f30x_i2c.c ****        (++) Select the type, OpenDrain and speed via 
  32:/home/user/Desktop/STM32-Projekte/FH-Vertibot/src/STM32F30x_StdPeriph_Driver/src/stm32f30x_i2c.c ****             GPIO_PuPd, GPIO_OType and GPIO_Speed members
  33:/home/user/Desktop/STM32-Projekte/FH-Vertibot/src/STM32F30x_StdPeriph_Driver/src/stm32f30x_i2c.c ****        (++) Call GPIO_Init() function.
  34:/home/user/Desktop/STM32-Projekte/FH-Vertibot/src/STM32F30x_StdPeriph_Driver/src/stm32f30x_i2c.c ****    (#) Program the Mode, Timing , Own address, Ack and Acknowledged Address 
  35:/home/user/Desktop/STM32-Projekte/FH-Vertibot/src/STM32F30x_StdPeriph_Driver/src/stm32f30x_i2c.c ****        using the I2C_Init() function.
  36:/home/user/Desktop/STM32-Projekte/FH-Vertibot/src/STM32F30x_StdPeriph_Driver/src/stm32f30x_i2c.c ****    (#) Optionally you can enable/configure the following parameters without
  37:/home/user/Desktop/STM32-Projekte/FH-Vertibot/src/STM32F30x_StdPeriph_Driver/src/stm32f30x_i2c.c ****        re-initialization (i.e there is no need to call again I2C_Init() function):
  38:/home/user/Desktop/STM32-Projekte/FH-Vertibot/src/STM32F30x_StdPeriph_Driver/src/stm32f30x_i2c.c ****        (++) Enable the acknowledge feature using I2C_AcknowledgeConfig() function.
  39:/home/user/Desktop/STM32-Projekte/FH-Vertibot/src/STM32F30x_StdPeriph_Driver/src/stm32f30x_i2c.c ****        (++) Enable the dual addressing mode using I2C_DualAddressCmd() function.
  40:/home/user/Desktop/STM32-Projekte/FH-Vertibot/src/STM32F30x_StdPeriph_Driver/src/stm32f30x_i2c.c ****        (++) Enable the general call using the I2C_GeneralCallCmd() function.
  41:/home/user/Desktop/STM32-Projekte/FH-Vertibot/src/STM32F30x_StdPeriph_Driver/src/stm32f30x_i2c.c ****        (++) Enable the clock stretching using I2C_StretchClockCmd() function.
  42:/home/user/Desktop/STM32-Projekte/FH-Vertibot/src/STM32F30x_StdPeriph_Driver/src/stm32f30x_i2c.c ****        (++) Enable the PEC Calculation using I2C_CalculatePEC() function.
  43:/home/user/Desktop/STM32-Projekte/FH-Vertibot/src/STM32F30x_StdPeriph_Driver/src/stm32f30x_i2c.c ****        (++) For SMBus Mode: 
  44:/home/user/Desktop/STM32-Projekte/FH-Vertibot/src/STM32F30x_StdPeriph_Driver/src/stm32f30x_i2c.c ****             (+++) Enable the SMBusAlert pin using I2C_SMBusAlertCmd() function.
  45:/home/user/Desktop/STM32-Projekte/FH-Vertibot/src/STM32F30x_StdPeriph_Driver/src/stm32f30x_i2c.c ****    (#) Enable the NVIC and the corresponding interrupt using the function
  46:/home/user/Desktop/STM32-Projekte/FH-Vertibot/src/STM32F30x_StdPeriph_Driver/src/stm32f30x_i2c.c ****        I2C_ITConfig() if you need to use interrupt mode.
  47:/home/user/Desktop/STM32-Projekte/FH-Vertibot/src/STM32F30x_StdPeriph_Driver/src/stm32f30x_i2c.c ****    (#) When using the DMA mode 
  48:/home/user/Desktop/STM32-Projekte/FH-Vertibot/src/STM32F30x_StdPeriph_Driver/src/stm32f30x_i2c.c ****       (++) Configure the DMA using DMA_Init() function.
  49:/home/user/Desktop/STM32-Projekte/FH-Vertibot/src/STM32F30x_StdPeriph_Driver/src/stm32f30x_i2c.c ****       (++) Active the needed channel Request using I2C_DMACmd() function.
  50:/home/user/Desktop/STM32-Projekte/FH-Vertibot/src/STM32F30x_StdPeriph_Driver/src/stm32f30x_i2c.c ****    (#) Enable the I2C using the I2C_Cmd() function.
  51:/home/user/Desktop/STM32-Projekte/FH-Vertibot/src/STM32F30x_StdPeriph_Driver/src/stm32f30x_i2c.c ****    (#) Enable the DMA using the DMA_Cmd() function when using DMA mode in the 
  52:/home/user/Desktop/STM32-Projekte/FH-Vertibot/src/STM32F30x_StdPeriph_Driver/src/stm32f30x_i2c.c ****        transfers.
  53:/home/user/Desktop/STM32-Projekte/FH-Vertibot/src/STM32F30x_StdPeriph_Driver/src/stm32f30x_i2c.c ****    [..]        
  54:/home/user/Desktop/STM32-Projekte/FH-Vertibot/src/STM32F30x_StdPeriph_Driver/src/stm32f30x_i2c.c ****    (@) When using I2C in Fast Mode Plus, SCL and SDA pin 20mA current drive capability
  55:/home/user/Desktop/STM32-Projekte/FH-Vertibot/src/STM32F30x_StdPeriph_Driver/src/stm32f30x_i2c.c ****        must be enabled by setting the driving capability control bit in SYSCFG.
  56:/home/user/Desktop/STM32-Projekte/FH-Vertibot/src/STM32F30x_StdPeriph_Driver/src/stm32f30x_i2c.c ****        
  57:/home/user/Desktop/STM32-Projekte/FH-Vertibot/src/STM32F30x_StdPeriph_Driver/src/stm32f30x_i2c.c ****     @endverbatim
  58:/home/user/Desktop/STM32-Projekte/FH-Vertibot/src/STM32F30x_StdPeriph_Driver/src/stm32f30x_i2c.c ****   ******************************************************************************
  59:/home/user/Desktop/STM32-Projekte/FH-Vertibot/src/STM32F30x_StdPeriph_Driver/src/stm32f30x_i2c.c ****   * @attention
  60:/home/user/Desktop/STM32-Projekte/FH-Vertibot/src/STM32F30x_StdPeriph_Driver/src/stm32f30x_i2c.c ****   *
  61:/home/user/Desktop/STM32-Projekte/FH-Vertibot/src/STM32F30x_StdPeriph_Driver/src/stm32f30x_i2c.c ****   * <h2><center>&copy; COPYRIGHT 2012 STMicroelectronics</center></h2>
  62:/home/user/Desktop/STM32-Projekte/FH-Vertibot/src/STM32F30x_StdPeriph_Driver/src/stm32f30x_i2c.c ****   *
  63:/home/user/Desktop/STM32-Projekte/FH-Vertibot/src/STM32F30x_StdPeriph_Driver/src/stm32f30x_i2c.c ****   * Licensed under MCD-ST Liberty SW License Agreement V2, (the "License");
  64:/home/user/Desktop/STM32-Projekte/FH-Vertibot/src/STM32F30x_StdPeriph_Driver/src/stm32f30x_i2c.c ****   * You may not use this file except in compliance with the License.
  65:/home/user/Desktop/STM32-Projekte/FH-Vertibot/src/STM32F30x_StdPeriph_Driver/src/stm32f30x_i2c.c ****   * You may obtain a copy of the License at:
  66:/home/user/Desktop/STM32-Projekte/FH-Vertibot/src/STM32F30x_StdPeriph_Driver/src/stm32f30x_i2c.c ****   *
  67:/home/user/Desktop/STM32-Projekte/FH-Vertibot/src/STM32F30x_StdPeriph_Driver/src/stm32f30x_i2c.c ****   *        http://www.st.com/software_license_agreement_liberty_v2
  68:/home/user/Desktop/STM32-Projekte/FH-Vertibot/src/STM32F30x_StdPeriph_Driver/src/stm32f30x_i2c.c ****   *
  69:/home/user/Desktop/STM32-Projekte/FH-Vertibot/src/STM32F30x_StdPeriph_Driver/src/stm32f30x_i2c.c ****   * Unless required by applicable law or agreed to in writing, software 
  70:/home/user/Desktop/STM32-Projekte/FH-Vertibot/src/STM32F30x_StdPeriph_Driver/src/stm32f30x_i2c.c ****   * distributed under the License is distributed on an "AS IS" BASIS, 
  71:/home/user/Desktop/STM32-Projekte/FH-Vertibot/src/STM32F30x_StdPeriph_Driver/src/stm32f30x_i2c.c ****   * WITHOUT WARRANTIES OR CONDITIONS OF ANY KIND, either express or implied.
  72:/home/user/Desktop/STM32-Projekte/FH-Vertibot/src/STM32F30x_StdPeriph_Driver/src/stm32f30x_i2c.c ****   * See the License for the specific language governing permissions and
  73:/home/user/Desktop/STM32-Projekte/FH-Vertibot/src/STM32F30x_StdPeriph_Driver/src/stm32f30x_i2c.c ****   * limitations under the License.
  74:/home/user/Desktop/STM32-Projekte/FH-Vertibot/src/STM32F30x_StdPeriph_Driver/src/stm32f30x_i2c.c ****   *
  75:/home/user/Desktop/STM32-Projekte/FH-Vertibot/src/STM32F30x_StdPeriph_Driver/src/stm32f30x_i2c.c ****   ******************************************************************************
  76:/home/user/Desktop/STM32-Projekte/FH-Vertibot/src/STM32F30x_StdPeriph_Driver/src/stm32f30x_i2c.c ****   */
  77:/home/user/Desktop/STM32-Projekte/FH-Vertibot/src/STM32F30x_StdPeriph_Driver/src/stm32f30x_i2c.c **** 
  78:/home/user/Desktop/STM32-Projekte/FH-Vertibot/src/STM32F30x_StdPeriph_Driver/src/stm32f30x_i2c.c **** /* Includes ------------------------------------------------------------------*/
  79:/home/user/Desktop/STM32-Projekte/FH-Vertibot/src/STM32F30x_StdPeriph_Driver/src/stm32f30x_i2c.c **** #include "stm32f30x_i2c.h"
  80:/home/user/Desktop/STM32-Projekte/FH-Vertibot/src/STM32F30x_StdPeriph_Driver/src/stm32f30x_i2c.c **** #include "stm32f30x_rcc.h"
  81:/home/user/Desktop/STM32-Projekte/FH-Vertibot/src/STM32F30x_StdPeriph_Driver/src/stm32f30x_i2c.c **** 
  82:/home/user/Desktop/STM32-Projekte/FH-Vertibot/src/STM32F30x_StdPeriph_Driver/src/stm32f30x_i2c.c **** /** @addtogroup STM32F30x_StdPeriph_Driver
  83:/home/user/Desktop/STM32-Projekte/FH-Vertibot/src/STM32F30x_StdPeriph_Driver/src/stm32f30x_i2c.c ****   * @{
  84:/home/user/Desktop/STM32-Projekte/FH-Vertibot/src/STM32F30x_StdPeriph_Driver/src/stm32f30x_i2c.c ****   */
  85:/home/user/Desktop/STM32-Projekte/FH-Vertibot/src/STM32F30x_StdPeriph_Driver/src/stm32f30x_i2c.c **** 
  86:/home/user/Desktop/STM32-Projekte/FH-Vertibot/src/STM32F30x_StdPeriph_Driver/src/stm32f30x_i2c.c **** /** @defgroup I2C 
  87:/home/user/Desktop/STM32-Projekte/FH-Vertibot/src/STM32F30x_StdPeriph_Driver/src/stm32f30x_i2c.c ****   * @brief I2C driver modules
  88:/home/user/Desktop/STM32-Projekte/FH-Vertibot/src/STM32F30x_StdPeriph_Driver/src/stm32f30x_i2c.c ****   * @{
  89:/home/user/Desktop/STM32-Projekte/FH-Vertibot/src/STM32F30x_StdPeriph_Driver/src/stm32f30x_i2c.c ****   */
  90:/home/user/Desktop/STM32-Projekte/FH-Vertibot/src/STM32F30x_StdPeriph_Driver/src/stm32f30x_i2c.c **** 
  91:/home/user/Desktop/STM32-Projekte/FH-Vertibot/src/STM32F30x_StdPeriph_Driver/src/stm32f30x_i2c.c **** /* Private typedef -----------------------------------------------------------*/
  92:/home/user/Desktop/STM32-Projekte/FH-Vertibot/src/STM32F30x_StdPeriph_Driver/src/stm32f30x_i2c.c **** /* Private define ------------------------------------------------------------*/
  93:/home/user/Desktop/STM32-Projekte/FH-Vertibot/src/STM32F30x_StdPeriph_Driver/src/stm32f30x_i2c.c **** 
  94:/home/user/Desktop/STM32-Projekte/FH-Vertibot/src/STM32F30x_StdPeriph_Driver/src/stm32f30x_i2c.c **** #define CR1_CLEAR_MASK          ((uint32_t)0x00CFE0FF)  /*<! I2C CR1 clear register Mask */
  95:/home/user/Desktop/STM32-Projekte/FH-Vertibot/src/STM32F30x_StdPeriph_Driver/src/stm32f30x_i2c.c **** #define CR2_CLEAR_MASK          ((uint32_t)0x07FF7FFF)  /*<! I2C CR2 clear register Mask */
  96:/home/user/Desktop/STM32-Projekte/FH-Vertibot/src/STM32F30x_StdPeriph_Driver/src/stm32f30x_i2c.c **** #define TIMING_CLEAR_MASK       ((uint32_t)0xF0FFFFFF)  /*<! I2C TIMING clear register Mask */
  97:/home/user/Desktop/STM32-Projekte/FH-Vertibot/src/STM32F30x_StdPeriph_Driver/src/stm32f30x_i2c.c **** #define ERROR_IT_MASK           ((uint32_t)0x00003F00)  /*<! I2C Error interrupt register Mask */
  98:/home/user/Desktop/STM32-Projekte/FH-Vertibot/src/STM32F30x_StdPeriph_Driver/src/stm32f30x_i2c.c **** #define TC_IT_MASK              ((uint32_t)0x000000C0)  /*<! I2C TC interrupt register Mask */
  99:/home/user/Desktop/STM32-Projekte/FH-Vertibot/src/STM32F30x_StdPeriph_Driver/src/stm32f30x_i2c.c **** 
 100:/home/user/Desktop/STM32-Projekte/FH-Vertibot/src/STM32F30x_StdPeriph_Driver/src/stm32f30x_i2c.c **** /* Private macro -------------------------------------------------------------*/
 101:/home/user/Desktop/STM32-Projekte/FH-Vertibot/src/STM32F30x_StdPeriph_Driver/src/stm32f30x_i2c.c **** /* Private variables ---------------------------------------------------------*/
 102:/home/user/Desktop/STM32-Projekte/FH-Vertibot/src/STM32F30x_StdPeriph_Driver/src/stm32f30x_i2c.c **** /* Private function prototypes -----------------------------------------------*/
 103:/home/user/Desktop/STM32-Projekte/FH-Vertibot/src/STM32F30x_StdPeriph_Driver/src/stm32f30x_i2c.c **** /* Private functions ---------------------------------------------------------*/
 104:/home/user/Desktop/STM32-Projekte/FH-Vertibot/src/STM32F30x_StdPeriph_Driver/src/stm32f30x_i2c.c **** 
 105:/home/user/Desktop/STM32-Projekte/FH-Vertibot/src/STM32F30x_StdPeriph_Driver/src/stm32f30x_i2c.c **** /** @defgroup I2C_Private_Functions
 106:/home/user/Desktop/STM32-Projekte/FH-Vertibot/src/STM32F30x_StdPeriph_Driver/src/stm32f30x_i2c.c ****   * @{
 107:/home/user/Desktop/STM32-Projekte/FH-Vertibot/src/STM32F30x_StdPeriph_Driver/src/stm32f30x_i2c.c ****   */
 108:/home/user/Desktop/STM32-Projekte/FH-Vertibot/src/STM32F30x_StdPeriph_Driver/src/stm32f30x_i2c.c **** 
 109:/home/user/Desktop/STM32-Projekte/FH-Vertibot/src/STM32F30x_StdPeriph_Driver/src/stm32f30x_i2c.c **** 
 110:/home/user/Desktop/STM32-Projekte/FH-Vertibot/src/STM32F30x_StdPeriph_Driver/src/stm32f30x_i2c.c **** /** @defgroup I2C_Group1 Initialization and Configuration functions
 111:/home/user/Desktop/STM32-Projekte/FH-Vertibot/src/STM32F30x_StdPeriph_Driver/src/stm32f30x_i2c.c ****  *  @brief   Initialization and Configuration functions 
 112:/home/user/Desktop/STM32-Projekte/FH-Vertibot/src/STM32F30x_StdPeriph_Driver/src/stm32f30x_i2c.c ****  *
 113:/home/user/Desktop/STM32-Projekte/FH-Vertibot/src/STM32F30x_StdPeriph_Driver/src/stm32f30x_i2c.c **** @verbatim   
 114:/home/user/Desktop/STM32-Projekte/FH-Vertibot/src/STM32F30x_StdPeriph_Driver/src/stm32f30x_i2c.c ****  ===============================================================================
 115:/home/user/Desktop/STM32-Projekte/FH-Vertibot/src/STM32F30x_StdPeriph_Driver/src/stm32f30x_i2c.c ****            ##### Initialization and Configuration functions #####
 116:/home/user/Desktop/STM32-Projekte/FH-Vertibot/src/STM32F30x_StdPeriph_Driver/src/stm32f30x_i2c.c ****  ===============================================================================
 117:/home/user/Desktop/STM32-Projekte/FH-Vertibot/src/STM32F30x_StdPeriph_Driver/src/stm32f30x_i2c.c ****     [..] This section provides a set of functions allowing to initialize the I2C Mode,
 118:/home/user/Desktop/STM32-Projekte/FH-Vertibot/src/STM32F30x_StdPeriph_Driver/src/stm32f30x_i2c.c ****          I2C Timing, I2C filters, I2C Addressing mode, I2C OwnAddress1.
 119:/home/user/Desktop/STM32-Projekte/FH-Vertibot/src/STM32F30x_StdPeriph_Driver/src/stm32f30x_i2c.c **** 
 120:/home/user/Desktop/STM32-Projekte/FH-Vertibot/src/STM32F30x_StdPeriph_Driver/src/stm32f30x_i2c.c ****     [..] The I2C_Init() function follows the I2C configuration procedures (these procedures 
 121:/home/user/Desktop/STM32-Projekte/FH-Vertibot/src/STM32F30x_StdPeriph_Driver/src/stm32f30x_i2c.c ****          are available in reference manual).
 122:/home/user/Desktop/STM32-Projekte/FH-Vertibot/src/STM32F30x_StdPeriph_Driver/src/stm32f30x_i2c.c ****          
 123:/home/user/Desktop/STM32-Projekte/FH-Vertibot/src/STM32F30x_StdPeriph_Driver/src/stm32f30x_i2c.c ****     [..] When the Software Reset is performed using I2C_SoftwareResetCmd() function, the internal
 124:/home/user/Desktop/STM32-Projekte/FH-Vertibot/src/STM32F30x_StdPeriph_Driver/src/stm32f30x_i2c.c ****          states machines are reset and communication control bits, as well as status bits come 
 125:/home/user/Desktop/STM32-Projekte/FH-Vertibot/src/STM32F30x_StdPeriph_Driver/src/stm32f30x_i2c.c ****          back to their reset value.
 126:/home/user/Desktop/STM32-Projekte/FH-Vertibot/src/STM32F30x_StdPeriph_Driver/src/stm32f30x_i2c.c ****          
 127:/home/user/Desktop/STM32-Projekte/FH-Vertibot/src/STM32F30x_StdPeriph_Driver/src/stm32f30x_i2c.c ****     [..] Before enabling Stop mode using I2C_StopModeCmd() I2C Clock source must be set to
 128:/home/user/Desktop/STM32-Projekte/FH-Vertibot/src/STM32F30x_StdPeriph_Driver/src/stm32f30x_i2c.c ****          HSI and Digital filters must be disabled.
 129:/home/user/Desktop/STM32-Projekte/FH-Vertibot/src/STM32F30x_StdPeriph_Driver/src/stm32f30x_i2c.c ****          
 130:/home/user/Desktop/STM32-Projekte/FH-Vertibot/src/STM32F30x_StdPeriph_Driver/src/stm32f30x_i2c.c ****     [..] Before enabling Own Address 2 via I2C_DualAddressCmd() function, OA2 and mask should be
 131:/home/user/Desktop/STM32-Projekte/FH-Vertibot/src/STM32F30x_StdPeriph_Driver/src/stm32f30x_i2c.c ****          configured using I2C_OwnAddress2Config() function.
 132:/home/user/Desktop/STM32-Projekte/FH-Vertibot/src/STM32F30x_StdPeriph_Driver/src/stm32f30x_i2c.c ****          
 133:/home/user/Desktop/STM32-Projekte/FH-Vertibot/src/STM32F30x_StdPeriph_Driver/src/stm32f30x_i2c.c ****     [..] I2C_SlaveByteControlCmd() enable Slave byte control that allow user to get control of 
 134:/home/user/Desktop/STM32-Projekte/FH-Vertibot/src/STM32F30x_StdPeriph_Driver/src/stm32f30x_i2c.c ****          each byte in slave mode when NBYTES is set to 0x01. 
 135:/home/user/Desktop/STM32-Projekte/FH-Vertibot/src/STM32F30x_StdPeriph_Driver/src/stm32f30x_i2c.c ****              
 136:/home/user/Desktop/STM32-Projekte/FH-Vertibot/src/STM32F30x_StdPeriph_Driver/src/stm32f30x_i2c.c **** @endverbatim
 137:/home/user/Desktop/STM32-Projekte/FH-Vertibot/src/STM32F30x_StdPeriph_Driver/src/stm32f30x_i2c.c ****   * @{
 138:/home/user/Desktop/STM32-Projekte/FH-Vertibot/src/STM32F30x_StdPeriph_Driver/src/stm32f30x_i2c.c ****   */
 139:/home/user/Desktop/STM32-Projekte/FH-Vertibot/src/STM32F30x_StdPeriph_Driver/src/stm32f30x_i2c.c **** 
 140:/home/user/Desktop/STM32-Projekte/FH-Vertibot/src/STM32F30x_StdPeriph_Driver/src/stm32f30x_i2c.c **** /**
 141:/home/user/Desktop/STM32-Projekte/FH-Vertibot/src/STM32F30x_StdPeriph_Driver/src/stm32f30x_i2c.c ****   * @brief  Deinitializes the I2Cx peripheral registers to their default reset values.
 142:/home/user/Desktop/STM32-Projekte/FH-Vertibot/src/STM32F30x_StdPeriph_Driver/src/stm32f30x_i2c.c ****   * @param  I2Cx: where x can be 1 or 2 to select the I2C peripheral.
 143:/home/user/Desktop/STM32-Projekte/FH-Vertibot/src/STM32F30x_StdPeriph_Driver/src/stm32f30x_i2c.c ****   * @retval None
 144:/home/user/Desktop/STM32-Projekte/FH-Vertibot/src/STM32F30x_StdPeriph_Driver/src/stm32f30x_i2c.c ****   */
 145:/home/user/Desktop/STM32-Projekte/FH-Vertibot/src/STM32F30x_StdPeriph_Driver/src/stm32f30x_i2c.c **** void I2C_DeInit(I2C_TypeDef* I2Cx)
 146:/home/user/Desktop/STM32-Projekte/FH-Vertibot/src/STM32F30x_StdPeriph_Driver/src/stm32f30x_i2c.c **** {
  28              		.loc 1 146 0
  29              		.cfi_startproc
  30              		@ args = 0, pretend = 0, frame = 0
  31              		@ frame_needed = 0, uses_anonymous_args = 0
  32              	.LVL0:
  33 0000 08B5     		push	{r3, lr}
  34              	.LCFI0:
  35              		.cfi_def_cfa_offset 8
  36              		.cfi_offset 3, -8
  37              		.cfi_offset 14, -4
 147:/home/user/Desktop/STM32-Projekte/FH-Vertibot/src/STM32F30x_StdPeriph_Driver/src/stm32f30x_i2c.c ****   /* Check the parameters */
 148:/home/user/Desktop/STM32-Projekte/FH-Vertibot/src/STM32F30x_StdPeriph_Driver/src/stm32f30x_i2c.c ****   assert_param(IS_I2C_ALL_PERIPH(I2Cx));
 149:/home/user/Desktop/STM32-Projekte/FH-Vertibot/src/STM32F30x_StdPeriph_Driver/src/stm32f30x_i2c.c **** 
 150:/home/user/Desktop/STM32-Projekte/FH-Vertibot/src/STM32F30x_StdPeriph_Driver/src/stm32f30x_i2c.c ****   if (I2Cx == I2C1)
  38              		.loc 1 150 0
  39 0002 0B4B     		ldr	r3, .L5
  40 0004 9842     		cmp	r0, r3
  41 0006 07D1     		bne	.L2
 151:/home/user/Desktop/STM32-Projekte/FH-Vertibot/src/STM32F30x_StdPeriph_Driver/src/stm32f30x_i2c.c ****   {
 152:/home/user/Desktop/STM32-Projekte/FH-Vertibot/src/STM32F30x_StdPeriph_Driver/src/stm32f30x_i2c.c ****     /* Enable I2C1 reset state */
 153:/home/user/Desktop/STM32-Projekte/FH-Vertibot/src/STM32F30x_StdPeriph_Driver/src/stm32f30x_i2c.c ****     RCC_APB1PeriphResetCmd(RCC_APB1Periph_I2C1, ENABLE);
  42              		.loc 1 153 0
  43 0008 4FF40010 		mov	r0, #2097152
  44              	.LVL1:
  45 000c 0121     		movs	r1, #1
  46 000e FFF7FEFF 		bl	RCC_APB1PeriphResetCmd
  47              	.LVL2:
 154:/home/user/Desktop/STM32-Projekte/FH-Vertibot/src/STM32F30x_StdPeriph_Driver/src/stm32f30x_i2c.c ****     /* Release I2C1 from reset state */
 155:/home/user/Desktop/STM32-Projekte/FH-Vertibot/src/STM32F30x_StdPeriph_Driver/src/stm32f30x_i2c.c ****     RCC_APB1PeriphResetCmd(RCC_APB1Periph_I2C1, DISABLE);
  48              		.loc 1 155 0
  49 0012 4FF40010 		mov	r0, #2097152
  50 0016 06E0     		b	.L3
  51              	.LVL3:
  52              	.L2:
 156:/home/user/Desktop/STM32-Projekte/FH-Vertibot/src/STM32F30x_StdPeriph_Driver/src/stm32f30x_i2c.c ****   }
 157:/home/user/Desktop/STM32-Projekte/FH-Vertibot/src/STM32F30x_StdPeriph_Driver/src/stm32f30x_i2c.c ****   else
 158:/home/user/Desktop/STM32-Projekte/FH-Vertibot/src/STM32F30x_StdPeriph_Driver/src/stm32f30x_i2c.c ****   {
 159:/home/user/Desktop/STM32-Projekte/FH-Vertibot/src/STM32F30x_StdPeriph_Driver/src/stm32f30x_i2c.c ****     /* Enable I2C2 reset state */
 160:/home/user/Desktop/STM32-Projekte/FH-Vertibot/src/STM32F30x_StdPeriph_Driver/src/stm32f30x_i2c.c ****     RCC_APB1PeriphResetCmd(RCC_APB1Periph_I2C2, ENABLE);
  53              		.loc 1 160 0
  54 0018 4FF48000 		mov	r0, #4194304
  55              	.LVL4:
  56 001c 0121     		movs	r1, #1
  57 001e FFF7FEFF 		bl	RCC_APB1PeriphResetCmd
  58              	.LVL5:
 161:/home/user/Desktop/STM32-Projekte/FH-Vertibot/src/STM32F30x_StdPeriph_Driver/src/stm32f30x_i2c.c ****     /* Release I2C2 from reset state */
 162:/home/user/Desktop/STM32-Projekte/FH-Vertibot/src/STM32F30x_StdPeriph_Driver/src/stm32f30x_i2c.c ****     RCC_APB1PeriphResetCmd(RCC_APB1Periph_I2C2, DISABLE);
  59              		.loc 1 162 0
  60 0022 4FF48000 		mov	r0, #4194304
  61              	.L3:
  62 0026 0021     		movs	r1, #0
 163:/home/user/Desktop/STM32-Projekte/FH-Vertibot/src/STM32F30x_StdPeriph_Driver/src/stm32f30x_i2c.c ****   }
 164:/home/user/Desktop/STM32-Projekte/FH-Vertibot/src/STM32F30x_StdPeriph_Driver/src/stm32f30x_i2c.c **** }
  63              		.loc 1 164 0
  64 0028 BDE80840 		pop	{r3, lr}
 162:/home/user/Desktop/STM32-Projekte/FH-Vertibot/src/STM32F30x_StdPeriph_Driver/src/stm32f30x_i2c.c ****     RCC_APB1PeriphResetCmd(RCC_APB1Periph_I2C2, DISABLE);
  65              		.loc 1 162 0
  66 002c FFF7FEBF 		b	RCC_APB1PeriphResetCmd
  67              	.LVL6:
  68              	.L6:
  69              		.align	2
  70              	.L5:
  71 0030 00540040 		.word	1073763328
  72              		.cfi_endproc
  73              	.LFE111:
  75              		.align	1
  76              		.global	I2C_Init
  77              		.thumb
  78              		.thumb_func
  80              	I2C_Init:
  81              	.LFB112:
 165:/home/user/Desktop/STM32-Projekte/FH-Vertibot/src/STM32F30x_StdPeriph_Driver/src/stm32f30x_i2c.c **** 
 166:/home/user/Desktop/STM32-Projekte/FH-Vertibot/src/STM32F30x_StdPeriph_Driver/src/stm32f30x_i2c.c **** /**
 167:/home/user/Desktop/STM32-Projekte/FH-Vertibot/src/STM32F30x_StdPeriph_Driver/src/stm32f30x_i2c.c ****   * @brief  Initializes the I2Cx peripheral according to the specified
 168:/home/user/Desktop/STM32-Projekte/FH-Vertibot/src/STM32F30x_StdPeriph_Driver/src/stm32f30x_i2c.c ****   *         parameters in the I2C_InitStruct.
 169:/home/user/Desktop/STM32-Projekte/FH-Vertibot/src/STM32F30x_StdPeriph_Driver/src/stm32f30x_i2c.c ****   * @param  I2Cx: where x can be 1 or 2 to select the I2C peripheral.
 170:/home/user/Desktop/STM32-Projekte/FH-Vertibot/src/STM32F30x_StdPeriph_Driver/src/stm32f30x_i2c.c ****   * @param  I2C_InitStruct: pointer to a I2C_InitTypeDef structure that
 171:/home/user/Desktop/STM32-Projekte/FH-Vertibot/src/STM32F30x_StdPeriph_Driver/src/stm32f30x_i2c.c ****   *         contains the configuration information for the specified I2C peripheral.
 172:/home/user/Desktop/STM32-Projekte/FH-Vertibot/src/STM32F30x_StdPeriph_Driver/src/stm32f30x_i2c.c ****   * @retval None
 173:/home/user/Desktop/STM32-Projekte/FH-Vertibot/src/STM32F30x_StdPeriph_Driver/src/stm32f30x_i2c.c ****   */
 174:/home/user/Desktop/STM32-Projekte/FH-Vertibot/src/STM32F30x_StdPeriph_Driver/src/stm32f30x_i2c.c **** void I2C_Init(I2C_TypeDef* I2Cx, I2C_InitTypeDef* I2C_InitStruct)
 175:/home/user/Desktop/STM32-Projekte/FH-Vertibot/src/STM32F30x_StdPeriph_Driver/src/stm32f30x_i2c.c **** {
  82              		.loc 1 175 0
  83              		.cfi_startproc
  84              		@ args = 0, pretend = 0, frame = 0
  85              		@ frame_needed = 0, uses_anonymous_args = 0
  86              		@ link register save eliminated.
  87              	.LVL7:
 176:/home/user/Desktop/STM32-Projekte/FH-Vertibot/src/STM32F30x_StdPeriph_Driver/src/stm32f30x_i2c.c ****   uint32_t tmpreg = 0;
 177:/home/user/Desktop/STM32-Projekte/FH-Vertibot/src/STM32F30x_StdPeriph_Driver/src/stm32f30x_i2c.c **** 
 178:/home/user/Desktop/STM32-Projekte/FH-Vertibot/src/STM32F30x_StdPeriph_Driver/src/stm32f30x_i2c.c ****   /* Check the parameters */
 179:/home/user/Desktop/STM32-Projekte/FH-Vertibot/src/STM32F30x_StdPeriph_Driver/src/stm32f30x_i2c.c ****   assert_param(IS_I2C_ALL_PERIPH(I2Cx));
 180:/home/user/Desktop/STM32-Projekte/FH-Vertibot/src/STM32F30x_StdPeriph_Driver/src/stm32f30x_i2c.c ****   assert_param(IS_I2C_ANALOG_FILTER(I2C_InitStruct->I2C_AnalogFilter));
 181:/home/user/Desktop/STM32-Projekte/FH-Vertibot/src/STM32F30x_StdPeriph_Driver/src/stm32f30x_i2c.c ****   assert_param(IS_I2C_DIGITAL_FILTER(I2C_InitStruct->I2C_DigitalFilter));
 182:/home/user/Desktop/STM32-Projekte/FH-Vertibot/src/STM32F30x_StdPeriph_Driver/src/stm32f30x_i2c.c ****   assert_param(IS_I2C_MODE(I2C_InitStruct->I2C_Mode));
 183:/home/user/Desktop/STM32-Projekte/FH-Vertibot/src/STM32F30x_StdPeriph_Driver/src/stm32f30x_i2c.c ****   assert_param(IS_I2C_OWN_ADDRESS1(I2C_InitStruct->I2C_OwnAddress1));
 184:/home/user/Desktop/STM32-Projekte/FH-Vertibot/src/STM32F30x_StdPeriph_Driver/src/stm32f30x_i2c.c ****   assert_param(IS_I2C_ACK(I2C_InitStruct->I2C_Ack));
 185:/home/user/Desktop/STM32-Projekte/FH-Vertibot/src/STM32F30x_StdPeriph_Driver/src/stm32f30x_i2c.c ****   assert_param(IS_I2C_ACKNOWLEDGE_ADDRESS(I2C_InitStruct->I2C_AcknowledgedAddress));
 186:/home/user/Desktop/STM32-Projekte/FH-Vertibot/src/STM32F30x_StdPeriph_Driver/src/stm32f30x_i2c.c **** 
 187:/home/user/Desktop/STM32-Projekte/FH-Vertibot/src/STM32F30x_StdPeriph_Driver/src/stm32f30x_i2c.c ****   /* Disable I2Cx Peripheral */
 188:/home/user/Desktop/STM32-Projekte/FH-Vertibot/src/STM32F30x_StdPeriph_Driver/src/stm32f30x_i2c.c ****   I2Cx->CR1 &= (uint32_t)~((uint32_t)I2C_CR1_PE);
  88              		.loc 1 188 0
  89 0034 0368     		ldr	r3, [r0]
  90 0036 23F00103 		bic	r3, r3, #1
  91 003a 0360     		str	r3, [r0]
 189:/home/user/Desktop/STM32-Projekte/FH-Vertibot/src/STM32F30x_StdPeriph_Driver/src/stm32f30x_i2c.c **** 
 190:/home/user/Desktop/STM32-Projekte/FH-Vertibot/src/STM32F30x_StdPeriph_Driver/src/stm32f30x_i2c.c ****   /*---------------------------- I2Cx FILTERS Configuration ------------------*/
 191:/home/user/Desktop/STM32-Projekte/FH-Vertibot/src/STM32F30x_StdPeriph_Driver/src/stm32f30x_i2c.c ****   /* Get the I2Cx CR1 value */
 192:/home/user/Desktop/STM32-Projekte/FH-Vertibot/src/STM32F30x_StdPeriph_Driver/src/stm32f30x_i2c.c ****   tmpreg = I2Cx->CR1;
  92              		.loc 1 192 0
  93 003c 0268     		ldr	r2, [r0]
  94              	.LVL8:
 193:/home/user/Desktop/STM32-Projekte/FH-Vertibot/src/STM32F30x_StdPeriph_Driver/src/stm32f30x_i2c.c ****   /* Clear I2Cx CR1 register */
 194:/home/user/Desktop/STM32-Projekte/FH-Vertibot/src/STM32F30x_StdPeriph_Driver/src/stm32f30x_i2c.c ****   tmpreg &= CR1_CLEAR_MASK;
  95              		.loc 1 194 0
  96 003e 144B     		ldr	r3, .L8
  97 0040 1340     		ands	r3, r3, r2
  98              	.LVL9:
 195:/home/user/Desktop/STM32-Projekte/FH-Vertibot/src/STM32F30x_StdPeriph_Driver/src/stm32f30x_i2c.c ****   /* Configure I2Cx: analog and digital filter */
 196:/home/user/Desktop/STM32-Projekte/FH-Vertibot/src/STM32F30x_StdPeriph_Driver/src/stm32f30x_i2c.c ****   /* Set ANFOFF bit according to I2C_AnalogFilter value */
 197:/home/user/Desktop/STM32-Projekte/FH-Vertibot/src/STM32F30x_StdPeriph_Driver/src/stm32f30x_i2c.c ****   /* Set DFN bits according to I2C_DigitalFilter value */
 198:/home/user/Desktop/STM32-Projekte/FH-Vertibot/src/STM32F30x_StdPeriph_Driver/src/stm32f30x_i2c.c ****   tmpreg |= (uint32_t)I2C_InitStruct->I2C_AnalogFilter |(I2C_InitStruct->I2C_DigitalFilter << 8);
  99              		.loc 1 198 0
 100 0042 8A68     		ldr	r2, [r1, #8]
 101 0044 43EA0223 		orr	r3, r3, r2, lsl #8
 102              	.LVL10:
 103 0048 4A68     		ldr	r2, [r1, #4]
 104 004a 1A43     		orrs	r2, r2, r3
 105              	.LVL11:
 199:/home/user/Desktop/STM32-Projekte/FH-Vertibot/src/STM32F30x_StdPeriph_Driver/src/stm32f30x_i2c.c ****   
 200:/home/user/Desktop/STM32-Projekte/FH-Vertibot/src/STM32F30x_StdPeriph_Driver/src/stm32f30x_i2c.c ****   /* Write to I2Cx CR1 */
 201:/home/user/Desktop/STM32-Projekte/FH-Vertibot/src/STM32F30x_StdPeriph_Driver/src/stm32f30x_i2c.c ****   I2Cx->CR1 = tmpreg;
 202:/home/user/Desktop/STM32-Projekte/FH-Vertibot/src/STM32F30x_StdPeriph_Driver/src/stm32f30x_i2c.c **** 
 203:/home/user/Desktop/STM32-Projekte/FH-Vertibot/src/STM32F30x_StdPeriph_Driver/src/stm32f30x_i2c.c ****   /*---------------------------- I2Cx TIMING Configuration -------------------*/
 204:/home/user/Desktop/STM32-Projekte/FH-Vertibot/src/STM32F30x_StdPeriph_Driver/src/stm32f30x_i2c.c ****   /* Configure I2Cx: Timing */
 205:/home/user/Desktop/STM32-Projekte/FH-Vertibot/src/STM32F30x_StdPeriph_Driver/src/stm32f30x_i2c.c ****   /* Set TIMINGR bits according to I2C_Timing */
 206:/home/user/Desktop/STM32-Projekte/FH-Vertibot/src/STM32F30x_StdPeriph_Driver/src/stm32f30x_i2c.c ****   /* Write to I2Cx TIMING */
 207:/home/user/Desktop/STM32-Projekte/FH-Vertibot/src/STM32F30x_StdPeriph_Driver/src/stm32f30x_i2c.c ****   I2Cx->TIMINGR = I2C_InitStruct->I2C_Timing & TIMING_CLEAR_MASK;
 106              		.loc 1 207 0
 107 004c 0B68     		ldr	r3, [r1]
 201:/home/user/Desktop/STM32-Projekte/FH-Vertibot/src/STM32F30x_StdPeriph_Driver/src/stm32f30x_i2c.c ****   I2Cx->CR1 = tmpreg;
 108              		.loc 1 201 0
 109 004e 0260     		str	r2, [r0]
 110              		.loc 1 207 0
 111 0050 23F07063 		bic	r3, r3, #251658240
 112 0054 0361     		str	r3, [r0, #16]
 208:/home/user/Desktop/STM32-Projekte/FH-Vertibot/src/STM32F30x_StdPeriph_Driver/src/stm32f30x_i2c.c **** 
 209:/home/user/Desktop/STM32-Projekte/FH-Vertibot/src/STM32F30x_StdPeriph_Driver/src/stm32f30x_i2c.c ****   /* Enable I2Cx Peripheral */
 210:/home/user/Desktop/STM32-Projekte/FH-Vertibot/src/STM32F30x_StdPeriph_Driver/src/stm32f30x_i2c.c ****   I2Cx->CR1 |= I2C_CR1_PE;
 113              		.loc 1 210 0
 114 0056 0368     		ldr	r3, [r0]
 211:/home/user/Desktop/STM32-Projekte/FH-Vertibot/src/STM32F30x_StdPeriph_Driver/src/stm32f30x_i2c.c **** 
 212:/home/user/Desktop/STM32-Projekte/FH-Vertibot/src/STM32F30x_StdPeriph_Driver/src/stm32f30x_i2c.c ****   /*---------------------------- I2Cx OAR1 Configuration ---------------------*/
 213:/home/user/Desktop/STM32-Projekte/FH-Vertibot/src/STM32F30x_StdPeriph_Driver/src/stm32f30x_i2c.c ****   /* Clear tmpreg local variable */
 214:/home/user/Desktop/STM32-Projekte/FH-Vertibot/src/STM32F30x_StdPeriph_Driver/src/stm32f30x_i2c.c ****   tmpreg = 0;
 215:/home/user/Desktop/STM32-Projekte/FH-Vertibot/src/STM32F30x_StdPeriph_Driver/src/stm32f30x_i2c.c ****   /* Clear OAR1 register */
 216:/home/user/Desktop/STM32-Projekte/FH-Vertibot/src/STM32F30x_StdPeriph_Driver/src/stm32f30x_i2c.c ****   I2Cx->OAR1 = (uint32_t)tmpreg;
 217:/home/user/Desktop/STM32-Projekte/FH-Vertibot/src/STM32F30x_StdPeriph_Driver/src/stm32f30x_i2c.c ****   /* Clear OAR2 register */
 218:/home/user/Desktop/STM32-Projekte/FH-Vertibot/src/STM32F30x_StdPeriph_Driver/src/stm32f30x_i2c.c ****   I2Cx->OAR2 = (uint32_t)tmpreg;
 219:/home/user/Desktop/STM32-Projekte/FH-Vertibot/src/STM32F30x_StdPeriph_Driver/src/stm32f30x_i2c.c ****   /* Configure I2Cx: Own Address1 and acknowledged address */
 220:/home/user/Desktop/STM32-Projekte/FH-Vertibot/src/STM32F30x_StdPeriph_Driver/src/stm32f30x_i2c.c ****   /* Set OA1MODE bit according to I2C_AcknowledgedAddress value */
 221:/home/user/Desktop/STM32-Projekte/FH-Vertibot/src/STM32F30x_StdPeriph_Driver/src/stm32f30x_i2c.c ****   /* Set OA1 bits according to I2C_OwnAddress1 value */
 222:/home/user/Desktop/STM32-Projekte/FH-Vertibot/src/STM32F30x_StdPeriph_Driver/src/stm32f30x_i2c.c ****   tmpreg = (uint32_t)((uint32_t)I2C_InitStruct->I2C_AcknowledgedAddress | \
 115              		.loc 1 222 0
 116 0058 0A69     		ldr	r2, [r1, #16]
 117              	.LVL12:
 210:/home/user/Desktop/STM32-Projekte/FH-Vertibot/src/STM32F30x_StdPeriph_Driver/src/stm32f30x_i2c.c ****   I2Cx->CR1 |= I2C_CR1_PE;
 118              		.loc 1 210 0
 119 005a 43F00103 		orr	r3, r3, #1
 120 005e 0360     		str	r3, [r0]
 121              	.LVL13:
 216:/home/user/Desktop/STM32-Projekte/FH-Vertibot/src/STM32F30x_StdPeriph_Driver/src/stm32f30x_i2c.c ****   I2Cx->OAR1 = (uint32_t)tmpreg;
 122              		.loc 1 216 0
 123 0060 0023     		movs	r3, #0
 124 0062 8360     		str	r3, [r0, #8]
 218:/home/user/Desktop/STM32-Projekte/FH-Vertibot/src/STM32F30x_StdPeriph_Driver/src/stm32f30x_i2c.c ****   I2Cx->OAR2 = (uint32_t)tmpreg;
 125              		.loc 1 218 0
 126 0064 C360     		str	r3, [r0, #12]
 127              		.loc 1 222 0
 128 0066 8B69     		ldr	r3, [r1, #24]
 129 0068 1343     		orrs	r3, r3, r2
 130              	.LVL14:
 223:/home/user/Desktop/STM32-Projekte/FH-Vertibot/src/STM32F30x_StdPeriph_Driver/src/stm32f30x_i2c.c ****                       (uint32_t)I2C_InitStruct->I2C_OwnAddress1);
 224:/home/user/Desktop/STM32-Projekte/FH-Vertibot/src/STM32F30x_StdPeriph_Driver/src/stm32f30x_i2c.c ****   /* Write to I2Cx OAR1 */
 225:/home/user/Desktop/STM32-Projekte/FH-Vertibot/src/STM32F30x_StdPeriph_Driver/src/stm32f30x_i2c.c ****   I2Cx->OAR1 = tmpreg;
 131              		.loc 1 225 0
 132 006a 8360     		str	r3, [r0, #8]
 226:/home/user/Desktop/STM32-Projekte/FH-Vertibot/src/STM32F30x_StdPeriph_Driver/src/stm32f30x_i2c.c ****   /* Enable Own Address1 acknowledgement */
 227:/home/user/Desktop/STM32-Projekte/FH-Vertibot/src/STM32F30x_StdPeriph_Driver/src/stm32f30x_i2c.c ****   I2Cx->OAR1 |= I2C_OAR1_OA1EN;
 133              		.loc 1 227 0
 134 006c 8368     		ldr	r3, [r0, #8]
 135              	.LVL15:
 136 006e 43F40043 		orr	r3, r3, #32768
 137 0072 8360     		str	r3, [r0, #8]
 138              	.LVL16:
 228:/home/user/Desktop/STM32-Projekte/FH-Vertibot/src/STM32F30x_StdPeriph_Driver/src/stm32f30x_i2c.c **** 
 229:/home/user/Desktop/STM32-Projekte/FH-Vertibot/src/STM32F30x_StdPeriph_Driver/src/stm32f30x_i2c.c ****   /*---------------------------- I2Cx MODE Configuration ---------------------*/
 230:/home/user/Desktop/STM32-Projekte/FH-Vertibot/src/STM32F30x_StdPeriph_Driver/src/stm32f30x_i2c.c ****   /* Configure I2Cx: mode */
 231:/home/user/Desktop/STM32-Projekte/FH-Vertibot/src/STM32F30x_StdPeriph_Driver/src/stm32f30x_i2c.c ****   /* Set SMBDEN and SMBHEN bits according to I2C_Mode value */
 232:/home/user/Desktop/STM32-Projekte/FH-Vertibot/src/STM32F30x_StdPeriph_Driver/src/stm32f30x_i2c.c ****   tmpreg = I2C_InitStruct->I2C_Mode;
 233:/home/user/Desktop/STM32-Projekte/FH-Vertibot/src/STM32F30x_StdPeriph_Driver/src/stm32f30x_i2c.c ****   /* Write to I2Cx CR1 */
 234:/home/user/Desktop/STM32-Projekte/FH-Vertibot/src/STM32F30x_StdPeriph_Driver/src/stm32f30x_i2c.c ****   I2Cx->CR1 |= tmpreg;
 139              		.loc 1 234 0
 140 0074 0268     		ldr	r2, [r0]
 141 0076 CB68     		ldr	r3, [r1, #12]
 142 0078 1343     		orrs	r3, r3, r2
 143 007a 0360     		str	r3, [r0]
 144              	.LVL17:
 235:/home/user/Desktop/STM32-Projekte/FH-Vertibot/src/STM32F30x_StdPeriph_Driver/src/stm32f30x_i2c.c **** 
 236:/home/user/Desktop/STM32-Projekte/FH-Vertibot/src/STM32F30x_StdPeriph_Driver/src/stm32f30x_i2c.c ****   /*---------------------------- I2Cx ACK Configuration ----------------------*/
 237:/home/user/Desktop/STM32-Projekte/FH-Vertibot/src/STM32F30x_StdPeriph_Driver/src/stm32f30x_i2c.c ****   /* Get the I2Cx CR2 value */
 238:/home/user/Desktop/STM32-Projekte/FH-Vertibot/src/STM32F30x_StdPeriph_Driver/src/stm32f30x_i2c.c ****   tmpreg = I2Cx->CR2;
 145              		.loc 1 238 0
 146 007c 4368     		ldr	r3, [r0, #4]
 147              	.LVL18:
 239:/home/user/Desktop/STM32-Projekte/FH-Vertibot/src/STM32F30x_StdPeriph_Driver/src/stm32f30x_i2c.c ****   /* Clear I2Cx CR2 register */
 240:/home/user/Desktop/STM32-Projekte/FH-Vertibot/src/STM32F30x_StdPeriph_Driver/src/stm32f30x_i2c.c ****   tmpreg &= CR2_CLEAR_MASK;
 241:/home/user/Desktop/STM32-Projekte/FH-Vertibot/src/STM32F30x_StdPeriph_Driver/src/stm32f30x_i2c.c ****   /* Configure I2Cx: acknowledgement */
 242:/home/user/Desktop/STM32-Projekte/FH-Vertibot/src/STM32F30x_StdPeriph_Driver/src/stm32f30x_i2c.c ****   /* Set NACK bit according to I2C_Ack value */
 243:/home/user/Desktop/STM32-Projekte/FH-Vertibot/src/STM32F30x_StdPeriph_Driver/src/stm32f30x_i2c.c ****   tmpreg |= I2C_InitStruct->I2C_Ack;
 148              		.loc 1 243 0
 149 007e 4A69     		ldr	r2, [r1, #20]
 240:/home/user/Desktop/STM32-Projekte/FH-Vertibot/src/STM32F30x_StdPeriph_Driver/src/stm32f30x_i2c.c ****   tmpreg &= CR2_CLEAR_MASK;
 150              		.loc 1 240 0
 151 0080 23F07843 		bic	r3, r3, #-134217728
 152              	.LVL19:
 153 0084 23F40043 		bic	r3, r3, #32768
 154              	.LVL20:
 155              		.loc 1 243 0
 156 0088 1343     		orrs	r3, r3, r2
 157              	.LVL21:
 244:/home/user/Desktop/STM32-Projekte/FH-Vertibot/src/STM32F30x_StdPeriph_Driver/src/stm32f30x_i2c.c ****   /* Write to I2Cx CR2 */
 245:/home/user/Desktop/STM32-Projekte/FH-Vertibot/src/STM32F30x_StdPeriph_Driver/src/stm32f30x_i2c.c ****   I2Cx->CR2 = tmpreg;
 158              		.loc 1 245 0
 159 008a 4360     		str	r3, [r0, #4]
 160 008c 7047     		bx	lr
 161              	.L9:
 162 008e 00BF     		.align	2
 163              	.L8:
 164 0090 FFE0CF00 		.word	13623551
 165              		.cfi_endproc
 166              	.LFE112:
 168              		.align	1
 169              		.global	I2C_StructInit
 170              		.thumb
 171              		.thumb_func
 173              	I2C_StructInit:
 174              	.LFB113:
 246:/home/user/Desktop/STM32-Projekte/FH-Vertibot/src/STM32F30x_StdPeriph_Driver/src/stm32f30x_i2c.c **** }
 247:/home/user/Desktop/STM32-Projekte/FH-Vertibot/src/STM32F30x_StdPeriph_Driver/src/stm32f30x_i2c.c **** 
 248:/home/user/Desktop/STM32-Projekte/FH-Vertibot/src/STM32F30x_StdPeriph_Driver/src/stm32f30x_i2c.c **** /**
 249:/home/user/Desktop/STM32-Projekte/FH-Vertibot/src/STM32F30x_StdPeriph_Driver/src/stm32f30x_i2c.c ****   * @brief  Fills each I2C_InitStruct member with its default value.
 250:/home/user/Desktop/STM32-Projekte/FH-Vertibot/src/STM32F30x_StdPeriph_Driver/src/stm32f30x_i2c.c ****   * @param  I2C_InitStruct: pointer to an I2C_InitTypeDef structure which will be initialized.
 251:/home/user/Desktop/STM32-Projekte/FH-Vertibot/src/STM32F30x_StdPeriph_Driver/src/stm32f30x_i2c.c ****   * @retval None
 252:/home/user/Desktop/STM32-Projekte/FH-Vertibot/src/STM32F30x_StdPeriph_Driver/src/stm32f30x_i2c.c ****   */
 253:/home/user/Desktop/STM32-Projekte/FH-Vertibot/src/STM32F30x_StdPeriph_Driver/src/stm32f30x_i2c.c **** void I2C_StructInit(I2C_InitTypeDef* I2C_InitStruct)
 254:/home/user/Desktop/STM32-Projekte/FH-Vertibot/src/STM32F30x_StdPeriph_Driver/src/stm32f30x_i2c.c **** {
 175              		.loc 1 254 0
 176              		.cfi_startproc
 177              		@ args = 0, pretend = 0, frame = 0
 178              		@ frame_needed = 0, uses_anonymous_args = 0
 179              		@ link register save eliminated.
 180              	.LVL22:
 255:/home/user/Desktop/STM32-Projekte/FH-Vertibot/src/STM32F30x_StdPeriph_Driver/src/stm32f30x_i2c.c ****   /*---------------- Reset I2C init structure parameters values --------------*/
 256:/home/user/Desktop/STM32-Projekte/FH-Vertibot/src/STM32F30x_StdPeriph_Driver/src/stm32f30x_i2c.c ****   /* Initialize the I2C_Timing member */
 257:/home/user/Desktop/STM32-Projekte/FH-Vertibot/src/STM32F30x_StdPeriph_Driver/src/stm32f30x_i2c.c ****   I2C_InitStruct->I2C_Timing = 0;
 181              		.loc 1 257 0
 182 0094 0023     		movs	r3, #0
 258:/home/user/Desktop/STM32-Projekte/FH-Vertibot/src/STM32F30x_StdPeriph_Driver/src/stm32f30x_i2c.c ****   /* Initialize the I2C_AnalogFilter member */
 259:/home/user/Desktop/STM32-Projekte/FH-Vertibot/src/STM32F30x_StdPeriph_Driver/src/stm32f30x_i2c.c ****   I2C_InitStruct->I2C_AnalogFilter = I2C_AnalogFilter_Enable;
 260:/home/user/Desktop/STM32-Projekte/FH-Vertibot/src/STM32F30x_StdPeriph_Driver/src/stm32f30x_i2c.c ****   /* Initialize the I2C_DigitalFilter member */
 261:/home/user/Desktop/STM32-Projekte/FH-Vertibot/src/STM32F30x_StdPeriph_Driver/src/stm32f30x_i2c.c ****   I2C_InitStruct->I2C_DigitalFilter = 0;
 262:/home/user/Desktop/STM32-Projekte/FH-Vertibot/src/STM32F30x_StdPeriph_Driver/src/stm32f30x_i2c.c ****   /* Initialize the I2C_Mode member */
 263:/home/user/Desktop/STM32-Projekte/FH-Vertibot/src/STM32F30x_StdPeriph_Driver/src/stm32f30x_i2c.c ****   I2C_InitStruct->I2C_Mode = I2C_Mode_I2C;
 264:/home/user/Desktop/STM32-Projekte/FH-Vertibot/src/STM32F30x_StdPeriph_Driver/src/stm32f30x_i2c.c ****   /* Initialize the I2C_OwnAddress1 member */
 265:/home/user/Desktop/STM32-Projekte/FH-Vertibot/src/STM32F30x_StdPeriph_Driver/src/stm32f30x_i2c.c ****   I2C_InitStruct->I2C_OwnAddress1 = 0;
 266:/home/user/Desktop/STM32-Projekte/FH-Vertibot/src/STM32F30x_StdPeriph_Driver/src/stm32f30x_i2c.c ****   /* Initialize the I2C_Ack member */
 267:/home/user/Desktop/STM32-Projekte/FH-Vertibot/src/STM32F30x_StdPeriph_Driver/src/stm32f30x_i2c.c ****   I2C_InitStruct->I2C_Ack = I2C_Ack_Disable;
 183              		.loc 1 267 0
 184 0096 4FF40042 		mov	r2, #32768
 257:/home/user/Desktop/STM32-Projekte/FH-Vertibot/src/STM32F30x_StdPeriph_Driver/src/stm32f30x_i2c.c ****   I2C_InitStruct->I2C_Timing = 0;
 185              		.loc 1 257 0
 186 009a 0360     		str	r3, [r0]
 259:/home/user/Desktop/STM32-Projekte/FH-Vertibot/src/STM32F30x_StdPeriph_Driver/src/stm32f30x_i2c.c ****   I2C_InitStruct->I2C_AnalogFilter = I2C_AnalogFilter_Enable;
 187              		.loc 1 259 0
 188 009c 4360     		str	r3, [r0, #4]
 261:/home/user/Desktop/STM32-Projekte/FH-Vertibot/src/STM32F30x_StdPeriph_Driver/src/stm32f30x_i2c.c ****   I2C_InitStruct->I2C_DigitalFilter = 0;
 189              		.loc 1 261 0
 190 009e 8360     		str	r3, [r0, #8]
 263:/home/user/Desktop/STM32-Projekte/FH-Vertibot/src/STM32F30x_StdPeriph_Driver/src/stm32f30x_i2c.c ****   I2C_InitStruct->I2C_Mode = I2C_Mode_I2C;
 191              		.loc 1 263 0
 192 00a0 C360     		str	r3, [r0, #12]
 265:/home/user/Desktop/STM32-Projekte/FH-Vertibot/src/STM32F30x_StdPeriph_Driver/src/stm32f30x_i2c.c ****   I2C_InitStruct->I2C_OwnAddress1 = 0;
 193              		.loc 1 265 0
 194 00a2 0361     		str	r3, [r0, #16]
 195              		.loc 1 267 0
 196 00a4 4261     		str	r2, [r0, #20]
 268:/home/user/Desktop/STM32-Projekte/FH-Vertibot/src/STM32F30x_StdPeriph_Driver/src/stm32f30x_i2c.c ****   /* Initialize the I2C_AcknowledgedAddress member */
 269:/home/user/Desktop/STM32-Projekte/FH-Vertibot/src/STM32F30x_StdPeriph_Driver/src/stm32f30x_i2c.c ****   I2C_InitStruct->I2C_AcknowledgedAddress = I2C_AcknowledgedAddress_7bit;
 197              		.loc 1 269 0
 198 00a6 8361     		str	r3, [r0, #24]
 199 00a8 7047     		bx	lr
 200              		.cfi_endproc
 201              	.LFE113:
 203              		.align	1
 204              		.global	I2C_Cmd
 205              		.thumb
 206              		.thumb_func
 208              	I2C_Cmd:
 209              	.LFB114:
 270:/home/user/Desktop/STM32-Projekte/FH-Vertibot/src/STM32F30x_StdPeriph_Driver/src/stm32f30x_i2c.c **** }
 271:/home/user/Desktop/STM32-Projekte/FH-Vertibot/src/STM32F30x_StdPeriph_Driver/src/stm32f30x_i2c.c **** 
 272:/home/user/Desktop/STM32-Projekte/FH-Vertibot/src/STM32F30x_StdPeriph_Driver/src/stm32f30x_i2c.c **** /**
 273:/home/user/Desktop/STM32-Projekte/FH-Vertibot/src/STM32F30x_StdPeriph_Driver/src/stm32f30x_i2c.c ****   * @brief  Enables or disables the specified I2C peripheral.
 274:/home/user/Desktop/STM32-Projekte/FH-Vertibot/src/STM32F30x_StdPeriph_Driver/src/stm32f30x_i2c.c ****   * @param  I2Cx: where x can be 1 or 2 to select the I2C peripheral.
 275:/home/user/Desktop/STM32-Projekte/FH-Vertibot/src/STM32F30x_StdPeriph_Driver/src/stm32f30x_i2c.c ****   * @param  NewState: new state of the I2Cx peripheral. 
 276:/home/user/Desktop/STM32-Projekte/FH-Vertibot/src/STM32F30x_StdPeriph_Driver/src/stm32f30x_i2c.c ****   *   This parameter can be: ENABLE or DISABLE.
 277:/home/user/Desktop/STM32-Projekte/FH-Vertibot/src/STM32F30x_StdPeriph_Driver/src/stm32f30x_i2c.c ****   * @retval None
 278:/home/user/Desktop/STM32-Projekte/FH-Vertibot/src/STM32F30x_StdPeriph_Driver/src/stm32f30x_i2c.c ****   */
 279:/home/user/Desktop/STM32-Projekte/FH-Vertibot/src/STM32F30x_StdPeriph_Driver/src/stm32f30x_i2c.c **** void I2C_Cmd(I2C_TypeDef* I2Cx, FunctionalState NewState)
 280:/home/user/Desktop/STM32-Projekte/FH-Vertibot/src/STM32F30x_StdPeriph_Driver/src/stm32f30x_i2c.c **** {
 210              		.loc 1 280 0
 211              		.cfi_startproc
 212              		@ args = 0, pretend = 0, frame = 0
 213              		@ frame_needed = 0, uses_anonymous_args = 0
 214              		@ link register save eliminated.
 215              	.LVL23:
 281:/home/user/Desktop/STM32-Projekte/FH-Vertibot/src/STM32F30x_StdPeriph_Driver/src/stm32f30x_i2c.c ****   /* Check the parameters */
 282:/home/user/Desktop/STM32-Projekte/FH-Vertibot/src/STM32F30x_StdPeriph_Driver/src/stm32f30x_i2c.c ****   assert_param(IS_I2C_ALL_PERIPH(I2Cx));
 283:/home/user/Desktop/STM32-Projekte/FH-Vertibot/src/STM32F30x_StdPeriph_Driver/src/stm32f30x_i2c.c ****   assert_param(IS_FUNCTIONAL_STATE(NewState));
 284:/home/user/Desktop/STM32-Projekte/FH-Vertibot/src/STM32F30x_StdPeriph_Driver/src/stm32f30x_i2c.c ****   if (NewState != DISABLE)
 285:/home/user/Desktop/STM32-Projekte/FH-Vertibot/src/STM32F30x_StdPeriph_Driver/src/stm32f30x_i2c.c ****   {
 286:/home/user/Desktop/STM32-Projekte/FH-Vertibot/src/STM32F30x_StdPeriph_Driver/src/stm32f30x_i2c.c ****     /* Enable the selected I2C peripheral */
 287:/home/user/Desktop/STM32-Projekte/FH-Vertibot/src/STM32F30x_StdPeriph_Driver/src/stm32f30x_i2c.c ****     I2Cx->CR1 |= I2C_CR1_PE;
 216              		.loc 1 287 0
 217 00aa 0368     		ldr	r3, [r0]
 284:/home/user/Desktop/STM32-Projekte/FH-Vertibot/src/STM32F30x_StdPeriph_Driver/src/stm32f30x_i2c.c ****   if (NewState != DISABLE)
 218              		.loc 1 284 0
 219 00ac 11B1     		cbz	r1, .L12
 220              		.loc 1 287 0
 221 00ae 43F00103 		orr	r3, r3, #1
 222 00b2 01E0     		b	.L14
 223              	.L12:
 288:/home/user/Desktop/STM32-Projekte/FH-Vertibot/src/STM32F30x_StdPeriph_Driver/src/stm32f30x_i2c.c ****   }
 289:/home/user/Desktop/STM32-Projekte/FH-Vertibot/src/STM32F30x_StdPeriph_Driver/src/stm32f30x_i2c.c ****   else
 290:/home/user/Desktop/STM32-Projekte/FH-Vertibot/src/STM32F30x_StdPeriph_Driver/src/stm32f30x_i2c.c ****   {
 291:/home/user/Desktop/STM32-Projekte/FH-Vertibot/src/STM32F30x_StdPeriph_Driver/src/stm32f30x_i2c.c ****     /* Disable the selected I2C peripheral */
 292:/home/user/Desktop/STM32-Projekte/FH-Vertibot/src/STM32F30x_StdPeriph_Driver/src/stm32f30x_i2c.c ****     I2Cx->CR1 &= (uint32_t)~((uint32_t)I2C_CR1_PE);
 224              		.loc 1 292 0
 225 00b4 23F00103 		bic	r3, r3, #1
 226              	.L14:
 227 00b8 0360     		str	r3, [r0]
 228 00ba 7047     		bx	lr
 229              		.cfi_endproc
 230              	.LFE114:
 232              		.align	1
 233              		.global	I2C_SoftwareResetCmd
 234              		.thumb
 235              		.thumb_func
 237              	I2C_SoftwareResetCmd:
 238              	.LFB115:
 293:/home/user/Desktop/STM32-Projekte/FH-Vertibot/src/STM32F30x_StdPeriph_Driver/src/stm32f30x_i2c.c ****   }
 294:/home/user/Desktop/STM32-Projekte/FH-Vertibot/src/STM32F30x_StdPeriph_Driver/src/stm32f30x_i2c.c **** }
 295:/home/user/Desktop/STM32-Projekte/FH-Vertibot/src/STM32F30x_StdPeriph_Driver/src/stm32f30x_i2c.c **** 
 296:/home/user/Desktop/STM32-Projekte/FH-Vertibot/src/STM32F30x_StdPeriph_Driver/src/stm32f30x_i2c.c **** 
 297:/home/user/Desktop/STM32-Projekte/FH-Vertibot/src/STM32F30x_StdPeriph_Driver/src/stm32f30x_i2c.c **** /**
 298:/home/user/Desktop/STM32-Projekte/FH-Vertibot/src/STM32F30x_StdPeriph_Driver/src/stm32f30x_i2c.c ****   * @brief  Enables or disables the specified I2C software reset.
 299:/home/user/Desktop/STM32-Projekte/FH-Vertibot/src/STM32F30x_StdPeriph_Driver/src/stm32f30x_i2c.c ****   * @param  I2Cx: where x can be 1 or 2 to select the I2C peripheral.
 300:/home/user/Desktop/STM32-Projekte/FH-Vertibot/src/STM32F30x_StdPeriph_Driver/src/stm32f30x_i2c.c ****   * @retval None
 301:/home/user/Desktop/STM32-Projekte/FH-Vertibot/src/STM32F30x_StdPeriph_Driver/src/stm32f30x_i2c.c ****   */
 302:/home/user/Desktop/STM32-Projekte/FH-Vertibot/src/STM32F30x_StdPeriph_Driver/src/stm32f30x_i2c.c **** void I2C_SoftwareResetCmd(I2C_TypeDef* I2Cx)
 303:/home/user/Desktop/STM32-Projekte/FH-Vertibot/src/STM32F30x_StdPeriph_Driver/src/stm32f30x_i2c.c **** {
 239              		.loc 1 303 0
 240              		.cfi_startproc
 241              		@ args = 0, pretend = 0, frame = 0
 242              		@ frame_needed = 0, uses_anonymous_args = 0
 243              		@ link register save eliminated.
 244              	.LVL24:
 304:/home/user/Desktop/STM32-Projekte/FH-Vertibot/src/STM32F30x_StdPeriph_Driver/src/stm32f30x_i2c.c ****   /* Check the parameters */
 305:/home/user/Desktop/STM32-Projekte/FH-Vertibot/src/STM32F30x_StdPeriph_Driver/src/stm32f30x_i2c.c ****   assert_param(IS_I2C_ALL_PERIPH(I2Cx));
 306:/home/user/Desktop/STM32-Projekte/FH-Vertibot/src/STM32F30x_StdPeriph_Driver/src/stm32f30x_i2c.c **** 
 307:/home/user/Desktop/STM32-Projekte/FH-Vertibot/src/STM32F30x_StdPeriph_Driver/src/stm32f30x_i2c.c ****   /* Disable peripheral */
 308:/home/user/Desktop/STM32-Projekte/FH-Vertibot/src/STM32F30x_StdPeriph_Driver/src/stm32f30x_i2c.c ****   I2Cx->CR1 &= (uint32_t)~((uint32_t)I2C_CR1_PE);
 245              		.loc 1 308 0
 246 00bc 0368     		ldr	r3, [r0]
 247 00be 23F00103 		bic	r3, r3, #1
 248 00c2 0360     		str	r3, [r0]
 309:/home/user/Desktop/STM32-Projekte/FH-Vertibot/src/STM32F30x_StdPeriph_Driver/src/stm32f30x_i2c.c **** 
 310:/home/user/Desktop/STM32-Projekte/FH-Vertibot/src/STM32F30x_StdPeriph_Driver/src/stm32f30x_i2c.c ****   /* Perform a dummy read to delay the disable of peripheral for minimum
 311:/home/user/Desktop/STM32-Projekte/FH-Vertibot/src/STM32F30x_StdPeriph_Driver/src/stm32f30x_i2c.c ****      3 APB clock cycles to perform the software reset functionality */
 312:/home/user/Desktop/STM32-Projekte/FH-Vertibot/src/STM32F30x_StdPeriph_Driver/src/stm32f30x_i2c.c ****   *(__IO uint32_t *)(uint32_t)I2Cx; 
 249              		.loc 1 312 0
 250 00c4 0368     		ldr	r3, [r0]
 313:/home/user/Desktop/STM32-Projekte/FH-Vertibot/src/STM32F30x_StdPeriph_Driver/src/stm32f30x_i2c.c **** 
 314:/home/user/Desktop/STM32-Projekte/FH-Vertibot/src/STM32F30x_StdPeriph_Driver/src/stm32f30x_i2c.c ****   /* Enable peripheral */
 315:/home/user/Desktop/STM32-Projekte/FH-Vertibot/src/STM32F30x_StdPeriph_Driver/src/stm32f30x_i2c.c ****   I2Cx->CR1 |= I2C_CR1_PE;
 251              		.loc 1 315 0
 252 00c6 0368     		ldr	r3, [r0]
 253 00c8 43F00103 		orr	r3, r3, #1
 254 00cc 0360     		str	r3, [r0]
 255 00ce 7047     		bx	lr
 256              		.cfi_endproc
 257              	.LFE115:
 259              		.align	1
 260              		.global	I2C_ITConfig
 261              		.thumb
 262              		.thumb_func
 264              	I2C_ITConfig:
 265              	.LFB116:
 316:/home/user/Desktop/STM32-Projekte/FH-Vertibot/src/STM32F30x_StdPeriph_Driver/src/stm32f30x_i2c.c **** }
 317:/home/user/Desktop/STM32-Projekte/FH-Vertibot/src/STM32F30x_StdPeriph_Driver/src/stm32f30x_i2c.c **** 
 318:/home/user/Desktop/STM32-Projekte/FH-Vertibot/src/STM32F30x_StdPeriph_Driver/src/stm32f30x_i2c.c **** /**
 319:/home/user/Desktop/STM32-Projekte/FH-Vertibot/src/STM32F30x_StdPeriph_Driver/src/stm32f30x_i2c.c ****   * @brief  Enables or disables the specified I2C interrupts.
 320:/home/user/Desktop/STM32-Projekte/FH-Vertibot/src/STM32F30x_StdPeriph_Driver/src/stm32f30x_i2c.c ****   * @param  I2Cx: where x can be 1 or 2 to select the I2C peripheral.
 321:/home/user/Desktop/STM32-Projekte/FH-Vertibot/src/STM32F30x_StdPeriph_Driver/src/stm32f30x_i2c.c ****   * @param  I2C_IT: specifies the I2C interrupts sources to be enabled or disabled. 
 322:/home/user/Desktop/STM32-Projekte/FH-Vertibot/src/STM32F30x_StdPeriph_Driver/src/stm32f30x_i2c.c ****   *   This parameter can be any combination of the following values:
 323:/home/user/Desktop/STM32-Projekte/FH-Vertibot/src/STM32F30x_StdPeriph_Driver/src/stm32f30x_i2c.c ****   *     @arg I2C_IT_ERRI: Error interrupt mask
 324:/home/user/Desktop/STM32-Projekte/FH-Vertibot/src/STM32F30x_StdPeriph_Driver/src/stm32f30x_i2c.c ****   *     @arg I2C_IT_TCI: Transfer Complete interrupt mask
 325:/home/user/Desktop/STM32-Projekte/FH-Vertibot/src/STM32F30x_StdPeriph_Driver/src/stm32f30x_i2c.c ****   *     @arg I2C_IT_STOPI: Stop Detection interrupt mask
 326:/home/user/Desktop/STM32-Projekte/FH-Vertibot/src/STM32F30x_StdPeriph_Driver/src/stm32f30x_i2c.c ****   *     @arg I2C_IT_NACKI: Not Acknowledge received interrupt mask
 327:/home/user/Desktop/STM32-Projekte/FH-Vertibot/src/STM32F30x_StdPeriph_Driver/src/stm32f30x_i2c.c ****   *     @arg I2C_IT_ADDRI: Address Match interrupt mask  
 328:/home/user/Desktop/STM32-Projekte/FH-Vertibot/src/STM32F30x_StdPeriph_Driver/src/stm32f30x_i2c.c ****   *     @arg I2C_IT_RXI: RX interrupt mask
 329:/home/user/Desktop/STM32-Projekte/FH-Vertibot/src/STM32F30x_StdPeriph_Driver/src/stm32f30x_i2c.c ****   *     @arg I2C_IT_TXI: TX interrupt mask
 330:/home/user/Desktop/STM32-Projekte/FH-Vertibot/src/STM32F30x_StdPeriph_Driver/src/stm32f30x_i2c.c ****   * @param  NewState: new state of the specified I2C interrupts.
 331:/home/user/Desktop/STM32-Projekte/FH-Vertibot/src/STM32F30x_StdPeriph_Driver/src/stm32f30x_i2c.c ****   *   This parameter can be: ENABLE or DISABLE.
 332:/home/user/Desktop/STM32-Projekte/FH-Vertibot/src/STM32F30x_StdPeriph_Driver/src/stm32f30x_i2c.c ****   * @retval None
 333:/home/user/Desktop/STM32-Projekte/FH-Vertibot/src/STM32F30x_StdPeriph_Driver/src/stm32f30x_i2c.c ****   */
 334:/home/user/Desktop/STM32-Projekte/FH-Vertibot/src/STM32F30x_StdPeriph_Driver/src/stm32f30x_i2c.c **** void I2C_ITConfig(I2C_TypeDef* I2Cx, uint32_t I2C_IT, FunctionalState NewState)
 335:/home/user/Desktop/STM32-Projekte/FH-Vertibot/src/STM32F30x_StdPeriph_Driver/src/stm32f30x_i2c.c **** {
 266              		.loc 1 335 0
 267              		.cfi_startproc
 268              		@ args = 0, pretend = 0, frame = 0
 269              		@ frame_needed = 0, uses_anonymous_args = 0
 270              		@ link register save eliminated.
 271              	.LVL25:
 336:/home/user/Desktop/STM32-Projekte/FH-Vertibot/src/STM32F30x_StdPeriph_Driver/src/stm32f30x_i2c.c ****   /* Check the parameters */
 337:/home/user/Desktop/STM32-Projekte/FH-Vertibot/src/STM32F30x_StdPeriph_Driver/src/stm32f30x_i2c.c ****   assert_param(IS_I2C_ALL_PERIPH(I2Cx));
 338:/home/user/Desktop/STM32-Projekte/FH-Vertibot/src/STM32F30x_StdPeriph_Driver/src/stm32f30x_i2c.c ****   assert_param(IS_FUNCTIONAL_STATE(NewState));
 339:/home/user/Desktop/STM32-Projekte/FH-Vertibot/src/STM32F30x_StdPeriph_Driver/src/stm32f30x_i2c.c ****   assert_param(IS_I2C_CONFIG_IT(I2C_IT));
 340:/home/user/Desktop/STM32-Projekte/FH-Vertibot/src/STM32F30x_StdPeriph_Driver/src/stm32f30x_i2c.c ****   
 341:/home/user/Desktop/STM32-Projekte/FH-Vertibot/src/STM32F30x_StdPeriph_Driver/src/stm32f30x_i2c.c ****   if (NewState != DISABLE)
 342:/home/user/Desktop/STM32-Projekte/FH-Vertibot/src/STM32F30x_StdPeriph_Driver/src/stm32f30x_i2c.c ****   {
 343:/home/user/Desktop/STM32-Projekte/FH-Vertibot/src/STM32F30x_StdPeriph_Driver/src/stm32f30x_i2c.c ****     /* Enable the selected I2C interrupts */
 344:/home/user/Desktop/STM32-Projekte/FH-Vertibot/src/STM32F30x_StdPeriph_Driver/src/stm32f30x_i2c.c ****     I2Cx->CR1 |= I2C_IT;
 272              		.loc 1 344 0
 273 00d0 0368     		ldr	r3, [r0]
 341:/home/user/Desktop/STM32-Projekte/FH-Vertibot/src/STM32F30x_StdPeriph_Driver/src/stm32f30x_i2c.c ****   if (NewState != DISABLE)
 274              		.loc 1 341 0
 275 00d2 0AB1     		cbz	r2, .L17
 276              		.loc 1 344 0
 277 00d4 1943     		orrs	r1, r1, r3
 278              	.LVL26:
 279 00d6 01E0     		b	.L19
 280              	.LVL27:
 281              	.L17:
 345:/home/user/Desktop/STM32-Projekte/FH-Vertibot/src/STM32F30x_StdPeriph_Driver/src/stm32f30x_i2c.c ****   }
 346:/home/user/Desktop/STM32-Projekte/FH-Vertibot/src/STM32F30x_StdPeriph_Driver/src/stm32f30x_i2c.c ****   else
 347:/home/user/Desktop/STM32-Projekte/FH-Vertibot/src/STM32F30x_StdPeriph_Driver/src/stm32f30x_i2c.c ****   {
 348:/home/user/Desktop/STM32-Projekte/FH-Vertibot/src/STM32F30x_StdPeriph_Driver/src/stm32f30x_i2c.c ****     /* Disable the selected I2C interrupts */
 349:/home/user/Desktop/STM32-Projekte/FH-Vertibot/src/STM32F30x_StdPeriph_Driver/src/stm32f30x_i2c.c ****     I2Cx->CR1 &= (uint32_t)~((uint32_t)I2C_IT);
 282              		.loc 1 349 0
 283 00d8 23EA0101 		bic	r1, r3, r1
 284              	.LVL28:
 285              	.L19:
 286 00dc 0160     		str	r1, [r0]
 287 00de 7047     		bx	lr
 288              		.cfi_endproc
 289              	.LFE116:
 291              		.align	1
 292              		.global	I2C_StretchClockCmd
 293              		.thumb
 294              		.thumb_func
 296              	I2C_StretchClockCmd:
 297              	.LFB117:
 350:/home/user/Desktop/STM32-Projekte/FH-Vertibot/src/STM32F30x_StdPeriph_Driver/src/stm32f30x_i2c.c ****   }
 351:/home/user/Desktop/STM32-Projekte/FH-Vertibot/src/STM32F30x_StdPeriph_Driver/src/stm32f30x_i2c.c **** }
 352:/home/user/Desktop/STM32-Projekte/FH-Vertibot/src/STM32F30x_StdPeriph_Driver/src/stm32f30x_i2c.c **** 
 353:/home/user/Desktop/STM32-Projekte/FH-Vertibot/src/STM32F30x_StdPeriph_Driver/src/stm32f30x_i2c.c **** /**
 354:/home/user/Desktop/STM32-Projekte/FH-Vertibot/src/STM32F30x_StdPeriph_Driver/src/stm32f30x_i2c.c ****   * @brief  Enables or disables the I2C Clock stretching.
 355:/home/user/Desktop/STM32-Projekte/FH-Vertibot/src/STM32F30x_StdPeriph_Driver/src/stm32f30x_i2c.c ****   * @param  I2Cx: where x can be 1 or 2 to select the I2C peripheral.
 356:/home/user/Desktop/STM32-Projekte/FH-Vertibot/src/STM32F30x_StdPeriph_Driver/src/stm32f30x_i2c.c ****   * @param  NewState: new state of the I2Cx Clock stretching.
 357:/home/user/Desktop/STM32-Projekte/FH-Vertibot/src/STM32F30x_StdPeriph_Driver/src/stm32f30x_i2c.c ****   *   This parameter can be: ENABLE or DISABLE.
 358:/home/user/Desktop/STM32-Projekte/FH-Vertibot/src/STM32F30x_StdPeriph_Driver/src/stm32f30x_i2c.c ****   * @retval None
 359:/home/user/Desktop/STM32-Projekte/FH-Vertibot/src/STM32F30x_StdPeriph_Driver/src/stm32f30x_i2c.c ****   */
 360:/home/user/Desktop/STM32-Projekte/FH-Vertibot/src/STM32F30x_StdPeriph_Driver/src/stm32f30x_i2c.c **** void I2C_StretchClockCmd(I2C_TypeDef* I2Cx, FunctionalState NewState)
 361:/home/user/Desktop/STM32-Projekte/FH-Vertibot/src/STM32F30x_StdPeriph_Driver/src/stm32f30x_i2c.c **** {
 298              		.loc 1 361 0
 299              		.cfi_startproc
 300              		@ args = 0, pretend = 0, frame = 0
 301              		@ frame_needed = 0, uses_anonymous_args = 0
 302              		@ link register save eliminated.
 303              	.LVL29:
 362:/home/user/Desktop/STM32-Projekte/FH-Vertibot/src/STM32F30x_StdPeriph_Driver/src/stm32f30x_i2c.c ****   /* Check the parameters */
 363:/home/user/Desktop/STM32-Projekte/FH-Vertibot/src/STM32F30x_StdPeriph_Driver/src/stm32f30x_i2c.c ****   assert_param(IS_I2C_ALL_PERIPH(I2Cx));
 364:/home/user/Desktop/STM32-Projekte/FH-Vertibot/src/STM32F30x_StdPeriph_Driver/src/stm32f30x_i2c.c ****   assert_param(IS_FUNCTIONAL_STATE(NewState));
 365:/home/user/Desktop/STM32-Projekte/FH-Vertibot/src/STM32F30x_StdPeriph_Driver/src/stm32f30x_i2c.c ****   
 366:/home/user/Desktop/STM32-Projekte/FH-Vertibot/src/STM32F30x_StdPeriph_Driver/src/stm32f30x_i2c.c ****   if (NewState != DISABLE)
 367:/home/user/Desktop/STM32-Projekte/FH-Vertibot/src/STM32F30x_StdPeriph_Driver/src/stm32f30x_i2c.c ****   {
 368:/home/user/Desktop/STM32-Projekte/FH-Vertibot/src/STM32F30x_StdPeriph_Driver/src/stm32f30x_i2c.c ****     /* Enable clock stretching */
 369:/home/user/Desktop/STM32-Projekte/FH-Vertibot/src/STM32F30x_StdPeriph_Driver/src/stm32f30x_i2c.c ****     I2Cx->CR1 &= (uint32_t)~((uint32_t)I2C_CR1_NOSTRETCH);    
 304              		.loc 1 369 0
 305 00e0 0368     		ldr	r3, [r0]
 366:/home/user/Desktop/STM32-Projekte/FH-Vertibot/src/STM32F30x_StdPeriph_Driver/src/stm32f30x_i2c.c ****   if (NewState != DISABLE)
 306              		.loc 1 366 0
 307 00e2 11B1     		cbz	r1, .L21
 308              		.loc 1 369 0
 309 00e4 23F40033 		bic	r3, r3, #131072
 310 00e8 01E0     		b	.L23
 311              	.L21:
 370:/home/user/Desktop/STM32-Projekte/FH-Vertibot/src/STM32F30x_StdPeriph_Driver/src/stm32f30x_i2c.c ****   }
 371:/home/user/Desktop/STM32-Projekte/FH-Vertibot/src/STM32F30x_StdPeriph_Driver/src/stm32f30x_i2c.c ****   else
 372:/home/user/Desktop/STM32-Projekte/FH-Vertibot/src/STM32F30x_StdPeriph_Driver/src/stm32f30x_i2c.c ****   {
 373:/home/user/Desktop/STM32-Projekte/FH-Vertibot/src/STM32F30x_StdPeriph_Driver/src/stm32f30x_i2c.c ****     /* Disable clock stretching  */
 374:/home/user/Desktop/STM32-Projekte/FH-Vertibot/src/STM32F30x_StdPeriph_Driver/src/stm32f30x_i2c.c ****     I2Cx->CR1 |= I2C_CR1_NOSTRETCH;
 312              		.loc 1 374 0
 313 00ea 43F40033 		orr	r3, r3, #131072
 314              	.L23:
 315 00ee 0360     		str	r3, [r0]
 316 00f0 7047     		bx	lr
 317              		.cfi_endproc
 318              	.LFE117:
 320              		.align	1
 321              		.global	I2C_StopModeCmd
 322              		.thumb
 323              		.thumb_func
 325              	I2C_StopModeCmd:
 326              	.LFB118:
 375:/home/user/Desktop/STM32-Projekte/FH-Vertibot/src/STM32F30x_StdPeriph_Driver/src/stm32f30x_i2c.c ****   }
 376:/home/user/Desktop/STM32-Projekte/FH-Vertibot/src/STM32F30x_StdPeriph_Driver/src/stm32f30x_i2c.c **** }
 377:/home/user/Desktop/STM32-Projekte/FH-Vertibot/src/STM32F30x_StdPeriph_Driver/src/stm32f30x_i2c.c **** 
 378:/home/user/Desktop/STM32-Projekte/FH-Vertibot/src/STM32F30x_StdPeriph_Driver/src/stm32f30x_i2c.c **** /**
 379:/home/user/Desktop/STM32-Projekte/FH-Vertibot/src/STM32F30x_StdPeriph_Driver/src/stm32f30x_i2c.c ****   * @brief  Enables or disables I2C wakeup from stop mode.
 380:/home/user/Desktop/STM32-Projekte/FH-Vertibot/src/STM32F30x_StdPeriph_Driver/src/stm32f30x_i2c.c ****   * @param  I2Cx: where x can be 1 or 2 to select the I2C peripheral.
 381:/home/user/Desktop/STM32-Projekte/FH-Vertibot/src/STM32F30x_StdPeriph_Driver/src/stm32f30x_i2c.c ****   * @param  NewState: new state of the I2Cx stop mode.
 382:/home/user/Desktop/STM32-Projekte/FH-Vertibot/src/STM32F30x_StdPeriph_Driver/src/stm32f30x_i2c.c ****   *   This parameter can be: ENABLE or DISABLE.
 383:/home/user/Desktop/STM32-Projekte/FH-Vertibot/src/STM32F30x_StdPeriph_Driver/src/stm32f30x_i2c.c ****   * @retval None
 384:/home/user/Desktop/STM32-Projekte/FH-Vertibot/src/STM32F30x_StdPeriph_Driver/src/stm32f30x_i2c.c ****   */
 385:/home/user/Desktop/STM32-Projekte/FH-Vertibot/src/STM32F30x_StdPeriph_Driver/src/stm32f30x_i2c.c **** void I2C_StopModeCmd(I2C_TypeDef* I2Cx, FunctionalState NewState)
 386:/home/user/Desktop/STM32-Projekte/FH-Vertibot/src/STM32F30x_StdPeriph_Driver/src/stm32f30x_i2c.c **** {
 327              		.loc 1 386 0
 328              		.cfi_startproc
 329              		@ args = 0, pretend = 0, frame = 0
 330              		@ frame_needed = 0, uses_anonymous_args = 0
 331              		@ link register save eliminated.
 332              	.LVL30:
 387:/home/user/Desktop/STM32-Projekte/FH-Vertibot/src/STM32F30x_StdPeriph_Driver/src/stm32f30x_i2c.c ****   /* Check the parameters */
 388:/home/user/Desktop/STM32-Projekte/FH-Vertibot/src/STM32F30x_StdPeriph_Driver/src/stm32f30x_i2c.c ****   assert_param(IS_I2C_ALL_PERIPH(I2Cx));
 389:/home/user/Desktop/STM32-Projekte/FH-Vertibot/src/STM32F30x_StdPeriph_Driver/src/stm32f30x_i2c.c ****   assert_param(IS_FUNCTIONAL_STATE(NewState));
 390:/home/user/Desktop/STM32-Projekte/FH-Vertibot/src/STM32F30x_StdPeriph_Driver/src/stm32f30x_i2c.c ****   
 391:/home/user/Desktop/STM32-Projekte/FH-Vertibot/src/STM32F30x_StdPeriph_Driver/src/stm32f30x_i2c.c ****   if (NewState != DISABLE)
 392:/home/user/Desktop/STM32-Projekte/FH-Vertibot/src/STM32F30x_StdPeriph_Driver/src/stm32f30x_i2c.c ****   {
 393:/home/user/Desktop/STM32-Projekte/FH-Vertibot/src/STM32F30x_StdPeriph_Driver/src/stm32f30x_i2c.c ****     /* Enable wakeup from stop mode */
 394:/home/user/Desktop/STM32-Projekte/FH-Vertibot/src/STM32F30x_StdPeriph_Driver/src/stm32f30x_i2c.c ****     I2Cx->CR1 |= I2C_CR1_WUPEN;   
 333              		.loc 1 394 0
 334 00f2 0368     		ldr	r3, [r0]
 391:/home/user/Desktop/STM32-Projekte/FH-Vertibot/src/STM32F30x_StdPeriph_Driver/src/stm32f30x_i2c.c ****   if (NewState != DISABLE)
 335              		.loc 1 391 0
 336 00f4 11B1     		cbz	r1, .L25
 337              		.loc 1 394 0
 338 00f6 43F48023 		orr	r3, r3, #262144
 339 00fa 01E0     		b	.L27
 340              	.L25:
 395:/home/user/Desktop/STM32-Projekte/FH-Vertibot/src/STM32F30x_StdPeriph_Driver/src/stm32f30x_i2c.c ****   }
 396:/home/user/Desktop/STM32-Projekte/FH-Vertibot/src/STM32F30x_StdPeriph_Driver/src/stm32f30x_i2c.c ****   else
 397:/home/user/Desktop/STM32-Projekte/FH-Vertibot/src/STM32F30x_StdPeriph_Driver/src/stm32f30x_i2c.c ****   {
 398:/home/user/Desktop/STM32-Projekte/FH-Vertibot/src/STM32F30x_StdPeriph_Driver/src/stm32f30x_i2c.c ****     /* Disable wakeup from stop mode */    
 399:/home/user/Desktop/STM32-Projekte/FH-Vertibot/src/STM32F30x_StdPeriph_Driver/src/stm32f30x_i2c.c ****     I2Cx->CR1 &= (uint32_t)~((uint32_t)I2C_CR1_WUPEN); 
 341              		.loc 1 399 0
 342 00fc 23F48023 		bic	r3, r3, #262144
 343              	.L27:
 344 0100 0360     		str	r3, [r0]
 345 0102 7047     		bx	lr
 346              		.cfi_endproc
 347              	.LFE118:
 349              		.align	1
 350              		.global	I2C_DualAddressCmd
 351              		.thumb
 352              		.thumb_func
 354              	I2C_DualAddressCmd:
 355              	.LFB119:
 400:/home/user/Desktop/STM32-Projekte/FH-Vertibot/src/STM32F30x_StdPeriph_Driver/src/stm32f30x_i2c.c ****   }
 401:/home/user/Desktop/STM32-Projekte/FH-Vertibot/src/STM32F30x_StdPeriph_Driver/src/stm32f30x_i2c.c **** }
 402:/home/user/Desktop/STM32-Projekte/FH-Vertibot/src/STM32F30x_StdPeriph_Driver/src/stm32f30x_i2c.c **** 
 403:/home/user/Desktop/STM32-Projekte/FH-Vertibot/src/STM32F30x_StdPeriph_Driver/src/stm32f30x_i2c.c **** /**
 404:/home/user/Desktop/STM32-Projekte/FH-Vertibot/src/STM32F30x_StdPeriph_Driver/src/stm32f30x_i2c.c ****   * @brief  Enables or disables the I2C own address 2.
 405:/home/user/Desktop/STM32-Projekte/FH-Vertibot/src/STM32F30x_StdPeriph_Driver/src/stm32f30x_i2c.c ****   * @param  I2Cx: where x can be 1 or 2 to select the I2C peripheral.
 406:/home/user/Desktop/STM32-Projekte/FH-Vertibot/src/STM32F30x_StdPeriph_Driver/src/stm32f30x_i2c.c ****   * @param  NewState: new state of the I2C own address 2.
 407:/home/user/Desktop/STM32-Projekte/FH-Vertibot/src/STM32F30x_StdPeriph_Driver/src/stm32f30x_i2c.c ****   *   This parameter can be: ENABLE or DISABLE.  
 408:/home/user/Desktop/STM32-Projekte/FH-Vertibot/src/STM32F30x_StdPeriph_Driver/src/stm32f30x_i2c.c ****   * @retval None
 409:/home/user/Desktop/STM32-Projekte/FH-Vertibot/src/STM32F30x_StdPeriph_Driver/src/stm32f30x_i2c.c ****   */
 410:/home/user/Desktop/STM32-Projekte/FH-Vertibot/src/STM32F30x_StdPeriph_Driver/src/stm32f30x_i2c.c **** void I2C_DualAddressCmd(I2C_TypeDef* I2Cx, FunctionalState NewState)
 411:/home/user/Desktop/STM32-Projekte/FH-Vertibot/src/STM32F30x_StdPeriph_Driver/src/stm32f30x_i2c.c **** {
 356              		.loc 1 411 0
 357              		.cfi_startproc
 358              		@ args = 0, pretend = 0, frame = 0
 359              		@ frame_needed = 0, uses_anonymous_args = 0
 360              		@ link register save eliminated.
 361              	.LVL31:
 412:/home/user/Desktop/STM32-Projekte/FH-Vertibot/src/STM32F30x_StdPeriph_Driver/src/stm32f30x_i2c.c ****   /* Check the parameters */
 413:/home/user/Desktop/STM32-Projekte/FH-Vertibot/src/STM32F30x_StdPeriph_Driver/src/stm32f30x_i2c.c ****   assert_param(IS_I2C_ALL_PERIPH(I2Cx));
 414:/home/user/Desktop/STM32-Projekte/FH-Vertibot/src/STM32F30x_StdPeriph_Driver/src/stm32f30x_i2c.c ****   assert_param(IS_FUNCTIONAL_STATE(NewState));
 415:/home/user/Desktop/STM32-Projekte/FH-Vertibot/src/STM32F30x_StdPeriph_Driver/src/stm32f30x_i2c.c ****   
 416:/home/user/Desktop/STM32-Projekte/FH-Vertibot/src/STM32F30x_StdPeriph_Driver/src/stm32f30x_i2c.c ****   if (NewState != DISABLE)
 417:/home/user/Desktop/STM32-Projekte/FH-Vertibot/src/STM32F30x_StdPeriph_Driver/src/stm32f30x_i2c.c ****   {
 418:/home/user/Desktop/STM32-Projekte/FH-Vertibot/src/STM32F30x_StdPeriph_Driver/src/stm32f30x_i2c.c ****     /* Enable own address 2 */
 419:/home/user/Desktop/STM32-Projekte/FH-Vertibot/src/STM32F30x_StdPeriph_Driver/src/stm32f30x_i2c.c ****     I2Cx->OAR2 |= I2C_OAR2_OA2EN;
 362              		.loc 1 419 0
 363 0104 C368     		ldr	r3, [r0, #12]
 416:/home/user/Desktop/STM32-Projekte/FH-Vertibot/src/STM32F30x_StdPeriph_Driver/src/stm32f30x_i2c.c ****   if (NewState != DISABLE)
 364              		.loc 1 416 0
 365 0106 11B1     		cbz	r1, .L29
 366              		.loc 1 419 0
 367 0108 43F40043 		orr	r3, r3, #32768
 368 010c 01E0     		b	.L31
 369              	.L29:
 420:/home/user/Desktop/STM32-Projekte/FH-Vertibot/src/STM32F30x_StdPeriph_Driver/src/stm32f30x_i2c.c ****   }
 421:/home/user/Desktop/STM32-Projekte/FH-Vertibot/src/STM32F30x_StdPeriph_Driver/src/stm32f30x_i2c.c ****   else
 422:/home/user/Desktop/STM32-Projekte/FH-Vertibot/src/STM32F30x_StdPeriph_Driver/src/stm32f30x_i2c.c ****   {
 423:/home/user/Desktop/STM32-Projekte/FH-Vertibot/src/STM32F30x_StdPeriph_Driver/src/stm32f30x_i2c.c ****     /* Disable own address 2 */
 424:/home/user/Desktop/STM32-Projekte/FH-Vertibot/src/STM32F30x_StdPeriph_Driver/src/stm32f30x_i2c.c ****     I2Cx->OAR2 &= (uint32_t)~((uint32_t)I2C_OAR2_OA2EN);
 370              		.loc 1 424 0
 371 010e 23F40043 		bic	r3, r3, #32768
 372              	.L31:
 373 0112 C360     		str	r3, [r0, #12]
 374 0114 7047     		bx	lr
 375              		.cfi_endproc
 376              	.LFE119:
 378              		.align	1
 379              		.global	I2C_OwnAddress2Config
 380              		.thumb
 381              		.thumb_func
 383              	I2C_OwnAddress2Config:
 384              	.LFB120:
 425:/home/user/Desktop/STM32-Projekte/FH-Vertibot/src/STM32F30x_StdPeriph_Driver/src/stm32f30x_i2c.c ****   }
 426:/home/user/Desktop/STM32-Projekte/FH-Vertibot/src/STM32F30x_StdPeriph_Driver/src/stm32f30x_i2c.c **** }    
 427:/home/user/Desktop/STM32-Projekte/FH-Vertibot/src/STM32F30x_StdPeriph_Driver/src/stm32f30x_i2c.c **** 
 428:/home/user/Desktop/STM32-Projekte/FH-Vertibot/src/STM32F30x_StdPeriph_Driver/src/stm32f30x_i2c.c **** /**
 429:/home/user/Desktop/STM32-Projekte/FH-Vertibot/src/STM32F30x_StdPeriph_Driver/src/stm32f30x_i2c.c ****   * @brief  Configures the I2C slave own address 2 and mask.
 430:/home/user/Desktop/STM32-Projekte/FH-Vertibot/src/STM32F30x_StdPeriph_Driver/src/stm32f30x_i2c.c ****   * @param  I2Cx: where x can be 1 or 2 to select the I2C peripheral.
 431:/home/user/Desktop/STM32-Projekte/FH-Vertibot/src/STM32F30x_StdPeriph_Driver/src/stm32f30x_i2c.c ****   * @param  Address: specifies the slave address to be programmed.
 432:/home/user/Desktop/STM32-Projekte/FH-Vertibot/src/STM32F30x_StdPeriph_Driver/src/stm32f30x_i2c.c ****   * @param  Mask: specifies own address 2 mask to be programmed.
 433:/home/user/Desktop/STM32-Projekte/FH-Vertibot/src/STM32F30x_StdPeriph_Driver/src/stm32f30x_i2c.c ****   *   This parameter can be one of the following values:
 434:/home/user/Desktop/STM32-Projekte/FH-Vertibot/src/STM32F30x_StdPeriph_Driver/src/stm32f30x_i2c.c ****   *     @arg I2C_OA2_NoMask: no mask.
 435:/home/user/Desktop/STM32-Projekte/FH-Vertibot/src/STM32F30x_StdPeriph_Driver/src/stm32f30x_i2c.c ****   *     @arg I2C_OA2_Mask01: OA2[1] is masked and don't care.
 436:/home/user/Desktop/STM32-Projekte/FH-Vertibot/src/STM32F30x_StdPeriph_Driver/src/stm32f30x_i2c.c ****   *     @arg I2C_OA2_Mask02: OA2[2:1] are masked and don't care.
 437:/home/user/Desktop/STM32-Projekte/FH-Vertibot/src/STM32F30x_StdPeriph_Driver/src/stm32f30x_i2c.c ****   *     @arg I2C_OA2_Mask03: OA2[3:1] are masked and don't care.
 438:/home/user/Desktop/STM32-Projekte/FH-Vertibot/src/STM32F30x_StdPeriph_Driver/src/stm32f30x_i2c.c ****   *     @arg I2C_OA2_Mask04: OA2[4:1] are masked and don't care.
 439:/home/user/Desktop/STM32-Projekte/FH-Vertibot/src/STM32F30x_StdPeriph_Driver/src/stm32f30x_i2c.c ****   *     @arg I2C_OA2_Mask05: OA2[5:1] are masked and don't care.
 440:/home/user/Desktop/STM32-Projekte/FH-Vertibot/src/STM32F30x_StdPeriph_Driver/src/stm32f30x_i2c.c ****   *     @arg I2C_OA2_Mask06: OA2[6:1] are masked and don't care.
 441:/home/user/Desktop/STM32-Projekte/FH-Vertibot/src/STM32F30x_StdPeriph_Driver/src/stm32f30x_i2c.c ****   *     @arg I2C_OA2_Mask07: OA2[7:1] are masked and don't care.
 442:/home/user/Desktop/STM32-Projekte/FH-Vertibot/src/STM32F30x_StdPeriph_Driver/src/stm32f30x_i2c.c ****   * @retval None
 443:/home/user/Desktop/STM32-Projekte/FH-Vertibot/src/STM32F30x_StdPeriph_Driver/src/stm32f30x_i2c.c ****   */
 444:/home/user/Desktop/STM32-Projekte/FH-Vertibot/src/STM32F30x_StdPeriph_Driver/src/stm32f30x_i2c.c **** void I2C_OwnAddress2Config(I2C_TypeDef* I2Cx, uint16_t Address, uint8_t Mask)
 445:/home/user/Desktop/STM32-Projekte/FH-Vertibot/src/STM32F30x_StdPeriph_Driver/src/stm32f30x_i2c.c **** {
 385              		.loc 1 445 0
 386              		.cfi_startproc
 387              		@ args = 0, pretend = 0, frame = 0
 388              		@ frame_needed = 0, uses_anonymous_args = 0
 389              		@ link register save eliminated.
 390              	.LVL32:
 446:/home/user/Desktop/STM32-Projekte/FH-Vertibot/src/STM32F30x_StdPeriph_Driver/src/stm32f30x_i2c.c ****   uint32_t tmpreg = 0;
 447:/home/user/Desktop/STM32-Projekte/FH-Vertibot/src/STM32F30x_StdPeriph_Driver/src/stm32f30x_i2c.c **** 
 448:/home/user/Desktop/STM32-Projekte/FH-Vertibot/src/STM32F30x_StdPeriph_Driver/src/stm32f30x_i2c.c ****   /* Check the parameters */
 449:/home/user/Desktop/STM32-Projekte/FH-Vertibot/src/STM32F30x_StdPeriph_Driver/src/stm32f30x_i2c.c ****   assert_param(IS_I2C_ALL_PERIPH(I2Cx));
 450:/home/user/Desktop/STM32-Projekte/FH-Vertibot/src/STM32F30x_StdPeriph_Driver/src/stm32f30x_i2c.c ****   assert_param(IS_I2C_OWN_ADDRESS2(Address));
 451:/home/user/Desktop/STM32-Projekte/FH-Vertibot/src/STM32F30x_StdPeriph_Driver/src/stm32f30x_i2c.c ****   assert_param(IS_I2C_OWN_ADDRESS2_MASK(Mask));
 452:/home/user/Desktop/STM32-Projekte/FH-Vertibot/src/STM32F30x_StdPeriph_Driver/src/stm32f30x_i2c.c ****   
 453:/home/user/Desktop/STM32-Projekte/FH-Vertibot/src/STM32F30x_StdPeriph_Driver/src/stm32f30x_i2c.c ****   /* Get the old register value */
 454:/home/user/Desktop/STM32-Projekte/FH-Vertibot/src/STM32F30x_StdPeriph_Driver/src/stm32f30x_i2c.c ****   tmpreg = I2Cx->OAR2;
 391              		.loc 1 454 0
 392 0116 C368     		ldr	r3, [r0, #12]
 393              	.LVL33:
 455:/home/user/Desktop/STM32-Projekte/FH-Vertibot/src/STM32F30x_StdPeriph_Driver/src/stm32f30x_i2c.c **** 
 456:/home/user/Desktop/STM32-Projekte/FH-Vertibot/src/STM32F30x_StdPeriph_Driver/src/stm32f30x_i2c.c ****   /* Reset I2Cx OA2 bit [7:1] and OA2MSK bit [1:0]  */
 457:/home/user/Desktop/STM32-Projekte/FH-Vertibot/src/STM32F30x_StdPeriph_Driver/src/stm32f30x_i2c.c ****   tmpreg &= (uint32_t)~((uint32_t)(I2C_OAR2_OA2 | I2C_OAR2_OA2MSK));
 458:/home/user/Desktop/STM32-Projekte/FH-Vertibot/src/STM32F30x_StdPeriph_Driver/src/stm32f30x_i2c.c **** 
 459:/home/user/Desktop/STM32-Projekte/FH-Vertibot/src/STM32F30x_StdPeriph_Driver/src/stm32f30x_i2c.c ****   /* Set I2Cx SADD */
 460:/home/user/Desktop/STM32-Projekte/FH-Vertibot/src/STM32F30x_StdPeriph_Driver/src/stm32f30x_i2c.c ****   tmpreg |= (uint32_t)(((uint32_t)Address & I2C_OAR2_OA2) | \
 461:/home/user/Desktop/STM32-Projekte/FH-Vertibot/src/STM32F30x_StdPeriph_Driver/src/stm32f30x_i2c.c ****             (((uint32_t)Mask << 8) & I2C_OAR2_OA2MSK)) ;
 394              		.loc 1 461 0
 395 0118 1202     		lsls	r2, r2, #8
 396              	.LVL34:
 457:/home/user/Desktop/STM32-Projekte/FH-Vertibot/src/STM32F30x_StdPeriph_Driver/src/stm32f30x_i2c.c ****   tmpreg &= (uint32_t)~((uint32_t)(I2C_OAR2_OA2 | I2C_OAR2_OA2MSK));
 397              		.loc 1 457 0
 398 011a 23F4FF63 		bic	r3, r3, #2040
 399              	.LVL35:
 460:/home/user/Desktop/STM32-Projekte/FH-Vertibot/src/STM32F30x_StdPeriph_Driver/src/stm32f30x_i2c.c ****   tmpreg |= (uint32_t)(((uint32_t)Address & I2C_OAR2_OA2) | \
 400              		.loc 1 460 0
 401 011e 01F0FE01 		and	r1, r1, #254
 402              	.LVL36:
 403              		.loc 1 461 0
 404 0122 02F4E062 		and	r2, r2, #1792
 457:/home/user/Desktop/STM32-Projekte/FH-Vertibot/src/STM32F30x_StdPeriph_Driver/src/stm32f30x_i2c.c ****   tmpreg &= (uint32_t)~((uint32_t)(I2C_OAR2_OA2 | I2C_OAR2_OA2MSK));
 405              		.loc 1 457 0
 406 0126 23F00603 		bic	r3, r3, #6
 407              	.LVL37:
 460:/home/user/Desktop/STM32-Projekte/FH-Vertibot/src/STM32F30x_StdPeriph_Driver/src/stm32f30x_i2c.c ****   tmpreg |= (uint32_t)(((uint32_t)Address & I2C_OAR2_OA2) | \
 408              		.loc 1 460 0
 409 012a 1143     		orrs	r1, r1, r2
 410 012c 0B43     		orrs	r3, r3, r1
 411              	.LVL38:
 462:/home/user/Desktop/STM32-Projekte/FH-Vertibot/src/STM32F30x_StdPeriph_Driver/src/stm32f30x_i2c.c **** 
 463:/home/user/Desktop/STM32-Projekte/FH-Vertibot/src/STM32F30x_StdPeriph_Driver/src/stm32f30x_i2c.c ****   /* Store the new register value */
 464:/home/user/Desktop/STM32-Projekte/FH-Vertibot/src/STM32F30x_StdPeriph_Driver/src/stm32f30x_i2c.c ****   I2Cx->OAR2 = tmpreg;
 412              		.loc 1 464 0
 413 012e C360     		str	r3, [r0, #12]
 414 0130 7047     		bx	lr
 415              		.cfi_endproc
 416              	.LFE120:
 418              		.align	1
 419              		.global	I2C_GeneralCallCmd
 420              		.thumb
 421              		.thumb_func
 423              	I2C_GeneralCallCmd:
 424              	.LFB121:
 465:/home/user/Desktop/STM32-Projekte/FH-Vertibot/src/STM32F30x_StdPeriph_Driver/src/stm32f30x_i2c.c **** }
 466:/home/user/Desktop/STM32-Projekte/FH-Vertibot/src/STM32F30x_StdPeriph_Driver/src/stm32f30x_i2c.c **** 
 467:/home/user/Desktop/STM32-Projekte/FH-Vertibot/src/STM32F30x_StdPeriph_Driver/src/stm32f30x_i2c.c **** /**
 468:/home/user/Desktop/STM32-Projekte/FH-Vertibot/src/STM32F30x_StdPeriph_Driver/src/stm32f30x_i2c.c ****   * @brief  Enables or disables the I2C general call mode.
 469:/home/user/Desktop/STM32-Projekte/FH-Vertibot/src/STM32F30x_StdPeriph_Driver/src/stm32f30x_i2c.c ****   * @param  I2Cx: where x can be 1 or 2 to select the I2C peripheral.
 470:/home/user/Desktop/STM32-Projekte/FH-Vertibot/src/STM32F30x_StdPeriph_Driver/src/stm32f30x_i2c.c ****   * @param  NewState: new state of the I2C general call mode.
 471:/home/user/Desktop/STM32-Projekte/FH-Vertibot/src/STM32F30x_StdPeriph_Driver/src/stm32f30x_i2c.c ****   *   This parameter can be: ENABLE or DISABLE.  
 472:/home/user/Desktop/STM32-Projekte/FH-Vertibot/src/STM32F30x_StdPeriph_Driver/src/stm32f30x_i2c.c ****   * @retval None
 473:/home/user/Desktop/STM32-Projekte/FH-Vertibot/src/STM32F30x_StdPeriph_Driver/src/stm32f30x_i2c.c ****   */
 474:/home/user/Desktop/STM32-Projekte/FH-Vertibot/src/STM32F30x_StdPeriph_Driver/src/stm32f30x_i2c.c **** void I2C_GeneralCallCmd(I2C_TypeDef* I2Cx, FunctionalState NewState)
 475:/home/user/Desktop/STM32-Projekte/FH-Vertibot/src/STM32F30x_StdPeriph_Driver/src/stm32f30x_i2c.c **** {
 425              		.loc 1 475 0
 426              		.cfi_startproc
 427              		@ args = 0, pretend = 0, frame = 0
 428              		@ frame_needed = 0, uses_anonymous_args = 0
 429              		@ link register save eliminated.
 430              	.LVL39:
 476:/home/user/Desktop/STM32-Projekte/FH-Vertibot/src/STM32F30x_StdPeriph_Driver/src/stm32f30x_i2c.c ****   /* Check the parameters */
 477:/home/user/Desktop/STM32-Projekte/FH-Vertibot/src/STM32F30x_StdPeriph_Driver/src/stm32f30x_i2c.c ****   assert_param(IS_I2C_ALL_PERIPH(I2Cx));
 478:/home/user/Desktop/STM32-Projekte/FH-Vertibot/src/STM32F30x_StdPeriph_Driver/src/stm32f30x_i2c.c ****   assert_param(IS_FUNCTIONAL_STATE(NewState));
 479:/home/user/Desktop/STM32-Projekte/FH-Vertibot/src/STM32F30x_StdPeriph_Driver/src/stm32f30x_i2c.c ****   
 480:/home/user/Desktop/STM32-Projekte/FH-Vertibot/src/STM32F30x_StdPeriph_Driver/src/stm32f30x_i2c.c ****   if (NewState != DISABLE)
 481:/home/user/Desktop/STM32-Projekte/FH-Vertibot/src/STM32F30x_StdPeriph_Driver/src/stm32f30x_i2c.c ****   {
 482:/home/user/Desktop/STM32-Projekte/FH-Vertibot/src/STM32F30x_StdPeriph_Driver/src/stm32f30x_i2c.c ****     /* Enable general call mode */
 483:/home/user/Desktop/STM32-Projekte/FH-Vertibot/src/STM32F30x_StdPeriph_Driver/src/stm32f30x_i2c.c ****     I2Cx->CR1 |= I2C_CR1_GCEN;
 431              		.loc 1 483 0
 432 0132 0368     		ldr	r3, [r0]
 480:/home/user/Desktop/STM32-Projekte/FH-Vertibot/src/STM32F30x_StdPeriph_Driver/src/stm32f30x_i2c.c ****   if (NewState != DISABLE)
 433              		.loc 1 480 0
 434 0134 11B1     		cbz	r1, .L34
 435              		.loc 1 483 0
 436 0136 43F40023 		orr	r3, r3, #524288
 437 013a 01E0     		b	.L36
 438              	.L34:
 484:/home/user/Desktop/STM32-Projekte/FH-Vertibot/src/STM32F30x_StdPeriph_Driver/src/stm32f30x_i2c.c ****   }
 485:/home/user/Desktop/STM32-Projekte/FH-Vertibot/src/STM32F30x_StdPeriph_Driver/src/stm32f30x_i2c.c ****   else
 486:/home/user/Desktop/STM32-Projekte/FH-Vertibot/src/STM32F30x_StdPeriph_Driver/src/stm32f30x_i2c.c ****   {
 487:/home/user/Desktop/STM32-Projekte/FH-Vertibot/src/STM32F30x_StdPeriph_Driver/src/stm32f30x_i2c.c ****     /* Disable general call mode */
 488:/home/user/Desktop/STM32-Projekte/FH-Vertibot/src/STM32F30x_StdPeriph_Driver/src/stm32f30x_i2c.c ****     I2Cx->CR1 &= (uint32_t)~((uint32_t)I2C_CR1_GCEN);
 439              		.loc 1 488 0
 440 013c 23F40023 		bic	r3, r3, #524288
 441              	.L36:
 442 0140 0360     		str	r3, [r0]
 443 0142 7047     		bx	lr
 444              		.cfi_endproc
 445              	.LFE121:
 447              		.align	1
 448              		.global	I2C_SlaveByteControlCmd
 449              		.thumb
 450              		.thumb_func
 452              	I2C_SlaveByteControlCmd:
 453              	.LFB122:
 489:/home/user/Desktop/STM32-Projekte/FH-Vertibot/src/STM32F30x_StdPeriph_Driver/src/stm32f30x_i2c.c ****   }
 490:/home/user/Desktop/STM32-Projekte/FH-Vertibot/src/STM32F30x_StdPeriph_Driver/src/stm32f30x_i2c.c **** } 
 491:/home/user/Desktop/STM32-Projekte/FH-Vertibot/src/STM32F30x_StdPeriph_Driver/src/stm32f30x_i2c.c **** 
 492:/home/user/Desktop/STM32-Projekte/FH-Vertibot/src/STM32F30x_StdPeriph_Driver/src/stm32f30x_i2c.c **** /**
 493:/home/user/Desktop/STM32-Projekte/FH-Vertibot/src/STM32F30x_StdPeriph_Driver/src/stm32f30x_i2c.c ****   * @brief  Enables or disables the I2C slave byte control.
 494:/home/user/Desktop/STM32-Projekte/FH-Vertibot/src/STM32F30x_StdPeriph_Driver/src/stm32f30x_i2c.c ****   * @param  I2Cx: where x can be 1 or 2 to select the I2C peripheral.
 495:/home/user/Desktop/STM32-Projekte/FH-Vertibot/src/STM32F30x_StdPeriph_Driver/src/stm32f30x_i2c.c ****   * @param  NewState: new state of the I2C slave byte control.
 496:/home/user/Desktop/STM32-Projekte/FH-Vertibot/src/STM32F30x_StdPeriph_Driver/src/stm32f30x_i2c.c ****   *   This parameter can be: ENABLE or DISABLE.  
 497:/home/user/Desktop/STM32-Projekte/FH-Vertibot/src/STM32F30x_StdPeriph_Driver/src/stm32f30x_i2c.c ****   * @retval None
 498:/home/user/Desktop/STM32-Projekte/FH-Vertibot/src/STM32F30x_StdPeriph_Driver/src/stm32f30x_i2c.c ****   */
 499:/home/user/Desktop/STM32-Projekte/FH-Vertibot/src/STM32F30x_StdPeriph_Driver/src/stm32f30x_i2c.c **** void I2C_SlaveByteControlCmd(I2C_TypeDef* I2Cx, FunctionalState NewState)
 500:/home/user/Desktop/STM32-Projekte/FH-Vertibot/src/STM32F30x_StdPeriph_Driver/src/stm32f30x_i2c.c **** {
 454              		.loc 1 500 0
 455              		.cfi_startproc
 456              		@ args = 0, pretend = 0, frame = 0
 457              		@ frame_needed = 0, uses_anonymous_args = 0
 458              		@ link register save eliminated.
 459              	.LVL40:
 501:/home/user/Desktop/STM32-Projekte/FH-Vertibot/src/STM32F30x_StdPeriph_Driver/src/stm32f30x_i2c.c ****   /* Check the parameters */
 502:/home/user/Desktop/STM32-Projekte/FH-Vertibot/src/STM32F30x_StdPeriph_Driver/src/stm32f30x_i2c.c ****   assert_param(IS_I2C_ALL_PERIPH(I2Cx));
 503:/home/user/Desktop/STM32-Projekte/FH-Vertibot/src/STM32F30x_StdPeriph_Driver/src/stm32f30x_i2c.c ****   assert_param(IS_FUNCTIONAL_STATE(NewState));
 504:/home/user/Desktop/STM32-Projekte/FH-Vertibot/src/STM32F30x_StdPeriph_Driver/src/stm32f30x_i2c.c ****   
 505:/home/user/Desktop/STM32-Projekte/FH-Vertibot/src/STM32F30x_StdPeriph_Driver/src/stm32f30x_i2c.c ****   if (NewState != DISABLE)
 506:/home/user/Desktop/STM32-Projekte/FH-Vertibot/src/STM32F30x_StdPeriph_Driver/src/stm32f30x_i2c.c ****   {
 507:/home/user/Desktop/STM32-Projekte/FH-Vertibot/src/STM32F30x_StdPeriph_Driver/src/stm32f30x_i2c.c ****     /* Enable slave byte control */
 508:/home/user/Desktop/STM32-Projekte/FH-Vertibot/src/STM32F30x_StdPeriph_Driver/src/stm32f30x_i2c.c ****     I2Cx->CR1 |= I2C_CR1_SBC;
 460              		.loc 1 508 0
 461 0144 0368     		ldr	r3, [r0]
 505:/home/user/Desktop/STM32-Projekte/FH-Vertibot/src/STM32F30x_StdPeriph_Driver/src/stm32f30x_i2c.c ****   if (NewState != DISABLE)
 462              		.loc 1 505 0
 463 0146 11B1     		cbz	r1, .L38
 464              		.loc 1 508 0
 465 0148 43F48033 		orr	r3, r3, #65536
 466 014c 01E0     		b	.L40
 467              	.L38:
 509:/home/user/Desktop/STM32-Projekte/FH-Vertibot/src/STM32F30x_StdPeriph_Driver/src/stm32f30x_i2c.c ****   }
 510:/home/user/Desktop/STM32-Projekte/FH-Vertibot/src/STM32F30x_StdPeriph_Driver/src/stm32f30x_i2c.c ****   else
 511:/home/user/Desktop/STM32-Projekte/FH-Vertibot/src/STM32F30x_StdPeriph_Driver/src/stm32f30x_i2c.c ****   {
 512:/home/user/Desktop/STM32-Projekte/FH-Vertibot/src/STM32F30x_StdPeriph_Driver/src/stm32f30x_i2c.c ****     /* Disable slave byte control */
 513:/home/user/Desktop/STM32-Projekte/FH-Vertibot/src/STM32F30x_StdPeriph_Driver/src/stm32f30x_i2c.c ****     I2Cx->CR1 &= (uint32_t)~((uint32_t)I2C_CR1_SBC);
 468              		.loc 1 513 0
 469 014e 23F48033 		bic	r3, r3, #65536
 470              	.L40:
 471 0152 0360     		str	r3, [r0]
 472 0154 7047     		bx	lr
 473              		.cfi_endproc
 474              	.LFE122:
 476              		.align	1
 477              		.global	I2C_SlaveAddressConfig
 478              		.thumb
 479              		.thumb_func
 481              	I2C_SlaveAddressConfig:
 482              	.LFB123:
 514:/home/user/Desktop/STM32-Projekte/FH-Vertibot/src/STM32F30x_StdPeriph_Driver/src/stm32f30x_i2c.c ****   }
 515:/home/user/Desktop/STM32-Projekte/FH-Vertibot/src/STM32F30x_StdPeriph_Driver/src/stm32f30x_i2c.c **** }
 516:/home/user/Desktop/STM32-Projekte/FH-Vertibot/src/STM32F30x_StdPeriph_Driver/src/stm32f30x_i2c.c **** 
 517:/home/user/Desktop/STM32-Projekte/FH-Vertibot/src/STM32F30x_StdPeriph_Driver/src/stm32f30x_i2c.c **** /**
 518:/home/user/Desktop/STM32-Projekte/FH-Vertibot/src/STM32F30x_StdPeriph_Driver/src/stm32f30x_i2c.c ****   * @brief  Configures the slave address to be transmitted after start generation.
 519:/home/user/Desktop/STM32-Projekte/FH-Vertibot/src/STM32F30x_StdPeriph_Driver/src/stm32f30x_i2c.c ****   * @param  I2Cx: where x can be 1 or 2 to select the I2C peripheral.
 520:/home/user/Desktop/STM32-Projekte/FH-Vertibot/src/STM32F30x_StdPeriph_Driver/src/stm32f30x_i2c.c ****   * @param  Address: specifies the slave address to be programmed.
 521:/home/user/Desktop/STM32-Projekte/FH-Vertibot/src/STM32F30x_StdPeriph_Driver/src/stm32f30x_i2c.c ****   * @note   This function should be called before generating start condition.  
 522:/home/user/Desktop/STM32-Projekte/FH-Vertibot/src/STM32F30x_StdPeriph_Driver/src/stm32f30x_i2c.c ****   * @retval None
 523:/home/user/Desktop/STM32-Projekte/FH-Vertibot/src/STM32F30x_StdPeriph_Driver/src/stm32f30x_i2c.c ****   */
 524:/home/user/Desktop/STM32-Projekte/FH-Vertibot/src/STM32F30x_StdPeriph_Driver/src/stm32f30x_i2c.c **** void I2C_SlaveAddressConfig(I2C_TypeDef* I2Cx, uint16_t Address)
 525:/home/user/Desktop/STM32-Projekte/FH-Vertibot/src/STM32F30x_StdPeriph_Driver/src/stm32f30x_i2c.c **** {
 483              		.loc 1 525 0
 484              		.cfi_startproc
 485              		@ args = 0, pretend = 0, frame = 0
 486              		@ frame_needed = 0, uses_anonymous_args = 0
 487              		@ link register save eliminated.
 488              	.LVL41:
 526:/home/user/Desktop/STM32-Projekte/FH-Vertibot/src/STM32F30x_StdPeriph_Driver/src/stm32f30x_i2c.c ****   uint32_t tmpreg = 0;
 527:/home/user/Desktop/STM32-Projekte/FH-Vertibot/src/STM32F30x_StdPeriph_Driver/src/stm32f30x_i2c.c **** 
 528:/home/user/Desktop/STM32-Projekte/FH-Vertibot/src/STM32F30x_StdPeriph_Driver/src/stm32f30x_i2c.c ****   /* Check the parameters */
 529:/home/user/Desktop/STM32-Projekte/FH-Vertibot/src/STM32F30x_StdPeriph_Driver/src/stm32f30x_i2c.c ****   assert_param(IS_I2C_ALL_PERIPH(I2Cx));
 530:/home/user/Desktop/STM32-Projekte/FH-Vertibot/src/STM32F30x_StdPeriph_Driver/src/stm32f30x_i2c.c ****   assert_param(IS_I2C_SLAVE_ADDRESS(Address));
 531:/home/user/Desktop/STM32-Projekte/FH-Vertibot/src/STM32F30x_StdPeriph_Driver/src/stm32f30x_i2c.c ****                
 532:/home/user/Desktop/STM32-Projekte/FH-Vertibot/src/STM32F30x_StdPeriph_Driver/src/stm32f30x_i2c.c ****   /* Get the old register value */
 533:/home/user/Desktop/STM32-Projekte/FH-Vertibot/src/STM32F30x_StdPeriph_Driver/src/stm32f30x_i2c.c ****   tmpreg = I2Cx->CR2;
 489              		.loc 1 533 0
 490 0156 4368     		ldr	r3, [r0, #4]
 491              	.LVL42:
 534:/home/user/Desktop/STM32-Projekte/FH-Vertibot/src/STM32F30x_StdPeriph_Driver/src/stm32f30x_i2c.c **** 
 535:/home/user/Desktop/STM32-Projekte/FH-Vertibot/src/STM32F30x_StdPeriph_Driver/src/stm32f30x_i2c.c ****   /* Reset I2Cx SADD bit [9:0] */
 536:/home/user/Desktop/STM32-Projekte/FH-Vertibot/src/STM32F30x_StdPeriph_Driver/src/stm32f30x_i2c.c ****   tmpreg &= (uint32_t)~((uint32_t)I2C_CR2_SADD);
 492              		.loc 1 536 0
 493 0158 23F47F73 		bic	r3, r3, #1020
 494              	.LVL43:
 495 015c 23F00303 		bic	r3, r3, #3
 496              	.LVL44:
 537:/home/user/Desktop/STM32-Projekte/FH-Vertibot/src/STM32F30x_StdPeriph_Driver/src/stm32f30x_i2c.c **** 
 538:/home/user/Desktop/STM32-Projekte/FH-Vertibot/src/STM32F30x_StdPeriph_Driver/src/stm32f30x_i2c.c ****   /* Set I2Cx SADD */
 539:/home/user/Desktop/STM32-Projekte/FH-Vertibot/src/STM32F30x_StdPeriph_Driver/src/stm32f30x_i2c.c ****   tmpreg |= (uint32_t)((uint32_t)Address & I2C_CR2_SADD);
 497              		.loc 1 539 0
 498 0160 C1F30901 		ubfx	r1, r1, #0, #10
 499              	.LVL45:
 500 0164 0B43     		orrs	r3, r3, r1
 501              	.LVL46:
 540:/home/user/Desktop/STM32-Projekte/FH-Vertibot/src/STM32F30x_StdPeriph_Driver/src/stm32f30x_i2c.c **** 
 541:/home/user/Desktop/STM32-Projekte/FH-Vertibot/src/STM32F30x_StdPeriph_Driver/src/stm32f30x_i2c.c ****   /* Store the new register value */
 542:/home/user/Desktop/STM32-Projekte/FH-Vertibot/src/STM32F30x_StdPeriph_Driver/src/stm32f30x_i2c.c ****   I2Cx->CR2 = tmpreg;
 502              		.loc 1 542 0
 503 0166 4360     		str	r3, [r0, #4]
 504 0168 7047     		bx	lr
 505              		.cfi_endproc
 506              	.LFE123:
 508              		.align	1
 509              		.global	I2C_10BitAddressingModeCmd
 510              		.thumb
 511              		.thumb_func
 513              	I2C_10BitAddressingModeCmd:
 514              	.LFB124:
 543:/home/user/Desktop/STM32-Projekte/FH-Vertibot/src/STM32F30x_StdPeriph_Driver/src/stm32f30x_i2c.c **** }
 544:/home/user/Desktop/STM32-Projekte/FH-Vertibot/src/STM32F30x_StdPeriph_Driver/src/stm32f30x_i2c.c ****   
 545:/home/user/Desktop/STM32-Projekte/FH-Vertibot/src/STM32F30x_StdPeriph_Driver/src/stm32f30x_i2c.c **** /**
 546:/home/user/Desktop/STM32-Projekte/FH-Vertibot/src/STM32F30x_StdPeriph_Driver/src/stm32f30x_i2c.c ****   * @brief  Enables or disables the I2C 10-bit addressing mode for the master.
 547:/home/user/Desktop/STM32-Projekte/FH-Vertibot/src/STM32F30x_StdPeriph_Driver/src/stm32f30x_i2c.c ****   * @param  I2Cx: where x can be 1 or 2 to select the I2C peripheral.
 548:/home/user/Desktop/STM32-Projekte/FH-Vertibot/src/STM32F30x_StdPeriph_Driver/src/stm32f30x_i2c.c ****   * @param  NewState: new state of the I2C 10-bit addressing mode.
 549:/home/user/Desktop/STM32-Projekte/FH-Vertibot/src/STM32F30x_StdPeriph_Driver/src/stm32f30x_i2c.c ****   *   This parameter can be: ENABLE or DISABLE.
 550:/home/user/Desktop/STM32-Projekte/FH-Vertibot/src/STM32F30x_StdPeriph_Driver/src/stm32f30x_i2c.c ****   * @note   This function should be called before generating start condition.  
 551:/home/user/Desktop/STM32-Projekte/FH-Vertibot/src/STM32F30x_StdPeriph_Driver/src/stm32f30x_i2c.c ****   * @retval None
 552:/home/user/Desktop/STM32-Projekte/FH-Vertibot/src/STM32F30x_StdPeriph_Driver/src/stm32f30x_i2c.c ****   */
 553:/home/user/Desktop/STM32-Projekte/FH-Vertibot/src/STM32F30x_StdPeriph_Driver/src/stm32f30x_i2c.c **** void I2C_10BitAddressingModeCmd(I2C_TypeDef* I2Cx, FunctionalState NewState)
 554:/home/user/Desktop/STM32-Projekte/FH-Vertibot/src/STM32F30x_StdPeriph_Driver/src/stm32f30x_i2c.c **** {
 515              		.loc 1 554 0
 516              		.cfi_startproc
 517              		@ args = 0, pretend = 0, frame = 0
 518              		@ frame_needed = 0, uses_anonymous_args = 0
 519              		@ link register save eliminated.
 520              	.LVL47:
 555:/home/user/Desktop/STM32-Projekte/FH-Vertibot/src/STM32F30x_StdPeriph_Driver/src/stm32f30x_i2c.c ****   /* Check the parameters */
 556:/home/user/Desktop/STM32-Projekte/FH-Vertibot/src/STM32F30x_StdPeriph_Driver/src/stm32f30x_i2c.c ****   assert_param(IS_I2C_ALL_PERIPH(I2Cx));
 557:/home/user/Desktop/STM32-Projekte/FH-Vertibot/src/STM32F30x_StdPeriph_Driver/src/stm32f30x_i2c.c ****   assert_param(IS_FUNCTIONAL_STATE(NewState));
 558:/home/user/Desktop/STM32-Projekte/FH-Vertibot/src/STM32F30x_StdPeriph_Driver/src/stm32f30x_i2c.c ****   
 559:/home/user/Desktop/STM32-Projekte/FH-Vertibot/src/STM32F30x_StdPeriph_Driver/src/stm32f30x_i2c.c ****   if (NewState != DISABLE)
 560:/home/user/Desktop/STM32-Projekte/FH-Vertibot/src/STM32F30x_StdPeriph_Driver/src/stm32f30x_i2c.c ****   {
 561:/home/user/Desktop/STM32-Projekte/FH-Vertibot/src/STM32F30x_StdPeriph_Driver/src/stm32f30x_i2c.c ****     /* Enable 10-bit addressing mode */
 562:/home/user/Desktop/STM32-Projekte/FH-Vertibot/src/STM32F30x_StdPeriph_Driver/src/stm32f30x_i2c.c ****     I2Cx->CR2 |= I2C_CR2_ADD10;
 521              		.loc 1 562 0
 522 016a 4368     		ldr	r3, [r0, #4]
 559:/home/user/Desktop/STM32-Projekte/FH-Vertibot/src/STM32F30x_StdPeriph_Driver/src/stm32f30x_i2c.c ****   if (NewState != DISABLE)
 523              		.loc 1 559 0
 524 016c 11B1     		cbz	r1, .L43
 525              		.loc 1 562 0
 526 016e 43F40063 		orr	r3, r3, #2048
 527 0172 01E0     		b	.L45
 528              	.L43:
 563:/home/user/Desktop/STM32-Projekte/FH-Vertibot/src/STM32F30x_StdPeriph_Driver/src/stm32f30x_i2c.c ****   }
 564:/home/user/Desktop/STM32-Projekte/FH-Vertibot/src/STM32F30x_StdPeriph_Driver/src/stm32f30x_i2c.c ****   else
 565:/home/user/Desktop/STM32-Projekte/FH-Vertibot/src/STM32F30x_StdPeriph_Driver/src/stm32f30x_i2c.c ****   {
 566:/home/user/Desktop/STM32-Projekte/FH-Vertibot/src/STM32F30x_StdPeriph_Driver/src/stm32f30x_i2c.c ****     /* Disable 10-bit addressing mode */
 567:/home/user/Desktop/STM32-Projekte/FH-Vertibot/src/STM32F30x_StdPeriph_Driver/src/stm32f30x_i2c.c ****     I2Cx->CR2 &= (uint32_t)~((uint32_t)I2C_CR2_ADD10);
 529              		.loc 1 567 0
 530 0174 23F40063 		bic	r3, r3, #2048
 531              	.L45:
 532 0178 4360     		str	r3, [r0, #4]
 533 017a 7047     		bx	lr
 534              		.cfi_endproc
 535              	.LFE124:
 537              		.align	1
 538              		.global	I2C_AutoEndCmd
 539              		.thumb
 540              		.thumb_func
 542              	I2C_AutoEndCmd:
 543              	.LFB125:
 568:/home/user/Desktop/STM32-Projekte/FH-Vertibot/src/STM32F30x_StdPeriph_Driver/src/stm32f30x_i2c.c ****   }
 569:/home/user/Desktop/STM32-Projekte/FH-Vertibot/src/STM32F30x_StdPeriph_Driver/src/stm32f30x_i2c.c **** } 
 570:/home/user/Desktop/STM32-Projekte/FH-Vertibot/src/STM32F30x_StdPeriph_Driver/src/stm32f30x_i2c.c **** 
 571:/home/user/Desktop/STM32-Projekte/FH-Vertibot/src/STM32F30x_StdPeriph_Driver/src/stm32f30x_i2c.c **** /**
 572:/home/user/Desktop/STM32-Projekte/FH-Vertibot/src/STM32F30x_StdPeriph_Driver/src/stm32f30x_i2c.c ****   * @}
 573:/home/user/Desktop/STM32-Projekte/FH-Vertibot/src/STM32F30x_StdPeriph_Driver/src/stm32f30x_i2c.c ****   */
 574:/home/user/Desktop/STM32-Projekte/FH-Vertibot/src/STM32F30x_StdPeriph_Driver/src/stm32f30x_i2c.c **** 
 575:/home/user/Desktop/STM32-Projekte/FH-Vertibot/src/STM32F30x_StdPeriph_Driver/src/stm32f30x_i2c.c **** 
 576:/home/user/Desktop/STM32-Projekte/FH-Vertibot/src/STM32F30x_StdPeriph_Driver/src/stm32f30x_i2c.c **** /** @defgroup I2C_Group2 Communications handling functions
 577:/home/user/Desktop/STM32-Projekte/FH-Vertibot/src/STM32F30x_StdPeriph_Driver/src/stm32f30x_i2c.c ****  *  @brief   Communications handling functions 
 578:/home/user/Desktop/STM32-Projekte/FH-Vertibot/src/STM32F30x_StdPeriph_Driver/src/stm32f30x_i2c.c ****  *
 579:/home/user/Desktop/STM32-Projekte/FH-Vertibot/src/STM32F30x_StdPeriph_Driver/src/stm32f30x_i2c.c **** @verbatim
 580:/home/user/Desktop/STM32-Projekte/FH-Vertibot/src/STM32F30x_StdPeriph_Driver/src/stm32f30x_i2c.c ****  ===============================================================================
 581:/home/user/Desktop/STM32-Projekte/FH-Vertibot/src/STM32F30x_StdPeriph_Driver/src/stm32f30x_i2c.c ****                   ##### Communications handling functions #####
 582:/home/user/Desktop/STM32-Projekte/FH-Vertibot/src/STM32F30x_StdPeriph_Driver/src/stm32f30x_i2c.c ****  ===============================================================================  
 583:/home/user/Desktop/STM32-Projekte/FH-Vertibot/src/STM32F30x_StdPeriph_Driver/src/stm32f30x_i2c.c ****     [..] This section provides a set of functions that handles I2C communication.
 584:/home/user/Desktop/STM32-Projekte/FH-Vertibot/src/STM32F30x_StdPeriph_Driver/src/stm32f30x_i2c.c ****     
 585:/home/user/Desktop/STM32-Projekte/FH-Vertibot/src/STM32F30x_StdPeriph_Driver/src/stm32f30x_i2c.c ****     [..] Automatic End mode is enabled using I2C_AutoEndCmd() function. When Reload
 586:/home/user/Desktop/STM32-Projekte/FH-Vertibot/src/STM32F30x_StdPeriph_Driver/src/stm32f30x_i2c.c ****          mode is enabled via I2C_ReloadCmd() AutoEnd bit has no effect.
 587:/home/user/Desktop/STM32-Projekte/FH-Vertibot/src/STM32F30x_StdPeriph_Driver/src/stm32f30x_i2c.c ****          
 588:/home/user/Desktop/STM32-Projekte/FH-Vertibot/src/STM32F30x_StdPeriph_Driver/src/stm32f30x_i2c.c ****     [..] I2C_NumberOfBytesConfig() function set the number of bytes to be transferred,
 589:/home/user/Desktop/STM32-Projekte/FH-Vertibot/src/STM32F30x_StdPeriph_Driver/src/stm32f30x_i2c.c ****          this configuration should be done before generating start condition in master 
 590:/home/user/Desktop/STM32-Projekte/FH-Vertibot/src/STM32F30x_StdPeriph_Driver/src/stm32f30x_i2c.c ****          mode.
 591:/home/user/Desktop/STM32-Projekte/FH-Vertibot/src/STM32F30x_StdPeriph_Driver/src/stm32f30x_i2c.c ****          
 592:/home/user/Desktop/STM32-Projekte/FH-Vertibot/src/STM32F30x_StdPeriph_Driver/src/stm32f30x_i2c.c ****     [..] When switching from master write operation to read operation in 10Bit addressing
 593:/home/user/Desktop/STM32-Projekte/FH-Vertibot/src/STM32F30x_StdPeriph_Driver/src/stm32f30x_i2c.c ****          mode, master can only sends the 1st 7 bits of the 10 bit address, followed by 
 594:/home/user/Desktop/STM32-Projekte/FH-Vertibot/src/STM32F30x_StdPeriph_Driver/src/stm32f30x_i2c.c ****          Read direction by enabling HEADR bit using I2C_10BitAddressHeader() function.        
 595:/home/user/Desktop/STM32-Projekte/FH-Vertibot/src/STM32F30x_StdPeriph_Driver/src/stm32f30x_i2c.c ****          
 596:/home/user/Desktop/STM32-Projekte/FH-Vertibot/src/STM32F30x_StdPeriph_Driver/src/stm32f30x_i2c.c ****     [..] In master mode, when transferring more than 255 bytes Reload mode should be used
 597:/home/user/Desktop/STM32-Projekte/FH-Vertibot/src/STM32F30x_StdPeriph_Driver/src/stm32f30x_i2c.c ****          to handle communication. In the first phase of transfer, Nbytes should be set to 
 598:/home/user/Desktop/STM32-Projekte/FH-Vertibot/src/STM32F30x_StdPeriph_Driver/src/stm32f30x_i2c.c ****          255. After transferring these bytes TCR flag is set and I2C_TransferHandling()
 599:/home/user/Desktop/STM32-Projekte/FH-Vertibot/src/STM32F30x_StdPeriph_Driver/src/stm32f30x_i2c.c ****          function should be called to handle remaining communication.
 600:/home/user/Desktop/STM32-Projekte/FH-Vertibot/src/STM32F30x_StdPeriph_Driver/src/stm32f30x_i2c.c ****          
 601:/home/user/Desktop/STM32-Projekte/FH-Vertibot/src/STM32F30x_StdPeriph_Driver/src/stm32f30x_i2c.c ****     [..] In master mode, when software end mode is selected when all data is transferred
 602:/home/user/Desktop/STM32-Projekte/FH-Vertibot/src/STM32F30x_StdPeriph_Driver/src/stm32f30x_i2c.c ****          TC flag is set I2C_TransferHandling() function should be called to generate STOP
 603:/home/user/Desktop/STM32-Projekte/FH-Vertibot/src/STM32F30x_StdPeriph_Driver/src/stm32f30x_i2c.c ****          or generate ReStart.                      
 604:/home/user/Desktop/STM32-Projekte/FH-Vertibot/src/STM32F30x_StdPeriph_Driver/src/stm32f30x_i2c.c ****              
 605:/home/user/Desktop/STM32-Projekte/FH-Vertibot/src/STM32F30x_StdPeriph_Driver/src/stm32f30x_i2c.c **** @endverbatim
 606:/home/user/Desktop/STM32-Projekte/FH-Vertibot/src/STM32F30x_StdPeriph_Driver/src/stm32f30x_i2c.c ****   * @{
 607:/home/user/Desktop/STM32-Projekte/FH-Vertibot/src/STM32F30x_StdPeriph_Driver/src/stm32f30x_i2c.c ****   */
 608:/home/user/Desktop/STM32-Projekte/FH-Vertibot/src/STM32F30x_StdPeriph_Driver/src/stm32f30x_i2c.c ****   
 609:/home/user/Desktop/STM32-Projekte/FH-Vertibot/src/STM32F30x_StdPeriph_Driver/src/stm32f30x_i2c.c **** /**
 610:/home/user/Desktop/STM32-Projekte/FH-Vertibot/src/STM32F30x_StdPeriph_Driver/src/stm32f30x_i2c.c ****   * @brief  Enables or disables the I2C automatic end mode (stop condition is 
 611:/home/user/Desktop/STM32-Projekte/FH-Vertibot/src/STM32F30x_StdPeriph_Driver/src/stm32f30x_i2c.c ****   *         automatically sent when nbytes data are transferred).
 612:/home/user/Desktop/STM32-Projekte/FH-Vertibot/src/STM32F30x_StdPeriph_Driver/src/stm32f30x_i2c.c ****   * @param  I2Cx: where x can be 1 or 2 to select the I2C peripheral.
 613:/home/user/Desktop/STM32-Projekte/FH-Vertibot/src/STM32F30x_StdPeriph_Driver/src/stm32f30x_i2c.c ****   * @param  NewState: new state of the I2C automatic end mode.
 614:/home/user/Desktop/STM32-Projekte/FH-Vertibot/src/STM32F30x_StdPeriph_Driver/src/stm32f30x_i2c.c ****   *   This parameter can be: ENABLE or DISABLE.
 615:/home/user/Desktop/STM32-Projekte/FH-Vertibot/src/STM32F30x_StdPeriph_Driver/src/stm32f30x_i2c.c ****   * @note   This function has effect if Reload mode is disabled.   
 616:/home/user/Desktop/STM32-Projekte/FH-Vertibot/src/STM32F30x_StdPeriph_Driver/src/stm32f30x_i2c.c ****   * @retval None
 617:/home/user/Desktop/STM32-Projekte/FH-Vertibot/src/STM32F30x_StdPeriph_Driver/src/stm32f30x_i2c.c ****   */
 618:/home/user/Desktop/STM32-Projekte/FH-Vertibot/src/STM32F30x_StdPeriph_Driver/src/stm32f30x_i2c.c **** void I2C_AutoEndCmd(I2C_TypeDef* I2Cx, FunctionalState NewState)
 619:/home/user/Desktop/STM32-Projekte/FH-Vertibot/src/STM32F30x_StdPeriph_Driver/src/stm32f30x_i2c.c **** {
 544              		.loc 1 619 0
 545              		.cfi_startproc
 546              		@ args = 0, pretend = 0, frame = 0
 547              		@ frame_needed = 0, uses_anonymous_args = 0
 548              		@ link register save eliminated.
 549              	.LVL48:
 620:/home/user/Desktop/STM32-Projekte/FH-Vertibot/src/STM32F30x_StdPeriph_Driver/src/stm32f30x_i2c.c ****   /* Check the parameters */
 621:/home/user/Desktop/STM32-Projekte/FH-Vertibot/src/STM32F30x_StdPeriph_Driver/src/stm32f30x_i2c.c ****   assert_param(IS_I2C_ALL_PERIPH(I2Cx));
 622:/home/user/Desktop/STM32-Projekte/FH-Vertibot/src/STM32F30x_StdPeriph_Driver/src/stm32f30x_i2c.c ****   assert_param(IS_FUNCTIONAL_STATE(NewState));
 623:/home/user/Desktop/STM32-Projekte/FH-Vertibot/src/STM32F30x_StdPeriph_Driver/src/stm32f30x_i2c.c ****   
 624:/home/user/Desktop/STM32-Projekte/FH-Vertibot/src/STM32F30x_StdPeriph_Driver/src/stm32f30x_i2c.c ****   if (NewState != DISABLE)
 625:/home/user/Desktop/STM32-Projekte/FH-Vertibot/src/STM32F30x_StdPeriph_Driver/src/stm32f30x_i2c.c ****   {
 626:/home/user/Desktop/STM32-Projekte/FH-Vertibot/src/STM32F30x_StdPeriph_Driver/src/stm32f30x_i2c.c ****     /* Enable Auto end mode */
 627:/home/user/Desktop/STM32-Projekte/FH-Vertibot/src/STM32F30x_StdPeriph_Driver/src/stm32f30x_i2c.c ****     I2Cx->CR2 |= I2C_CR2_AUTOEND;
 550              		.loc 1 627 0
 551 017c 4368     		ldr	r3, [r0, #4]
 624:/home/user/Desktop/STM32-Projekte/FH-Vertibot/src/STM32F30x_StdPeriph_Driver/src/stm32f30x_i2c.c ****   if (NewState != DISABLE)
 552              		.loc 1 624 0
 553 017e 11B1     		cbz	r1, .L47
 554              		.loc 1 627 0
 555 0180 43F00073 		orr	r3, r3, #33554432
 556 0184 01E0     		b	.L49
 557              	.L47:
 628:/home/user/Desktop/STM32-Projekte/FH-Vertibot/src/STM32F30x_StdPeriph_Driver/src/stm32f30x_i2c.c ****   }
 629:/home/user/Desktop/STM32-Projekte/FH-Vertibot/src/STM32F30x_StdPeriph_Driver/src/stm32f30x_i2c.c ****   else
 630:/home/user/Desktop/STM32-Projekte/FH-Vertibot/src/STM32F30x_StdPeriph_Driver/src/stm32f30x_i2c.c ****   {
 631:/home/user/Desktop/STM32-Projekte/FH-Vertibot/src/STM32F30x_StdPeriph_Driver/src/stm32f30x_i2c.c ****     /* Disable Auto end mode */
 632:/home/user/Desktop/STM32-Projekte/FH-Vertibot/src/STM32F30x_StdPeriph_Driver/src/stm32f30x_i2c.c ****     I2Cx->CR2 &= (uint32_t)~((uint32_t)I2C_CR2_AUTOEND);
 558              		.loc 1 632 0
 559 0186 23F00073 		bic	r3, r3, #33554432
 560              	.L49:
 561 018a 4360     		str	r3, [r0, #4]
 562 018c 7047     		bx	lr
 563              		.cfi_endproc
 564              	.LFE125:
 566              		.align	1
 567              		.global	I2C_ReloadCmd
 568              		.thumb
 569              		.thumb_func
 571              	I2C_ReloadCmd:
 572              	.LFB126:
 633:/home/user/Desktop/STM32-Projekte/FH-Vertibot/src/STM32F30x_StdPeriph_Driver/src/stm32f30x_i2c.c ****   }
 634:/home/user/Desktop/STM32-Projekte/FH-Vertibot/src/STM32F30x_StdPeriph_Driver/src/stm32f30x_i2c.c **** } 
 635:/home/user/Desktop/STM32-Projekte/FH-Vertibot/src/STM32F30x_StdPeriph_Driver/src/stm32f30x_i2c.c **** 
 636:/home/user/Desktop/STM32-Projekte/FH-Vertibot/src/STM32F30x_StdPeriph_Driver/src/stm32f30x_i2c.c **** /**
 637:/home/user/Desktop/STM32-Projekte/FH-Vertibot/src/STM32F30x_StdPeriph_Driver/src/stm32f30x_i2c.c ****   * @brief  Enables or disables the I2C nbytes reload mode.
 638:/home/user/Desktop/STM32-Projekte/FH-Vertibot/src/STM32F30x_StdPeriph_Driver/src/stm32f30x_i2c.c ****   * @param  I2Cx: where x can be 1 or 2 to select the I2C peripheral.
 639:/home/user/Desktop/STM32-Projekte/FH-Vertibot/src/STM32F30x_StdPeriph_Driver/src/stm32f30x_i2c.c ****   * @param  NewState: new state of the nbytes reload mode.
 640:/home/user/Desktop/STM32-Projekte/FH-Vertibot/src/STM32F30x_StdPeriph_Driver/src/stm32f30x_i2c.c ****   *   This parameter can be: ENABLE or DISABLE.
 641:/home/user/Desktop/STM32-Projekte/FH-Vertibot/src/STM32F30x_StdPeriph_Driver/src/stm32f30x_i2c.c ****   * @retval None
 642:/home/user/Desktop/STM32-Projekte/FH-Vertibot/src/STM32F30x_StdPeriph_Driver/src/stm32f30x_i2c.c ****   */
 643:/home/user/Desktop/STM32-Projekte/FH-Vertibot/src/STM32F30x_StdPeriph_Driver/src/stm32f30x_i2c.c **** void I2C_ReloadCmd(I2C_TypeDef* I2Cx, FunctionalState NewState)
 644:/home/user/Desktop/STM32-Projekte/FH-Vertibot/src/STM32F30x_StdPeriph_Driver/src/stm32f30x_i2c.c **** {
 573              		.loc 1 644 0
 574              		.cfi_startproc
 575              		@ args = 0, pretend = 0, frame = 0
 576              		@ frame_needed = 0, uses_anonymous_args = 0
 577              		@ link register save eliminated.
 578              	.LVL49:
 645:/home/user/Desktop/STM32-Projekte/FH-Vertibot/src/STM32F30x_StdPeriph_Driver/src/stm32f30x_i2c.c ****   /* Check the parameters */
 646:/home/user/Desktop/STM32-Projekte/FH-Vertibot/src/STM32F30x_StdPeriph_Driver/src/stm32f30x_i2c.c ****   assert_param(IS_I2C_ALL_PERIPH(I2Cx));
 647:/home/user/Desktop/STM32-Projekte/FH-Vertibot/src/STM32F30x_StdPeriph_Driver/src/stm32f30x_i2c.c ****   assert_param(IS_FUNCTIONAL_STATE(NewState));
 648:/home/user/Desktop/STM32-Projekte/FH-Vertibot/src/STM32F30x_StdPeriph_Driver/src/stm32f30x_i2c.c ****   
 649:/home/user/Desktop/STM32-Projekte/FH-Vertibot/src/STM32F30x_StdPeriph_Driver/src/stm32f30x_i2c.c ****   if (NewState != DISABLE)
 650:/home/user/Desktop/STM32-Projekte/FH-Vertibot/src/STM32F30x_StdPeriph_Driver/src/stm32f30x_i2c.c ****   {
 651:/home/user/Desktop/STM32-Projekte/FH-Vertibot/src/STM32F30x_StdPeriph_Driver/src/stm32f30x_i2c.c ****     /* Enable Auto Reload mode */
 652:/home/user/Desktop/STM32-Projekte/FH-Vertibot/src/STM32F30x_StdPeriph_Driver/src/stm32f30x_i2c.c ****     I2Cx->CR2 |= I2C_CR2_RELOAD;
 579              		.loc 1 652 0
 580 018e 4368     		ldr	r3, [r0, #4]
 649:/home/user/Desktop/STM32-Projekte/FH-Vertibot/src/STM32F30x_StdPeriph_Driver/src/stm32f30x_i2c.c ****   if (NewState != DISABLE)
 581              		.loc 1 649 0
 582 0190 11B1     		cbz	r1, .L51
 583              		.loc 1 652 0
 584 0192 43F08073 		orr	r3, r3, #16777216
 585 0196 01E0     		b	.L53
 586              	.L51:
 653:/home/user/Desktop/STM32-Projekte/FH-Vertibot/src/STM32F30x_StdPeriph_Driver/src/stm32f30x_i2c.c ****   }
 654:/home/user/Desktop/STM32-Projekte/FH-Vertibot/src/STM32F30x_StdPeriph_Driver/src/stm32f30x_i2c.c ****   else
 655:/home/user/Desktop/STM32-Projekte/FH-Vertibot/src/STM32F30x_StdPeriph_Driver/src/stm32f30x_i2c.c ****   {
 656:/home/user/Desktop/STM32-Projekte/FH-Vertibot/src/STM32F30x_StdPeriph_Driver/src/stm32f30x_i2c.c ****     /* Disable Auto Reload mode */
 657:/home/user/Desktop/STM32-Projekte/FH-Vertibot/src/STM32F30x_StdPeriph_Driver/src/stm32f30x_i2c.c ****     I2Cx->CR2 &= (uint32_t)~((uint32_t)I2C_CR2_RELOAD);
 587              		.loc 1 657 0
 588 0198 23F08073 		bic	r3, r3, #16777216
 589              	.L53:
 590 019c 4360     		str	r3, [r0, #4]
 591 019e 7047     		bx	lr
 592              		.cfi_endproc
 593              	.LFE126:
 595              		.align	1
 596              		.global	I2C_NumberOfBytesConfig
 597              		.thumb
 598              		.thumb_func
 600              	I2C_NumberOfBytesConfig:
 601              	.LFB127:
 658:/home/user/Desktop/STM32-Projekte/FH-Vertibot/src/STM32F30x_StdPeriph_Driver/src/stm32f30x_i2c.c ****   }
 659:/home/user/Desktop/STM32-Projekte/FH-Vertibot/src/STM32F30x_StdPeriph_Driver/src/stm32f30x_i2c.c **** }
 660:/home/user/Desktop/STM32-Projekte/FH-Vertibot/src/STM32F30x_StdPeriph_Driver/src/stm32f30x_i2c.c **** 
 661:/home/user/Desktop/STM32-Projekte/FH-Vertibot/src/STM32F30x_StdPeriph_Driver/src/stm32f30x_i2c.c **** /**
 662:/home/user/Desktop/STM32-Projekte/FH-Vertibot/src/STM32F30x_StdPeriph_Driver/src/stm32f30x_i2c.c ****   * @brief  Configures the number of bytes to be transmitted/received.
 663:/home/user/Desktop/STM32-Projekte/FH-Vertibot/src/STM32F30x_StdPeriph_Driver/src/stm32f30x_i2c.c ****   * @param  I2Cx: where x can be 1 or 2 to select the I2C peripheral.
 664:/home/user/Desktop/STM32-Projekte/FH-Vertibot/src/STM32F30x_StdPeriph_Driver/src/stm32f30x_i2c.c ****   * @param  Number_Bytes: specifies the number of bytes to be programmed.
 665:/home/user/Desktop/STM32-Projekte/FH-Vertibot/src/STM32F30x_StdPeriph_Driver/src/stm32f30x_i2c.c ****   * @retval None
 666:/home/user/Desktop/STM32-Projekte/FH-Vertibot/src/STM32F30x_StdPeriph_Driver/src/stm32f30x_i2c.c ****   */
 667:/home/user/Desktop/STM32-Projekte/FH-Vertibot/src/STM32F30x_StdPeriph_Driver/src/stm32f30x_i2c.c **** void I2C_NumberOfBytesConfig(I2C_TypeDef* I2Cx, uint8_t Number_Bytes)
 668:/home/user/Desktop/STM32-Projekte/FH-Vertibot/src/STM32F30x_StdPeriph_Driver/src/stm32f30x_i2c.c **** {
 602              		.loc 1 668 0
 603              		.cfi_startproc
 604              		@ args = 0, pretend = 0, frame = 0
 605              		@ frame_needed = 0, uses_anonymous_args = 0
 606              		@ link register save eliminated.
 607              	.LVL50:
 669:/home/user/Desktop/STM32-Projekte/FH-Vertibot/src/STM32F30x_StdPeriph_Driver/src/stm32f30x_i2c.c ****   uint32_t tmpreg = 0;
 670:/home/user/Desktop/STM32-Projekte/FH-Vertibot/src/STM32F30x_StdPeriph_Driver/src/stm32f30x_i2c.c **** 
 671:/home/user/Desktop/STM32-Projekte/FH-Vertibot/src/STM32F30x_StdPeriph_Driver/src/stm32f30x_i2c.c ****   /* Check the parameters */
 672:/home/user/Desktop/STM32-Projekte/FH-Vertibot/src/STM32F30x_StdPeriph_Driver/src/stm32f30x_i2c.c ****   assert_param(IS_I2C_ALL_PERIPH(I2Cx));
 673:/home/user/Desktop/STM32-Projekte/FH-Vertibot/src/STM32F30x_StdPeriph_Driver/src/stm32f30x_i2c.c **** 
 674:/home/user/Desktop/STM32-Projekte/FH-Vertibot/src/STM32F30x_StdPeriph_Driver/src/stm32f30x_i2c.c ****   /* Get the old register value */
 675:/home/user/Desktop/STM32-Projekte/FH-Vertibot/src/STM32F30x_StdPeriph_Driver/src/stm32f30x_i2c.c ****   tmpreg = I2Cx->CR2;
 608              		.loc 1 675 0
 609 01a0 4368     		ldr	r3, [r0, #4]
 610              	.LVL51:
 676:/home/user/Desktop/STM32-Projekte/FH-Vertibot/src/STM32F30x_StdPeriph_Driver/src/stm32f30x_i2c.c **** 
 677:/home/user/Desktop/STM32-Projekte/FH-Vertibot/src/STM32F30x_StdPeriph_Driver/src/stm32f30x_i2c.c ****   /* Reset I2Cx Nbytes bit [7:0] */
 678:/home/user/Desktop/STM32-Projekte/FH-Vertibot/src/STM32F30x_StdPeriph_Driver/src/stm32f30x_i2c.c ****   tmpreg &= (uint32_t)~((uint32_t)I2C_CR2_NBYTES);
 611              		.loc 1 678 0
 612 01a2 23F47F03 		bic	r3, r3, #16711680
 613              	.LVL52:
 679:/home/user/Desktop/STM32-Projekte/FH-Vertibot/src/STM32F30x_StdPeriph_Driver/src/stm32f30x_i2c.c **** 
 680:/home/user/Desktop/STM32-Projekte/FH-Vertibot/src/STM32F30x_StdPeriph_Driver/src/stm32f30x_i2c.c ****   /* Set I2Cx Nbytes */
 681:/home/user/Desktop/STM32-Projekte/FH-Vertibot/src/STM32F30x_StdPeriph_Driver/src/stm32f30x_i2c.c ****   tmpreg |= (uint32_t)(((uint32_t)Number_Bytes << 16 ) & I2C_CR2_NBYTES);
 614              		.loc 1 681 0
 615 01a6 43EA0141 		orr	r1, r3, r1, lsl #16
 616              	.LVL53:
 682:/home/user/Desktop/STM32-Projekte/FH-Vertibot/src/STM32F30x_StdPeriph_Driver/src/stm32f30x_i2c.c **** 
 683:/home/user/Desktop/STM32-Projekte/FH-Vertibot/src/STM32F30x_StdPeriph_Driver/src/stm32f30x_i2c.c ****   /* Store the new register value */
 684:/home/user/Desktop/STM32-Projekte/FH-Vertibot/src/STM32F30x_StdPeriph_Driver/src/stm32f30x_i2c.c ****   I2Cx->CR2 = tmpreg;
 617              		.loc 1 684 0
 618 01aa 4160     		str	r1, [r0, #4]
 619 01ac 7047     		bx	lr
 620              		.cfi_endproc
 621              	.LFE127:
 623              		.align	1
 624              		.global	I2C_MasterRequestConfig
 625              		.thumb
 626              		.thumb_func
 628              	I2C_MasterRequestConfig:
 629              	.LFB128:
 685:/home/user/Desktop/STM32-Projekte/FH-Vertibot/src/STM32F30x_StdPeriph_Driver/src/stm32f30x_i2c.c **** }  
 686:/home/user/Desktop/STM32-Projekte/FH-Vertibot/src/STM32F30x_StdPeriph_Driver/src/stm32f30x_i2c.c ****   
 687:/home/user/Desktop/STM32-Projekte/FH-Vertibot/src/STM32F30x_StdPeriph_Driver/src/stm32f30x_i2c.c **** /**
 688:/home/user/Desktop/STM32-Projekte/FH-Vertibot/src/STM32F30x_StdPeriph_Driver/src/stm32f30x_i2c.c ****   * @brief  Configures the type of transfer request for the master.
 689:/home/user/Desktop/STM32-Projekte/FH-Vertibot/src/STM32F30x_StdPeriph_Driver/src/stm32f30x_i2c.c ****   * @param  I2Cx: where x can be 1 or 2 to select the I2C peripheral.
 690:/home/user/Desktop/STM32-Projekte/FH-Vertibot/src/STM32F30x_StdPeriph_Driver/src/stm32f30x_i2c.c ****   * @param  I2C_Direction: specifies the transfer request direction to be programmed.
 691:/home/user/Desktop/STM32-Projekte/FH-Vertibot/src/STM32F30x_StdPeriph_Driver/src/stm32f30x_i2c.c ****   *    This parameter can be one of the following values:
 692:/home/user/Desktop/STM32-Projekte/FH-Vertibot/src/STM32F30x_StdPeriph_Driver/src/stm32f30x_i2c.c ****   *     @arg I2C_Direction_Transmitter: Master request a write transfer
 693:/home/user/Desktop/STM32-Projekte/FH-Vertibot/src/STM32F30x_StdPeriph_Driver/src/stm32f30x_i2c.c ****   *     @arg I2C_Direction_Receiver: Master request a read transfer 
 694:/home/user/Desktop/STM32-Projekte/FH-Vertibot/src/STM32F30x_StdPeriph_Driver/src/stm32f30x_i2c.c ****   * @retval None
 695:/home/user/Desktop/STM32-Projekte/FH-Vertibot/src/STM32F30x_StdPeriph_Driver/src/stm32f30x_i2c.c ****   */
 696:/home/user/Desktop/STM32-Projekte/FH-Vertibot/src/STM32F30x_StdPeriph_Driver/src/stm32f30x_i2c.c **** void I2C_MasterRequestConfig(I2C_TypeDef* I2Cx, uint16_t I2C_Direction)
 697:/home/user/Desktop/STM32-Projekte/FH-Vertibot/src/STM32F30x_StdPeriph_Driver/src/stm32f30x_i2c.c **** {
 630              		.loc 1 697 0
 631              		.cfi_startproc
 632              		@ args = 0, pretend = 0, frame = 0
 633              		@ frame_needed = 0, uses_anonymous_args = 0
 634              		@ link register save eliminated.
 635              	.LVL54:
 698:/home/user/Desktop/STM32-Projekte/FH-Vertibot/src/STM32F30x_StdPeriph_Driver/src/stm32f30x_i2c.c **** /* Check the parameters */
 699:/home/user/Desktop/STM32-Projekte/FH-Vertibot/src/STM32F30x_StdPeriph_Driver/src/stm32f30x_i2c.c ****   assert_param(IS_I2C_ALL_PERIPH(I2Cx));
 700:/home/user/Desktop/STM32-Projekte/FH-Vertibot/src/STM32F30x_StdPeriph_Driver/src/stm32f30x_i2c.c ****   assert_param(IS_I2C_DIRECTION(I2C_Direction));
 701:/home/user/Desktop/STM32-Projekte/FH-Vertibot/src/STM32F30x_StdPeriph_Driver/src/stm32f30x_i2c.c ****   
 702:/home/user/Desktop/STM32-Projekte/FH-Vertibot/src/STM32F30x_StdPeriph_Driver/src/stm32f30x_i2c.c ****   /* Test on the direction to set/reset the read/write bit */
 703:/home/user/Desktop/STM32-Projekte/FH-Vertibot/src/STM32F30x_StdPeriph_Driver/src/stm32f30x_i2c.c ****   if (I2C_Direction == I2C_Direction_Transmitter)
 704:/home/user/Desktop/STM32-Projekte/FH-Vertibot/src/STM32F30x_StdPeriph_Driver/src/stm32f30x_i2c.c ****   {
 705:/home/user/Desktop/STM32-Projekte/FH-Vertibot/src/STM32F30x_StdPeriph_Driver/src/stm32f30x_i2c.c ****     /* Request a write Transfer */
 706:/home/user/Desktop/STM32-Projekte/FH-Vertibot/src/STM32F30x_StdPeriph_Driver/src/stm32f30x_i2c.c ****     I2Cx->CR2 &= (uint32_t)~((uint32_t)I2C_CR2_RD_WRN);
 636              		.loc 1 706 0
 637 01ae 4368     		ldr	r3, [r0, #4]
 703:/home/user/Desktop/STM32-Projekte/FH-Vertibot/src/STM32F30x_StdPeriph_Driver/src/stm32f30x_i2c.c ****   if (I2C_Direction == I2C_Direction_Transmitter)
 638              		.loc 1 703 0
 639 01b0 11B9     		cbnz	r1, .L56
 640              		.loc 1 706 0
 641 01b2 23F48063 		bic	r3, r3, #1024
 642 01b6 01E0     		b	.L58
 643              	.L56:
 707:/home/user/Desktop/STM32-Projekte/FH-Vertibot/src/STM32F30x_StdPeriph_Driver/src/stm32f30x_i2c.c ****   }
 708:/home/user/Desktop/STM32-Projekte/FH-Vertibot/src/STM32F30x_StdPeriph_Driver/src/stm32f30x_i2c.c ****   else
 709:/home/user/Desktop/STM32-Projekte/FH-Vertibot/src/STM32F30x_StdPeriph_Driver/src/stm32f30x_i2c.c ****   {
 710:/home/user/Desktop/STM32-Projekte/FH-Vertibot/src/STM32F30x_StdPeriph_Driver/src/stm32f30x_i2c.c ****     /* Request a read Transfer */
 711:/home/user/Desktop/STM32-Projekte/FH-Vertibot/src/STM32F30x_StdPeriph_Driver/src/stm32f30x_i2c.c ****     I2Cx->CR2 |= I2C_CR2_RD_WRN;
 644              		.loc 1 711 0
 645 01b8 43F48063 		orr	r3, r3, #1024
 646              	.L58:
 647 01bc 4360     		str	r3, [r0, #4]
 648 01be 7047     		bx	lr
 649              		.cfi_endproc
 650              	.LFE128:
 652              		.align	1
 653              		.global	I2C_GenerateSTART
 654              		.thumb
 655              		.thumb_func
 657              	I2C_GenerateSTART:
 658              	.LFB129:
 712:/home/user/Desktop/STM32-Projekte/FH-Vertibot/src/STM32F30x_StdPeriph_Driver/src/stm32f30x_i2c.c ****   }
 713:/home/user/Desktop/STM32-Projekte/FH-Vertibot/src/STM32F30x_StdPeriph_Driver/src/stm32f30x_i2c.c **** }  
 714:/home/user/Desktop/STM32-Projekte/FH-Vertibot/src/STM32F30x_StdPeriph_Driver/src/stm32f30x_i2c.c ****   
 715:/home/user/Desktop/STM32-Projekte/FH-Vertibot/src/STM32F30x_StdPeriph_Driver/src/stm32f30x_i2c.c **** /**
 716:/home/user/Desktop/STM32-Projekte/FH-Vertibot/src/STM32F30x_StdPeriph_Driver/src/stm32f30x_i2c.c ****   * @brief  Generates I2Cx communication START condition.
 717:/home/user/Desktop/STM32-Projekte/FH-Vertibot/src/STM32F30x_StdPeriph_Driver/src/stm32f30x_i2c.c ****   * @param  I2Cx: where x can be 1 or 2 to select the I2C peripheral.
 718:/home/user/Desktop/STM32-Projekte/FH-Vertibot/src/STM32F30x_StdPeriph_Driver/src/stm32f30x_i2c.c ****   * @param  NewState: new state of the I2C START condition generation.
 719:/home/user/Desktop/STM32-Projekte/FH-Vertibot/src/STM32F30x_StdPeriph_Driver/src/stm32f30x_i2c.c ****   *   This parameter can be: ENABLE or DISABLE.
 720:/home/user/Desktop/STM32-Projekte/FH-Vertibot/src/STM32F30x_StdPeriph_Driver/src/stm32f30x_i2c.c ****   * @retval None
 721:/home/user/Desktop/STM32-Projekte/FH-Vertibot/src/STM32F30x_StdPeriph_Driver/src/stm32f30x_i2c.c ****   */
 722:/home/user/Desktop/STM32-Projekte/FH-Vertibot/src/STM32F30x_StdPeriph_Driver/src/stm32f30x_i2c.c **** void I2C_GenerateSTART(I2C_TypeDef* I2Cx, FunctionalState NewState)
 723:/home/user/Desktop/STM32-Projekte/FH-Vertibot/src/STM32F30x_StdPeriph_Driver/src/stm32f30x_i2c.c **** {
 659              		.loc 1 723 0
 660              		.cfi_startproc
 661              		@ args = 0, pretend = 0, frame = 0
 662              		@ frame_needed = 0, uses_anonymous_args = 0
 663              		@ link register save eliminated.
 664              	.LVL55:
 724:/home/user/Desktop/STM32-Projekte/FH-Vertibot/src/STM32F30x_StdPeriph_Driver/src/stm32f30x_i2c.c ****   /* Check the parameters */
 725:/home/user/Desktop/STM32-Projekte/FH-Vertibot/src/STM32F30x_StdPeriph_Driver/src/stm32f30x_i2c.c ****   assert_param(IS_I2C_ALL_PERIPH(I2Cx));
 726:/home/user/Desktop/STM32-Projekte/FH-Vertibot/src/STM32F30x_StdPeriph_Driver/src/stm32f30x_i2c.c ****   assert_param(IS_FUNCTIONAL_STATE(NewState));
 727:/home/user/Desktop/STM32-Projekte/FH-Vertibot/src/STM32F30x_StdPeriph_Driver/src/stm32f30x_i2c.c ****   
 728:/home/user/Desktop/STM32-Projekte/FH-Vertibot/src/STM32F30x_StdPeriph_Driver/src/stm32f30x_i2c.c ****   if (NewState != DISABLE)
 729:/home/user/Desktop/STM32-Projekte/FH-Vertibot/src/STM32F30x_StdPeriph_Driver/src/stm32f30x_i2c.c ****   {
 730:/home/user/Desktop/STM32-Projekte/FH-Vertibot/src/STM32F30x_StdPeriph_Driver/src/stm32f30x_i2c.c ****     /* Generate a START condition */
 731:/home/user/Desktop/STM32-Projekte/FH-Vertibot/src/STM32F30x_StdPeriph_Driver/src/stm32f30x_i2c.c ****     I2Cx->CR2 |= I2C_CR2_START;
 665              		.loc 1 731 0
 666 01c0 4368     		ldr	r3, [r0, #4]
 728:/home/user/Desktop/STM32-Projekte/FH-Vertibot/src/STM32F30x_StdPeriph_Driver/src/stm32f30x_i2c.c ****   if (NewState != DISABLE)
 667              		.loc 1 728 0
 668 01c2 11B1     		cbz	r1, .L60
 669              		.loc 1 731 0
 670 01c4 43F40053 		orr	r3, r3, #8192
 671 01c8 01E0     		b	.L62
 672              	.L60:
 732:/home/user/Desktop/STM32-Projekte/FH-Vertibot/src/STM32F30x_StdPeriph_Driver/src/stm32f30x_i2c.c ****   }
 733:/home/user/Desktop/STM32-Projekte/FH-Vertibot/src/STM32F30x_StdPeriph_Driver/src/stm32f30x_i2c.c ****   else
 734:/home/user/Desktop/STM32-Projekte/FH-Vertibot/src/STM32F30x_StdPeriph_Driver/src/stm32f30x_i2c.c ****   {
 735:/home/user/Desktop/STM32-Projekte/FH-Vertibot/src/STM32F30x_StdPeriph_Driver/src/stm32f30x_i2c.c ****     /* Disable the START condition generation */
 736:/home/user/Desktop/STM32-Projekte/FH-Vertibot/src/STM32F30x_StdPeriph_Driver/src/stm32f30x_i2c.c ****     I2Cx->CR2 &= (uint32_t)~((uint32_t)I2C_CR2_START);
 673              		.loc 1 736 0
 674 01ca 23F40053 		bic	r3, r3, #8192
 675              	.L62:
 676 01ce 4360     		str	r3, [r0, #4]
 677 01d0 7047     		bx	lr
 678              		.cfi_endproc
 679              	.LFE129:
 681              		.align	1
 682              		.global	I2C_GenerateSTOP
 683              		.thumb
 684              		.thumb_func
 686              	I2C_GenerateSTOP:
 687              	.LFB130:
 737:/home/user/Desktop/STM32-Projekte/FH-Vertibot/src/STM32F30x_StdPeriph_Driver/src/stm32f30x_i2c.c ****   }
 738:/home/user/Desktop/STM32-Projekte/FH-Vertibot/src/STM32F30x_StdPeriph_Driver/src/stm32f30x_i2c.c **** }  
 739:/home/user/Desktop/STM32-Projekte/FH-Vertibot/src/STM32F30x_StdPeriph_Driver/src/stm32f30x_i2c.c ****   
 740:/home/user/Desktop/STM32-Projekte/FH-Vertibot/src/STM32F30x_StdPeriph_Driver/src/stm32f30x_i2c.c **** /**
 741:/home/user/Desktop/STM32-Projekte/FH-Vertibot/src/STM32F30x_StdPeriph_Driver/src/stm32f30x_i2c.c ****   * @brief  Generates I2Cx communication STOP condition.
 742:/home/user/Desktop/STM32-Projekte/FH-Vertibot/src/STM32F30x_StdPeriph_Driver/src/stm32f30x_i2c.c ****   * @param  I2Cx: where x can be 1 or 2 to select the I2C peripheral.
 743:/home/user/Desktop/STM32-Projekte/FH-Vertibot/src/STM32F30x_StdPeriph_Driver/src/stm32f30x_i2c.c ****   * @param  NewState: new state of the I2C STOP condition generation.
 744:/home/user/Desktop/STM32-Projekte/FH-Vertibot/src/STM32F30x_StdPeriph_Driver/src/stm32f30x_i2c.c ****   *   This parameter can be: ENABLE or DISABLE.
 745:/home/user/Desktop/STM32-Projekte/FH-Vertibot/src/STM32F30x_StdPeriph_Driver/src/stm32f30x_i2c.c ****   * @retval None
 746:/home/user/Desktop/STM32-Projekte/FH-Vertibot/src/STM32F30x_StdPeriph_Driver/src/stm32f30x_i2c.c ****   */
 747:/home/user/Desktop/STM32-Projekte/FH-Vertibot/src/STM32F30x_StdPeriph_Driver/src/stm32f30x_i2c.c **** void I2C_GenerateSTOP(I2C_TypeDef* I2Cx, FunctionalState NewState)
 748:/home/user/Desktop/STM32-Projekte/FH-Vertibot/src/STM32F30x_StdPeriph_Driver/src/stm32f30x_i2c.c **** {
 688              		.loc 1 748 0
 689              		.cfi_startproc
 690              		@ args = 0, pretend = 0, frame = 0
 691              		@ frame_needed = 0, uses_anonymous_args = 0
 692              		@ link register save eliminated.
 693              	.LVL56:
 749:/home/user/Desktop/STM32-Projekte/FH-Vertibot/src/STM32F30x_StdPeriph_Driver/src/stm32f30x_i2c.c ****   /* Check the parameters */
 750:/home/user/Desktop/STM32-Projekte/FH-Vertibot/src/STM32F30x_StdPeriph_Driver/src/stm32f30x_i2c.c ****   assert_param(IS_I2C_ALL_PERIPH(I2Cx));
 751:/home/user/Desktop/STM32-Projekte/FH-Vertibot/src/STM32F30x_StdPeriph_Driver/src/stm32f30x_i2c.c ****   assert_param(IS_FUNCTIONAL_STATE(NewState));
 752:/home/user/Desktop/STM32-Projekte/FH-Vertibot/src/STM32F30x_StdPeriph_Driver/src/stm32f30x_i2c.c ****   
 753:/home/user/Desktop/STM32-Projekte/FH-Vertibot/src/STM32F30x_StdPeriph_Driver/src/stm32f30x_i2c.c ****   if (NewState != DISABLE)
 754:/home/user/Desktop/STM32-Projekte/FH-Vertibot/src/STM32F30x_StdPeriph_Driver/src/stm32f30x_i2c.c ****   {
 755:/home/user/Desktop/STM32-Projekte/FH-Vertibot/src/STM32F30x_StdPeriph_Driver/src/stm32f30x_i2c.c ****     /* Generate a STOP condition */
 756:/home/user/Desktop/STM32-Projekte/FH-Vertibot/src/STM32F30x_StdPeriph_Driver/src/stm32f30x_i2c.c ****     I2Cx->CR2 |= I2C_CR2_STOP;
 694              		.loc 1 756 0
 695 01d2 4368     		ldr	r3, [r0, #4]
 753:/home/user/Desktop/STM32-Projekte/FH-Vertibot/src/STM32F30x_StdPeriph_Driver/src/stm32f30x_i2c.c ****   if (NewState != DISABLE)
 696              		.loc 1 753 0
 697 01d4 11B1     		cbz	r1, .L64
 698              		.loc 1 756 0
 699 01d6 43F48043 		orr	r3, r3, #16384
 700 01da 01E0     		b	.L66
 701              	.L64:
 757:/home/user/Desktop/STM32-Projekte/FH-Vertibot/src/STM32F30x_StdPeriph_Driver/src/stm32f30x_i2c.c ****   }
 758:/home/user/Desktop/STM32-Projekte/FH-Vertibot/src/STM32F30x_StdPeriph_Driver/src/stm32f30x_i2c.c ****   else
 759:/home/user/Desktop/STM32-Projekte/FH-Vertibot/src/STM32F30x_StdPeriph_Driver/src/stm32f30x_i2c.c ****   {
 760:/home/user/Desktop/STM32-Projekte/FH-Vertibot/src/STM32F30x_StdPeriph_Driver/src/stm32f30x_i2c.c ****     /* Disable the STOP condition generation */
 761:/home/user/Desktop/STM32-Projekte/FH-Vertibot/src/STM32F30x_StdPeriph_Driver/src/stm32f30x_i2c.c ****     I2Cx->CR2 &= (uint32_t)~((uint32_t)I2C_CR2_STOP);
 702              		.loc 1 761 0
 703 01dc 23F48043 		bic	r3, r3, #16384
 704              	.L66:
 705 01e0 4360     		str	r3, [r0, #4]
 706 01e2 7047     		bx	lr
 707              		.cfi_endproc
 708              	.LFE130:
 710              		.align	1
 711              		.global	I2C_10BitAddressHeaderCmd
 712              		.thumb
 713              		.thumb_func
 715              	I2C_10BitAddressHeaderCmd:
 716              	.LFB131:
 762:/home/user/Desktop/STM32-Projekte/FH-Vertibot/src/STM32F30x_StdPeriph_Driver/src/stm32f30x_i2c.c ****   }
 763:/home/user/Desktop/STM32-Projekte/FH-Vertibot/src/STM32F30x_StdPeriph_Driver/src/stm32f30x_i2c.c **** }  
 764:/home/user/Desktop/STM32-Projekte/FH-Vertibot/src/STM32F30x_StdPeriph_Driver/src/stm32f30x_i2c.c **** 
 765:/home/user/Desktop/STM32-Projekte/FH-Vertibot/src/STM32F30x_StdPeriph_Driver/src/stm32f30x_i2c.c **** /**
 766:/home/user/Desktop/STM32-Projekte/FH-Vertibot/src/STM32F30x_StdPeriph_Driver/src/stm32f30x_i2c.c ****   * @brief  Enables or disables the I2C 10-bit header only mode with read direction.
 767:/home/user/Desktop/STM32-Projekte/FH-Vertibot/src/STM32F30x_StdPeriph_Driver/src/stm32f30x_i2c.c ****   * @param  I2Cx: where x can be 1 or 2 to select the I2C peripheral.
 768:/home/user/Desktop/STM32-Projekte/FH-Vertibot/src/STM32F30x_StdPeriph_Driver/src/stm32f30x_i2c.c ****   * @param  NewState: new state of the I2C 10-bit header only mode.
 769:/home/user/Desktop/STM32-Projekte/FH-Vertibot/src/STM32F30x_StdPeriph_Driver/src/stm32f30x_i2c.c ****   *   This parameter can be: ENABLE or DISABLE.
 770:/home/user/Desktop/STM32-Projekte/FH-Vertibot/src/STM32F30x_StdPeriph_Driver/src/stm32f30x_i2c.c ****   * @note   This mode can be used only when switching from master transmitter mode 
 771:/home/user/Desktop/STM32-Projekte/FH-Vertibot/src/STM32F30x_StdPeriph_Driver/src/stm32f30x_i2c.c ****   *         to master receiver mode.        
 772:/home/user/Desktop/STM32-Projekte/FH-Vertibot/src/STM32F30x_StdPeriph_Driver/src/stm32f30x_i2c.c ****   * @retval None
 773:/home/user/Desktop/STM32-Projekte/FH-Vertibot/src/STM32F30x_StdPeriph_Driver/src/stm32f30x_i2c.c ****   */
 774:/home/user/Desktop/STM32-Projekte/FH-Vertibot/src/STM32F30x_StdPeriph_Driver/src/stm32f30x_i2c.c **** void I2C_10BitAddressHeaderCmd(I2C_TypeDef* I2Cx, FunctionalState NewState)
 775:/home/user/Desktop/STM32-Projekte/FH-Vertibot/src/STM32F30x_StdPeriph_Driver/src/stm32f30x_i2c.c **** {
 717              		.loc 1 775 0
 718              		.cfi_startproc
 719              		@ args = 0, pretend = 0, frame = 0
 720              		@ frame_needed = 0, uses_anonymous_args = 0
 721              		@ link register save eliminated.
 722              	.LVL57:
 776:/home/user/Desktop/STM32-Projekte/FH-Vertibot/src/STM32F30x_StdPeriph_Driver/src/stm32f30x_i2c.c ****   /* Check the parameters */
 777:/home/user/Desktop/STM32-Projekte/FH-Vertibot/src/STM32F30x_StdPeriph_Driver/src/stm32f30x_i2c.c ****   assert_param(IS_I2C_ALL_PERIPH(I2Cx));
 778:/home/user/Desktop/STM32-Projekte/FH-Vertibot/src/STM32F30x_StdPeriph_Driver/src/stm32f30x_i2c.c ****   assert_param(IS_FUNCTIONAL_STATE(NewState));
 779:/home/user/Desktop/STM32-Projekte/FH-Vertibot/src/STM32F30x_StdPeriph_Driver/src/stm32f30x_i2c.c ****   
 780:/home/user/Desktop/STM32-Projekte/FH-Vertibot/src/STM32F30x_StdPeriph_Driver/src/stm32f30x_i2c.c ****   if (NewState != DISABLE)
 781:/home/user/Desktop/STM32-Projekte/FH-Vertibot/src/STM32F30x_StdPeriph_Driver/src/stm32f30x_i2c.c ****   {
 782:/home/user/Desktop/STM32-Projekte/FH-Vertibot/src/STM32F30x_StdPeriph_Driver/src/stm32f30x_i2c.c ****     /* Enable 10-bit header only mode */
 783:/home/user/Desktop/STM32-Projekte/FH-Vertibot/src/STM32F30x_StdPeriph_Driver/src/stm32f30x_i2c.c ****     I2Cx->CR2 |= I2C_CR2_HEAD10R;
 723              		.loc 1 783 0
 724 01e4 4368     		ldr	r3, [r0, #4]
 780:/home/user/Desktop/STM32-Projekte/FH-Vertibot/src/STM32F30x_StdPeriph_Driver/src/stm32f30x_i2c.c ****   if (NewState != DISABLE)
 725              		.loc 1 780 0
 726 01e6 11B1     		cbz	r1, .L68
 727              		.loc 1 783 0
 728 01e8 43F48053 		orr	r3, r3, #4096
 729 01ec 01E0     		b	.L70
 730              	.L68:
 784:/home/user/Desktop/STM32-Projekte/FH-Vertibot/src/STM32F30x_StdPeriph_Driver/src/stm32f30x_i2c.c ****   }
 785:/home/user/Desktop/STM32-Projekte/FH-Vertibot/src/STM32F30x_StdPeriph_Driver/src/stm32f30x_i2c.c ****   else
 786:/home/user/Desktop/STM32-Projekte/FH-Vertibot/src/STM32F30x_StdPeriph_Driver/src/stm32f30x_i2c.c ****   {
 787:/home/user/Desktop/STM32-Projekte/FH-Vertibot/src/STM32F30x_StdPeriph_Driver/src/stm32f30x_i2c.c ****     /* Disable 10-bit header only mode */
 788:/home/user/Desktop/STM32-Projekte/FH-Vertibot/src/STM32F30x_StdPeriph_Driver/src/stm32f30x_i2c.c ****     I2Cx->CR2 &= (uint32_t)~((uint32_t)I2C_CR2_HEAD10R);
 731              		.loc 1 788 0
 732 01ee 23F48053 		bic	r3, r3, #4096
 733              	.L70:
 734 01f2 4360     		str	r3, [r0, #4]
 735 01f4 7047     		bx	lr
 736              		.cfi_endproc
 737              	.LFE131:
 739              		.align	1
 740              		.global	I2C_AcknowledgeConfig
 741              		.thumb
 742              		.thumb_func
 744              	I2C_AcknowledgeConfig:
 745              	.LFB132:
 789:/home/user/Desktop/STM32-Projekte/FH-Vertibot/src/STM32F30x_StdPeriph_Driver/src/stm32f30x_i2c.c ****   }
 790:/home/user/Desktop/STM32-Projekte/FH-Vertibot/src/STM32F30x_StdPeriph_Driver/src/stm32f30x_i2c.c **** }    
 791:/home/user/Desktop/STM32-Projekte/FH-Vertibot/src/STM32F30x_StdPeriph_Driver/src/stm32f30x_i2c.c **** 
 792:/home/user/Desktop/STM32-Projekte/FH-Vertibot/src/STM32F30x_StdPeriph_Driver/src/stm32f30x_i2c.c **** /**
 793:/home/user/Desktop/STM32-Projekte/FH-Vertibot/src/STM32F30x_StdPeriph_Driver/src/stm32f30x_i2c.c ****   * @brief  Generates I2C communication Acknowledge.
 794:/home/user/Desktop/STM32-Projekte/FH-Vertibot/src/STM32F30x_StdPeriph_Driver/src/stm32f30x_i2c.c ****   * @param  I2Cx: where x can be 1 or 2 to select the I2C peripheral.
 795:/home/user/Desktop/STM32-Projekte/FH-Vertibot/src/STM32F30x_StdPeriph_Driver/src/stm32f30x_i2c.c ****   * @param  NewState: new state of the Acknowledge.
 796:/home/user/Desktop/STM32-Projekte/FH-Vertibot/src/STM32F30x_StdPeriph_Driver/src/stm32f30x_i2c.c ****   *   This parameter can be: ENABLE or DISABLE.  
 797:/home/user/Desktop/STM32-Projekte/FH-Vertibot/src/STM32F30x_StdPeriph_Driver/src/stm32f30x_i2c.c ****   * @retval None
 798:/home/user/Desktop/STM32-Projekte/FH-Vertibot/src/STM32F30x_StdPeriph_Driver/src/stm32f30x_i2c.c ****   */
 799:/home/user/Desktop/STM32-Projekte/FH-Vertibot/src/STM32F30x_StdPeriph_Driver/src/stm32f30x_i2c.c **** void I2C_AcknowledgeConfig(I2C_TypeDef* I2Cx, FunctionalState NewState)
 800:/home/user/Desktop/STM32-Projekte/FH-Vertibot/src/STM32F30x_StdPeriph_Driver/src/stm32f30x_i2c.c **** {
 746              		.loc 1 800 0
 747              		.cfi_startproc
 748              		@ args = 0, pretend = 0, frame = 0
 749              		@ frame_needed = 0, uses_anonymous_args = 0
 750              		@ link register save eliminated.
 751              	.LVL58:
 801:/home/user/Desktop/STM32-Projekte/FH-Vertibot/src/STM32F30x_StdPeriph_Driver/src/stm32f30x_i2c.c ****   /* Check the parameters */
 802:/home/user/Desktop/STM32-Projekte/FH-Vertibot/src/STM32F30x_StdPeriph_Driver/src/stm32f30x_i2c.c ****   assert_param(IS_I2C_ALL_PERIPH(I2Cx));
 803:/home/user/Desktop/STM32-Projekte/FH-Vertibot/src/STM32F30x_StdPeriph_Driver/src/stm32f30x_i2c.c ****   assert_param(IS_FUNCTIONAL_STATE(NewState));
 804:/home/user/Desktop/STM32-Projekte/FH-Vertibot/src/STM32F30x_StdPeriph_Driver/src/stm32f30x_i2c.c ****   
 805:/home/user/Desktop/STM32-Projekte/FH-Vertibot/src/STM32F30x_StdPeriph_Driver/src/stm32f30x_i2c.c ****   if (NewState != DISABLE)
 806:/home/user/Desktop/STM32-Projekte/FH-Vertibot/src/STM32F30x_StdPeriph_Driver/src/stm32f30x_i2c.c ****   {
 807:/home/user/Desktop/STM32-Projekte/FH-Vertibot/src/STM32F30x_StdPeriph_Driver/src/stm32f30x_i2c.c ****     /* Enable ACK generation */
 808:/home/user/Desktop/STM32-Projekte/FH-Vertibot/src/STM32F30x_StdPeriph_Driver/src/stm32f30x_i2c.c ****     I2Cx->CR2 &= (uint32_t)~((uint32_t)I2C_CR2_NACK);    
 752              		.loc 1 808 0
 753 01f6 4368     		ldr	r3, [r0, #4]
 805:/home/user/Desktop/STM32-Projekte/FH-Vertibot/src/STM32F30x_StdPeriph_Driver/src/stm32f30x_i2c.c ****   if (NewState != DISABLE)
 754              		.loc 1 805 0
 755 01f8 11B1     		cbz	r1, .L72
 756              		.loc 1 808 0
 757 01fa 23F40043 		bic	r3, r3, #32768
 758 01fe 01E0     		b	.L74
 759              	.L72:
 809:/home/user/Desktop/STM32-Projekte/FH-Vertibot/src/STM32F30x_StdPeriph_Driver/src/stm32f30x_i2c.c ****   }
 810:/home/user/Desktop/STM32-Projekte/FH-Vertibot/src/STM32F30x_StdPeriph_Driver/src/stm32f30x_i2c.c ****   else
 811:/home/user/Desktop/STM32-Projekte/FH-Vertibot/src/STM32F30x_StdPeriph_Driver/src/stm32f30x_i2c.c ****   {
 812:/home/user/Desktop/STM32-Projekte/FH-Vertibot/src/STM32F30x_StdPeriph_Driver/src/stm32f30x_i2c.c ****     /* Enable NACK generation */
 813:/home/user/Desktop/STM32-Projekte/FH-Vertibot/src/STM32F30x_StdPeriph_Driver/src/stm32f30x_i2c.c ****     I2Cx->CR2 |= I2C_CR2_NACK;
 760              		.loc 1 813 0
 761 0200 43F40043 		orr	r3, r3, #32768
 762              	.L74:
 763 0204 4360     		str	r3, [r0, #4]
 764 0206 7047     		bx	lr
 765              		.cfi_endproc
 766              	.LFE132:
 768              		.align	1
 769              		.global	I2C_GetAddressMatched
 770              		.thumb
 771              		.thumb_func
 773              	I2C_GetAddressMatched:
 774              	.LFB133:
 814:/home/user/Desktop/STM32-Projekte/FH-Vertibot/src/STM32F30x_StdPeriph_Driver/src/stm32f30x_i2c.c ****   }
 815:/home/user/Desktop/STM32-Projekte/FH-Vertibot/src/STM32F30x_StdPeriph_Driver/src/stm32f30x_i2c.c **** }
 816:/home/user/Desktop/STM32-Projekte/FH-Vertibot/src/STM32F30x_StdPeriph_Driver/src/stm32f30x_i2c.c **** 
 817:/home/user/Desktop/STM32-Projekte/FH-Vertibot/src/STM32F30x_StdPeriph_Driver/src/stm32f30x_i2c.c **** /**
 818:/home/user/Desktop/STM32-Projekte/FH-Vertibot/src/STM32F30x_StdPeriph_Driver/src/stm32f30x_i2c.c ****   * @brief  Returns the I2C slave matched address .
 819:/home/user/Desktop/STM32-Projekte/FH-Vertibot/src/STM32F30x_StdPeriph_Driver/src/stm32f30x_i2c.c ****   * @param  I2Cx: where x can be 1 or 2 to select the I2C peripheral.
 820:/home/user/Desktop/STM32-Projekte/FH-Vertibot/src/STM32F30x_StdPeriph_Driver/src/stm32f30x_i2c.c ****   * @retval The value of the slave matched address .
 821:/home/user/Desktop/STM32-Projekte/FH-Vertibot/src/STM32F30x_StdPeriph_Driver/src/stm32f30x_i2c.c ****   */
 822:/home/user/Desktop/STM32-Projekte/FH-Vertibot/src/STM32F30x_StdPeriph_Driver/src/stm32f30x_i2c.c **** uint8_t I2C_GetAddressMatched(I2C_TypeDef* I2Cx)
 823:/home/user/Desktop/STM32-Projekte/FH-Vertibot/src/STM32F30x_StdPeriph_Driver/src/stm32f30x_i2c.c **** {
 775              		.loc 1 823 0
 776              		.cfi_startproc
 777              		@ args = 0, pretend = 0, frame = 0
 778              		@ frame_needed = 0, uses_anonymous_args = 0
 779              		@ link register save eliminated.
 780              	.LVL59:
 824:/home/user/Desktop/STM32-Projekte/FH-Vertibot/src/STM32F30x_StdPeriph_Driver/src/stm32f30x_i2c.c ****   /* Check the parameters */
 825:/home/user/Desktop/STM32-Projekte/FH-Vertibot/src/STM32F30x_StdPeriph_Driver/src/stm32f30x_i2c.c ****   assert_param(IS_I2C_ALL_PERIPH(I2Cx));
 826:/home/user/Desktop/STM32-Projekte/FH-Vertibot/src/STM32F30x_StdPeriph_Driver/src/stm32f30x_i2c.c ****   
 827:/home/user/Desktop/STM32-Projekte/FH-Vertibot/src/STM32F30x_StdPeriph_Driver/src/stm32f30x_i2c.c ****   /* Return the slave matched address in the SR1 register */
 828:/home/user/Desktop/STM32-Projekte/FH-Vertibot/src/STM32F30x_StdPeriph_Driver/src/stm32f30x_i2c.c ****   return (uint8_t)(((uint32_t)I2Cx->ISR & I2C_ISR_ADDCODE) >> 16) ;
 781              		.loc 1 828 0
 782 0208 8069     		ldr	r0, [r0, #24]
 783              	.LVL60:
 784 020a 00F47E00 		and	r0, r0, #16646144
 829:/home/user/Desktop/STM32-Projekte/FH-Vertibot/src/STM32F30x_StdPeriph_Driver/src/stm32f30x_i2c.c **** }
 785              		.loc 1 829 0
 786 020e 000C     		lsrs	r0, r0, #16
 787 0210 7047     		bx	lr
 788              		.cfi_endproc
 789              	.LFE133:
 791              		.align	1
 792              		.global	I2C_GetTransferDirection
 793              		.thumb
 794              		.thumb_func
 796              	I2C_GetTransferDirection:
 797              	.LFB134:
 830:/home/user/Desktop/STM32-Projekte/FH-Vertibot/src/STM32F30x_StdPeriph_Driver/src/stm32f30x_i2c.c **** 
 831:/home/user/Desktop/STM32-Projekte/FH-Vertibot/src/STM32F30x_StdPeriph_Driver/src/stm32f30x_i2c.c **** /**
 832:/home/user/Desktop/STM32-Projekte/FH-Vertibot/src/STM32F30x_StdPeriph_Driver/src/stm32f30x_i2c.c ****   * @brief  Returns the I2C slave received request.
 833:/home/user/Desktop/STM32-Projekte/FH-Vertibot/src/STM32F30x_StdPeriph_Driver/src/stm32f30x_i2c.c ****   * @param  I2Cx: where x can be 1 or 2 to select the I2C peripheral.
 834:/home/user/Desktop/STM32-Projekte/FH-Vertibot/src/STM32F30x_StdPeriph_Driver/src/stm32f30x_i2c.c ****   * @retval The value of the received request.
 835:/home/user/Desktop/STM32-Projekte/FH-Vertibot/src/STM32F30x_StdPeriph_Driver/src/stm32f30x_i2c.c ****   */
 836:/home/user/Desktop/STM32-Projekte/FH-Vertibot/src/STM32F30x_StdPeriph_Driver/src/stm32f30x_i2c.c **** uint16_t I2C_GetTransferDirection(I2C_TypeDef* I2Cx)
 837:/home/user/Desktop/STM32-Projekte/FH-Vertibot/src/STM32F30x_StdPeriph_Driver/src/stm32f30x_i2c.c **** {
 798              		.loc 1 837 0
 799              		.cfi_startproc
 800              		@ args = 0, pretend = 0, frame = 0
 801              		@ frame_needed = 0, uses_anonymous_args = 0
 802              		@ link register save eliminated.
 803              	.LVL61:
 838:/home/user/Desktop/STM32-Projekte/FH-Vertibot/src/STM32F30x_StdPeriph_Driver/src/stm32f30x_i2c.c ****   uint32_t tmpreg = 0;
 839:/home/user/Desktop/STM32-Projekte/FH-Vertibot/src/STM32F30x_StdPeriph_Driver/src/stm32f30x_i2c.c ****   uint16_t direction = 0;
 840:/home/user/Desktop/STM32-Projekte/FH-Vertibot/src/STM32F30x_StdPeriph_Driver/src/stm32f30x_i2c.c ****   
 841:/home/user/Desktop/STM32-Projekte/FH-Vertibot/src/STM32F30x_StdPeriph_Driver/src/stm32f30x_i2c.c ****   /* Check the parameters */
 842:/home/user/Desktop/STM32-Projekte/FH-Vertibot/src/STM32F30x_StdPeriph_Driver/src/stm32f30x_i2c.c ****   assert_param(IS_I2C_ALL_PERIPH(I2Cx));
 843:/home/user/Desktop/STM32-Projekte/FH-Vertibot/src/STM32F30x_StdPeriph_Driver/src/stm32f30x_i2c.c ****   
 844:/home/user/Desktop/STM32-Projekte/FH-Vertibot/src/STM32F30x_StdPeriph_Driver/src/stm32f30x_i2c.c ****   /* Return the slave matched address in the SR1 register */
 845:/home/user/Desktop/STM32-Projekte/FH-Vertibot/src/STM32F30x_StdPeriph_Driver/src/stm32f30x_i2c.c ****   tmpreg = (uint32_t)(I2Cx->ISR & I2C_ISR_DIR);
 804              		.loc 1 845 0
 805 0212 8369     		ldr	r3, [r0, #24]
 806              	.LVL62:
 846:/home/user/Desktop/STM32-Projekte/FH-Vertibot/src/STM32F30x_StdPeriph_Driver/src/stm32f30x_i2c.c ****   
 847:/home/user/Desktop/STM32-Projekte/FH-Vertibot/src/STM32F30x_StdPeriph_Driver/src/stm32f30x_i2c.c ****   /* If write transfer is requested */
 848:/home/user/Desktop/STM32-Projekte/FH-Vertibot/src/STM32F30x_StdPeriph_Driver/src/stm32f30x_i2c.c ****   if (tmpreg == 0)
 807              		.loc 1 848 0
 808 0214 13F4803F 		tst	r3, #65536
 809              	.LVL63:
 849:/home/user/Desktop/STM32-Projekte/FH-Vertibot/src/STM32F30x_StdPeriph_Driver/src/stm32f30x_i2c.c ****   {
 850:/home/user/Desktop/STM32-Projekte/FH-Vertibot/src/STM32F30x_StdPeriph_Driver/src/stm32f30x_i2c.c ****     /* write transfer is requested */
 851:/home/user/Desktop/STM32-Projekte/FH-Vertibot/src/STM32F30x_StdPeriph_Driver/src/stm32f30x_i2c.c ****     direction = I2C_Direction_Transmitter;
 852:/home/user/Desktop/STM32-Projekte/FH-Vertibot/src/STM32F30x_StdPeriph_Driver/src/stm32f30x_i2c.c ****   }
 853:/home/user/Desktop/STM32-Projekte/FH-Vertibot/src/STM32F30x_StdPeriph_Driver/src/stm32f30x_i2c.c ****   else
 854:/home/user/Desktop/STM32-Projekte/FH-Vertibot/src/STM32F30x_StdPeriph_Driver/src/stm32f30x_i2c.c ****   {
 855:/home/user/Desktop/STM32-Projekte/FH-Vertibot/src/STM32F30x_StdPeriph_Driver/src/stm32f30x_i2c.c ****     /* Read transfer is requested */
 856:/home/user/Desktop/STM32-Projekte/FH-Vertibot/src/STM32F30x_StdPeriph_Driver/src/stm32f30x_i2c.c ****     direction = I2C_Direction_Receiver;
 857:/home/user/Desktop/STM32-Projekte/FH-Vertibot/src/STM32F30x_StdPeriph_Driver/src/stm32f30x_i2c.c ****   }  
 858:/home/user/Desktop/STM32-Projekte/FH-Vertibot/src/STM32F30x_StdPeriph_Driver/src/stm32f30x_i2c.c ****   return direction;
 859:/home/user/Desktop/STM32-Projekte/FH-Vertibot/src/STM32F30x_StdPeriph_Driver/src/stm32f30x_i2c.c **** }
 810              		.loc 1 859 0
 811 0218 14BF     		ite	ne
 812 021a 4FF48060 		movne	r0, #1024
 813 021e 0020     		moveq	r0, #0
 814              	.LVL64:
 815 0220 7047     		bx	lr
 816              		.cfi_endproc
 817              	.LFE134:
 819              		.align	1
 820              		.global	I2C_TransferHandling
 821              		.thumb
 822              		.thumb_func
 824              	I2C_TransferHandling:
 825              	.LFB135:
 860:/home/user/Desktop/STM32-Projekte/FH-Vertibot/src/STM32F30x_StdPeriph_Driver/src/stm32f30x_i2c.c **** 
 861:/home/user/Desktop/STM32-Projekte/FH-Vertibot/src/STM32F30x_StdPeriph_Driver/src/stm32f30x_i2c.c **** /**
 862:/home/user/Desktop/STM32-Projekte/FH-Vertibot/src/STM32F30x_StdPeriph_Driver/src/stm32f30x_i2c.c ****   * @brief  Handles I2Cx communication when starting transfer or during transfer (TC or TCR flag ar
 863:/home/user/Desktop/STM32-Projekte/FH-Vertibot/src/STM32F30x_StdPeriph_Driver/src/stm32f30x_i2c.c ****   * @param  I2Cx: where x can be 1 or 2 to select the I2C peripheral.
 864:/home/user/Desktop/STM32-Projekte/FH-Vertibot/src/STM32F30x_StdPeriph_Driver/src/stm32f30x_i2c.c ****   * @param  Address: specifies the slave address to be programmed.
 865:/home/user/Desktop/STM32-Projekte/FH-Vertibot/src/STM32F30x_StdPeriph_Driver/src/stm32f30x_i2c.c ****   * @param  Number_Bytes: specifies the number of bytes to be programmed.
 866:/home/user/Desktop/STM32-Projekte/FH-Vertibot/src/STM32F30x_StdPeriph_Driver/src/stm32f30x_i2c.c ****   *   This parameter must be a value between 0 and 255.
 867:/home/user/Desktop/STM32-Projekte/FH-Vertibot/src/STM32F30x_StdPeriph_Driver/src/stm32f30x_i2c.c ****   * @param  ReloadEndMode: new state of the I2C START condition generation.
 868:/home/user/Desktop/STM32-Projekte/FH-Vertibot/src/STM32F30x_StdPeriph_Driver/src/stm32f30x_i2c.c ****   *   This parameter can be one of the following values:
 869:/home/user/Desktop/STM32-Projekte/FH-Vertibot/src/STM32F30x_StdPeriph_Driver/src/stm32f30x_i2c.c ****   *     @arg I2C_Reload_Mode: Enable Reload mode .
 870:/home/user/Desktop/STM32-Projekte/FH-Vertibot/src/STM32F30x_StdPeriph_Driver/src/stm32f30x_i2c.c ****   *     @arg I2C_AutoEnd_Mode: Enable Automatic end mode.
 871:/home/user/Desktop/STM32-Projekte/FH-Vertibot/src/STM32F30x_StdPeriph_Driver/src/stm32f30x_i2c.c ****   *     @arg I2C_SoftEnd_Mode: Enable Software end mode.
 872:/home/user/Desktop/STM32-Projekte/FH-Vertibot/src/STM32F30x_StdPeriph_Driver/src/stm32f30x_i2c.c ****   * @param  StartStopMode: new state of the I2C START condition generation.
 873:/home/user/Desktop/STM32-Projekte/FH-Vertibot/src/STM32F30x_StdPeriph_Driver/src/stm32f30x_i2c.c ****   *   This parameter can be one of the following values:
 874:/home/user/Desktop/STM32-Projekte/FH-Vertibot/src/STM32F30x_StdPeriph_Driver/src/stm32f30x_i2c.c ****   *     @arg I2C_No_StartStop: Don't Generate stop and start condition.
 875:/home/user/Desktop/STM32-Projekte/FH-Vertibot/src/STM32F30x_StdPeriph_Driver/src/stm32f30x_i2c.c ****   *     @arg I2C_Generate_Stop: Generate stop condition (Number_Bytes should be set to 0).
 876:/home/user/Desktop/STM32-Projekte/FH-Vertibot/src/STM32F30x_StdPeriph_Driver/src/stm32f30x_i2c.c ****   *     @arg I2C_Generate_Start_Read: Generate Restart for read request.
 877:/home/user/Desktop/STM32-Projekte/FH-Vertibot/src/STM32F30x_StdPeriph_Driver/src/stm32f30x_i2c.c ****   *     @arg I2C_Generate_Start_Write: Generate Restart for write request.
 878:/home/user/Desktop/STM32-Projekte/FH-Vertibot/src/STM32F30x_StdPeriph_Driver/src/stm32f30x_i2c.c ****   * @retval None
 879:/home/user/Desktop/STM32-Projekte/FH-Vertibot/src/STM32F30x_StdPeriph_Driver/src/stm32f30x_i2c.c ****   */
 880:/home/user/Desktop/STM32-Projekte/FH-Vertibot/src/STM32F30x_StdPeriph_Driver/src/stm32f30x_i2c.c **** void I2C_TransferHandling(I2C_TypeDef* I2Cx, uint16_t Address, uint8_t Number_Bytes, uint32_t Reloa
 881:/home/user/Desktop/STM32-Projekte/FH-Vertibot/src/STM32F30x_StdPeriph_Driver/src/stm32f30x_i2c.c **** {
 826              		.loc 1 881 0
 827              		.cfi_startproc
 828              		@ args = 4, pretend = 0, frame = 0
 829              		@ frame_needed = 0, uses_anonymous_args = 0
 830              	.LVL65:
 831 0222 30B5     		push	{r4, r5, lr}
 832              	.LCFI1:
 833              		.cfi_def_cfa_offset 12
 834              		.cfi_offset 4, -12
 835              		.cfi_offset 5, -8
 836              		.cfi_offset 14, -4
 882:/home/user/Desktop/STM32-Projekte/FH-Vertibot/src/STM32F30x_StdPeriph_Driver/src/stm32f30x_i2c.c ****   uint32_t tmpreg = 0;
 883:/home/user/Desktop/STM32-Projekte/FH-Vertibot/src/STM32F30x_StdPeriph_Driver/src/stm32f30x_i2c.c ****   
 884:/home/user/Desktop/STM32-Projekte/FH-Vertibot/src/STM32F30x_StdPeriph_Driver/src/stm32f30x_i2c.c ****   /* Check the parameters */
 885:/home/user/Desktop/STM32-Projekte/FH-Vertibot/src/STM32F30x_StdPeriph_Driver/src/stm32f30x_i2c.c ****   assert_param(IS_I2C_ALL_PERIPH(I2Cx));
 886:/home/user/Desktop/STM32-Projekte/FH-Vertibot/src/STM32F30x_StdPeriph_Driver/src/stm32f30x_i2c.c ****   assert_param(IS_I2C_SLAVE_ADDRESS(Address));  
 887:/home/user/Desktop/STM32-Projekte/FH-Vertibot/src/STM32F30x_StdPeriph_Driver/src/stm32f30x_i2c.c ****   assert_param(IS_RELOAD_END_MODE(ReloadEndMode));
 888:/home/user/Desktop/STM32-Projekte/FH-Vertibot/src/STM32F30x_StdPeriph_Driver/src/stm32f30x_i2c.c ****   assert_param(IS_START_STOP_MODE(StartStopMode));
 889:/home/user/Desktop/STM32-Projekte/FH-Vertibot/src/STM32F30x_StdPeriph_Driver/src/stm32f30x_i2c.c ****     
 890:/home/user/Desktop/STM32-Projekte/FH-Vertibot/src/STM32F30x_StdPeriph_Driver/src/stm32f30x_i2c.c ****   /* Get the CR2 register value */
 891:/home/user/Desktop/STM32-Projekte/FH-Vertibot/src/STM32F30x_StdPeriph_Driver/src/stm32f30x_i2c.c ****   tmpreg = I2Cx->CR2;
 837              		.loc 1 891 0
 838 0224 4568     		ldr	r5, [r0, #4]
 839              	.LVL66:
 892:/home/user/Desktop/STM32-Projekte/FH-Vertibot/src/STM32F30x_StdPeriph_Driver/src/stm32f30x_i2c.c ****   
 893:/home/user/Desktop/STM32-Projekte/FH-Vertibot/src/STM32F30x_StdPeriph_Driver/src/stm32f30x_i2c.c ****   /* clear tmpreg specific bits */
 894:/home/user/Desktop/STM32-Projekte/FH-Vertibot/src/STM32F30x_StdPeriph_Driver/src/stm32f30x_i2c.c ****   tmpreg &= (uint32_t)~((uint32_t)(I2C_CR2_SADD | I2C_CR2_NBYTES | I2C_CR2_RELOAD | I2C_CR2_AUTOEND
 895:/home/user/Desktop/STM32-Projekte/FH-Vertibot/src/STM32F30x_StdPeriph_Driver/src/stm32f30x_i2c.c ****   
 896:/home/user/Desktop/STM32-Projekte/FH-Vertibot/src/STM32F30x_StdPeriph_Driver/src/stm32f30x_i2c.c ****   /* update tmpreg */
 897:/home/user/Desktop/STM32-Projekte/FH-Vertibot/src/STM32F30x_StdPeriph_Driver/src/stm32f30x_i2c.c ****   tmpreg |= (uint32_t)(((uint32_t)Address & I2C_CR2_SADD) | (((uint32_t)Number_Bytes << 16 ) & I2C_
 840              		.loc 1 897 0
 841 0226 039C     		ldr	r4, [sp, #12]
 894:/home/user/Desktop/STM32-Projekte/FH-Vertibot/src/STM32F30x_StdPeriph_Driver/src/stm32f30x_i2c.c ****   tmpreg &= (uint32_t)~((uint32_t)(I2C_CR2_SADD | I2C_CR2_NBYTES | I2C_CR2_RELOAD | I2C_CR2_AUTOEND
 842              		.loc 1 894 0
 843 0228 25F07F75 		bic	r5, r5, #66846720
 844              	.LVL67:
 845 022c 25F45935 		bic	r5, r5, #222208
 846 0230 25F47F75 		bic	r5, r5, #1020
 847 0234 25F00305 		bic	r5, r5, #3
 848              		.loc 1 897 0
 849 0238 2C43     		orrs	r4, r4, r5
 850 023a 2343     		orrs	r3, r3, r4
 851              	.LVL68:
 852 023c C1F30901 		ubfx	r1, r1, #0, #10
 853              	.LVL69:
 854 0240 43EA0104 		orr	r4, r3, r1
 855 0244 44EA0242 		orr	r2, r4, r2, lsl #16
 856              	.LVL70:
 898:/home/user/Desktop/STM32-Projekte/FH-Vertibot/src/STM32F30x_StdPeriph_Driver/src/stm32f30x_i2c.c ****             (uint32_t)ReloadEndMode | (uint32_t)StartStopMode);
 899:/home/user/Desktop/STM32-Projekte/FH-Vertibot/src/STM32F30x_StdPeriph_Driver/src/stm32f30x_i2c.c ****   
 900:/home/user/Desktop/STM32-Projekte/FH-Vertibot/src/STM32F30x_StdPeriph_Driver/src/stm32f30x_i2c.c ****   /* update CR2 register */
 901:/home/user/Desktop/STM32-Projekte/FH-Vertibot/src/STM32F30x_StdPeriph_Driver/src/stm32f30x_i2c.c ****   I2Cx->CR2 = tmpreg;  
 857              		.loc 1 901 0
 858 0248 4260     		str	r2, [r0, #4]
 859 024a 30BD     		pop	{r4, r5, pc}
 860              		.cfi_endproc
 861              	.LFE135:
 863              		.align	1
 864              		.global	I2C_SMBusAlertCmd
 865              		.thumb
 866              		.thumb_func
 868              	I2C_SMBusAlertCmd:
 869              	.LFB136:
 902:/home/user/Desktop/STM32-Projekte/FH-Vertibot/src/STM32F30x_StdPeriph_Driver/src/stm32f30x_i2c.c **** }  
 903:/home/user/Desktop/STM32-Projekte/FH-Vertibot/src/STM32F30x_StdPeriph_Driver/src/stm32f30x_i2c.c **** 
 904:/home/user/Desktop/STM32-Projekte/FH-Vertibot/src/STM32F30x_StdPeriph_Driver/src/stm32f30x_i2c.c **** /**
 905:/home/user/Desktop/STM32-Projekte/FH-Vertibot/src/STM32F30x_StdPeriph_Driver/src/stm32f30x_i2c.c ****   * @}
 906:/home/user/Desktop/STM32-Projekte/FH-Vertibot/src/STM32F30x_StdPeriph_Driver/src/stm32f30x_i2c.c ****   */
 907:/home/user/Desktop/STM32-Projekte/FH-Vertibot/src/STM32F30x_StdPeriph_Driver/src/stm32f30x_i2c.c **** 
 908:/home/user/Desktop/STM32-Projekte/FH-Vertibot/src/STM32F30x_StdPeriph_Driver/src/stm32f30x_i2c.c **** 
 909:/home/user/Desktop/STM32-Projekte/FH-Vertibot/src/STM32F30x_StdPeriph_Driver/src/stm32f30x_i2c.c **** /** @defgroup I2C_Group3 SMBUS management functions
 910:/home/user/Desktop/STM32-Projekte/FH-Vertibot/src/STM32F30x_StdPeriph_Driver/src/stm32f30x_i2c.c ****  *  @brief   SMBUS management functions 
 911:/home/user/Desktop/STM32-Projekte/FH-Vertibot/src/STM32F30x_StdPeriph_Driver/src/stm32f30x_i2c.c ****  *
 912:/home/user/Desktop/STM32-Projekte/FH-Vertibot/src/STM32F30x_StdPeriph_Driver/src/stm32f30x_i2c.c **** @verbatim
 913:/home/user/Desktop/STM32-Projekte/FH-Vertibot/src/STM32F30x_StdPeriph_Driver/src/stm32f30x_i2c.c ****  ===============================================================================
 914:/home/user/Desktop/STM32-Projekte/FH-Vertibot/src/STM32F30x_StdPeriph_Driver/src/stm32f30x_i2c.c ****                       ##### SMBUS management functions #####
 915:/home/user/Desktop/STM32-Projekte/FH-Vertibot/src/STM32F30x_StdPeriph_Driver/src/stm32f30x_i2c.c ****  ===============================================================================   
 916:/home/user/Desktop/STM32-Projekte/FH-Vertibot/src/STM32F30x_StdPeriph_Driver/src/stm32f30x_i2c.c ****     [..] This section provides a set of functions that handles SMBus communication
 917:/home/user/Desktop/STM32-Projekte/FH-Vertibot/src/STM32F30x_StdPeriph_Driver/src/stm32f30x_i2c.c ****          and timeouts detection.
 918:/home/user/Desktop/STM32-Projekte/FH-Vertibot/src/STM32F30x_StdPeriph_Driver/src/stm32f30x_i2c.c ****     
 919:/home/user/Desktop/STM32-Projekte/FH-Vertibot/src/STM32F30x_StdPeriph_Driver/src/stm32f30x_i2c.c ****     [..] The SMBus Device default address (0b1100 001) is enabled by calling I2C_Init()
 920:/home/user/Desktop/STM32-Projekte/FH-Vertibot/src/STM32F30x_StdPeriph_Driver/src/stm32f30x_i2c.c ****          function and setting I2C_Mode member of I2C_InitTypeDef() structure to 
 921:/home/user/Desktop/STM32-Projekte/FH-Vertibot/src/STM32F30x_StdPeriph_Driver/src/stm32f30x_i2c.c ****          I2C_Mode_SMBusDevice.
 922:/home/user/Desktop/STM32-Projekte/FH-Vertibot/src/STM32F30x_StdPeriph_Driver/src/stm32f30x_i2c.c ****          
 923:/home/user/Desktop/STM32-Projekte/FH-Vertibot/src/STM32F30x_StdPeriph_Driver/src/stm32f30x_i2c.c ****     [..] The SMBus Host address (0b0001 000) is enabled by calling I2C_Init()
 924:/home/user/Desktop/STM32-Projekte/FH-Vertibot/src/STM32F30x_StdPeriph_Driver/src/stm32f30x_i2c.c ****          function and setting I2C_Mode member of I2C_InitTypeDef() structure to 
 925:/home/user/Desktop/STM32-Projekte/FH-Vertibot/src/STM32F30x_StdPeriph_Driver/src/stm32f30x_i2c.c ****          I2C_Mode_SMBusHost.         
 926:/home/user/Desktop/STM32-Projekte/FH-Vertibot/src/STM32F30x_StdPeriph_Driver/src/stm32f30x_i2c.c ****          
 927:/home/user/Desktop/STM32-Projekte/FH-Vertibot/src/STM32F30x_StdPeriph_Driver/src/stm32f30x_i2c.c ****     [..] The Alert Response Address (0b0001 100) is enabled using I2C_SMBusAlertCmd()
 928:/home/user/Desktop/STM32-Projekte/FH-Vertibot/src/STM32F30x_StdPeriph_Driver/src/stm32f30x_i2c.c ****          function.
 929:/home/user/Desktop/STM32-Projekte/FH-Vertibot/src/STM32F30x_StdPeriph_Driver/src/stm32f30x_i2c.c ****          
 930:/home/user/Desktop/STM32-Projekte/FH-Vertibot/src/STM32F30x_StdPeriph_Driver/src/stm32f30x_i2c.c ****     [..] To detect cumulative SCL stretch in master and slave mode, TIMEOUTB should be 
 931:/home/user/Desktop/STM32-Projekte/FH-Vertibot/src/STM32F30x_StdPeriph_Driver/src/stm32f30x_i2c.c ****          configured (in accordance to SMBus specification) using I2C_TimeoutBConfig() 
 932:/home/user/Desktop/STM32-Projekte/FH-Vertibot/src/STM32F30x_StdPeriph_Driver/src/stm32f30x_i2c.c ****          function then I2C_ExtendedClockTimeoutCmd() function should be called to enable
 933:/home/user/Desktop/STM32-Projekte/FH-Vertibot/src/STM32F30x_StdPeriph_Driver/src/stm32f30x_i2c.c ****          the detection.
 934:/home/user/Desktop/STM32-Projekte/FH-Vertibot/src/STM32F30x_StdPeriph_Driver/src/stm32f30x_i2c.c ****          
 935:/home/user/Desktop/STM32-Projekte/FH-Vertibot/src/STM32F30x_StdPeriph_Driver/src/stm32f30x_i2c.c ****     [..] SCL low timeout is detected by configuring TIMEOUTB using I2C_TimeoutBConfig()
 936:/home/user/Desktop/STM32-Projekte/FH-Vertibot/src/STM32F30x_StdPeriph_Driver/src/stm32f30x_i2c.c ****          function followed by the call of I2C_ClockTimeoutCmd(). When adding to this 
 937:/home/user/Desktop/STM32-Projekte/FH-Vertibot/src/STM32F30x_StdPeriph_Driver/src/stm32f30x_i2c.c ****          procedure the call of I2C_IdleClockTimeoutCmd() function, Bus Idle condition 
 938:/home/user/Desktop/STM32-Projekte/FH-Vertibot/src/STM32F30x_StdPeriph_Driver/src/stm32f30x_i2c.c ****          (both SCL and SDA high) is detected also.                
 939:/home/user/Desktop/STM32-Projekte/FH-Vertibot/src/STM32F30x_StdPeriph_Driver/src/stm32f30x_i2c.c ****                           
 940:/home/user/Desktop/STM32-Projekte/FH-Vertibot/src/STM32F30x_StdPeriph_Driver/src/stm32f30x_i2c.c **** @endverbatim
 941:/home/user/Desktop/STM32-Projekte/FH-Vertibot/src/STM32F30x_StdPeriph_Driver/src/stm32f30x_i2c.c ****   * @{
 942:/home/user/Desktop/STM32-Projekte/FH-Vertibot/src/STM32F30x_StdPeriph_Driver/src/stm32f30x_i2c.c ****   */
 943:/home/user/Desktop/STM32-Projekte/FH-Vertibot/src/STM32F30x_StdPeriph_Driver/src/stm32f30x_i2c.c **** 
 944:/home/user/Desktop/STM32-Projekte/FH-Vertibot/src/STM32F30x_StdPeriph_Driver/src/stm32f30x_i2c.c **** /**
 945:/home/user/Desktop/STM32-Projekte/FH-Vertibot/src/STM32F30x_StdPeriph_Driver/src/stm32f30x_i2c.c ****   * @brief  Enables or disables I2C SMBus alert.
 946:/home/user/Desktop/STM32-Projekte/FH-Vertibot/src/STM32F30x_StdPeriph_Driver/src/stm32f30x_i2c.c ****   * @param  I2Cx: where x can be 1 or 2 to select the I2C peripheral.
 947:/home/user/Desktop/STM32-Projekte/FH-Vertibot/src/STM32F30x_StdPeriph_Driver/src/stm32f30x_i2c.c ****   * @param  NewState: new state of the I2Cx SMBus alert.
 948:/home/user/Desktop/STM32-Projekte/FH-Vertibot/src/STM32F30x_StdPeriph_Driver/src/stm32f30x_i2c.c ****   *   This parameter can be: ENABLE or DISABLE.
 949:/home/user/Desktop/STM32-Projekte/FH-Vertibot/src/STM32F30x_StdPeriph_Driver/src/stm32f30x_i2c.c ****   * @retval None
 950:/home/user/Desktop/STM32-Projekte/FH-Vertibot/src/STM32F30x_StdPeriph_Driver/src/stm32f30x_i2c.c ****   */
 951:/home/user/Desktop/STM32-Projekte/FH-Vertibot/src/STM32F30x_StdPeriph_Driver/src/stm32f30x_i2c.c **** void I2C_SMBusAlertCmd(I2C_TypeDef* I2Cx, FunctionalState NewState)
 952:/home/user/Desktop/STM32-Projekte/FH-Vertibot/src/STM32F30x_StdPeriph_Driver/src/stm32f30x_i2c.c **** {
 870              		.loc 1 952 0
 871              		.cfi_startproc
 872              		@ args = 0, pretend = 0, frame = 0
 873              		@ frame_needed = 0, uses_anonymous_args = 0
 874              		@ link register save eliminated.
 875              	.LVL71:
 953:/home/user/Desktop/STM32-Projekte/FH-Vertibot/src/STM32F30x_StdPeriph_Driver/src/stm32f30x_i2c.c ****   /* Check the parameters */
 954:/home/user/Desktop/STM32-Projekte/FH-Vertibot/src/STM32F30x_StdPeriph_Driver/src/stm32f30x_i2c.c ****   assert_param(IS_I2C_ALL_PERIPH(I2Cx));
 955:/home/user/Desktop/STM32-Projekte/FH-Vertibot/src/STM32F30x_StdPeriph_Driver/src/stm32f30x_i2c.c ****   assert_param(IS_FUNCTIONAL_STATE(NewState));
 956:/home/user/Desktop/STM32-Projekte/FH-Vertibot/src/STM32F30x_StdPeriph_Driver/src/stm32f30x_i2c.c ****   
 957:/home/user/Desktop/STM32-Projekte/FH-Vertibot/src/STM32F30x_StdPeriph_Driver/src/stm32f30x_i2c.c ****   if (NewState != DISABLE)
 958:/home/user/Desktop/STM32-Projekte/FH-Vertibot/src/STM32F30x_StdPeriph_Driver/src/stm32f30x_i2c.c ****   {
 959:/home/user/Desktop/STM32-Projekte/FH-Vertibot/src/STM32F30x_StdPeriph_Driver/src/stm32f30x_i2c.c ****     /* Enable SMBus alert */
 960:/home/user/Desktop/STM32-Projekte/FH-Vertibot/src/STM32F30x_StdPeriph_Driver/src/stm32f30x_i2c.c ****     I2Cx->CR1 |= I2C_CR1_ALERTEN;   
 876              		.loc 1 960 0
 877 024c 0368     		ldr	r3, [r0]
 957:/home/user/Desktop/STM32-Projekte/FH-Vertibot/src/STM32F30x_StdPeriph_Driver/src/stm32f30x_i2c.c ****   if (NewState != DISABLE)
 878              		.loc 1 957 0
 879 024e 11B1     		cbz	r1, .L81
 880              		.loc 1 960 0
 881 0250 43F48003 		orr	r3, r3, #4194304
 882 0254 01E0     		b	.L83
 883              	.L81:
 961:/home/user/Desktop/STM32-Projekte/FH-Vertibot/src/STM32F30x_StdPeriph_Driver/src/stm32f30x_i2c.c ****   }
 962:/home/user/Desktop/STM32-Projekte/FH-Vertibot/src/STM32F30x_StdPeriph_Driver/src/stm32f30x_i2c.c ****   else
 963:/home/user/Desktop/STM32-Projekte/FH-Vertibot/src/STM32F30x_StdPeriph_Driver/src/stm32f30x_i2c.c ****   {
 964:/home/user/Desktop/STM32-Projekte/FH-Vertibot/src/STM32F30x_StdPeriph_Driver/src/stm32f30x_i2c.c ****     /* Disable SMBus alert */    
 965:/home/user/Desktop/STM32-Projekte/FH-Vertibot/src/STM32F30x_StdPeriph_Driver/src/stm32f30x_i2c.c ****     I2Cx->CR1 &= (uint32_t)~((uint32_t)I2C_CR1_ALERTEN); 
 884              		.loc 1 965 0
 885 0256 23F48003 		bic	r3, r3, #4194304
 886              	.L83:
 887 025a 0360     		str	r3, [r0]
 888 025c 7047     		bx	lr
 889              		.cfi_endproc
 890              	.LFE136:
 892              		.align	1
 893              		.global	I2C_ClockTimeoutCmd
 894              		.thumb
 895              		.thumb_func
 897              	I2C_ClockTimeoutCmd:
 898              	.LFB137:
 966:/home/user/Desktop/STM32-Projekte/FH-Vertibot/src/STM32F30x_StdPeriph_Driver/src/stm32f30x_i2c.c ****   }
 967:/home/user/Desktop/STM32-Projekte/FH-Vertibot/src/STM32F30x_StdPeriph_Driver/src/stm32f30x_i2c.c **** }
 968:/home/user/Desktop/STM32-Projekte/FH-Vertibot/src/STM32F30x_StdPeriph_Driver/src/stm32f30x_i2c.c **** 
 969:/home/user/Desktop/STM32-Projekte/FH-Vertibot/src/STM32F30x_StdPeriph_Driver/src/stm32f30x_i2c.c **** /**
 970:/home/user/Desktop/STM32-Projekte/FH-Vertibot/src/STM32F30x_StdPeriph_Driver/src/stm32f30x_i2c.c ****   * @brief  Enables or disables I2C Clock Timeout (SCL Timeout detection).
 971:/home/user/Desktop/STM32-Projekte/FH-Vertibot/src/STM32F30x_StdPeriph_Driver/src/stm32f30x_i2c.c ****   * @param  I2Cx: where x can be 1 or 2 to select the I2C peripheral.
 972:/home/user/Desktop/STM32-Projekte/FH-Vertibot/src/STM32F30x_StdPeriph_Driver/src/stm32f30x_i2c.c ****   * @param  NewState: new state of the I2Cx clock Timeout.
 973:/home/user/Desktop/STM32-Projekte/FH-Vertibot/src/STM32F30x_StdPeriph_Driver/src/stm32f30x_i2c.c ****   *   This parameter can be: ENABLE or DISABLE.
 974:/home/user/Desktop/STM32-Projekte/FH-Vertibot/src/STM32F30x_StdPeriph_Driver/src/stm32f30x_i2c.c ****   * @retval None
 975:/home/user/Desktop/STM32-Projekte/FH-Vertibot/src/STM32F30x_StdPeriph_Driver/src/stm32f30x_i2c.c ****   */
 976:/home/user/Desktop/STM32-Projekte/FH-Vertibot/src/STM32F30x_StdPeriph_Driver/src/stm32f30x_i2c.c **** void I2C_ClockTimeoutCmd(I2C_TypeDef* I2Cx, FunctionalState NewState)
 977:/home/user/Desktop/STM32-Projekte/FH-Vertibot/src/STM32F30x_StdPeriph_Driver/src/stm32f30x_i2c.c **** {
 899              		.loc 1 977 0
 900              		.cfi_startproc
 901              		@ args = 0, pretend = 0, frame = 0
 902              		@ frame_needed = 0, uses_anonymous_args = 0
 903              		@ link register save eliminated.
 904              	.LVL72:
 978:/home/user/Desktop/STM32-Projekte/FH-Vertibot/src/STM32F30x_StdPeriph_Driver/src/stm32f30x_i2c.c ****   /* Check the parameters */
 979:/home/user/Desktop/STM32-Projekte/FH-Vertibot/src/STM32F30x_StdPeriph_Driver/src/stm32f30x_i2c.c ****   assert_param(IS_I2C_ALL_PERIPH(I2Cx));
 980:/home/user/Desktop/STM32-Projekte/FH-Vertibot/src/STM32F30x_StdPeriph_Driver/src/stm32f30x_i2c.c ****   assert_param(IS_FUNCTIONAL_STATE(NewState));
 981:/home/user/Desktop/STM32-Projekte/FH-Vertibot/src/STM32F30x_StdPeriph_Driver/src/stm32f30x_i2c.c ****   
 982:/home/user/Desktop/STM32-Projekte/FH-Vertibot/src/STM32F30x_StdPeriph_Driver/src/stm32f30x_i2c.c ****   if (NewState != DISABLE)
 983:/home/user/Desktop/STM32-Projekte/FH-Vertibot/src/STM32F30x_StdPeriph_Driver/src/stm32f30x_i2c.c ****   {
 984:/home/user/Desktop/STM32-Projekte/FH-Vertibot/src/STM32F30x_StdPeriph_Driver/src/stm32f30x_i2c.c ****     /* Enable Clock Timeout */
 985:/home/user/Desktop/STM32-Projekte/FH-Vertibot/src/STM32F30x_StdPeriph_Driver/src/stm32f30x_i2c.c ****     I2Cx->TIMEOUTR |= I2C_TIMEOUTR_TIMOUTEN;   
 905              		.loc 1 985 0
 906 025e 4369     		ldr	r3, [r0, #20]
 982:/home/user/Desktop/STM32-Projekte/FH-Vertibot/src/STM32F30x_StdPeriph_Driver/src/stm32f30x_i2c.c ****   if (NewState != DISABLE)
 907              		.loc 1 982 0
 908 0260 11B1     		cbz	r1, .L85
 909              		.loc 1 985 0
 910 0262 43F40043 		orr	r3, r3, #32768
 911 0266 01E0     		b	.L87
 912              	.L85:
 986:/home/user/Desktop/STM32-Projekte/FH-Vertibot/src/STM32F30x_StdPeriph_Driver/src/stm32f30x_i2c.c ****   }
 987:/home/user/Desktop/STM32-Projekte/FH-Vertibot/src/STM32F30x_StdPeriph_Driver/src/stm32f30x_i2c.c ****   else
 988:/home/user/Desktop/STM32-Projekte/FH-Vertibot/src/STM32F30x_StdPeriph_Driver/src/stm32f30x_i2c.c ****   {
 989:/home/user/Desktop/STM32-Projekte/FH-Vertibot/src/STM32F30x_StdPeriph_Driver/src/stm32f30x_i2c.c ****     /* Disable Clock Timeout */    
 990:/home/user/Desktop/STM32-Projekte/FH-Vertibot/src/STM32F30x_StdPeriph_Driver/src/stm32f30x_i2c.c ****     I2Cx->TIMEOUTR &= (uint32_t)~((uint32_t)I2C_TIMEOUTR_TIMOUTEN); 
 913              		.loc 1 990 0
 914 0268 23F40043 		bic	r3, r3, #32768
 915              	.L87:
 916 026c 4361     		str	r3, [r0, #20]
 917 026e 7047     		bx	lr
 918              		.cfi_endproc
 919              	.LFE137:
 921              		.align	1
 922              		.global	I2C_ExtendedClockTimeoutCmd
 923              		.thumb
 924              		.thumb_func
 926              	I2C_ExtendedClockTimeoutCmd:
 927              	.LFB138:
 991:/home/user/Desktop/STM32-Projekte/FH-Vertibot/src/STM32F30x_StdPeriph_Driver/src/stm32f30x_i2c.c ****   }
 992:/home/user/Desktop/STM32-Projekte/FH-Vertibot/src/STM32F30x_StdPeriph_Driver/src/stm32f30x_i2c.c **** }
 993:/home/user/Desktop/STM32-Projekte/FH-Vertibot/src/STM32F30x_StdPeriph_Driver/src/stm32f30x_i2c.c **** 
 994:/home/user/Desktop/STM32-Projekte/FH-Vertibot/src/STM32F30x_StdPeriph_Driver/src/stm32f30x_i2c.c **** /**
 995:/home/user/Desktop/STM32-Projekte/FH-Vertibot/src/STM32F30x_StdPeriph_Driver/src/stm32f30x_i2c.c ****   * @brief  Enables or disables I2C Extended Clock Timeout (SCL cumulative Timeout detection).
 996:/home/user/Desktop/STM32-Projekte/FH-Vertibot/src/STM32F30x_StdPeriph_Driver/src/stm32f30x_i2c.c ****   * @param  I2Cx: where x can be 1 or 2 to select the I2C peripheral.
 997:/home/user/Desktop/STM32-Projekte/FH-Vertibot/src/STM32F30x_StdPeriph_Driver/src/stm32f30x_i2c.c ****   * @param  NewState: new state of the I2Cx Extended clock Timeout.
 998:/home/user/Desktop/STM32-Projekte/FH-Vertibot/src/STM32F30x_StdPeriph_Driver/src/stm32f30x_i2c.c ****   *   This parameter can be: ENABLE or DISABLE.
 999:/home/user/Desktop/STM32-Projekte/FH-Vertibot/src/STM32F30x_StdPeriph_Driver/src/stm32f30x_i2c.c ****   * @retval None
1000:/home/user/Desktop/STM32-Projekte/FH-Vertibot/src/STM32F30x_StdPeriph_Driver/src/stm32f30x_i2c.c ****   */
1001:/home/user/Desktop/STM32-Projekte/FH-Vertibot/src/STM32F30x_StdPeriph_Driver/src/stm32f30x_i2c.c **** void I2C_ExtendedClockTimeoutCmd(I2C_TypeDef* I2Cx, FunctionalState NewState)
1002:/home/user/Desktop/STM32-Projekte/FH-Vertibot/src/STM32F30x_StdPeriph_Driver/src/stm32f30x_i2c.c **** {
 928              		.loc 1 1002 0
 929              		.cfi_startproc
 930              		@ args = 0, pretend = 0, frame = 0
 931              		@ frame_needed = 0, uses_anonymous_args = 0
 932              		@ link register save eliminated.
 933              	.LVL73:
1003:/home/user/Desktop/STM32-Projekte/FH-Vertibot/src/STM32F30x_StdPeriph_Driver/src/stm32f30x_i2c.c ****   /* Check the parameters */
1004:/home/user/Desktop/STM32-Projekte/FH-Vertibot/src/STM32F30x_StdPeriph_Driver/src/stm32f30x_i2c.c ****   assert_param(IS_I2C_ALL_PERIPH(I2Cx));
1005:/home/user/Desktop/STM32-Projekte/FH-Vertibot/src/STM32F30x_StdPeriph_Driver/src/stm32f30x_i2c.c ****   assert_param(IS_FUNCTIONAL_STATE(NewState));
1006:/home/user/Desktop/STM32-Projekte/FH-Vertibot/src/STM32F30x_StdPeriph_Driver/src/stm32f30x_i2c.c ****   
1007:/home/user/Desktop/STM32-Projekte/FH-Vertibot/src/STM32F30x_StdPeriph_Driver/src/stm32f30x_i2c.c ****   if (NewState != DISABLE)
1008:/home/user/Desktop/STM32-Projekte/FH-Vertibot/src/STM32F30x_StdPeriph_Driver/src/stm32f30x_i2c.c ****   {
1009:/home/user/Desktop/STM32-Projekte/FH-Vertibot/src/STM32F30x_StdPeriph_Driver/src/stm32f30x_i2c.c ****     /* Enable Clock Timeout */
1010:/home/user/Desktop/STM32-Projekte/FH-Vertibot/src/STM32F30x_StdPeriph_Driver/src/stm32f30x_i2c.c ****     I2Cx->TIMEOUTR |= I2C_TIMEOUTR_TEXTEN;   
 934              		.loc 1 1010 0
 935 0270 4369     		ldr	r3, [r0, #20]
1007:/home/user/Desktop/STM32-Projekte/FH-Vertibot/src/STM32F30x_StdPeriph_Driver/src/stm32f30x_i2c.c ****   if (NewState != DISABLE)
 936              		.loc 1 1007 0
 937 0272 11B1     		cbz	r1, .L89
 938              		.loc 1 1010 0
 939 0274 43F00043 		orr	r3, r3, #-2147483648
 940 0278 01E0     		b	.L91
 941              	.L89:
1011:/home/user/Desktop/STM32-Projekte/FH-Vertibot/src/STM32F30x_StdPeriph_Driver/src/stm32f30x_i2c.c ****   }
1012:/home/user/Desktop/STM32-Projekte/FH-Vertibot/src/STM32F30x_StdPeriph_Driver/src/stm32f30x_i2c.c ****   else
1013:/home/user/Desktop/STM32-Projekte/FH-Vertibot/src/STM32F30x_StdPeriph_Driver/src/stm32f30x_i2c.c ****   {
1014:/home/user/Desktop/STM32-Projekte/FH-Vertibot/src/STM32F30x_StdPeriph_Driver/src/stm32f30x_i2c.c ****     /* Disable Clock Timeout */    
1015:/home/user/Desktop/STM32-Projekte/FH-Vertibot/src/STM32F30x_StdPeriph_Driver/src/stm32f30x_i2c.c ****     I2Cx->TIMEOUTR &= (uint32_t)~((uint32_t)I2C_TIMEOUTR_TEXTEN); 
 942              		.loc 1 1015 0
 943 027a 23F00043 		bic	r3, r3, #-2147483648
 944              	.L91:
 945 027e 4361     		str	r3, [r0, #20]
 946 0280 7047     		bx	lr
 947              		.cfi_endproc
 948              	.LFE138:
 950              		.align	1
 951              		.global	I2C_IdleClockTimeoutCmd
 952              		.thumb
 953              		.thumb_func
 955              	I2C_IdleClockTimeoutCmd:
 956              	.LFB139:
1016:/home/user/Desktop/STM32-Projekte/FH-Vertibot/src/STM32F30x_StdPeriph_Driver/src/stm32f30x_i2c.c ****   }
1017:/home/user/Desktop/STM32-Projekte/FH-Vertibot/src/STM32F30x_StdPeriph_Driver/src/stm32f30x_i2c.c **** }
1018:/home/user/Desktop/STM32-Projekte/FH-Vertibot/src/STM32F30x_StdPeriph_Driver/src/stm32f30x_i2c.c **** 
1019:/home/user/Desktop/STM32-Projekte/FH-Vertibot/src/STM32F30x_StdPeriph_Driver/src/stm32f30x_i2c.c **** /**
1020:/home/user/Desktop/STM32-Projekte/FH-Vertibot/src/STM32F30x_StdPeriph_Driver/src/stm32f30x_i2c.c ****   * @brief  Enables or disables I2C Idle Clock Timeout (Bus idle SCL and SDA 
1021:/home/user/Desktop/STM32-Projekte/FH-Vertibot/src/STM32F30x_StdPeriph_Driver/src/stm32f30x_i2c.c ****   *         high detection).
1022:/home/user/Desktop/STM32-Projekte/FH-Vertibot/src/STM32F30x_StdPeriph_Driver/src/stm32f30x_i2c.c ****   * @param  I2Cx: where x can be 1 or 2 to select the I2C peripheral.
1023:/home/user/Desktop/STM32-Projekte/FH-Vertibot/src/STM32F30x_StdPeriph_Driver/src/stm32f30x_i2c.c ****   * @param  NewState: new state of the I2Cx Idle clock Timeout.
1024:/home/user/Desktop/STM32-Projekte/FH-Vertibot/src/STM32F30x_StdPeriph_Driver/src/stm32f30x_i2c.c ****   *   This parameter can be: ENABLE or DISABLE.
1025:/home/user/Desktop/STM32-Projekte/FH-Vertibot/src/STM32F30x_StdPeriph_Driver/src/stm32f30x_i2c.c ****   * @retval None
1026:/home/user/Desktop/STM32-Projekte/FH-Vertibot/src/STM32F30x_StdPeriph_Driver/src/stm32f30x_i2c.c ****   */
1027:/home/user/Desktop/STM32-Projekte/FH-Vertibot/src/STM32F30x_StdPeriph_Driver/src/stm32f30x_i2c.c **** void I2C_IdleClockTimeoutCmd(I2C_TypeDef* I2Cx, FunctionalState NewState)
1028:/home/user/Desktop/STM32-Projekte/FH-Vertibot/src/STM32F30x_StdPeriph_Driver/src/stm32f30x_i2c.c **** {
 957              		.loc 1 1028 0
 958              		.cfi_startproc
 959              		@ args = 0, pretend = 0, frame = 0
 960              		@ frame_needed = 0, uses_anonymous_args = 0
 961              		@ link register save eliminated.
 962              	.LVL74:
1029:/home/user/Desktop/STM32-Projekte/FH-Vertibot/src/STM32F30x_StdPeriph_Driver/src/stm32f30x_i2c.c ****   /* Check the parameters */
1030:/home/user/Desktop/STM32-Projekte/FH-Vertibot/src/STM32F30x_StdPeriph_Driver/src/stm32f30x_i2c.c ****   assert_param(IS_I2C_ALL_PERIPH(I2Cx));
1031:/home/user/Desktop/STM32-Projekte/FH-Vertibot/src/STM32F30x_StdPeriph_Driver/src/stm32f30x_i2c.c ****   assert_param(IS_FUNCTIONAL_STATE(NewState));
1032:/home/user/Desktop/STM32-Projekte/FH-Vertibot/src/STM32F30x_StdPeriph_Driver/src/stm32f30x_i2c.c ****   
1033:/home/user/Desktop/STM32-Projekte/FH-Vertibot/src/STM32F30x_StdPeriph_Driver/src/stm32f30x_i2c.c ****   if (NewState != DISABLE)
1034:/home/user/Desktop/STM32-Projekte/FH-Vertibot/src/STM32F30x_StdPeriph_Driver/src/stm32f30x_i2c.c ****   {
1035:/home/user/Desktop/STM32-Projekte/FH-Vertibot/src/STM32F30x_StdPeriph_Driver/src/stm32f30x_i2c.c ****     /* Enable Clock Timeout */
1036:/home/user/Desktop/STM32-Projekte/FH-Vertibot/src/STM32F30x_StdPeriph_Driver/src/stm32f30x_i2c.c ****     I2Cx->TIMEOUTR |= I2C_TIMEOUTR_TIDLE;   
 963              		.loc 1 1036 0
 964 0282 4369     		ldr	r3, [r0, #20]
1033:/home/user/Desktop/STM32-Projekte/FH-Vertibot/src/STM32F30x_StdPeriph_Driver/src/stm32f30x_i2c.c ****   if (NewState != DISABLE)
 965              		.loc 1 1033 0
 966 0284 11B1     		cbz	r1, .L93
 967              		.loc 1 1036 0
 968 0286 43F48053 		orr	r3, r3, #4096
 969 028a 01E0     		b	.L95
 970              	.L93:
1037:/home/user/Desktop/STM32-Projekte/FH-Vertibot/src/STM32F30x_StdPeriph_Driver/src/stm32f30x_i2c.c ****   }
1038:/home/user/Desktop/STM32-Projekte/FH-Vertibot/src/STM32F30x_StdPeriph_Driver/src/stm32f30x_i2c.c ****   else
1039:/home/user/Desktop/STM32-Projekte/FH-Vertibot/src/STM32F30x_StdPeriph_Driver/src/stm32f30x_i2c.c ****   {
1040:/home/user/Desktop/STM32-Projekte/FH-Vertibot/src/STM32F30x_StdPeriph_Driver/src/stm32f30x_i2c.c ****     /* Disable Clock Timeout */    
1041:/home/user/Desktop/STM32-Projekte/FH-Vertibot/src/STM32F30x_StdPeriph_Driver/src/stm32f30x_i2c.c ****     I2Cx->TIMEOUTR &= (uint32_t)~((uint32_t)I2C_TIMEOUTR_TIDLE); 
 971              		.loc 1 1041 0
 972 028c 23F48053 		bic	r3, r3, #4096
 973              	.L95:
 974 0290 4361     		str	r3, [r0, #20]
 975 0292 7047     		bx	lr
 976              		.cfi_endproc
 977              	.LFE139:
 979              		.align	1
 980              		.global	I2C_TimeoutAConfig
 981              		.thumb
 982              		.thumb_func
 984              	I2C_TimeoutAConfig:
 985              	.LFB140:
1042:/home/user/Desktop/STM32-Projekte/FH-Vertibot/src/STM32F30x_StdPeriph_Driver/src/stm32f30x_i2c.c ****   }
1043:/home/user/Desktop/STM32-Projekte/FH-Vertibot/src/STM32F30x_StdPeriph_Driver/src/stm32f30x_i2c.c **** }
1044:/home/user/Desktop/STM32-Projekte/FH-Vertibot/src/STM32F30x_StdPeriph_Driver/src/stm32f30x_i2c.c **** 
1045:/home/user/Desktop/STM32-Projekte/FH-Vertibot/src/STM32F30x_StdPeriph_Driver/src/stm32f30x_i2c.c **** /**
1046:/home/user/Desktop/STM32-Projekte/FH-Vertibot/src/STM32F30x_StdPeriph_Driver/src/stm32f30x_i2c.c ****   * @brief  Configures the I2C Bus Timeout A (SCL Timeout when TIDLE = 0 or Bus 
1047:/home/user/Desktop/STM32-Projekte/FH-Vertibot/src/STM32F30x_StdPeriph_Driver/src/stm32f30x_i2c.c ****   *   idle SCL and SDA high when TIDLE = 1).
1048:/home/user/Desktop/STM32-Projekte/FH-Vertibot/src/STM32F30x_StdPeriph_Driver/src/stm32f30x_i2c.c ****   * @param  I2Cx: where x can be 1 or 2 to select the I2C peripheral.
1049:/home/user/Desktop/STM32-Projekte/FH-Vertibot/src/STM32F30x_StdPeriph_Driver/src/stm32f30x_i2c.c ****   * @param  Timeout: specifies the TimeoutA to be programmed. 
1050:/home/user/Desktop/STM32-Projekte/FH-Vertibot/src/STM32F30x_StdPeriph_Driver/src/stm32f30x_i2c.c ****   * @retval None
1051:/home/user/Desktop/STM32-Projekte/FH-Vertibot/src/STM32F30x_StdPeriph_Driver/src/stm32f30x_i2c.c ****   */
1052:/home/user/Desktop/STM32-Projekte/FH-Vertibot/src/STM32F30x_StdPeriph_Driver/src/stm32f30x_i2c.c **** void I2C_TimeoutAConfig(I2C_TypeDef* I2Cx, uint16_t Timeout)
1053:/home/user/Desktop/STM32-Projekte/FH-Vertibot/src/STM32F30x_StdPeriph_Driver/src/stm32f30x_i2c.c **** {
 986              		.loc 1 1053 0
 987              		.cfi_startproc
 988              		@ args = 0, pretend = 0, frame = 0
 989              		@ frame_needed = 0, uses_anonymous_args = 0
 990              		@ link register save eliminated.
 991              	.LVL75:
1054:/home/user/Desktop/STM32-Projekte/FH-Vertibot/src/STM32F30x_StdPeriph_Driver/src/stm32f30x_i2c.c ****   uint32_t tmpreg = 0;
1055:/home/user/Desktop/STM32-Projekte/FH-Vertibot/src/STM32F30x_StdPeriph_Driver/src/stm32f30x_i2c.c **** 
1056:/home/user/Desktop/STM32-Projekte/FH-Vertibot/src/STM32F30x_StdPeriph_Driver/src/stm32f30x_i2c.c ****   /* Check the parameters */
1057:/home/user/Desktop/STM32-Projekte/FH-Vertibot/src/STM32F30x_StdPeriph_Driver/src/stm32f30x_i2c.c ****   assert_param(IS_I2C_ALL_PERIPH(I2Cx));
1058:/home/user/Desktop/STM32-Projekte/FH-Vertibot/src/STM32F30x_StdPeriph_Driver/src/stm32f30x_i2c.c ****   assert_param(IS_I2C_TIMEOUT(Timeout));
1059:/home/user/Desktop/STM32-Projekte/FH-Vertibot/src/STM32F30x_StdPeriph_Driver/src/stm32f30x_i2c.c ****     
1060:/home/user/Desktop/STM32-Projekte/FH-Vertibot/src/STM32F30x_StdPeriph_Driver/src/stm32f30x_i2c.c ****   /* Get the old register value */
1061:/home/user/Desktop/STM32-Projekte/FH-Vertibot/src/STM32F30x_StdPeriph_Driver/src/stm32f30x_i2c.c ****   tmpreg = I2Cx->TIMEOUTR;
 992              		.loc 1 1061 0
 993 0294 4369     		ldr	r3, [r0, #20]
 994              	.LVL76:
1062:/home/user/Desktop/STM32-Projekte/FH-Vertibot/src/STM32F30x_StdPeriph_Driver/src/stm32f30x_i2c.c **** 
1063:/home/user/Desktop/STM32-Projekte/FH-Vertibot/src/STM32F30x_StdPeriph_Driver/src/stm32f30x_i2c.c ****   /* Reset I2Cx TIMEOUTA bit [11:0] */
1064:/home/user/Desktop/STM32-Projekte/FH-Vertibot/src/STM32F30x_StdPeriph_Driver/src/stm32f30x_i2c.c ****   tmpreg &= (uint32_t)~((uint32_t)I2C_TIMEOUTR_TIMEOUTA);
 995              		.loc 1 1064 0
 996 0296 23F47F63 		bic	r3, r3, #4080
 997              	.LVL77:
 998 029a 23F00F03 		bic	r3, r3, #15
 999              	.LVL78:
1065:/home/user/Desktop/STM32-Projekte/FH-Vertibot/src/STM32F30x_StdPeriph_Driver/src/stm32f30x_i2c.c **** 
1066:/home/user/Desktop/STM32-Projekte/FH-Vertibot/src/STM32F30x_StdPeriph_Driver/src/stm32f30x_i2c.c ****   /* Set I2Cx TIMEOUTA */
1067:/home/user/Desktop/STM32-Projekte/FH-Vertibot/src/STM32F30x_StdPeriph_Driver/src/stm32f30x_i2c.c ****   tmpreg |= (uint32_t)((uint32_t)Timeout & I2C_TIMEOUTR_TIMEOUTA) ;
 1000              		.loc 1 1067 0
 1001 029e C1F30B01 		ubfx	r1, r1, #0, #12
 1002              	.LVL79:
 1003 02a2 0B43     		orrs	r3, r3, r1
 1004              	.LVL80:
1068:/home/user/Desktop/STM32-Projekte/FH-Vertibot/src/STM32F30x_StdPeriph_Driver/src/stm32f30x_i2c.c **** 
1069:/home/user/Desktop/STM32-Projekte/FH-Vertibot/src/STM32F30x_StdPeriph_Driver/src/stm32f30x_i2c.c ****   /* Store the new register value */
1070:/home/user/Desktop/STM32-Projekte/FH-Vertibot/src/STM32F30x_StdPeriph_Driver/src/stm32f30x_i2c.c ****   I2Cx->TIMEOUTR = tmpreg;
 1005              		.loc 1 1070 0
 1006 02a4 4361     		str	r3, [r0, #20]
 1007 02a6 7047     		bx	lr
 1008              		.cfi_endproc
 1009              	.LFE140:
 1011              		.align	1
 1012              		.global	I2C_TimeoutBConfig
 1013              		.thumb
 1014              		.thumb_func
 1016              	I2C_TimeoutBConfig:
 1017              	.LFB141:
1071:/home/user/Desktop/STM32-Projekte/FH-Vertibot/src/STM32F30x_StdPeriph_Driver/src/stm32f30x_i2c.c **** }
1072:/home/user/Desktop/STM32-Projekte/FH-Vertibot/src/STM32F30x_StdPeriph_Driver/src/stm32f30x_i2c.c **** 
1073:/home/user/Desktop/STM32-Projekte/FH-Vertibot/src/STM32F30x_StdPeriph_Driver/src/stm32f30x_i2c.c **** /**
1074:/home/user/Desktop/STM32-Projekte/FH-Vertibot/src/STM32F30x_StdPeriph_Driver/src/stm32f30x_i2c.c ****   * @brief  Configures the I2C Bus Timeout B (SCL cumulative Timeout).
1075:/home/user/Desktop/STM32-Projekte/FH-Vertibot/src/STM32F30x_StdPeriph_Driver/src/stm32f30x_i2c.c ****   * @param  I2Cx: where x can be 1 or 2 to select the I2C peripheral.
1076:/home/user/Desktop/STM32-Projekte/FH-Vertibot/src/STM32F30x_StdPeriph_Driver/src/stm32f30x_i2c.c ****   * @param  Timeout: specifies the TimeoutB to be programmed. 
1077:/home/user/Desktop/STM32-Projekte/FH-Vertibot/src/STM32F30x_StdPeriph_Driver/src/stm32f30x_i2c.c ****   * @retval None
1078:/home/user/Desktop/STM32-Projekte/FH-Vertibot/src/STM32F30x_StdPeriph_Driver/src/stm32f30x_i2c.c ****   */
1079:/home/user/Desktop/STM32-Projekte/FH-Vertibot/src/STM32F30x_StdPeriph_Driver/src/stm32f30x_i2c.c **** void I2C_TimeoutBConfig(I2C_TypeDef* I2Cx, uint16_t Timeout)
1080:/home/user/Desktop/STM32-Projekte/FH-Vertibot/src/STM32F30x_StdPeriph_Driver/src/stm32f30x_i2c.c **** {
 1018              		.loc 1 1080 0
 1019              		.cfi_startproc
 1020              		@ args = 0, pretend = 0, frame = 0
 1021              		@ frame_needed = 0, uses_anonymous_args = 0
 1022              		@ link register save eliminated.
 1023              	.LVL81:
1081:/home/user/Desktop/STM32-Projekte/FH-Vertibot/src/STM32F30x_StdPeriph_Driver/src/stm32f30x_i2c.c ****   uint32_t tmpreg = 0;
1082:/home/user/Desktop/STM32-Projekte/FH-Vertibot/src/STM32F30x_StdPeriph_Driver/src/stm32f30x_i2c.c **** 
1083:/home/user/Desktop/STM32-Projekte/FH-Vertibot/src/STM32F30x_StdPeriph_Driver/src/stm32f30x_i2c.c ****   /* Check the parameters */
1084:/home/user/Desktop/STM32-Projekte/FH-Vertibot/src/STM32F30x_StdPeriph_Driver/src/stm32f30x_i2c.c ****   assert_param(IS_I2C_ALL_PERIPH(I2Cx));
1085:/home/user/Desktop/STM32-Projekte/FH-Vertibot/src/STM32F30x_StdPeriph_Driver/src/stm32f30x_i2c.c ****   assert_param(IS_I2C_TIMEOUT(Timeout));
1086:/home/user/Desktop/STM32-Projekte/FH-Vertibot/src/STM32F30x_StdPeriph_Driver/src/stm32f30x_i2c.c **** 
1087:/home/user/Desktop/STM32-Projekte/FH-Vertibot/src/STM32F30x_StdPeriph_Driver/src/stm32f30x_i2c.c ****   /* Get the old register value */
1088:/home/user/Desktop/STM32-Projekte/FH-Vertibot/src/STM32F30x_StdPeriph_Driver/src/stm32f30x_i2c.c ****   tmpreg = I2Cx->TIMEOUTR;
 1024              		.loc 1 1088 0
 1025 02a8 4369     		ldr	r3, [r0, #20]
 1026              	.LVL82:
1089:/home/user/Desktop/STM32-Projekte/FH-Vertibot/src/STM32F30x_StdPeriph_Driver/src/stm32f30x_i2c.c **** 
1090:/home/user/Desktop/STM32-Projekte/FH-Vertibot/src/STM32F30x_StdPeriph_Driver/src/stm32f30x_i2c.c ****   /* Reset I2Cx TIMEOUTB bit [11:0] */
1091:/home/user/Desktop/STM32-Projekte/FH-Vertibot/src/STM32F30x_StdPeriph_Driver/src/stm32f30x_i2c.c ****   tmpreg &= (uint32_t)~((uint32_t)I2C_TIMEOUTR_TIMEOUTB);
1092:/home/user/Desktop/STM32-Projekte/FH-Vertibot/src/STM32F30x_StdPeriph_Driver/src/stm32f30x_i2c.c **** 
1093:/home/user/Desktop/STM32-Projekte/FH-Vertibot/src/STM32F30x_StdPeriph_Driver/src/stm32f30x_i2c.c ****   /* Set I2Cx TIMEOUTB */
1094:/home/user/Desktop/STM32-Projekte/FH-Vertibot/src/STM32F30x_StdPeriph_Driver/src/stm32f30x_i2c.c ****   tmpreg |= (uint32_t)(((uint32_t)Timeout << 16) & I2C_TIMEOUTR_TIMEOUTB) ;
 1027              		.loc 1 1094 0
 1028 02aa 054A     		ldr	r2, .L98
1091:/home/user/Desktop/STM32-Projekte/FH-Vertibot/src/STM32F30x_StdPeriph_Driver/src/stm32f30x_i2c.c ****   tmpreg &= (uint32_t)~((uint32_t)I2C_TIMEOUTR_TIMEOUTB);
 1029              		.loc 1 1091 0
 1030 02ac 23F07F63 		bic	r3, r3, #267386880
 1031              	.LVL83:
 1032 02b0 23F47023 		bic	r3, r3, #983040
 1033              	.LVL84:
 1034              		.loc 1 1094 0
 1035 02b4 02EA0141 		and	r1, r2, r1, lsl #16
 1036              	.LVL85:
 1037 02b8 0B43     		orrs	r3, r3, r1
 1038              	.LVL86:
1095:/home/user/Desktop/STM32-Projekte/FH-Vertibot/src/STM32F30x_StdPeriph_Driver/src/stm32f30x_i2c.c **** 
1096:/home/user/Desktop/STM32-Projekte/FH-Vertibot/src/STM32F30x_StdPeriph_Driver/src/stm32f30x_i2c.c ****   /* Store the new register value */
1097:/home/user/Desktop/STM32-Projekte/FH-Vertibot/src/STM32F30x_StdPeriph_Driver/src/stm32f30x_i2c.c ****   I2Cx->TIMEOUTR = tmpreg;
 1039              		.loc 1 1097 0
 1040 02ba 4361     		str	r3, [r0, #20]
 1041 02bc 7047     		bx	lr
 1042              	.L99:
 1043 02be 00BF     		.align	2
 1044              	.L98:
 1045 02c0 0000FF0F 		.word	268369920
 1046              		.cfi_endproc
 1047              	.LFE141:
 1049              		.align	1
 1050              		.global	I2C_CalculatePEC
 1051              		.thumb
 1052              		.thumb_func
 1054              	I2C_CalculatePEC:
 1055              	.LFB142:
1098:/home/user/Desktop/STM32-Projekte/FH-Vertibot/src/STM32F30x_StdPeriph_Driver/src/stm32f30x_i2c.c **** }
1099:/home/user/Desktop/STM32-Projekte/FH-Vertibot/src/STM32F30x_StdPeriph_Driver/src/stm32f30x_i2c.c **** 
1100:/home/user/Desktop/STM32-Projekte/FH-Vertibot/src/STM32F30x_StdPeriph_Driver/src/stm32f30x_i2c.c **** /**
1101:/home/user/Desktop/STM32-Projekte/FH-Vertibot/src/STM32F30x_StdPeriph_Driver/src/stm32f30x_i2c.c ****   * @brief  Enables or disables I2C PEC calculation.
1102:/home/user/Desktop/STM32-Projekte/FH-Vertibot/src/STM32F30x_StdPeriph_Driver/src/stm32f30x_i2c.c ****   * @param  I2Cx: where x can be 1 or 2 to select the I2C peripheral.
1103:/home/user/Desktop/STM32-Projekte/FH-Vertibot/src/STM32F30x_StdPeriph_Driver/src/stm32f30x_i2c.c ****   * @param  NewState: new state of the I2Cx PEC calculation.
1104:/home/user/Desktop/STM32-Projekte/FH-Vertibot/src/STM32F30x_StdPeriph_Driver/src/stm32f30x_i2c.c ****   *   This parameter can be: ENABLE or DISABLE.
1105:/home/user/Desktop/STM32-Projekte/FH-Vertibot/src/STM32F30x_StdPeriph_Driver/src/stm32f30x_i2c.c ****   * @retval None
1106:/home/user/Desktop/STM32-Projekte/FH-Vertibot/src/STM32F30x_StdPeriph_Driver/src/stm32f30x_i2c.c ****   */
1107:/home/user/Desktop/STM32-Projekte/FH-Vertibot/src/STM32F30x_StdPeriph_Driver/src/stm32f30x_i2c.c **** void I2C_CalculatePEC(I2C_TypeDef* I2Cx, FunctionalState NewState)
1108:/home/user/Desktop/STM32-Projekte/FH-Vertibot/src/STM32F30x_StdPeriph_Driver/src/stm32f30x_i2c.c **** {
 1056              		.loc 1 1108 0
 1057              		.cfi_startproc
 1058              		@ args = 0, pretend = 0, frame = 0
 1059              		@ frame_needed = 0, uses_anonymous_args = 0
 1060              		@ link register save eliminated.
 1061              	.LVL87:
1109:/home/user/Desktop/STM32-Projekte/FH-Vertibot/src/STM32F30x_StdPeriph_Driver/src/stm32f30x_i2c.c ****   /* Check the parameters */
1110:/home/user/Desktop/STM32-Projekte/FH-Vertibot/src/STM32F30x_StdPeriph_Driver/src/stm32f30x_i2c.c ****   assert_param(IS_I2C_ALL_PERIPH(I2Cx));
1111:/home/user/Desktop/STM32-Projekte/FH-Vertibot/src/STM32F30x_StdPeriph_Driver/src/stm32f30x_i2c.c ****   assert_param(IS_FUNCTIONAL_STATE(NewState));
1112:/home/user/Desktop/STM32-Projekte/FH-Vertibot/src/STM32F30x_StdPeriph_Driver/src/stm32f30x_i2c.c ****   
1113:/home/user/Desktop/STM32-Projekte/FH-Vertibot/src/STM32F30x_StdPeriph_Driver/src/stm32f30x_i2c.c ****   if (NewState != DISABLE)
1114:/home/user/Desktop/STM32-Projekte/FH-Vertibot/src/STM32F30x_StdPeriph_Driver/src/stm32f30x_i2c.c ****   {
1115:/home/user/Desktop/STM32-Projekte/FH-Vertibot/src/STM32F30x_StdPeriph_Driver/src/stm32f30x_i2c.c ****     /* Enable PEC calculation */
1116:/home/user/Desktop/STM32-Projekte/FH-Vertibot/src/STM32F30x_StdPeriph_Driver/src/stm32f30x_i2c.c ****     I2Cx->CR1 |= I2C_CR1_PECEN;   
 1062              		.loc 1 1116 0
 1063 02c4 0368     		ldr	r3, [r0]
1113:/home/user/Desktop/STM32-Projekte/FH-Vertibot/src/STM32F30x_StdPeriph_Driver/src/stm32f30x_i2c.c ****   if (NewState != DISABLE)
 1064              		.loc 1 1113 0
 1065 02c6 11B1     		cbz	r1, .L101
 1066              		.loc 1 1116 0
 1067 02c8 43F40003 		orr	r3, r3, #8388608
 1068 02cc 01E0     		b	.L103
 1069              	.L101:
1117:/home/user/Desktop/STM32-Projekte/FH-Vertibot/src/STM32F30x_StdPeriph_Driver/src/stm32f30x_i2c.c ****   }
1118:/home/user/Desktop/STM32-Projekte/FH-Vertibot/src/STM32F30x_StdPeriph_Driver/src/stm32f30x_i2c.c ****   else
1119:/home/user/Desktop/STM32-Projekte/FH-Vertibot/src/STM32F30x_StdPeriph_Driver/src/stm32f30x_i2c.c ****   {
1120:/home/user/Desktop/STM32-Projekte/FH-Vertibot/src/STM32F30x_StdPeriph_Driver/src/stm32f30x_i2c.c ****     /* Disable PEC calculation */    
1121:/home/user/Desktop/STM32-Projekte/FH-Vertibot/src/STM32F30x_StdPeriph_Driver/src/stm32f30x_i2c.c ****     I2Cx->CR1 &= (uint32_t)~((uint32_t)I2C_CR1_PECEN); 
 1070              		.loc 1 1121 0
 1071 02ce 23F40003 		bic	r3, r3, #8388608
 1072              	.L103:
 1073 02d2 0360     		str	r3, [r0]
 1074 02d4 7047     		bx	lr
 1075              		.cfi_endproc
 1076              	.LFE142:
 1078              		.align	1
 1079              		.global	I2C_PECRequestCmd
 1080              		.thumb
 1081              		.thumb_func
 1083              	I2C_PECRequestCmd:
 1084              	.LFB143:
1122:/home/user/Desktop/STM32-Projekte/FH-Vertibot/src/STM32F30x_StdPeriph_Driver/src/stm32f30x_i2c.c ****   }
1123:/home/user/Desktop/STM32-Projekte/FH-Vertibot/src/STM32F30x_StdPeriph_Driver/src/stm32f30x_i2c.c **** }
1124:/home/user/Desktop/STM32-Projekte/FH-Vertibot/src/STM32F30x_StdPeriph_Driver/src/stm32f30x_i2c.c **** 
1125:/home/user/Desktop/STM32-Projekte/FH-Vertibot/src/STM32F30x_StdPeriph_Driver/src/stm32f30x_i2c.c **** /**
1126:/home/user/Desktop/STM32-Projekte/FH-Vertibot/src/STM32F30x_StdPeriph_Driver/src/stm32f30x_i2c.c ****   * @brief  Enables or disables I2C PEC transmission/reception request.
1127:/home/user/Desktop/STM32-Projekte/FH-Vertibot/src/STM32F30x_StdPeriph_Driver/src/stm32f30x_i2c.c ****   * @param  I2Cx: where x can be 1 or 2 to select the I2C peripheral.
1128:/home/user/Desktop/STM32-Projekte/FH-Vertibot/src/STM32F30x_StdPeriph_Driver/src/stm32f30x_i2c.c ****   * @param  NewState: new state of the I2Cx PEC request.
1129:/home/user/Desktop/STM32-Projekte/FH-Vertibot/src/STM32F30x_StdPeriph_Driver/src/stm32f30x_i2c.c ****   *   This parameter can be: ENABLE or DISABLE.
1130:/home/user/Desktop/STM32-Projekte/FH-Vertibot/src/STM32F30x_StdPeriph_Driver/src/stm32f30x_i2c.c ****   * @retval None
1131:/home/user/Desktop/STM32-Projekte/FH-Vertibot/src/STM32F30x_StdPeriph_Driver/src/stm32f30x_i2c.c ****   */
1132:/home/user/Desktop/STM32-Projekte/FH-Vertibot/src/STM32F30x_StdPeriph_Driver/src/stm32f30x_i2c.c **** void I2C_PECRequestCmd(I2C_TypeDef* I2Cx, FunctionalState NewState)
1133:/home/user/Desktop/STM32-Projekte/FH-Vertibot/src/STM32F30x_StdPeriph_Driver/src/stm32f30x_i2c.c **** {
 1085              		.loc 1 1133 0
 1086              		.cfi_startproc
 1087              		@ args = 0, pretend = 0, frame = 0
 1088              		@ frame_needed = 0, uses_anonymous_args = 0
 1089              		@ link register save eliminated.
 1090              	.LVL88:
1134:/home/user/Desktop/STM32-Projekte/FH-Vertibot/src/STM32F30x_StdPeriph_Driver/src/stm32f30x_i2c.c ****   /* Check the parameters */
1135:/home/user/Desktop/STM32-Projekte/FH-Vertibot/src/STM32F30x_StdPeriph_Driver/src/stm32f30x_i2c.c ****   assert_param(IS_I2C_ALL_PERIPH(I2Cx));
1136:/home/user/Desktop/STM32-Projekte/FH-Vertibot/src/STM32F30x_StdPeriph_Driver/src/stm32f30x_i2c.c ****   assert_param(IS_FUNCTIONAL_STATE(NewState));
1137:/home/user/Desktop/STM32-Projekte/FH-Vertibot/src/STM32F30x_StdPeriph_Driver/src/stm32f30x_i2c.c ****   
1138:/home/user/Desktop/STM32-Projekte/FH-Vertibot/src/STM32F30x_StdPeriph_Driver/src/stm32f30x_i2c.c ****   if (NewState != DISABLE)
1139:/home/user/Desktop/STM32-Projekte/FH-Vertibot/src/STM32F30x_StdPeriph_Driver/src/stm32f30x_i2c.c ****   {
1140:/home/user/Desktop/STM32-Projekte/FH-Vertibot/src/STM32F30x_StdPeriph_Driver/src/stm32f30x_i2c.c ****     /* Enable PEC transmission/reception request */
1141:/home/user/Desktop/STM32-Projekte/FH-Vertibot/src/STM32F30x_StdPeriph_Driver/src/stm32f30x_i2c.c ****     I2Cx->CR1 |= I2C_CR2_PECBYTE;   
 1091              		.loc 1 1141 0
 1092 02d6 0368     		ldr	r3, [r0]
1138:/home/user/Desktop/STM32-Projekte/FH-Vertibot/src/STM32F30x_StdPeriph_Driver/src/stm32f30x_i2c.c ****   if (NewState != DISABLE)
 1093              		.loc 1 1138 0
 1094 02d8 11B1     		cbz	r1, .L105
 1095              		.loc 1 1141 0
 1096 02da 43F08063 		orr	r3, r3, #67108864
 1097 02de 01E0     		b	.L107
 1098              	.L105:
1142:/home/user/Desktop/STM32-Projekte/FH-Vertibot/src/STM32F30x_StdPeriph_Driver/src/stm32f30x_i2c.c ****   }
1143:/home/user/Desktop/STM32-Projekte/FH-Vertibot/src/STM32F30x_StdPeriph_Driver/src/stm32f30x_i2c.c ****   else
1144:/home/user/Desktop/STM32-Projekte/FH-Vertibot/src/STM32F30x_StdPeriph_Driver/src/stm32f30x_i2c.c ****   {
1145:/home/user/Desktop/STM32-Projekte/FH-Vertibot/src/STM32F30x_StdPeriph_Driver/src/stm32f30x_i2c.c ****     /* Disable PEC transmission/reception request */    
1146:/home/user/Desktop/STM32-Projekte/FH-Vertibot/src/STM32F30x_StdPeriph_Driver/src/stm32f30x_i2c.c ****     I2Cx->CR1 &= (uint32_t)~((uint32_t)I2C_CR2_PECBYTE); 
 1099              		.loc 1 1146 0
 1100 02e0 23F08063 		bic	r3, r3, #67108864
 1101              	.L107:
 1102 02e4 0360     		str	r3, [r0]
 1103 02e6 7047     		bx	lr
 1104              		.cfi_endproc
 1105              	.LFE143:
 1107              		.align	1
 1108              		.global	I2C_GetPEC
 1109              		.thumb
 1110              		.thumb_func
 1112              	I2C_GetPEC:
 1113              	.LFB144:
1147:/home/user/Desktop/STM32-Projekte/FH-Vertibot/src/STM32F30x_StdPeriph_Driver/src/stm32f30x_i2c.c ****   }
1148:/home/user/Desktop/STM32-Projekte/FH-Vertibot/src/STM32F30x_StdPeriph_Driver/src/stm32f30x_i2c.c **** }
1149:/home/user/Desktop/STM32-Projekte/FH-Vertibot/src/STM32F30x_StdPeriph_Driver/src/stm32f30x_i2c.c **** 
1150:/home/user/Desktop/STM32-Projekte/FH-Vertibot/src/STM32F30x_StdPeriph_Driver/src/stm32f30x_i2c.c **** /**
1151:/home/user/Desktop/STM32-Projekte/FH-Vertibot/src/STM32F30x_StdPeriph_Driver/src/stm32f30x_i2c.c ****   * @brief  Returns the I2C PEC.
1152:/home/user/Desktop/STM32-Projekte/FH-Vertibot/src/STM32F30x_StdPeriph_Driver/src/stm32f30x_i2c.c ****   * @param  I2Cx: where x can be 1 or 2 to select the I2C peripheral.
1153:/home/user/Desktop/STM32-Projekte/FH-Vertibot/src/STM32F30x_StdPeriph_Driver/src/stm32f30x_i2c.c ****   * @retval The value of the PEC .
1154:/home/user/Desktop/STM32-Projekte/FH-Vertibot/src/STM32F30x_StdPeriph_Driver/src/stm32f30x_i2c.c ****   */
1155:/home/user/Desktop/STM32-Projekte/FH-Vertibot/src/STM32F30x_StdPeriph_Driver/src/stm32f30x_i2c.c **** uint8_t I2C_GetPEC(I2C_TypeDef* I2Cx)
1156:/home/user/Desktop/STM32-Projekte/FH-Vertibot/src/STM32F30x_StdPeriph_Driver/src/stm32f30x_i2c.c **** {
 1114              		.loc 1 1156 0
 1115              		.cfi_startproc
 1116              		@ args = 0, pretend = 0, frame = 0
 1117              		@ frame_needed = 0, uses_anonymous_args = 0
 1118              		@ link register save eliminated.
 1119              	.LVL89:
1157:/home/user/Desktop/STM32-Projekte/FH-Vertibot/src/STM32F30x_StdPeriph_Driver/src/stm32f30x_i2c.c ****   /* Check the parameters */
1158:/home/user/Desktop/STM32-Projekte/FH-Vertibot/src/STM32F30x_StdPeriph_Driver/src/stm32f30x_i2c.c ****   assert_param(IS_I2C_ALL_PERIPH(I2Cx));
1159:/home/user/Desktop/STM32-Projekte/FH-Vertibot/src/STM32F30x_StdPeriph_Driver/src/stm32f30x_i2c.c ****   
1160:/home/user/Desktop/STM32-Projekte/FH-Vertibot/src/STM32F30x_StdPeriph_Driver/src/stm32f30x_i2c.c ****   /* Return the slave matched address in the SR1 register */
1161:/home/user/Desktop/STM32-Projekte/FH-Vertibot/src/STM32F30x_StdPeriph_Driver/src/stm32f30x_i2c.c ****   return (uint8_t)((uint32_t)I2Cx->PECR & I2C_PECR_PEC);
 1120              		.loc 1 1161 0
 1121 02e8 006A     		ldr	r0, [r0, #32]
 1122              	.LVL90:
1162:/home/user/Desktop/STM32-Projekte/FH-Vertibot/src/STM32F30x_StdPeriph_Driver/src/stm32f30x_i2c.c **** }
 1123              		.loc 1 1162 0
 1124 02ea C0B2     		uxtb	r0, r0
 1125 02ec 7047     		bx	lr
 1126              		.cfi_endproc
 1127              	.LFE144:
 1129              		.align	1
 1130              		.global	I2C_ReadRegister
 1131              		.thumb
 1132              		.thumb_func
 1134              	I2C_ReadRegister:
 1135              	.LFB145:
1163:/home/user/Desktop/STM32-Projekte/FH-Vertibot/src/STM32F30x_StdPeriph_Driver/src/stm32f30x_i2c.c **** 
1164:/home/user/Desktop/STM32-Projekte/FH-Vertibot/src/STM32F30x_StdPeriph_Driver/src/stm32f30x_i2c.c **** /**
1165:/home/user/Desktop/STM32-Projekte/FH-Vertibot/src/STM32F30x_StdPeriph_Driver/src/stm32f30x_i2c.c ****   * @}
1166:/home/user/Desktop/STM32-Projekte/FH-Vertibot/src/STM32F30x_StdPeriph_Driver/src/stm32f30x_i2c.c ****   */  
1167:/home/user/Desktop/STM32-Projekte/FH-Vertibot/src/STM32F30x_StdPeriph_Driver/src/stm32f30x_i2c.c ****   
1168:/home/user/Desktop/STM32-Projekte/FH-Vertibot/src/STM32F30x_StdPeriph_Driver/src/stm32f30x_i2c.c ****   
1169:/home/user/Desktop/STM32-Projekte/FH-Vertibot/src/STM32F30x_StdPeriph_Driver/src/stm32f30x_i2c.c **** /** @defgroup I2C_Group4 I2C registers management functions
1170:/home/user/Desktop/STM32-Projekte/FH-Vertibot/src/STM32F30x_StdPeriph_Driver/src/stm32f30x_i2c.c ****  *  @brief   I2C registers management functions 
1171:/home/user/Desktop/STM32-Projekte/FH-Vertibot/src/STM32F30x_StdPeriph_Driver/src/stm32f30x_i2c.c ****  *
1172:/home/user/Desktop/STM32-Projekte/FH-Vertibot/src/STM32F30x_StdPeriph_Driver/src/stm32f30x_i2c.c **** @verbatim
1173:/home/user/Desktop/STM32-Projekte/FH-Vertibot/src/STM32F30x_StdPeriph_Driver/src/stm32f30x_i2c.c ****  ===============================================================================
1174:/home/user/Desktop/STM32-Projekte/FH-Vertibot/src/STM32F30x_StdPeriph_Driver/src/stm32f30x_i2c.c ****                 ##### I2C registers management functions #####
1175:/home/user/Desktop/STM32-Projekte/FH-Vertibot/src/STM32F30x_StdPeriph_Driver/src/stm32f30x_i2c.c ****  ===============================================================================  
1176:/home/user/Desktop/STM32-Projekte/FH-Vertibot/src/STM32F30x_StdPeriph_Driver/src/stm32f30x_i2c.c ****     [..] This section provides a functions that allow user the management of 
1177:/home/user/Desktop/STM32-Projekte/FH-Vertibot/src/STM32F30x_StdPeriph_Driver/src/stm32f30x_i2c.c ****          I2C registers.
1178:/home/user/Desktop/STM32-Projekte/FH-Vertibot/src/STM32F30x_StdPeriph_Driver/src/stm32f30x_i2c.c ****          
1179:/home/user/Desktop/STM32-Projekte/FH-Vertibot/src/STM32F30x_StdPeriph_Driver/src/stm32f30x_i2c.c **** @endverbatim
1180:/home/user/Desktop/STM32-Projekte/FH-Vertibot/src/STM32F30x_StdPeriph_Driver/src/stm32f30x_i2c.c ****   * @{
1181:/home/user/Desktop/STM32-Projekte/FH-Vertibot/src/STM32F30x_StdPeriph_Driver/src/stm32f30x_i2c.c ****   */
1182:/home/user/Desktop/STM32-Projekte/FH-Vertibot/src/STM32F30x_StdPeriph_Driver/src/stm32f30x_i2c.c **** 
1183:/home/user/Desktop/STM32-Projekte/FH-Vertibot/src/STM32F30x_StdPeriph_Driver/src/stm32f30x_i2c.c ****   /**
1184:/home/user/Desktop/STM32-Projekte/FH-Vertibot/src/STM32F30x_StdPeriph_Driver/src/stm32f30x_i2c.c ****   * @brief  Reads the specified I2C register and returns its value.
1185:/home/user/Desktop/STM32-Projekte/FH-Vertibot/src/STM32F30x_StdPeriph_Driver/src/stm32f30x_i2c.c ****   * @param  I2Cx: where x can be 1 or 2 to select the I2C peripheral.
1186:/home/user/Desktop/STM32-Projekte/FH-Vertibot/src/STM32F30x_StdPeriph_Driver/src/stm32f30x_i2c.c ****   * @param  I2C_Register: specifies the register to read.
1187:/home/user/Desktop/STM32-Projekte/FH-Vertibot/src/STM32F30x_StdPeriph_Driver/src/stm32f30x_i2c.c ****   *   This parameter can be one of the following values:
1188:/home/user/Desktop/STM32-Projekte/FH-Vertibot/src/STM32F30x_StdPeriph_Driver/src/stm32f30x_i2c.c ****   *     @arg I2C_Register_CR1: CR1 register.
1189:/home/user/Desktop/STM32-Projekte/FH-Vertibot/src/STM32F30x_StdPeriph_Driver/src/stm32f30x_i2c.c ****   *     @arg I2C_Register_CR2: CR2 register.
1190:/home/user/Desktop/STM32-Projekte/FH-Vertibot/src/STM32F30x_StdPeriph_Driver/src/stm32f30x_i2c.c ****   *     @arg I2C_Register_OAR1: OAR1 register.
1191:/home/user/Desktop/STM32-Projekte/FH-Vertibot/src/STM32F30x_StdPeriph_Driver/src/stm32f30x_i2c.c ****   *     @arg I2C_Register_OAR2: OAR2 register.
1192:/home/user/Desktop/STM32-Projekte/FH-Vertibot/src/STM32F30x_StdPeriph_Driver/src/stm32f30x_i2c.c ****   *     @arg I2C_Register_TIMINGR: TIMING register.
1193:/home/user/Desktop/STM32-Projekte/FH-Vertibot/src/STM32F30x_StdPeriph_Driver/src/stm32f30x_i2c.c ****   *     @arg I2C_Register_TIMEOUTR: TIMEOUTR register.
1194:/home/user/Desktop/STM32-Projekte/FH-Vertibot/src/STM32F30x_StdPeriph_Driver/src/stm32f30x_i2c.c ****   *     @arg I2C_Register_ISR: ISR register.
1195:/home/user/Desktop/STM32-Projekte/FH-Vertibot/src/STM32F30x_StdPeriph_Driver/src/stm32f30x_i2c.c ****   *     @arg I2C_Register_ICR: ICR register.
1196:/home/user/Desktop/STM32-Projekte/FH-Vertibot/src/STM32F30x_StdPeriph_Driver/src/stm32f30x_i2c.c ****   *     @arg I2C_Register_PECR: PECR register.
1197:/home/user/Desktop/STM32-Projekte/FH-Vertibot/src/STM32F30x_StdPeriph_Driver/src/stm32f30x_i2c.c ****   *     @arg I2C_Register_RXDR: RXDR register.
1198:/home/user/Desktop/STM32-Projekte/FH-Vertibot/src/STM32F30x_StdPeriph_Driver/src/stm32f30x_i2c.c ****   *     @arg I2C_Register_TXDR: TXDR register.
1199:/home/user/Desktop/STM32-Projekte/FH-Vertibot/src/STM32F30x_StdPeriph_Driver/src/stm32f30x_i2c.c ****   * @retval The value of the read register.
1200:/home/user/Desktop/STM32-Projekte/FH-Vertibot/src/STM32F30x_StdPeriph_Driver/src/stm32f30x_i2c.c ****   */
1201:/home/user/Desktop/STM32-Projekte/FH-Vertibot/src/STM32F30x_StdPeriph_Driver/src/stm32f30x_i2c.c **** uint32_t I2C_ReadRegister(I2C_TypeDef* I2Cx, uint8_t I2C_Register)
1202:/home/user/Desktop/STM32-Projekte/FH-Vertibot/src/STM32F30x_StdPeriph_Driver/src/stm32f30x_i2c.c **** {
 1136              		.loc 1 1202 0
 1137              		.cfi_startproc
 1138              		@ args = 0, pretend = 0, frame = 8
 1139              		@ frame_needed = 0, uses_anonymous_args = 0
 1140              		@ link register save eliminated.
 1141              	.LVL91:
 1142 02ee 82B0     		sub	sp, sp, #8
 1143              	.LCFI2:
 1144              		.cfi_def_cfa_offset 8
1203:/home/user/Desktop/STM32-Projekte/FH-Vertibot/src/STM32F30x_StdPeriph_Driver/src/stm32f30x_i2c.c ****   __IO uint32_t tmp = 0;
 1145              		.loc 1 1203 0
 1146 02f0 0023     		movs	r3, #0
 1147 02f2 0193     		str	r3, [sp, #4]
1204:/home/user/Desktop/STM32-Projekte/FH-Vertibot/src/STM32F30x_StdPeriph_Driver/src/stm32f30x_i2c.c **** 
1205:/home/user/Desktop/STM32-Projekte/FH-Vertibot/src/STM32F30x_StdPeriph_Driver/src/stm32f30x_i2c.c ****   /* Check the parameters */
1206:/home/user/Desktop/STM32-Projekte/FH-Vertibot/src/STM32F30x_StdPeriph_Driver/src/stm32f30x_i2c.c ****   assert_param(IS_I2C_ALL_PERIPH(I2Cx));
1207:/home/user/Desktop/STM32-Projekte/FH-Vertibot/src/STM32F30x_StdPeriph_Driver/src/stm32f30x_i2c.c ****   assert_param(IS_I2C_REGISTER(I2C_Register));
1208:/home/user/Desktop/STM32-Projekte/FH-Vertibot/src/STM32F30x_StdPeriph_Driver/src/stm32f30x_i2c.c **** 
1209:/home/user/Desktop/STM32-Projekte/FH-Vertibot/src/STM32F30x_StdPeriph_Driver/src/stm32f30x_i2c.c ****   tmp = (uint32_t)I2Cx;
 1148              		.loc 1 1209 0
 1149 02f4 0190     		str	r0, [sp, #4]
1210:/home/user/Desktop/STM32-Projekte/FH-Vertibot/src/STM32F30x_StdPeriph_Driver/src/stm32f30x_i2c.c ****   tmp += I2C_Register;
 1150              		.loc 1 1210 0
 1151 02f6 019B     		ldr	r3, [sp, #4]
 1152 02f8 1944     		add	r1, r1, r3
 1153              	.LVL92:
 1154 02fa 0191     		str	r1, [sp, #4]
1211:/home/user/Desktop/STM32-Projekte/FH-Vertibot/src/STM32F30x_StdPeriph_Driver/src/stm32f30x_i2c.c **** 
1212:/home/user/Desktop/STM32-Projekte/FH-Vertibot/src/STM32F30x_StdPeriph_Driver/src/stm32f30x_i2c.c ****   /* Return the selected register value */
1213:/home/user/Desktop/STM32-Projekte/FH-Vertibot/src/STM32F30x_StdPeriph_Driver/src/stm32f30x_i2c.c ****   return (*(__IO uint32_t *) tmp);
 1155              		.loc 1 1213 0
 1156 02fc 019B     		ldr	r3, [sp, #4]
 1157 02fe 1868     		ldr	r0, [r3]
 1158              	.LVL93:
1214:/home/user/Desktop/STM32-Projekte/FH-Vertibot/src/STM32F30x_StdPeriph_Driver/src/stm32f30x_i2c.c **** }
 1159              		.loc 1 1214 0
 1160 0300 02B0     		add	sp, sp, #8
 1161              		@ sp needed
 1162 0302 7047     		bx	lr
 1163              		.cfi_endproc
 1164              	.LFE145:
 1166              		.align	1
 1167              		.global	I2C_SendData
 1168              		.thumb
 1169              		.thumb_func
 1171              	I2C_SendData:
 1172              	.LFB146:
1215:/home/user/Desktop/STM32-Projekte/FH-Vertibot/src/STM32F30x_StdPeriph_Driver/src/stm32f30x_i2c.c **** 
1216:/home/user/Desktop/STM32-Projekte/FH-Vertibot/src/STM32F30x_StdPeriph_Driver/src/stm32f30x_i2c.c **** /**
1217:/home/user/Desktop/STM32-Projekte/FH-Vertibot/src/STM32F30x_StdPeriph_Driver/src/stm32f30x_i2c.c ****   * @}
1218:/home/user/Desktop/STM32-Projekte/FH-Vertibot/src/STM32F30x_StdPeriph_Driver/src/stm32f30x_i2c.c ****   */  
1219:/home/user/Desktop/STM32-Projekte/FH-Vertibot/src/STM32F30x_StdPeriph_Driver/src/stm32f30x_i2c.c ****   
1220:/home/user/Desktop/STM32-Projekte/FH-Vertibot/src/STM32F30x_StdPeriph_Driver/src/stm32f30x_i2c.c **** /** @defgroup I2C_Group5 Data transfers management functions
1221:/home/user/Desktop/STM32-Projekte/FH-Vertibot/src/STM32F30x_StdPeriph_Driver/src/stm32f30x_i2c.c ****  *  @brief   Data transfers management functions 
1222:/home/user/Desktop/STM32-Projekte/FH-Vertibot/src/STM32F30x_StdPeriph_Driver/src/stm32f30x_i2c.c ****  *
1223:/home/user/Desktop/STM32-Projekte/FH-Vertibot/src/STM32F30x_StdPeriph_Driver/src/stm32f30x_i2c.c **** @verbatim
1224:/home/user/Desktop/STM32-Projekte/FH-Vertibot/src/STM32F30x_StdPeriph_Driver/src/stm32f30x_i2c.c ****  ===============================================================================
1225:/home/user/Desktop/STM32-Projekte/FH-Vertibot/src/STM32F30x_StdPeriph_Driver/src/stm32f30x_i2c.c ****                 ##### Data transfers management functions #####
1226:/home/user/Desktop/STM32-Projekte/FH-Vertibot/src/STM32F30x_StdPeriph_Driver/src/stm32f30x_i2c.c ****  =============================================================================== 
1227:/home/user/Desktop/STM32-Projekte/FH-Vertibot/src/STM32F30x_StdPeriph_Driver/src/stm32f30x_i2c.c ****     [..] This subsection provides a set of functions allowing to manage 
1228:/home/user/Desktop/STM32-Projekte/FH-Vertibot/src/STM32F30x_StdPeriph_Driver/src/stm32f30x_i2c.c ****          the I2C data transfers.
1229:/home/user/Desktop/STM32-Projekte/FH-Vertibot/src/STM32F30x_StdPeriph_Driver/src/stm32f30x_i2c.c ****          
1230:/home/user/Desktop/STM32-Projekte/FH-Vertibot/src/STM32F30x_StdPeriph_Driver/src/stm32f30x_i2c.c ****     [..] The read access of the I2C_RXDR register can be done using 
1231:/home/user/Desktop/STM32-Projekte/FH-Vertibot/src/STM32F30x_StdPeriph_Driver/src/stm32f30x_i2c.c ****          the I2C_ReceiveData() function and returns the received value.
1232:/home/user/Desktop/STM32-Projekte/FH-Vertibot/src/STM32F30x_StdPeriph_Driver/src/stm32f30x_i2c.c ****          Whereas a write access to the I2C_TXDR can be done using I2C_SendData()
1233:/home/user/Desktop/STM32-Projekte/FH-Vertibot/src/STM32F30x_StdPeriph_Driver/src/stm32f30x_i2c.c ****          function and stores the written data into TXDR.
1234:/home/user/Desktop/STM32-Projekte/FH-Vertibot/src/STM32F30x_StdPeriph_Driver/src/stm32f30x_i2c.c **** @endverbatim
1235:/home/user/Desktop/STM32-Projekte/FH-Vertibot/src/STM32F30x_StdPeriph_Driver/src/stm32f30x_i2c.c ****   * @{
1236:/home/user/Desktop/STM32-Projekte/FH-Vertibot/src/STM32F30x_StdPeriph_Driver/src/stm32f30x_i2c.c ****   */  
1237:/home/user/Desktop/STM32-Projekte/FH-Vertibot/src/STM32F30x_StdPeriph_Driver/src/stm32f30x_i2c.c ****   
1238:/home/user/Desktop/STM32-Projekte/FH-Vertibot/src/STM32F30x_StdPeriph_Driver/src/stm32f30x_i2c.c **** /**
1239:/home/user/Desktop/STM32-Projekte/FH-Vertibot/src/STM32F30x_StdPeriph_Driver/src/stm32f30x_i2c.c ****   * @brief  Sends a data byte through the I2Cx peripheral.
1240:/home/user/Desktop/STM32-Projekte/FH-Vertibot/src/STM32F30x_StdPeriph_Driver/src/stm32f30x_i2c.c ****   * @param  I2Cx: where x can be 1 or 2 to select the I2C peripheral.
1241:/home/user/Desktop/STM32-Projekte/FH-Vertibot/src/STM32F30x_StdPeriph_Driver/src/stm32f30x_i2c.c ****   * @param  Data: Byte to be transmitted..
1242:/home/user/Desktop/STM32-Projekte/FH-Vertibot/src/STM32F30x_StdPeriph_Driver/src/stm32f30x_i2c.c ****   * @retval None
1243:/home/user/Desktop/STM32-Projekte/FH-Vertibot/src/STM32F30x_StdPeriph_Driver/src/stm32f30x_i2c.c ****   */
1244:/home/user/Desktop/STM32-Projekte/FH-Vertibot/src/STM32F30x_StdPeriph_Driver/src/stm32f30x_i2c.c **** void I2C_SendData(I2C_TypeDef* I2Cx, uint8_t Data)
1245:/home/user/Desktop/STM32-Projekte/FH-Vertibot/src/STM32F30x_StdPeriph_Driver/src/stm32f30x_i2c.c **** {
 1173              		.loc 1 1245 0
 1174              		.cfi_startproc
 1175              		@ args = 0, pretend = 0, frame = 0
 1176              		@ frame_needed = 0, uses_anonymous_args = 0
 1177              		@ link register save eliminated.
 1178              	.LVL94:
1246:/home/user/Desktop/STM32-Projekte/FH-Vertibot/src/STM32F30x_StdPeriph_Driver/src/stm32f30x_i2c.c ****   /* Check the parameters */
1247:/home/user/Desktop/STM32-Projekte/FH-Vertibot/src/STM32F30x_StdPeriph_Driver/src/stm32f30x_i2c.c ****   assert_param(IS_I2C_ALL_PERIPH(I2Cx));
1248:/home/user/Desktop/STM32-Projekte/FH-Vertibot/src/STM32F30x_StdPeriph_Driver/src/stm32f30x_i2c.c ****   
1249:/home/user/Desktop/STM32-Projekte/FH-Vertibot/src/STM32F30x_StdPeriph_Driver/src/stm32f30x_i2c.c ****   /* Write in the DR register the data to be sent */
1250:/home/user/Desktop/STM32-Projekte/FH-Vertibot/src/STM32F30x_StdPeriph_Driver/src/stm32f30x_i2c.c ****   I2Cx->TXDR = (uint8_t)Data;
 1179              		.loc 1 1250 0
 1180 0304 8162     		str	r1, [r0, #40]
 1181 0306 7047     		bx	lr
 1182              		.cfi_endproc
 1183              	.LFE146:
 1185              		.align	1
 1186              		.global	I2C_ReceiveData
 1187              		.thumb
 1188              		.thumb_func
 1190              	I2C_ReceiveData:
 1191              	.LFB147:
1251:/home/user/Desktop/STM32-Projekte/FH-Vertibot/src/STM32F30x_StdPeriph_Driver/src/stm32f30x_i2c.c **** }
1252:/home/user/Desktop/STM32-Projekte/FH-Vertibot/src/STM32F30x_StdPeriph_Driver/src/stm32f30x_i2c.c **** 
1253:/home/user/Desktop/STM32-Projekte/FH-Vertibot/src/STM32F30x_StdPeriph_Driver/src/stm32f30x_i2c.c **** /**
1254:/home/user/Desktop/STM32-Projekte/FH-Vertibot/src/STM32F30x_StdPeriph_Driver/src/stm32f30x_i2c.c ****   * @brief  Returns the most recent received data by the I2Cx peripheral.
1255:/home/user/Desktop/STM32-Projekte/FH-Vertibot/src/STM32F30x_StdPeriph_Driver/src/stm32f30x_i2c.c ****   * @param  I2Cx: where x can be 1 or 2 to select the I2C peripheral.
1256:/home/user/Desktop/STM32-Projekte/FH-Vertibot/src/STM32F30x_StdPeriph_Driver/src/stm32f30x_i2c.c ****   * @retval The value of the received data.
1257:/home/user/Desktop/STM32-Projekte/FH-Vertibot/src/STM32F30x_StdPeriph_Driver/src/stm32f30x_i2c.c ****   */
1258:/home/user/Desktop/STM32-Projekte/FH-Vertibot/src/STM32F30x_StdPeriph_Driver/src/stm32f30x_i2c.c **** uint8_t I2C_ReceiveData(I2C_TypeDef* I2Cx)
1259:/home/user/Desktop/STM32-Projekte/FH-Vertibot/src/STM32F30x_StdPeriph_Driver/src/stm32f30x_i2c.c **** {
 1192              		.loc 1 1259 0
 1193              		.cfi_startproc
 1194              		@ args = 0, pretend = 0, frame = 0
 1195              		@ frame_needed = 0, uses_anonymous_args = 0
 1196              		@ link register save eliminated.
 1197              	.LVL95:
1260:/home/user/Desktop/STM32-Projekte/FH-Vertibot/src/STM32F30x_StdPeriph_Driver/src/stm32f30x_i2c.c ****   /* Check the parameters */
1261:/home/user/Desktop/STM32-Projekte/FH-Vertibot/src/STM32F30x_StdPeriph_Driver/src/stm32f30x_i2c.c ****   assert_param(IS_I2C_ALL_PERIPH(I2Cx));
1262:/home/user/Desktop/STM32-Projekte/FH-Vertibot/src/STM32F30x_StdPeriph_Driver/src/stm32f30x_i2c.c ****   
1263:/home/user/Desktop/STM32-Projekte/FH-Vertibot/src/STM32F30x_StdPeriph_Driver/src/stm32f30x_i2c.c ****   /* Return the data in the DR register */
1264:/home/user/Desktop/STM32-Projekte/FH-Vertibot/src/STM32F30x_StdPeriph_Driver/src/stm32f30x_i2c.c ****   return (uint8_t)I2Cx->RXDR;
 1198              		.loc 1 1264 0
 1199 0308 406A     		ldr	r0, [r0, #36]
 1200              	.LVL96:
1265:/home/user/Desktop/STM32-Projekte/FH-Vertibot/src/STM32F30x_StdPeriph_Driver/src/stm32f30x_i2c.c **** }  
 1201              		.loc 1 1265 0
 1202 030a C0B2     		uxtb	r0, r0
 1203 030c 7047     		bx	lr
 1204              		.cfi_endproc
 1205              	.LFE147:
 1207              		.align	1
 1208              		.global	I2C_DMACmd
 1209              		.thumb
 1210              		.thumb_func
 1212              	I2C_DMACmd:
 1213              	.LFB148:
1266:/home/user/Desktop/STM32-Projekte/FH-Vertibot/src/STM32F30x_StdPeriph_Driver/src/stm32f30x_i2c.c **** 
1267:/home/user/Desktop/STM32-Projekte/FH-Vertibot/src/STM32F30x_StdPeriph_Driver/src/stm32f30x_i2c.c **** /**
1268:/home/user/Desktop/STM32-Projekte/FH-Vertibot/src/STM32F30x_StdPeriph_Driver/src/stm32f30x_i2c.c ****   * @}
1269:/home/user/Desktop/STM32-Projekte/FH-Vertibot/src/STM32F30x_StdPeriph_Driver/src/stm32f30x_i2c.c ****   */ 
1270:/home/user/Desktop/STM32-Projekte/FH-Vertibot/src/STM32F30x_StdPeriph_Driver/src/stm32f30x_i2c.c ****   
1271:/home/user/Desktop/STM32-Projekte/FH-Vertibot/src/STM32F30x_StdPeriph_Driver/src/stm32f30x_i2c.c ****   
1272:/home/user/Desktop/STM32-Projekte/FH-Vertibot/src/STM32F30x_StdPeriph_Driver/src/stm32f30x_i2c.c **** /** @defgroup I2C_Group6 DMA transfers management functions
1273:/home/user/Desktop/STM32-Projekte/FH-Vertibot/src/STM32F30x_StdPeriph_Driver/src/stm32f30x_i2c.c ****  *  @brief   DMA transfers management functions 
1274:/home/user/Desktop/STM32-Projekte/FH-Vertibot/src/STM32F30x_StdPeriph_Driver/src/stm32f30x_i2c.c ****  *
1275:/home/user/Desktop/STM32-Projekte/FH-Vertibot/src/STM32F30x_StdPeriph_Driver/src/stm32f30x_i2c.c **** @verbatim
1276:/home/user/Desktop/STM32-Projekte/FH-Vertibot/src/STM32F30x_StdPeriph_Driver/src/stm32f30x_i2c.c ****  ===============================================================================
1277:/home/user/Desktop/STM32-Projekte/FH-Vertibot/src/STM32F30x_StdPeriph_Driver/src/stm32f30x_i2c.c ****                ##### DMA transfers management functions #####
1278:/home/user/Desktop/STM32-Projekte/FH-Vertibot/src/STM32F30x_StdPeriph_Driver/src/stm32f30x_i2c.c ****  ===============================================================================  
1279:/home/user/Desktop/STM32-Projekte/FH-Vertibot/src/STM32F30x_StdPeriph_Driver/src/stm32f30x_i2c.c ****     [..] This section provides two functions that can be used only in DMA mode.
1280:/home/user/Desktop/STM32-Projekte/FH-Vertibot/src/STM32F30x_StdPeriph_Driver/src/stm32f30x_i2c.c ****     [..] In DMA Mode, the I2C communication can be managed by 2 DMA Channel 
1281:/home/user/Desktop/STM32-Projekte/FH-Vertibot/src/STM32F30x_StdPeriph_Driver/src/stm32f30x_i2c.c ****          requests:
1282:/home/user/Desktop/STM32-Projekte/FH-Vertibot/src/STM32F30x_StdPeriph_Driver/src/stm32f30x_i2c.c ****          (#) I2C_DMAReq_Tx: specifies the Tx buffer DMA transfer request.
1283:/home/user/Desktop/STM32-Projekte/FH-Vertibot/src/STM32F30x_StdPeriph_Driver/src/stm32f30x_i2c.c ****          (#) I2C_DMAReq_Rx: specifies the Rx buffer DMA transfer request.
1284:/home/user/Desktop/STM32-Projekte/FH-Vertibot/src/STM32F30x_StdPeriph_Driver/src/stm32f30x_i2c.c ****     [..] In this Mode it is advised to use the following function:
1285:/home/user/Desktop/STM32-Projekte/FH-Vertibot/src/STM32F30x_StdPeriph_Driver/src/stm32f30x_i2c.c ****          (+) I2C_DMACmd(I2C_TypeDef* I2Cx, uint32_t I2C_DMAReq, FunctionalState NewState);
1286:/home/user/Desktop/STM32-Projekte/FH-Vertibot/src/STM32F30x_StdPeriph_Driver/src/stm32f30x_i2c.c **** @endverbatim
1287:/home/user/Desktop/STM32-Projekte/FH-Vertibot/src/STM32F30x_StdPeriph_Driver/src/stm32f30x_i2c.c ****   * @{
1288:/home/user/Desktop/STM32-Projekte/FH-Vertibot/src/STM32F30x_StdPeriph_Driver/src/stm32f30x_i2c.c ****   */  
1289:/home/user/Desktop/STM32-Projekte/FH-Vertibot/src/STM32F30x_StdPeriph_Driver/src/stm32f30x_i2c.c ****     
1290:/home/user/Desktop/STM32-Projekte/FH-Vertibot/src/STM32F30x_StdPeriph_Driver/src/stm32f30x_i2c.c **** /**
1291:/home/user/Desktop/STM32-Projekte/FH-Vertibot/src/STM32F30x_StdPeriph_Driver/src/stm32f30x_i2c.c ****   * @brief  Enables or disables the I2C DMA interface.
1292:/home/user/Desktop/STM32-Projekte/FH-Vertibot/src/STM32F30x_StdPeriph_Driver/src/stm32f30x_i2c.c ****   * @param  I2Cx: where x can be 1 or 2 to select the I2C peripheral.
1293:/home/user/Desktop/STM32-Projekte/FH-Vertibot/src/STM32F30x_StdPeriph_Driver/src/stm32f30x_i2c.c ****   * @param  I2C_DMAReq: specifies the I2C DMA transfer request to be enabled or disabled. 
1294:/home/user/Desktop/STM32-Projekte/FH-Vertibot/src/STM32F30x_StdPeriph_Driver/src/stm32f30x_i2c.c ****   *   This parameter can be any combination of the following values:
1295:/home/user/Desktop/STM32-Projekte/FH-Vertibot/src/STM32F30x_StdPeriph_Driver/src/stm32f30x_i2c.c ****   *     @arg I2C_DMAReq_Tx: Tx DMA transfer request
1296:/home/user/Desktop/STM32-Projekte/FH-Vertibot/src/STM32F30x_StdPeriph_Driver/src/stm32f30x_i2c.c ****   *     @arg I2C_DMAReq_Rx: Rx DMA transfer request
1297:/home/user/Desktop/STM32-Projekte/FH-Vertibot/src/STM32F30x_StdPeriph_Driver/src/stm32f30x_i2c.c ****   * @param  NewState: new state of the selected I2C DMA transfer request.
1298:/home/user/Desktop/STM32-Projekte/FH-Vertibot/src/STM32F30x_StdPeriph_Driver/src/stm32f30x_i2c.c ****   *         This parameter can be: ENABLE or DISABLE.
1299:/home/user/Desktop/STM32-Projekte/FH-Vertibot/src/STM32F30x_StdPeriph_Driver/src/stm32f30x_i2c.c ****   * @retval None
1300:/home/user/Desktop/STM32-Projekte/FH-Vertibot/src/STM32F30x_StdPeriph_Driver/src/stm32f30x_i2c.c ****   */
1301:/home/user/Desktop/STM32-Projekte/FH-Vertibot/src/STM32F30x_StdPeriph_Driver/src/stm32f30x_i2c.c **** void I2C_DMACmd(I2C_TypeDef* I2Cx, uint32_t I2C_DMAReq, FunctionalState NewState)
1302:/home/user/Desktop/STM32-Projekte/FH-Vertibot/src/STM32F30x_StdPeriph_Driver/src/stm32f30x_i2c.c **** {
 1214              		.loc 1 1302 0
 1215              		.cfi_startproc
 1216              		@ args = 0, pretend = 0, frame = 0
 1217              		@ frame_needed = 0, uses_anonymous_args = 0
 1218              		@ link register save eliminated.
 1219              	.LVL97:
1303:/home/user/Desktop/STM32-Projekte/FH-Vertibot/src/STM32F30x_StdPeriph_Driver/src/stm32f30x_i2c.c ****   /* Check the parameters */
1304:/home/user/Desktop/STM32-Projekte/FH-Vertibot/src/STM32F30x_StdPeriph_Driver/src/stm32f30x_i2c.c ****   assert_param(IS_I2C_ALL_PERIPH(I2Cx));
1305:/home/user/Desktop/STM32-Projekte/FH-Vertibot/src/STM32F30x_StdPeriph_Driver/src/stm32f30x_i2c.c ****   assert_param(IS_FUNCTIONAL_STATE(NewState));
1306:/home/user/Desktop/STM32-Projekte/FH-Vertibot/src/STM32F30x_StdPeriph_Driver/src/stm32f30x_i2c.c ****   assert_param(IS_I2C_DMA_REQ(I2C_DMAReq));
1307:/home/user/Desktop/STM32-Projekte/FH-Vertibot/src/STM32F30x_StdPeriph_Driver/src/stm32f30x_i2c.c **** 
1308:/home/user/Desktop/STM32-Projekte/FH-Vertibot/src/STM32F30x_StdPeriph_Driver/src/stm32f30x_i2c.c ****   if (NewState != DISABLE)
1309:/home/user/Desktop/STM32-Projekte/FH-Vertibot/src/STM32F30x_StdPeriph_Driver/src/stm32f30x_i2c.c ****   {
1310:/home/user/Desktop/STM32-Projekte/FH-Vertibot/src/STM32F30x_StdPeriph_Driver/src/stm32f30x_i2c.c ****     /* Enable the selected I2C DMA requests */
1311:/home/user/Desktop/STM32-Projekte/FH-Vertibot/src/STM32F30x_StdPeriph_Driver/src/stm32f30x_i2c.c ****     I2Cx->CR1 |= I2C_DMAReq;
 1220              		.loc 1 1311 0
 1221 030e 0368     		ldr	r3, [r0]
1308:/home/user/Desktop/STM32-Projekte/FH-Vertibot/src/STM32F30x_StdPeriph_Driver/src/stm32f30x_i2c.c ****   if (NewState != DISABLE)
 1222              		.loc 1 1308 0
 1223 0310 0AB1     		cbz	r2, .L113
 1224              		.loc 1 1311 0
 1225 0312 1943     		orrs	r1, r1, r3
 1226              	.LVL98:
 1227 0314 01E0     		b	.L115
 1228              	.LVL99:
 1229              	.L113:
1312:/home/user/Desktop/STM32-Projekte/FH-Vertibot/src/STM32F30x_StdPeriph_Driver/src/stm32f30x_i2c.c ****   }
1313:/home/user/Desktop/STM32-Projekte/FH-Vertibot/src/STM32F30x_StdPeriph_Driver/src/stm32f30x_i2c.c ****   else
1314:/home/user/Desktop/STM32-Projekte/FH-Vertibot/src/STM32F30x_StdPeriph_Driver/src/stm32f30x_i2c.c ****   {
1315:/home/user/Desktop/STM32-Projekte/FH-Vertibot/src/STM32F30x_StdPeriph_Driver/src/stm32f30x_i2c.c ****     /* Disable the selected I2C DMA requests */
1316:/home/user/Desktop/STM32-Projekte/FH-Vertibot/src/STM32F30x_StdPeriph_Driver/src/stm32f30x_i2c.c ****     I2Cx->CR1 &= (uint32_t)~I2C_DMAReq;
 1230              		.loc 1 1316 0
 1231 0316 23EA0101 		bic	r1, r3, r1
 1232              	.LVL100:
 1233              	.L115:
 1234 031a 0160     		str	r1, [r0]
 1235 031c 7047     		bx	lr
 1236              		.cfi_endproc
 1237              	.LFE148:
 1239              		.align	1
 1240              		.global	I2C_GetFlagStatus
 1241              		.thumb
 1242              		.thumb_func
 1244              	I2C_GetFlagStatus:
 1245              	.LFB149:
1317:/home/user/Desktop/STM32-Projekte/FH-Vertibot/src/STM32F30x_StdPeriph_Driver/src/stm32f30x_i2c.c ****   }
1318:/home/user/Desktop/STM32-Projekte/FH-Vertibot/src/STM32F30x_StdPeriph_Driver/src/stm32f30x_i2c.c **** }
1319:/home/user/Desktop/STM32-Projekte/FH-Vertibot/src/STM32F30x_StdPeriph_Driver/src/stm32f30x_i2c.c **** /**
1320:/home/user/Desktop/STM32-Projekte/FH-Vertibot/src/STM32F30x_StdPeriph_Driver/src/stm32f30x_i2c.c ****   * @}
1321:/home/user/Desktop/STM32-Projekte/FH-Vertibot/src/STM32F30x_StdPeriph_Driver/src/stm32f30x_i2c.c ****   */  
1322:/home/user/Desktop/STM32-Projekte/FH-Vertibot/src/STM32F30x_StdPeriph_Driver/src/stm32f30x_i2c.c **** 
1323:/home/user/Desktop/STM32-Projekte/FH-Vertibot/src/STM32F30x_StdPeriph_Driver/src/stm32f30x_i2c.c **** 
1324:/home/user/Desktop/STM32-Projekte/FH-Vertibot/src/STM32F30x_StdPeriph_Driver/src/stm32f30x_i2c.c **** /** @defgroup I2C_Group7 Interrupts and flags management functions
1325:/home/user/Desktop/STM32-Projekte/FH-Vertibot/src/STM32F30x_StdPeriph_Driver/src/stm32f30x_i2c.c ****  *  @brief   Interrupts and flags management functions 
1326:/home/user/Desktop/STM32-Projekte/FH-Vertibot/src/STM32F30x_StdPeriph_Driver/src/stm32f30x_i2c.c ****  *
1327:/home/user/Desktop/STM32-Projekte/FH-Vertibot/src/STM32F30x_StdPeriph_Driver/src/stm32f30x_i2c.c **** @verbatim
1328:/home/user/Desktop/STM32-Projekte/FH-Vertibot/src/STM32F30x_StdPeriph_Driver/src/stm32f30x_i2c.c ****  ===============================================================================
1329:/home/user/Desktop/STM32-Projekte/FH-Vertibot/src/STM32F30x_StdPeriph_Driver/src/stm32f30x_i2c.c ****              ##### Interrupts and flags management functions  #####
1330:/home/user/Desktop/STM32-Projekte/FH-Vertibot/src/STM32F30x_StdPeriph_Driver/src/stm32f30x_i2c.c ****  =============================================================================== 
1331:/home/user/Desktop/STM32-Projekte/FH-Vertibot/src/STM32F30x_StdPeriph_Driver/src/stm32f30x_i2c.c ****     [..] This section provides functions allowing to configure the I2C Interrupts 
1332:/home/user/Desktop/STM32-Projekte/FH-Vertibot/src/STM32F30x_StdPeriph_Driver/src/stm32f30x_i2c.c ****          sources and check or clear the flags or pending bits status.
1333:/home/user/Desktop/STM32-Projekte/FH-Vertibot/src/STM32F30x_StdPeriph_Driver/src/stm32f30x_i2c.c ****          The user should identify which mode will be used in his application to manage 
1334:/home/user/Desktop/STM32-Projekte/FH-Vertibot/src/STM32F30x_StdPeriph_Driver/src/stm32f30x_i2c.c ****          the communication: Polling mode, Interrupt mode or DMA mode(refer I2C_Group6) .
1335:/home/user/Desktop/STM32-Projekte/FH-Vertibot/src/STM32F30x_StdPeriph_Driver/src/stm32f30x_i2c.c **** 
1336:/home/user/Desktop/STM32-Projekte/FH-Vertibot/src/STM32F30x_StdPeriph_Driver/src/stm32f30x_i2c.c ****   *** Polling Mode ***
1337:/home/user/Desktop/STM32-Projekte/FH-Vertibot/src/STM32F30x_StdPeriph_Driver/src/stm32f30x_i2c.c ****   ====================
1338:/home/user/Desktop/STM32-Projekte/FH-Vertibot/src/STM32F30x_StdPeriph_Driver/src/stm32f30x_i2c.c ****     [..] In Polling Mode, the I2C communication can be managed by 15 flags:
1339:/home/user/Desktop/STM32-Projekte/FH-Vertibot/src/STM32F30x_StdPeriph_Driver/src/stm32f30x_i2c.c ****         (#) I2C_FLAG_TXE: to indicate the status of Transmit data register empty flag.
1340:/home/user/Desktop/STM32-Projekte/FH-Vertibot/src/STM32F30x_StdPeriph_Driver/src/stm32f30x_i2c.c ****         (#) I2C_FLAG_TXIS: to indicate the status of Transmit interrupt status flag .
1341:/home/user/Desktop/STM32-Projekte/FH-Vertibot/src/STM32F30x_StdPeriph_Driver/src/stm32f30x_i2c.c ****         (#) I2C_FLAG_RXNE: to indicate the status of Receive data register not empty flag.
1342:/home/user/Desktop/STM32-Projekte/FH-Vertibot/src/STM32F30x_StdPeriph_Driver/src/stm32f30x_i2c.c ****         (#) I2C_FLAG_ADDR: to indicate the status of Address matched flag (slave mode).
1343:/home/user/Desktop/STM32-Projekte/FH-Vertibot/src/STM32F30x_StdPeriph_Driver/src/stm32f30x_i2c.c ****         (#) I2C_FLAG_NACKF: to indicate the status of NACK received flag.
1344:/home/user/Desktop/STM32-Projekte/FH-Vertibot/src/STM32F30x_StdPeriph_Driver/src/stm32f30x_i2c.c ****         (#) I2C_FLAG_STOPF: to indicate the status of STOP detection flag.
1345:/home/user/Desktop/STM32-Projekte/FH-Vertibot/src/STM32F30x_StdPeriph_Driver/src/stm32f30x_i2c.c ****         (#) I2C_FLAG_TC: to indicate the status of Transfer complete flag(master mode).
1346:/home/user/Desktop/STM32-Projekte/FH-Vertibot/src/STM32F30x_StdPeriph_Driver/src/stm32f30x_i2c.c ****         (#) I2C_FLAG_TCR: to indicate the status of Transfer complete reload flag.
1347:/home/user/Desktop/STM32-Projekte/FH-Vertibot/src/STM32F30x_StdPeriph_Driver/src/stm32f30x_i2c.c ****         (#) I2C_FLAG_BERR: to indicate the status of Bus error flag.
1348:/home/user/Desktop/STM32-Projekte/FH-Vertibot/src/STM32F30x_StdPeriph_Driver/src/stm32f30x_i2c.c ****         (#) I2C_FLAG_ARLO: to indicate the status of Arbitration lost flag.
1349:/home/user/Desktop/STM32-Projekte/FH-Vertibot/src/STM32F30x_StdPeriph_Driver/src/stm32f30x_i2c.c ****         (#) I2C_FLAG_OVR: to indicate the status of Overrun/Underrun flag.
1350:/home/user/Desktop/STM32-Projekte/FH-Vertibot/src/STM32F30x_StdPeriph_Driver/src/stm32f30x_i2c.c ****         (#) I2C_FLAG_PECERR: to indicate the status of PEC error in reception flag.
1351:/home/user/Desktop/STM32-Projekte/FH-Vertibot/src/STM32F30x_StdPeriph_Driver/src/stm32f30x_i2c.c ****         (#) I2C_FLAG_TIMEOUT: to indicate the status of Timeout or Tlow detection flag.
1352:/home/user/Desktop/STM32-Projekte/FH-Vertibot/src/STM32F30x_StdPeriph_Driver/src/stm32f30x_i2c.c ****         (#) I2C_FLAG_ALERT: to indicate the status of SMBus Alert flag.
1353:/home/user/Desktop/STM32-Projekte/FH-Vertibot/src/STM32F30x_StdPeriph_Driver/src/stm32f30x_i2c.c ****         (#) I2C_FLAG_BUSY: to indicate the status of Bus busy flag.
1354:/home/user/Desktop/STM32-Projekte/FH-Vertibot/src/STM32F30x_StdPeriph_Driver/src/stm32f30x_i2c.c **** 
1355:/home/user/Desktop/STM32-Projekte/FH-Vertibot/src/STM32F30x_StdPeriph_Driver/src/stm32f30x_i2c.c ****     [..] In this Mode it is advised to use the following functions:
1356:/home/user/Desktop/STM32-Projekte/FH-Vertibot/src/STM32F30x_StdPeriph_Driver/src/stm32f30x_i2c.c ****         (+) FlagStatus I2C_GetFlagStatus(I2C_TypeDef* I2Cx, uint32_t I2C_FLAG);
1357:/home/user/Desktop/STM32-Projekte/FH-Vertibot/src/STM32F30x_StdPeriph_Driver/src/stm32f30x_i2c.c ****         (+) void I2C_ClearFlag(I2C_TypeDef* I2Cx, uint32_t I2C_FLAG);
1358:/home/user/Desktop/STM32-Projekte/FH-Vertibot/src/STM32F30x_StdPeriph_Driver/src/stm32f30x_i2c.c **** 
1359:/home/user/Desktop/STM32-Projekte/FH-Vertibot/src/STM32F30x_StdPeriph_Driver/src/stm32f30x_i2c.c ****     [..]
1360:/home/user/Desktop/STM32-Projekte/FH-Vertibot/src/STM32F30x_StdPeriph_Driver/src/stm32f30x_i2c.c ****         (@)Do not use the BUSY flag to handle each data transmission or reception.It is 
1361:/home/user/Desktop/STM32-Projekte/FH-Vertibot/src/STM32F30x_StdPeriph_Driver/src/stm32f30x_i2c.c ****            better to use the TXIS and RXNE flags instead.
1362:/home/user/Desktop/STM32-Projekte/FH-Vertibot/src/STM32F30x_StdPeriph_Driver/src/stm32f30x_i2c.c **** 
1363:/home/user/Desktop/STM32-Projekte/FH-Vertibot/src/STM32F30x_StdPeriph_Driver/src/stm32f30x_i2c.c ****   *** Interrupt Mode ***
1364:/home/user/Desktop/STM32-Projekte/FH-Vertibot/src/STM32F30x_StdPeriph_Driver/src/stm32f30x_i2c.c ****   ======================
1365:/home/user/Desktop/STM32-Projekte/FH-Vertibot/src/STM32F30x_StdPeriph_Driver/src/stm32f30x_i2c.c ****     [..] In Interrupt Mode, the I2C communication can be managed by 7 interrupt sources
1366:/home/user/Desktop/STM32-Projekte/FH-Vertibot/src/STM32F30x_StdPeriph_Driver/src/stm32f30x_i2c.c ****          and 15 pending bits: 
1367:/home/user/Desktop/STM32-Projekte/FH-Vertibot/src/STM32F30x_StdPeriph_Driver/src/stm32f30x_i2c.c ****     [..] Interrupt Source:
1368:/home/user/Desktop/STM32-Projekte/FH-Vertibot/src/STM32F30x_StdPeriph_Driver/src/stm32f30x_i2c.c ****         (#) I2C_IT_ERRI: specifies the interrupt source for the Error interrupt.
1369:/home/user/Desktop/STM32-Projekte/FH-Vertibot/src/STM32F30x_StdPeriph_Driver/src/stm32f30x_i2c.c ****         (#) I2C_IT_TCI: specifies the interrupt source for the Transfer Complete interrupt.
1370:/home/user/Desktop/STM32-Projekte/FH-Vertibot/src/STM32F30x_StdPeriph_Driver/src/stm32f30x_i2c.c ****         (#) I2C_IT_STOPI: specifies the interrupt source for the Stop Detection interrupt.
1371:/home/user/Desktop/STM32-Projekte/FH-Vertibot/src/STM32F30x_StdPeriph_Driver/src/stm32f30x_i2c.c ****         (#) I2C_IT_NACKI: specifies the interrupt source for the Not Acknowledge received interrupt
1372:/home/user/Desktop/STM32-Projekte/FH-Vertibot/src/STM32F30x_StdPeriph_Driver/src/stm32f30x_i2c.c ****         (#) I2C_IT_ADDRI: specifies the interrupt source for the Address Match interrupt.  
1373:/home/user/Desktop/STM32-Projekte/FH-Vertibot/src/STM32F30x_StdPeriph_Driver/src/stm32f30x_i2c.c ****         (#) I2C_IT_RXI: specifies the interrupt source for the RX interrupt.
1374:/home/user/Desktop/STM32-Projekte/FH-Vertibot/src/STM32F30x_StdPeriph_Driver/src/stm32f30x_i2c.c ****         (#) I2C_IT_TXI: specifies the interrupt source for the TX interrupt.
1375:/home/user/Desktop/STM32-Projekte/FH-Vertibot/src/STM32F30x_StdPeriph_Driver/src/stm32f30x_i2c.c **** 
1376:/home/user/Desktop/STM32-Projekte/FH-Vertibot/src/STM32F30x_StdPeriph_Driver/src/stm32f30x_i2c.c ****     [..] Pending Bits:
1377:/home/user/Desktop/STM32-Projekte/FH-Vertibot/src/STM32F30x_StdPeriph_Driver/src/stm32f30x_i2c.c ****         (#) I2C_IT_TXIS: to indicate the status of Transmit interrupt status flag.
1378:/home/user/Desktop/STM32-Projekte/FH-Vertibot/src/STM32F30x_StdPeriph_Driver/src/stm32f30x_i2c.c ****         (#) I2C_IT_RXNE: to indicate the status of Receive data register not empty flag.
1379:/home/user/Desktop/STM32-Projekte/FH-Vertibot/src/STM32F30x_StdPeriph_Driver/src/stm32f30x_i2c.c ****         (#) I2C_IT_ADDR: to indicate the status of Address matched flag (slave mode).
1380:/home/user/Desktop/STM32-Projekte/FH-Vertibot/src/STM32F30x_StdPeriph_Driver/src/stm32f30x_i2c.c ****         (#) I2C_IT_NACKF: to indicate the status of NACK received flag.
1381:/home/user/Desktop/STM32-Projekte/FH-Vertibot/src/STM32F30x_StdPeriph_Driver/src/stm32f30x_i2c.c ****         (#) I2C_IT_STOPF: to indicate the status of STOP detection flag.
1382:/home/user/Desktop/STM32-Projekte/FH-Vertibot/src/STM32F30x_StdPeriph_Driver/src/stm32f30x_i2c.c ****         (#) I2C_IT_TC: to indicate the status of Transfer complete flag (master mode).
1383:/home/user/Desktop/STM32-Projekte/FH-Vertibot/src/STM32F30x_StdPeriph_Driver/src/stm32f30x_i2c.c ****         (#) I2C_IT_TCR: to indicate the status of Transfer complete reload flag.
1384:/home/user/Desktop/STM32-Projekte/FH-Vertibot/src/STM32F30x_StdPeriph_Driver/src/stm32f30x_i2c.c ****         (#) I2C_IT_BERR: to indicate the status of Bus error flag.
1385:/home/user/Desktop/STM32-Projekte/FH-Vertibot/src/STM32F30x_StdPeriph_Driver/src/stm32f30x_i2c.c ****         (#) I2C_IT_ARLO: to indicate the status of Arbitration lost flag.
1386:/home/user/Desktop/STM32-Projekte/FH-Vertibot/src/STM32F30x_StdPeriph_Driver/src/stm32f30x_i2c.c ****         (#) I2C_IT_OVR: to indicate the status of Overrun/Underrun flag.
1387:/home/user/Desktop/STM32-Projekte/FH-Vertibot/src/STM32F30x_StdPeriph_Driver/src/stm32f30x_i2c.c ****         (#) I2C_IT_PECERR: to indicate the status of PEC error in reception flag.
1388:/home/user/Desktop/STM32-Projekte/FH-Vertibot/src/STM32F30x_StdPeriph_Driver/src/stm32f30x_i2c.c ****         (#) I2C_IT_TIMEOUT: to indicate the status of Timeout or Tlow detection flag.
1389:/home/user/Desktop/STM32-Projekte/FH-Vertibot/src/STM32F30x_StdPeriph_Driver/src/stm32f30x_i2c.c ****         (#) I2C_IT_ALERT: to indicate the status of SMBus Alert flag.
1390:/home/user/Desktop/STM32-Projekte/FH-Vertibot/src/STM32F30x_StdPeriph_Driver/src/stm32f30x_i2c.c **** 
1391:/home/user/Desktop/STM32-Projekte/FH-Vertibot/src/STM32F30x_StdPeriph_Driver/src/stm32f30x_i2c.c ****     [..] In this Mode it is advised to use the following functions:
1392:/home/user/Desktop/STM32-Projekte/FH-Vertibot/src/STM32F30x_StdPeriph_Driver/src/stm32f30x_i2c.c ****          (+) void I2C_ClearITPendingBit(I2C_TypeDef* I2Cx, uint32_t I2C_IT);
1393:/home/user/Desktop/STM32-Projekte/FH-Vertibot/src/STM32F30x_StdPeriph_Driver/src/stm32f30x_i2c.c ****          (+) ITStatus I2C_GetITStatus(I2C_TypeDef* I2Cx, uint32_t I2C_IT);
1394:/home/user/Desktop/STM32-Projekte/FH-Vertibot/src/STM32F30x_StdPeriph_Driver/src/stm32f30x_i2c.c **** 
1395:/home/user/Desktop/STM32-Projekte/FH-Vertibot/src/STM32F30x_StdPeriph_Driver/src/stm32f30x_i2c.c **** @endverbatim
1396:/home/user/Desktop/STM32-Projekte/FH-Vertibot/src/STM32F30x_StdPeriph_Driver/src/stm32f30x_i2c.c ****   * @{
1397:/home/user/Desktop/STM32-Projekte/FH-Vertibot/src/STM32F30x_StdPeriph_Driver/src/stm32f30x_i2c.c ****   */  
1398:/home/user/Desktop/STM32-Projekte/FH-Vertibot/src/STM32F30x_StdPeriph_Driver/src/stm32f30x_i2c.c **** 
1399:/home/user/Desktop/STM32-Projekte/FH-Vertibot/src/STM32F30x_StdPeriph_Driver/src/stm32f30x_i2c.c **** /**
1400:/home/user/Desktop/STM32-Projekte/FH-Vertibot/src/STM32F30x_StdPeriph_Driver/src/stm32f30x_i2c.c ****   * @brief  Checks whether the specified I2C flag is set or not.
1401:/home/user/Desktop/STM32-Projekte/FH-Vertibot/src/STM32F30x_StdPeriph_Driver/src/stm32f30x_i2c.c ****   * @param  I2Cx: where x can be 1 or 2 to select the I2C peripheral.
1402:/home/user/Desktop/STM32-Projekte/FH-Vertibot/src/STM32F30x_StdPeriph_Driver/src/stm32f30x_i2c.c ****   * @param  I2C_FLAG: specifies the flag to check. 
1403:/home/user/Desktop/STM32-Projekte/FH-Vertibot/src/STM32F30x_StdPeriph_Driver/src/stm32f30x_i2c.c ****   *   This parameter can be one of the following values:
1404:/home/user/Desktop/STM32-Projekte/FH-Vertibot/src/STM32F30x_StdPeriph_Driver/src/stm32f30x_i2c.c ****   *     @arg I2C_FLAG_TXE: Transmit data register empty
1405:/home/user/Desktop/STM32-Projekte/FH-Vertibot/src/STM32F30x_StdPeriph_Driver/src/stm32f30x_i2c.c ****   *     @arg I2C_FLAG_TXIS: Transmit interrupt status
1406:/home/user/Desktop/STM32-Projekte/FH-Vertibot/src/STM32F30x_StdPeriph_Driver/src/stm32f30x_i2c.c ****   *     @arg I2C_FLAG_RXNE: Receive data register not empty
1407:/home/user/Desktop/STM32-Projekte/FH-Vertibot/src/STM32F30x_StdPeriph_Driver/src/stm32f30x_i2c.c ****   *     @arg I2C_FLAG_ADDR: Address matched (slave mode)
1408:/home/user/Desktop/STM32-Projekte/FH-Vertibot/src/STM32F30x_StdPeriph_Driver/src/stm32f30x_i2c.c ****   *     @arg I2C_FLAG_NACKF: NACK received flag
1409:/home/user/Desktop/STM32-Projekte/FH-Vertibot/src/STM32F30x_StdPeriph_Driver/src/stm32f30x_i2c.c ****   *     @arg I2C_FLAG_STOPF: STOP detection flag
1410:/home/user/Desktop/STM32-Projekte/FH-Vertibot/src/STM32F30x_StdPeriph_Driver/src/stm32f30x_i2c.c ****   *     @arg I2C_FLAG_TC: Transfer complete (master mode)
1411:/home/user/Desktop/STM32-Projekte/FH-Vertibot/src/STM32F30x_StdPeriph_Driver/src/stm32f30x_i2c.c ****   *     @arg I2C_FLAG_TCR: Transfer complete reload
1412:/home/user/Desktop/STM32-Projekte/FH-Vertibot/src/STM32F30x_StdPeriph_Driver/src/stm32f30x_i2c.c ****   *     @arg I2C_FLAG_BERR: Bus error
1413:/home/user/Desktop/STM32-Projekte/FH-Vertibot/src/STM32F30x_StdPeriph_Driver/src/stm32f30x_i2c.c ****   *     @arg I2C_FLAG_ARLO: Arbitration lost
1414:/home/user/Desktop/STM32-Projekte/FH-Vertibot/src/STM32F30x_StdPeriph_Driver/src/stm32f30x_i2c.c ****   *     @arg I2C_FLAG_OVR: Overrun/Underrun
1415:/home/user/Desktop/STM32-Projekte/FH-Vertibot/src/STM32F30x_StdPeriph_Driver/src/stm32f30x_i2c.c ****   *     @arg I2C_FLAG_PECERR: PEC error in reception
1416:/home/user/Desktop/STM32-Projekte/FH-Vertibot/src/STM32F30x_StdPeriph_Driver/src/stm32f30x_i2c.c ****   *     @arg I2C_FLAG_TIMEOUT: Timeout or Tlow detection flag
1417:/home/user/Desktop/STM32-Projekte/FH-Vertibot/src/STM32F30x_StdPeriph_Driver/src/stm32f30x_i2c.c ****   *     @arg I2C_FLAG_ALERT: SMBus Alert
1418:/home/user/Desktop/STM32-Projekte/FH-Vertibot/src/STM32F30x_StdPeriph_Driver/src/stm32f30x_i2c.c ****   *     @arg I2C_FLAG_BUSY: Bus busy
1419:/home/user/Desktop/STM32-Projekte/FH-Vertibot/src/STM32F30x_StdPeriph_Driver/src/stm32f30x_i2c.c ****   * @retval The new state of I2C_FLAG (SET or RESET).
1420:/home/user/Desktop/STM32-Projekte/FH-Vertibot/src/STM32F30x_StdPeriph_Driver/src/stm32f30x_i2c.c ****   */
1421:/home/user/Desktop/STM32-Projekte/FH-Vertibot/src/STM32F30x_StdPeriph_Driver/src/stm32f30x_i2c.c **** FlagStatus I2C_GetFlagStatus(I2C_TypeDef* I2Cx, uint32_t I2C_FLAG)
1422:/home/user/Desktop/STM32-Projekte/FH-Vertibot/src/STM32F30x_StdPeriph_Driver/src/stm32f30x_i2c.c **** {
 1246              		.loc 1 1422 0
 1247              		.cfi_startproc
 1248              		@ args = 0, pretend = 0, frame = 0
 1249              		@ frame_needed = 0, uses_anonymous_args = 0
 1250              		@ link register save eliminated.
 1251              	.LVL101:
1423:/home/user/Desktop/STM32-Projekte/FH-Vertibot/src/STM32F30x_StdPeriph_Driver/src/stm32f30x_i2c.c ****   uint32_t tmpreg = 0;
1424:/home/user/Desktop/STM32-Projekte/FH-Vertibot/src/STM32F30x_StdPeriph_Driver/src/stm32f30x_i2c.c ****   FlagStatus bitstatus = RESET;
1425:/home/user/Desktop/STM32-Projekte/FH-Vertibot/src/STM32F30x_StdPeriph_Driver/src/stm32f30x_i2c.c ****   
