   1              		.syntax unified
   2              		.cpu cortex-m4
   3              		.eabi_attribute 27, 3
   4              		.eabi_attribute 28, 1
   5              		.fpu fpv4-sp-d16
   6              		.eabi_attribute 20, 1
   7              		.eabi_attribute 21, 1
   8              		.eabi_attribute 23, 3
   9              		.eabi_attribute 24, 1
  10              		.eabi_attribute 25, 1
  11              		.eabi_attribute 26, 1
  12              		.eabi_attribute 30, 4
  13              		.eabi_attribute 34, 1
  14              		.eabi_attribute 18, 4
  15              		.thumb
  16              		.file	"stm32f30x_crc.c"
  17              		.text
  18              	.Ltext0:
  19              		.cfi_sections	.debug_frame
  20              		.align	1
  21              		.global	CRC_DeInit
  22              		.thumb
  23              		.thumb_func
  25              	CRC_DeInit:
  26              	.LFB111:
  27              		.file 1 "/home/user/Desktop/STM32-Projekte/FH-Vertibot/src/STM32F30x_StdPeriph_Driver/src/stm32f30
   1:/home/user/Desktop/STM32-Projekte/FH-Vertibot/src/STM32F30x_StdPeriph_Driver/src/stm32f30x_crc.c **** /**
   2:/home/user/Desktop/STM32-Projekte/FH-Vertibot/src/STM32F30x_StdPeriph_Driver/src/stm32f30x_crc.c ****   ******************************************************************************
   3:/home/user/Desktop/STM32-Projekte/FH-Vertibot/src/STM32F30x_StdPeriph_Driver/src/stm32f30x_crc.c ****   * @file    stm32f30x_crc.c
   4:/home/user/Desktop/STM32-Projekte/FH-Vertibot/src/STM32F30x_StdPeriph_Driver/src/stm32f30x_crc.c ****   * @author  MCD Application Team
   5:/home/user/Desktop/STM32-Projekte/FH-Vertibot/src/STM32F30x_StdPeriph_Driver/src/stm32f30x_crc.c ****   * @version V1.0.1
   6:/home/user/Desktop/STM32-Projekte/FH-Vertibot/src/STM32F30x_StdPeriph_Driver/src/stm32f30x_crc.c ****   * @date    23-October-2012
   7:/home/user/Desktop/STM32-Projekte/FH-Vertibot/src/STM32F30x_StdPeriph_Driver/src/stm32f30x_crc.c ****   * @brief   This file provides firmware functions to manage the following 
   8:/home/user/Desktop/STM32-Projekte/FH-Vertibot/src/STM32F30x_StdPeriph_Driver/src/stm32f30x_crc.c ****   *          functionalities of CRC computation unit peripheral:
   9:/home/user/Desktop/STM32-Projekte/FH-Vertibot/src/STM32F30x_StdPeriph_Driver/src/stm32f30x_crc.c ****   *            + Configuration of the CRC computation unit
  10:/home/user/Desktop/STM32-Projekte/FH-Vertibot/src/STM32F30x_StdPeriph_Driver/src/stm32f30x_crc.c ****   *            + CRC computation of one/many 32-bit data
  11:/home/user/Desktop/STM32-Projekte/FH-Vertibot/src/STM32F30x_StdPeriph_Driver/src/stm32f30x_crc.c ****   *            + CRC Independent register (IDR) access
  12:/home/user/Desktop/STM32-Projekte/FH-Vertibot/src/STM32F30x_StdPeriph_Driver/src/stm32f30x_crc.c ****   *
  13:/home/user/Desktop/STM32-Projekte/FH-Vertibot/src/STM32F30x_StdPeriph_Driver/src/stm32f30x_crc.c ****   @verbatim
  14:/home/user/Desktop/STM32-Projekte/FH-Vertibot/src/STM32F30x_StdPeriph_Driver/src/stm32f30x_crc.c ****     
  15:/home/user/Desktop/STM32-Projekte/FH-Vertibot/src/STM32F30x_StdPeriph_Driver/src/stm32f30x_crc.c ****  ===============================================================================
  16:/home/user/Desktop/STM32-Projekte/FH-Vertibot/src/STM32F30x_StdPeriph_Driver/src/stm32f30x_crc.c ****                       ##### How to use this driver #####
  17:/home/user/Desktop/STM32-Projekte/FH-Vertibot/src/STM32F30x_StdPeriph_Driver/src/stm32f30x_crc.c ****  ===============================================================================
  18:/home/user/Desktop/STM32-Projekte/FH-Vertibot/src/STM32F30x_StdPeriph_Driver/src/stm32f30x_crc.c ****     [..] 
  19:/home/user/Desktop/STM32-Projekte/FH-Vertibot/src/STM32F30x_StdPeriph_Driver/src/stm32f30x_crc.c ****     (#) Enable CRC AHB clock using RCC_AHBPeriphClockCmd(RCC_AHBPeriph_CRC, ENABLE)
  20:/home/user/Desktop/STM32-Projekte/FH-Vertibot/src/STM32F30x_StdPeriph_Driver/src/stm32f30x_crc.c ****         function.
  21:/home/user/Desktop/STM32-Projekte/FH-Vertibot/src/STM32F30x_StdPeriph_Driver/src/stm32f30x_crc.c ****     (#) Select the polynomial size: 7-bit, 8-bit, 16-bit or 32-bit.
  22:/home/user/Desktop/STM32-Projekte/FH-Vertibot/src/STM32F30x_StdPeriph_Driver/src/stm32f30x_crc.c ****     (#) Set the polynomial coefficients using CRC_SetPolynomial();  
  23:/home/user/Desktop/STM32-Projekte/FH-Vertibot/src/STM32F30x_StdPeriph_Driver/src/stm32f30x_crc.c ****     (#) If required, select the reverse operation on input data 
  24:/home/user/Desktop/STM32-Projekte/FH-Vertibot/src/STM32F30x_StdPeriph_Driver/src/stm32f30x_crc.c ****         using CRC_ReverseInputDataSelect();  
  25:/home/user/Desktop/STM32-Projekte/FH-Vertibot/src/STM32F30x_StdPeriph_Driver/src/stm32f30x_crc.c ****     (#) If required, enable the reverse operation on output data
  26:/home/user/Desktop/STM32-Projekte/FH-Vertibot/src/STM32F30x_StdPeriph_Driver/src/stm32f30x_crc.c ****         using CRC_ReverseOutputDataCmd(Enable);
  27:/home/user/Desktop/STM32-Projekte/FH-Vertibot/src/STM32F30x_StdPeriph_Driver/src/stm32f30x_crc.c ****     (#) If required, set the initialization remainder value using
  28:/home/user/Desktop/STM32-Projekte/FH-Vertibot/src/STM32F30x_StdPeriph_Driver/src/stm32f30x_crc.c ****         CRC_SetInitRegister();
  29:/home/user/Desktop/STM32-Projekte/FH-Vertibot/src/STM32F30x_StdPeriph_Driver/src/stm32f30x_crc.c ****     (#) use CRC_CalcCRC() function to compute the CRC of a 32-bit data
  30:/home/user/Desktop/STM32-Projekte/FH-Vertibot/src/STM32F30x_StdPeriph_Driver/src/stm32f30x_crc.c ****         or use CRC_CalcBlockCRC() function to compute the CRC if a 32-bit 
  31:/home/user/Desktop/STM32-Projekte/FH-Vertibot/src/STM32F30x_StdPeriph_Driver/src/stm32f30x_crc.c ****         data buffer.
  32:/home/user/Desktop/STM32-Projekte/FH-Vertibot/src/STM32F30x_StdPeriph_Driver/src/stm32f30x_crc.c **** 
  33:/home/user/Desktop/STM32-Projekte/FH-Vertibot/src/STM32F30x_StdPeriph_Driver/src/stm32f30x_crc.c ****   @endverbatim
  34:/home/user/Desktop/STM32-Projekte/FH-Vertibot/src/STM32F30x_StdPeriph_Driver/src/stm32f30x_crc.c ****   
  35:/home/user/Desktop/STM32-Projekte/FH-Vertibot/src/STM32F30x_StdPeriph_Driver/src/stm32f30x_crc.c ****   ******************************************************************************
  36:/home/user/Desktop/STM32-Projekte/FH-Vertibot/src/STM32F30x_StdPeriph_Driver/src/stm32f30x_crc.c ****   * @attention
  37:/home/user/Desktop/STM32-Projekte/FH-Vertibot/src/STM32F30x_StdPeriph_Driver/src/stm32f30x_crc.c ****   *
  38:/home/user/Desktop/STM32-Projekte/FH-Vertibot/src/STM32F30x_StdPeriph_Driver/src/stm32f30x_crc.c ****   * <h2><center>&copy; COPYRIGHT 2012 STMicroelectronics</center></h2>
  39:/home/user/Desktop/STM32-Projekte/FH-Vertibot/src/STM32F30x_StdPeriph_Driver/src/stm32f30x_crc.c ****   *
  40:/home/user/Desktop/STM32-Projekte/FH-Vertibot/src/STM32F30x_StdPeriph_Driver/src/stm32f30x_crc.c ****   * Licensed under MCD-ST Liberty SW License Agreement V2, (the "License");
  41:/home/user/Desktop/STM32-Projekte/FH-Vertibot/src/STM32F30x_StdPeriph_Driver/src/stm32f30x_crc.c ****   * You may not use this file except in compliance with the License.
  42:/home/user/Desktop/STM32-Projekte/FH-Vertibot/src/STM32F30x_StdPeriph_Driver/src/stm32f30x_crc.c ****   * You may obtain a copy of the License at:
  43:/home/user/Desktop/STM32-Projekte/FH-Vertibot/src/STM32F30x_StdPeriph_Driver/src/stm32f30x_crc.c ****   *
  44:/home/user/Desktop/STM32-Projekte/FH-Vertibot/src/STM32F30x_StdPeriph_Driver/src/stm32f30x_crc.c ****   *        http://www.st.com/software_license_agreement_liberty_v2
  45:/home/user/Desktop/STM32-Projekte/FH-Vertibot/src/STM32F30x_StdPeriph_Driver/src/stm32f30x_crc.c ****   *
  46:/home/user/Desktop/STM32-Projekte/FH-Vertibot/src/STM32F30x_StdPeriph_Driver/src/stm32f30x_crc.c ****   * Unless required by applicable law or agreed to in writing, software 
  47:/home/user/Desktop/STM32-Projekte/FH-Vertibot/src/STM32F30x_StdPeriph_Driver/src/stm32f30x_crc.c ****   * distributed under the License is distributed on an "AS IS" BASIS, 
  48:/home/user/Desktop/STM32-Projekte/FH-Vertibot/src/STM32F30x_StdPeriph_Driver/src/stm32f30x_crc.c ****   * WITHOUT WARRANTIES OR CONDITIONS OF ANY KIND, either express or implied.
  49:/home/user/Desktop/STM32-Projekte/FH-Vertibot/src/STM32F30x_StdPeriph_Driver/src/stm32f30x_crc.c ****   * See the License for the specific language governing permissions and
  50:/home/user/Desktop/STM32-Projekte/FH-Vertibot/src/STM32F30x_StdPeriph_Driver/src/stm32f30x_crc.c ****   * limitations under the License.
  51:/home/user/Desktop/STM32-Projekte/FH-Vertibot/src/STM32F30x_StdPeriph_Driver/src/stm32f30x_crc.c ****   *
  52:/home/user/Desktop/STM32-Projekte/FH-Vertibot/src/STM32F30x_StdPeriph_Driver/src/stm32f30x_crc.c ****   ******************************************************************************
  53:/home/user/Desktop/STM32-Projekte/FH-Vertibot/src/STM32F30x_StdPeriph_Driver/src/stm32f30x_crc.c ****   */
  54:/home/user/Desktop/STM32-Projekte/FH-Vertibot/src/STM32F30x_StdPeriph_Driver/src/stm32f30x_crc.c **** 
  55:/home/user/Desktop/STM32-Projekte/FH-Vertibot/src/STM32F30x_StdPeriph_Driver/src/stm32f30x_crc.c **** /* Includes ------------------------------------------------------------------*/
  56:/home/user/Desktop/STM32-Projekte/FH-Vertibot/src/STM32F30x_StdPeriph_Driver/src/stm32f30x_crc.c **** #include "stm32f30x_crc.h"
  57:/home/user/Desktop/STM32-Projekte/FH-Vertibot/src/STM32F30x_StdPeriph_Driver/src/stm32f30x_crc.c **** 
  58:/home/user/Desktop/STM32-Projekte/FH-Vertibot/src/STM32F30x_StdPeriph_Driver/src/stm32f30x_crc.c **** /** @addtogroup STM32F30x_StdPeriph_Driver
  59:/home/user/Desktop/STM32-Projekte/FH-Vertibot/src/STM32F30x_StdPeriph_Driver/src/stm32f30x_crc.c ****   * @{
  60:/home/user/Desktop/STM32-Projekte/FH-Vertibot/src/STM32F30x_StdPeriph_Driver/src/stm32f30x_crc.c ****   */
  61:/home/user/Desktop/STM32-Projekte/FH-Vertibot/src/STM32F30x_StdPeriph_Driver/src/stm32f30x_crc.c **** 
  62:/home/user/Desktop/STM32-Projekte/FH-Vertibot/src/STM32F30x_StdPeriph_Driver/src/stm32f30x_crc.c **** /** @defgroup CRC 
  63:/home/user/Desktop/STM32-Projekte/FH-Vertibot/src/STM32F30x_StdPeriph_Driver/src/stm32f30x_crc.c ****   * @brief CRC driver modules
  64:/home/user/Desktop/STM32-Projekte/FH-Vertibot/src/STM32F30x_StdPeriph_Driver/src/stm32f30x_crc.c ****   * @{
  65:/home/user/Desktop/STM32-Projekte/FH-Vertibot/src/STM32F30x_StdPeriph_Driver/src/stm32f30x_crc.c ****   */
  66:/home/user/Desktop/STM32-Projekte/FH-Vertibot/src/STM32F30x_StdPeriph_Driver/src/stm32f30x_crc.c **** 
  67:/home/user/Desktop/STM32-Projekte/FH-Vertibot/src/STM32F30x_StdPeriph_Driver/src/stm32f30x_crc.c **** /* Private typedef -----------------------------------------------------------*/
  68:/home/user/Desktop/STM32-Projekte/FH-Vertibot/src/STM32F30x_StdPeriph_Driver/src/stm32f30x_crc.c **** /* Private define ------------------------------------------------------------*/
  69:/home/user/Desktop/STM32-Projekte/FH-Vertibot/src/STM32F30x_StdPeriph_Driver/src/stm32f30x_crc.c **** /* Private macro -------------------------------------------------------------*/
  70:/home/user/Desktop/STM32-Projekte/FH-Vertibot/src/STM32F30x_StdPeriph_Driver/src/stm32f30x_crc.c **** /* Private variables ---------------------------------------------------------*/
  71:/home/user/Desktop/STM32-Projekte/FH-Vertibot/src/STM32F30x_StdPeriph_Driver/src/stm32f30x_crc.c **** /* Private function prototypes -----------------------------------------------*/
  72:/home/user/Desktop/STM32-Projekte/FH-Vertibot/src/STM32F30x_StdPeriph_Driver/src/stm32f30x_crc.c **** /* Private functions ---------------------------------------------------------*/
  73:/home/user/Desktop/STM32-Projekte/FH-Vertibot/src/STM32F30x_StdPeriph_Driver/src/stm32f30x_crc.c **** 
  74:/home/user/Desktop/STM32-Projekte/FH-Vertibot/src/STM32F30x_StdPeriph_Driver/src/stm32f30x_crc.c **** /** @defgroup CRC_Private_Functions
  75:/home/user/Desktop/STM32-Projekte/FH-Vertibot/src/STM32F30x_StdPeriph_Driver/src/stm32f30x_crc.c ****   * @{
  76:/home/user/Desktop/STM32-Projekte/FH-Vertibot/src/STM32F30x_StdPeriph_Driver/src/stm32f30x_crc.c ****   */
  77:/home/user/Desktop/STM32-Projekte/FH-Vertibot/src/STM32F30x_StdPeriph_Driver/src/stm32f30x_crc.c **** 
  78:/home/user/Desktop/STM32-Projekte/FH-Vertibot/src/STM32F30x_StdPeriph_Driver/src/stm32f30x_crc.c **** /** @defgroup CRC_Group1 Configuration of the CRC computation unit functions
  79:/home/user/Desktop/STM32-Projekte/FH-Vertibot/src/STM32F30x_StdPeriph_Driver/src/stm32f30x_crc.c ****  *  @brief   Configuration of the CRC computation unit functions 
  80:/home/user/Desktop/STM32-Projekte/FH-Vertibot/src/STM32F30x_StdPeriph_Driver/src/stm32f30x_crc.c ****  *
  81:/home/user/Desktop/STM32-Projekte/FH-Vertibot/src/STM32F30x_StdPeriph_Driver/src/stm32f30x_crc.c **** @verbatim
  82:/home/user/Desktop/STM32-Projekte/FH-Vertibot/src/STM32F30x_StdPeriph_Driver/src/stm32f30x_crc.c ****  ===============================================================================
  83:/home/user/Desktop/STM32-Projekte/FH-Vertibot/src/STM32F30x_StdPeriph_Driver/src/stm32f30x_crc.c ****                   ##### CRC configuration functions #####
  84:/home/user/Desktop/STM32-Projekte/FH-Vertibot/src/STM32F30x_StdPeriph_Driver/src/stm32f30x_crc.c ****  ===============================================================================
  85:/home/user/Desktop/STM32-Projekte/FH-Vertibot/src/STM32F30x_StdPeriph_Driver/src/stm32f30x_crc.c **** 
  86:/home/user/Desktop/STM32-Projekte/FH-Vertibot/src/STM32F30x_StdPeriph_Driver/src/stm32f30x_crc.c **** @endverbatim
  87:/home/user/Desktop/STM32-Projekte/FH-Vertibot/src/STM32F30x_StdPeriph_Driver/src/stm32f30x_crc.c ****   * @{
  88:/home/user/Desktop/STM32-Projekte/FH-Vertibot/src/STM32F30x_StdPeriph_Driver/src/stm32f30x_crc.c ****   */
  89:/home/user/Desktop/STM32-Projekte/FH-Vertibot/src/STM32F30x_StdPeriph_Driver/src/stm32f30x_crc.c **** 
  90:/home/user/Desktop/STM32-Projekte/FH-Vertibot/src/STM32F30x_StdPeriph_Driver/src/stm32f30x_crc.c **** /**
  91:/home/user/Desktop/STM32-Projekte/FH-Vertibot/src/STM32F30x_StdPeriph_Driver/src/stm32f30x_crc.c ****   * @brief  Deinitializes CRC peripheral registers to their default reset values.
  92:/home/user/Desktop/STM32-Projekte/FH-Vertibot/src/STM32F30x_StdPeriph_Driver/src/stm32f30x_crc.c ****   * @param  None
  93:/home/user/Desktop/STM32-Projekte/FH-Vertibot/src/STM32F30x_StdPeriph_Driver/src/stm32f30x_crc.c ****   * @retval None
  94:/home/user/Desktop/STM32-Projekte/FH-Vertibot/src/STM32F30x_StdPeriph_Driver/src/stm32f30x_crc.c ****   */
  95:/home/user/Desktop/STM32-Projekte/FH-Vertibot/src/STM32F30x_StdPeriph_Driver/src/stm32f30x_crc.c **** void CRC_DeInit(void)
  96:/home/user/Desktop/STM32-Projekte/FH-Vertibot/src/STM32F30x_StdPeriph_Driver/src/stm32f30x_crc.c **** {
  28              		.loc 1 96 0
  29              		.cfi_startproc
  30              		@ args = 0, pretend = 0, frame = 0
  31              		@ frame_needed = 0, uses_anonymous_args = 0
  32              		@ link register save eliminated.
  97:/home/user/Desktop/STM32-Projekte/FH-Vertibot/src/STM32F30x_StdPeriph_Driver/src/stm32f30x_crc.c ****   /* Set DR register to reset value */
  98:/home/user/Desktop/STM32-Projekte/FH-Vertibot/src/STM32F30x_StdPeriph_Driver/src/stm32f30x_crc.c ****   CRC->DR = 0xFFFFFFFF;
  33              		.loc 1 98 0
  34 0000 054B     		ldr	r3, .L2
  99:/home/user/Desktop/STM32-Projekte/FH-Vertibot/src/STM32F30x_StdPeriph_Driver/src/stm32f30x_crc.c ****   /* Set the POL register to the reset value: 0x04C11DB7 */
 100:/home/user/Desktop/STM32-Projekte/FH-Vertibot/src/STM32F30x_StdPeriph_Driver/src/stm32f30x_crc.c ****   CRC->POL = 0x04C11DB7;
  35              		.loc 1 100 0
  36 0002 0649     		ldr	r1, .L2+4
  98:/home/user/Desktop/STM32-Projekte/FH-Vertibot/src/STM32F30x_StdPeriph_Driver/src/stm32f30x_crc.c ****   CRC->DR = 0xFFFFFFFF;
  37              		.loc 1 98 0
  38 0004 4FF0FF32 		mov	r2, #-1
  39 0008 1A60     		str	r2, [r3, #0]
  40              		.loc 1 100 0
  41 000a 5961     		str	r1, [r3, #20]
 101:/home/user/Desktop/STM32-Projekte/FH-Vertibot/src/STM32F30x_StdPeriph_Driver/src/stm32f30x_crc.c ****   /* Reset IDR register */
 102:/home/user/Desktop/STM32-Projekte/FH-Vertibot/src/STM32F30x_StdPeriph_Driver/src/stm32f30x_crc.c ****   CRC->IDR = 0x00;
  42              		.loc 1 102 0
  43 000c 0021     		movs	r1, #0
  44 000e 1971     		strb	r1, [r3, #4]
 103:/home/user/Desktop/STM32-Projekte/FH-Vertibot/src/STM32F30x_StdPeriph_Driver/src/stm32f30x_crc.c ****   /* Set INIT register to reset value */
 104:/home/user/Desktop/STM32-Projekte/FH-Vertibot/src/STM32F30x_StdPeriph_Driver/src/stm32f30x_crc.c ****   CRC->INIT = 0xFFFFFFFF;
  45              		.loc 1 104 0
  46 0010 1A61     		str	r2, [r3, #16]
 105:/home/user/Desktop/STM32-Projekte/FH-Vertibot/src/STM32F30x_StdPeriph_Driver/src/stm32f30x_crc.c ****   /* Reset the CRC calculation unit */
 106:/home/user/Desktop/STM32-Projekte/FH-Vertibot/src/STM32F30x_StdPeriph_Driver/src/stm32f30x_crc.c ****   CRC->CR = CRC_CR_RESET;
  47              		.loc 1 106 0
  48 0012 0122     		movs	r2, #1
  49 0014 9A60     		str	r2, [r3, #8]
  50 0016 7047     		bx	lr
  51              	.L3:
  52              		.align	2
  53              	.L2:
  54 0018 00300240 		.word	1073885184
  55 001c B71DC104 		.word	79764919
  56              		.cfi_endproc
  57              	.LFE111:
  59              		.align	1
  60              		.global	CRC_ResetDR
  61              		.thumb
  62              		.thumb_func
  64              	CRC_ResetDR:
  65              	.LFB112:
 107:/home/user/Desktop/STM32-Projekte/FH-Vertibot/src/STM32F30x_StdPeriph_Driver/src/stm32f30x_crc.c **** }
 108:/home/user/Desktop/STM32-Projekte/FH-Vertibot/src/STM32F30x_StdPeriph_Driver/src/stm32f30x_crc.c **** 
 109:/home/user/Desktop/STM32-Projekte/FH-Vertibot/src/STM32F30x_StdPeriph_Driver/src/stm32f30x_crc.c **** /**
 110:/home/user/Desktop/STM32-Projekte/FH-Vertibot/src/STM32F30x_StdPeriph_Driver/src/stm32f30x_crc.c ****   * @brief  Resets the CRC calculation unit and sets INIT register content in DR register.
 111:/home/user/Desktop/STM32-Projekte/FH-Vertibot/src/STM32F30x_StdPeriph_Driver/src/stm32f30x_crc.c ****   * @param  None
 112:/home/user/Desktop/STM32-Projekte/FH-Vertibot/src/STM32F30x_StdPeriph_Driver/src/stm32f30x_crc.c ****   * @retval None
 113:/home/user/Desktop/STM32-Projekte/FH-Vertibot/src/STM32F30x_StdPeriph_Driver/src/stm32f30x_crc.c ****   */
 114:/home/user/Desktop/STM32-Projekte/FH-Vertibot/src/STM32F30x_StdPeriph_Driver/src/stm32f30x_crc.c **** void CRC_ResetDR(void)
 115:/home/user/Desktop/STM32-Projekte/FH-Vertibot/src/STM32F30x_StdPeriph_Driver/src/stm32f30x_crc.c **** {
  66              		.loc 1 115 0
  67              		.cfi_startproc
  68              		@ args = 0, pretend = 0, frame = 0
  69              		@ frame_needed = 0, uses_anonymous_args = 0
  70              		@ link register save eliminated.
 116:/home/user/Desktop/STM32-Projekte/FH-Vertibot/src/STM32F30x_StdPeriph_Driver/src/stm32f30x_crc.c ****   /* Reset CRC generator */
 117:/home/user/Desktop/STM32-Projekte/FH-Vertibot/src/STM32F30x_StdPeriph_Driver/src/stm32f30x_crc.c ****   CRC->CR |= CRC_CR_RESET;
  71              		.loc 1 117 0
  72 0020 024B     		ldr	r3, .L5
  73 0022 9A68     		ldr	r2, [r3, #8]
  74 0024 42F00102 		orr	r2, r2, #1
  75 0028 9A60     		str	r2, [r3, #8]
  76 002a 7047     		bx	lr
  77              	.L6:
  78              		.align	2
  79              	.L5:
  80 002c 00300240 		.word	1073885184
  81              		.cfi_endproc
  82              	.LFE112:
  84              		.align	1
  85              		.global	CRC_PolynomialSizeSelect
  86              		.thumb
  87              		.thumb_func
  89              	CRC_PolynomialSizeSelect:
  90              	.LFB113:
 118:/home/user/Desktop/STM32-Projekte/FH-Vertibot/src/STM32F30x_StdPeriph_Driver/src/stm32f30x_crc.c **** }
 119:/home/user/Desktop/STM32-Projekte/FH-Vertibot/src/STM32F30x_StdPeriph_Driver/src/stm32f30x_crc.c **** 
 120:/home/user/Desktop/STM32-Projekte/FH-Vertibot/src/STM32F30x_StdPeriph_Driver/src/stm32f30x_crc.c **** /**
 121:/home/user/Desktop/STM32-Projekte/FH-Vertibot/src/STM32F30x_StdPeriph_Driver/src/stm32f30x_crc.c ****   * @brief  Selects the polynomial size.
 122:/home/user/Desktop/STM32-Projekte/FH-Vertibot/src/STM32F30x_StdPeriph_Driver/src/stm32f30x_crc.c ****   * @param  CRC_PolSize: Specifies the polynomial size.
 123:/home/user/Desktop/STM32-Projekte/FH-Vertibot/src/STM32F30x_StdPeriph_Driver/src/stm32f30x_crc.c ****   *         This parameter can be:
 124:/home/user/Desktop/STM32-Projekte/FH-Vertibot/src/STM32F30x_StdPeriph_Driver/src/stm32f30x_crc.c ****   *          @arg CRC_PolSize_7: 7-bit polynomial for CRC calculation
 125:/home/user/Desktop/STM32-Projekte/FH-Vertibot/src/STM32F30x_StdPeriph_Driver/src/stm32f30x_crc.c ****   *          @arg CRC_PolSize_8: 8-bit polynomial for CRC calculation
 126:/home/user/Desktop/STM32-Projekte/FH-Vertibot/src/STM32F30x_StdPeriph_Driver/src/stm32f30x_crc.c ****   *          @arg CRC_PolSize_16: 16-bit polynomial for CRC calculation
 127:/home/user/Desktop/STM32-Projekte/FH-Vertibot/src/STM32F30x_StdPeriph_Driver/src/stm32f30x_crc.c ****   *          @arg CRC_PolSize_32: 32-bit polynomial for CRC calculation
 128:/home/user/Desktop/STM32-Projekte/FH-Vertibot/src/STM32F30x_StdPeriph_Driver/src/stm32f30x_crc.c ****   * @retval None
 129:/home/user/Desktop/STM32-Projekte/FH-Vertibot/src/STM32F30x_StdPeriph_Driver/src/stm32f30x_crc.c ****   */
 130:/home/user/Desktop/STM32-Projekte/FH-Vertibot/src/STM32F30x_StdPeriph_Driver/src/stm32f30x_crc.c **** void CRC_PolynomialSizeSelect(uint32_t CRC_PolSize)
 131:/home/user/Desktop/STM32-Projekte/FH-Vertibot/src/STM32F30x_StdPeriph_Driver/src/stm32f30x_crc.c **** {
  91              		.loc 1 131 0
  92              		.cfi_startproc
  93              		@ args = 0, pretend = 0, frame = 0
  94              		@ frame_needed = 0, uses_anonymous_args = 0
  95              		@ link register save eliminated.
  96              	.LVL0:
 132:/home/user/Desktop/STM32-Projekte/FH-Vertibot/src/STM32F30x_StdPeriph_Driver/src/stm32f30x_crc.c ****   uint32_t tmpcr = 0;
 133:/home/user/Desktop/STM32-Projekte/FH-Vertibot/src/STM32F30x_StdPeriph_Driver/src/stm32f30x_crc.c **** 
 134:/home/user/Desktop/STM32-Projekte/FH-Vertibot/src/STM32F30x_StdPeriph_Driver/src/stm32f30x_crc.c ****   /* Check the parameter */
 135:/home/user/Desktop/STM32-Projekte/FH-Vertibot/src/STM32F30x_StdPeriph_Driver/src/stm32f30x_crc.c ****   assert_param(IS_CRC_POL_SIZE(CRC_PolSize));
 136:/home/user/Desktop/STM32-Projekte/FH-Vertibot/src/STM32F30x_StdPeriph_Driver/src/stm32f30x_crc.c **** 
 137:/home/user/Desktop/STM32-Projekte/FH-Vertibot/src/STM32F30x_StdPeriph_Driver/src/stm32f30x_crc.c ****   /* Get CR register value */
 138:/home/user/Desktop/STM32-Projekte/FH-Vertibot/src/STM32F30x_StdPeriph_Driver/src/stm32f30x_crc.c ****   tmpcr = CRC->CR;
  97              		.loc 1 138 0
  98 0030 034B     		ldr	r3, .L8
  99 0032 9A68     		ldr	r2, [r3, #8]
 100              	.LVL1:
 139:/home/user/Desktop/STM32-Projekte/FH-Vertibot/src/STM32F30x_StdPeriph_Driver/src/stm32f30x_crc.c **** 
 140:/home/user/Desktop/STM32-Projekte/FH-Vertibot/src/STM32F30x_StdPeriph_Driver/src/stm32f30x_crc.c ****   /* Reset POL_SIZE bits */
 141:/home/user/Desktop/STM32-Projekte/FH-Vertibot/src/STM32F30x_StdPeriph_Driver/src/stm32f30x_crc.c ****   tmpcr &= (uint32_t)~((uint32_t)CRC_CR_POLSIZE);
 101              		.loc 1 141 0
 102 0034 22F01802 		bic	r2, r2, #24
 103              	.LVL2:
 142:/home/user/Desktop/STM32-Projekte/FH-Vertibot/src/STM32F30x_StdPeriph_Driver/src/stm32f30x_crc.c ****   /* Set the polynomial size */
 143:/home/user/Desktop/STM32-Projekte/FH-Vertibot/src/STM32F30x_StdPeriph_Driver/src/stm32f30x_crc.c ****   tmpcr |= (uint32_t)CRC_PolSize;
 104              		.loc 1 143 0
 105 0038 1043     		orrs	r0, r0, r2
 106              	.LVL3:
 144:/home/user/Desktop/STM32-Projekte/FH-Vertibot/src/STM32F30x_StdPeriph_Driver/src/stm32f30x_crc.c **** 
 145:/home/user/Desktop/STM32-Projekte/FH-Vertibot/src/STM32F30x_StdPeriph_Driver/src/stm32f30x_crc.c ****   /* Write to CR register */
 146:/home/user/Desktop/STM32-Projekte/FH-Vertibot/src/STM32F30x_StdPeriph_Driver/src/stm32f30x_crc.c ****   CRC->CR = (uint32_t)tmpcr;
 107              		.loc 1 146 0
 108 003a 9860     		str	r0, [r3, #8]
 109 003c 7047     		bx	lr
 110              	.L9:
 111 003e 00BF     		.align	2
 112              	.L8:
 113 0040 00300240 		.word	1073885184
 114              		.cfi_endproc
 115              	.LFE113:
 117              		.align	1
 118              		.global	CRC_ReverseInputDataSelect
 119              		.thumb
 120              		.thumb_func
 122              	CRC_ReverseInputDataSelect:
 123              	.LFB114:
 147:/home/user/Desktop/STM32-Projekte/FH-Vertibot/src/STM32F30x_StdPeriph_Driver/src/stm32f30x_crc.c **** }
 148:/home/user/Desktop/STM32-Projekte/FH-Vertibot/src/STM32F30x_StdPeriph_Driver/src/stm32f30x_crc.c **** 
 149:/home/user/Desktop/STM32-Projekte/FH-Vertibot/src/STM32F30x_StdPeriph_Driver/src/stm32f30x_crc.c **** /**
 150:/home/user/Desktop/STM32-Projekte/FH-Vertibot/src/STM32F30x_StdPeriph_Driver/src/stm32f30x_crc.c ****   * @brief  Selects the reverse operation to be performed on input data.
 151:/home/user/Desktop/STM32-Projekte/FH-Vertibot/src/STM32F30x_StdPeriph_Driver/src/stm32f30x_crc.c ****   * @param  CRC_ReverseInputData: Specifies the reverse operation on input data.
 152:/home/user/Desktop/STM32-Projekte/FH-Vertibot/src/STM32F30x_StdPeriph_Driver/src/stm32f30x_crc.c ****   *         This parameter can be:
 153:/home/user/Desktop/STM32-Projekte/FH-Vertibot/src/STM32F30x_StdPeriph_Driver/src/stm32f30x_crc.c ****   *          @arg CRC_ReverseInputData_No: No reverse operation is performed
 154:/home/user/Desktop/STM32-Projekte/FH-Vertibot/src/STM32F30x_StdPeriph_Driver/src/stm32f30x_crc.c ****   *          @arg CRC_ReverseInputData_8bits: reverse operation performed on 8 bits
 155:/home/user/Desktop/STM32-Projekte/FH-Vertibot/src/STM32F30x_StdPeriph_Driver/src/stm32f30x_crc.c ****   *          @arg CRC_ReverseInputData_16bits: reverse operation performed on 16 bits
 156:/home/user/Desktop/STM32-Projekte/FH-Vertibot/src/STM32F30x_StdPeriph_Driver/src/stm32f30x_crc.c ****   *          @arg CRC_ReverseInputData_32bits: reverse operation performed on 32 bits
 157:/home/user/Desktop/STM32-Projekte/FH-Vertibot/src/STM32F30x_StdPeriph_Driver/src/stm32f30x_crc.c ****   * @retval None
 158:/home/user/Desktop/STM32-Projekte/FH-Vertibot/src/STM32F30x_StdPeriph_Driver/src/stm32f30x_crc.c ****   */
 159:/home/user/Desktop/STM32-Projekte/FH-Vertibot/src/STM32F30x_StdPeriph_Driver/src/stm32f30x_crc.c **** void CRC_ReverseInputDataSelect(uint32_t CRC_ReverseInputData)
 160:/home/user/Desktop/STM32-Projekte/FH-Vertibot/src/STM32F30x_StdPeriph_Driver/src/stm32f30x_crc.c **** {
 124              		.loc 1 160 0
 125              		.cfi_startproc
 126              		@ args = 0, pretend = 0, frame = 0
 127              		@ frame_needed = 0, uses_anonymous_args = 0
 128              		@ link register save eliminated.
 129              	.LVL4:
 161:/home/user/Desktop/STM32-Projekte/FH-Vertibot/src/STM32F30x_StdPeriph_Driver/src/stm32f30x_crc.c ****   uint32_t tmpcr = 0;
 162:/home/user/Desktop/STM32-Projekte/FH-Vertibot/src/STM32F30x_StdPeriph_Driver/src/stm32f30x_crc.c **** 
 163:/home/user/Desktop/STM32-Projekte/FH-Vertibot/src/STM32F30x_StdPeriph_Driver/src/stm32f30x_crc.c ****   /* Check the parameter */
 164:/home/user/Desktop/STM32-Projekte/FH-Vertibot/src/STM32F30x_StdPeriph_Driver/src/stm32f30x_crc.c ****   assert_param(IS_CRC_REVERSE_INPUT_DATA(CRC_ReverseInputData));
 165:/home/user/Desktop/STM32-Projekte/FH-Vertibot/src/STM32F30x_StdPeriph_Driver/src/stm32f30x_crc.c **** 
 166:/home/user/Desktop/STM32-Projekte/FH-Vertibot/src/STM32F30x_StdPeriph_Driver/src/stm32f30x_crc.c ****   /* Get CR register value */
 167:/home/user/Desktop/STM32-Projekte/FH-Vertibot/src/STM32F30x_StdPeriph_Driver/src/stm32f30x_crc.c ****   tmpcr = CRC->CR;
 130              		.loc 1 167 0
 131 0044 034B     		ldr	r3, .L11
 132 0046 9A68     		ldr	r2, [r3, #8]
 133              	.LVL5:
 168:/home/user/Desktop/STM32-Projekte/FH-Vertibot/src/STM32F30x_StdPeriph_Driver/src/stm32f30x_crc.c **** 
 169:/home/user/Desktop/STM32-Projekte/FH-Vertibot/src/STM32F30x_StdPeriph_Driver/src/stm32f30x_crc.c ****   /* Reset REV_IN bits */
 170:/home/user/Desktop/STM32-Projekte/FH-Vertibot/src/STM32F30x_StdPeriph_Driver/src/stm32f30x_crc.c ****   tmpcr &= (uint32_t)~((uint32_t)CRC_CR_REV_IN);
 134              		.loc 1 170 0
 135 0048 22F06002 		bic	r2, r2, #96
 136              	.LVL6:
 171:/home/user/Desktop/STM32-Projekte/FH-Vertibot/src/STM32F30x_StdPeriph_Driver/src/stm32f30x_crc.c ****   /* Set the reverse operation */
 172:/home/user/Desktop/STM32-Projekte/FH-Vertibot/src/STM32F30x_StdPeriph_Driver/src/stm32f30x_crc.c ****   tmpcr |= (uint32_t)CRC_ReverseInputData;
 137              		.loc 1 172 0
 138 004c 1043     		orrs	r0, r0, r2
 139              	.LVL7:
 173:/home/user/Desktop/STM32-Projekte/FH-Vertibot/src/STM32F30x_StdPeriph_Driver/src/stm32f30x_crc.c **** 
 174:/home/user/Desktop/STM32-Projekte/FH-Vertibot/src/STM32F30x_StdPeriph_Driver/src/stm32f30x_crc.c ****   /* Write to CR register */
 175:/home/user/Desktop/STM32-Projekte/FH-Vertibot/src/STM32F30x_StdPeriph_Driver/src/stm32f30x_crc.c ****   CRC->CR = (uint32_t)tmpcr;
 140              		.loc 1 175 0
 141 004e 9860     		str	r0, [r3, #8]
 142 0050 7047     		bx	lr
 143              	.L12:
 144 0052 00BF     		.align	2
 145              	.L11:
 146 0054 00300240 		.word	1073885184
 147              		.cfi_endproc
 148              	.LFE114:
 150              		.align	1
 151              		.global	CRC_ReverseOutputDataCmd
 152              		.thumb
 153              		.thumb_func
 155              	CRC_ReverseOutputDataCmd:
 156              	.LFB115:
 176:/home/user/Desktop/STM32-Projekte/FH-Vertibot/src/STM32F30x_StdPeriph_Driver/src/stm32f30x_crc.c **** }
 177:/home/user/Desktop/STM32-Projekte/FH-Vertibot/src/STM32F30x_StdPeriph_Driver/src/stm32f30x_crc.c **** 
 178:/home/user/Desktop/STM32-Projekte/FH-Vertibot/src/STM32F30x_StdPeriph_Driver/src/stm32f30x_crc.c **** /**
 179:/home/user/Desktop/STM32-Projekte/FH-Vertibot/src/STM32F30x_StdPeriph_Driver/src/stm32f30x_crc.c ****   * @brief  Enables or disable the reverse operation on output data.
 180:/home/user/Desktop/STM32-Projekte/FH-Vertibot/src/STM32F30x_StdPeriph_Driver/src/stm32f30x_crc.c ****   *         The reverse operation on output data is performed on 32-bit.
 181:/home/user/Desktop/STM32-Projekte/FH-Vertibot/src/STM32F30x_StdPeriph_Driver/src/stm32f30x_crc.c ****   * @param  NewState: new state of the reverse operation on output data.
 182:/home/user/Desktop/STM32-Projekte/FH-Vertibot/src/STM32F30x_StdPeriph_Driver/src/stm32f30x_crc.c ****   *   This parameter can be: ENABLE or DISABLE.
 183:/home/user/Desktop/STM32-Projekte/FH-Vertibot/src/STM32F30x_StdPeriph_Driver/src/stm32f30x_crc.c ****   * @retval None
 184:/home/user/Desktop/STM32-Projekte/FH-Vertibot/src/STM32F30x_StdPeriph_Driver/src/stm32f30x_crc.c ****   */
 185:/home/user/Desktop/STM32-Projekte/FH-Vertibot/src/STM32F30x_StdPeriph_Driver/src/stm32f30x_crc.c **** void CRC_ReverseOutputDataCmd(FunctionalState NewState)
 186:/home/user/Desktop/STM32-Projekte/FH-Vertibot/src/STM32F30x_StdPeriph_Driver/src/stm32f30x_crc.c **** {
 157              		.loc 1 186 0
 158              		.cfi_startproc
 159              		@ args = 0, pretend = 0, frame = 0
 160              		@ frame_needed = 0, uses_anonymous_args = 0
 161              		@ link register save eliminated.
 162              	.LVL8:
 163 0058 044B     		ldr	r3, .L17
 187:/home/user/Desktop/STM32-Projekte/FH-Vertibot/src/STM32F30x_StdPeriph_Driver/src/stm32f30x_crc.c ****   /* Check the parameters */
 188:/home/user/Desktop/STM32-Projekte/FH-Vertibot/src/STM32F30x_StdPeriph_Driver/src/stm32f30x_crc.c ****   assert_param(IS_FUNCTIONAL_STATE(NewState));
 189:/home/user/Desktop/STM32-Projekte/FH-Vertibot/src/STM32F30x_StdPeriph_Driver/src/stm32f30x_crc.c **** 
 190:/home/user/Desktop/STM32-Projekte/FH-Vertibot/src/STM32F30x_StdPeriph_Driver/src/stm32f30x_crc.c ****   if (NewState != DISABLE)
 191:/home/user/Desktop/STM32-Projekte/FH-Vertibot/src/STM32F30x_StdPeriph_Driver/src/stm32f30x_crc.c ****   {
 192:/home/user/Desktop/STM32-Projekte/FH-Vertibot/src/STM32F30x_StdPeriph_Driver/src/stm32f30x_crc.c ****     /* Enable reverse operation on output data */
 193:/home/user/Desktop/STM32-Projekte/FH-Vertibot/src/STM32F30x_StdPeriph_Driver/src/stm32f30x_crc.c ****     CRC->CR |= CRC_CR_REV_OUT;
 164              		.loc 1 193 0
 165 005a 9A68     		ldr	r2, [r3, #8]
 190:/home/user/Desktop/STM32-Projekte/FH-Vertibot/src/STM32F30x_StdPeriph_Driver/src/stm32f30x_crc.c ****   if (NewState != DISABLE)
 166              		.loc 1 190 0
 167 005c 10B1     		cbz	r0, .L14
 168              		.loc 1 193 0
 169 005e 42F08002 		orr	r2, r2, #128
 170 0062 01E0     		b	.L16
 171              	.L14:
 194:/home/user/Desktop/STM32-Projekte/FH-Vertibot/src/STM32F30x_StdPeriph_Driver/src/stm32f30x_crc.c ****   }
 195:/home/user/Desktop/STM32-Projekte/FH-Vertibot/src/STM32F30x_StdPeriph_Driver/src/stm32f30x_crc.c ****   else
 196:/home/user/Desktop/STM32-Projekte/FH-Vertibot/src/STM32F30x_StdPeriph_Driver/src/stm32f30x_crc.c ****   {
 197:/home/user/Desktop/STM32-Projekte/FH-Vertibot/src/STM32F30x_StdPeriph_Driver/src/stm32f30x_crc.c ****     /* Disable reverse operation on output data */
 198:/home/user/Desktop/STM32-Projekte/FH-Vertibot/src/STM32F30x_StdPeriph_Driver/src/stm32f30x_crc.c ****     CRC->CR &= (uint32_t)~((uint32_t)CRC_CR_REV_OUT);
 172              		.loc 1 198 0
 173 0064 22F08002 		bic	r2, r2, #128
 174              	.L16:
 175 0068 9A60     		str	r2, [r3, #8]
 176 006a 7047     		bx	lr
 177              	.L18:
 178              		.align	2
 179              	.L17:
 180 006c 00300240 		.word	1073885184
 181              		.cfi_endproc
 182              	.LFE115:
 184              		.align	1
 185              		.global	CRC_SetInitRegister
 186              		.thumb
 187              		.thumb_func
 189              	CRC_SetInitRegister:
 190              	.LFB116:
 199:/home/user/Desktop/STM32-Projekte/FH-Vertibot/src/STM32F30x_StdPeriph_Driver/src/stm32f30x_crc.c ****   }
 200:/home/user/Desktop/STM32-Projekte/FH-Vertibot/src/STM32F30x_StdPeriph_Driver/src/stm32f30x_crc.c **** }
 201:/home/user/Desktop/STM32-Projekte/FH-Vertibot/src/STM32F30x_StdPeriph_Driver/src/stm32f30x_crc.c **** 
 202:/home/user/Desktop/STM32-Projekte/FH-Vertibot/src/STM32F30x_StdPeriph_Driver/src/stm32f30x_crc.c **** /**
 203:/home/user/Desktop/STM32-Projekte/FH-Vertibot/src/STM32F30x_StdPeriph_Driver/src/stm32f30x_crc.c ****   * @brief  Initializes the INIT register.
 204:/home/user/Desktop/STM32-Projekte/FH-Vertibot/src/STM32F30x_StdPeriph_Driver/src/stm32f30x_crc.c ****   * @note   After resetting CRC calculation unit, CRC_InitValue is stored in DR register
 205:/home/user/Desktop/STM32-Projekte/FH-Vertibot/src/STM32F30x_StdPeriph_Driver/src/stm32f30x_crc.c ****   * @param  CRC_InitValue: Programmable initial CRC value
 206:/home/user/Desktop/STM32-Projekte/FH-Vertibot/src/STM32F30x_StdPeriph_Driver/src/stm32f30x_crc.c ****   * @retval None
 207:/home/user/Desktop/STM32-Projekte/FH-Vertibot/src/STM32F30x_StdPeriph_Driver/src/stm32f30x_crc.c ****   */
 208:/home/user/Desktop/STM32-Projekte/FH-Vertibot/src/STM32F30x_StdPeriph_Driver/src/stm32f30x_crc.c **** void CRC_SetInitRegister(uint32_t CRC_InitValue)
 209:/home/user/Desktop/STM32-Projekte/FH-Vertibot/src/STM32F30x_StdPeriph_Driver/src/stm32f30x_crc.c **** {
 191              		.loc 1 209 0
 192              		.cfi_startproc
 193              		@ args = 0, pretend = 0, frame = 0
 194              		@ frame_needed = 0, uses_anonymous_args = 0
 195              		@ link register save eliminated.
 196              	.LVL9:
 210:/home/user/Desktop/STM32-Projekte/FH-Vertibot/src/STM32F30x_StdPeriph_Driver/src/stm32f30x_crc.c ****   CRC->INIT = CRC_InitValue;
 197              		.loc 1 210 0
 198 0070 014B     		ldr	r3, .L20
 199 0072 1861     		str	r0, [r3, #16]
 200 0074 7047     		bx	lr
 201              	.L21:
 202 0076 00BF     		.align	2
 203              	.L20:
 204 0078 00300240 		.word	1073885184
 205              		.cfi_endproc
 206              	.LFE116:
 208              		.align	1
 209              		.global	CRC_SetPolynomial
 210              		.thumb
 211              		.thumb_func
 213              	CRC_SetPolynomial:
 214              	.LFB117:
 211:/home/user/Desktop/STM32-Projekte/FH-Vertibot/src/STM32F30x_StdPeriph_Driver/src/stm32f30x_crc.c **** }
 212:/home/user/Desktop/STM32-Projekte/FH-Vertibot/src/STM32F30x_StdPeriph_Driver/src/stm32f30x_crc.c **** 
 213:/home/user/Desktop/STM32-Projekte/FH-Vertibot/src/STM32F30x_StdPeriph_Driver/src/stm32f30x_crc.c **** /**
 214:/home/user/Desktop/STM32-Projekte/FH-Vertibot/src/STM32F30x_StdPeriph_Driver/src/stm32f30x_crc.c ****   * @brief  Initializes the polynomail coefficients.
 215:/home/user/Desktop/STM32-Projekte/FH-Vertibot/src/STM32F30x_StdPeriph_Driver/src/stm32f30x_crc.c ****   * @param  CRC_Pol: Polynomial to be used for CRC calculation.
 216:/home/user/Desktop/STM32-Projekte/FH-Vertibot/src/STM32F30x_StdPeriph_Driver/src/stm32f30x_crc.c ****   * @retval None
 217:/home/user/Desktop/STM32-Projekte/FH-Vertibot/src/STM32F30x_StdPeriph_Driver/src/stm32f30x_crc.c ****   */
 218:/home/user/Desktop/STM32-Projekte/FH-Vertibot/src/STM32F30x_StdPeriph_Driver/src/stm32f30x_crc.c **** void CRC_SetPolynomial(uint32_t CRC_Pol)
 219:/home/user/Desktop/STM32-Projekte/FH-Vertibot/src/STM32F30x_StdPeriph_Driver/src/stm32f30x_crc.c **** {
 215              		.loc 1 219 0
 216              		.cfi_startproc
 217              		@ args = 0, pretend = 0, frame = 0
 218              		@ frame_needed = 0, uses_anonymous_args = 0
 219              		@ link register save eliminated.
 220              	.LVL10:
 220:/home/user/Desktop/STM32-Projekte/FH-Vertibot/src/STM32F30x_StdPeriph_Driver/src/stm32f30x_crc.c ****   CRC->POL = CRC_Pol;
 221              		.loc 1 220 0
 222 007c 014B     		ldr	r3, .L23
 223 007e 5861     		str	r0, [r3, #20]
 224 0080 7047     		bx	lr
 225              	.L24:
 226 0082 00BF     		.align	2
 227              	.L23:
 228 0084 00300240 		.word	1073885184
 229              		.cfi_endproc
 230              	.LFE117:
 232              		.align	1
 233              		.global	CRC_CalcCRC
 234              		.thumb
 235              		.thumb_func
 237              	CRC_CalcCRC:
 238              	.LFB118:
 221:/home/user/Desktop/STM32-Projekte/FH-Vertibot/src/STM32F30x_StdPeriph_Driver/src/stm32f30x_crc.c **** }
 222:/home/user/Desktop/STM32-Projekte/FH-Vertibot/src/STM32F30x_StdPeriph_Driver/src/stm32f30x_crc.c **** 
 223:/home/user/Desktop/STM32-Projekte/FH-Vertibot/src/STM32F30x_StdPeriph_Driver/src/stm32f30x_crc.c **** /**
 224:/home/user/Desktop/STM32-Projekte/FH-Vertibot/src/STM32F30x_StdPeriph_Driver/src/stm32f30x_crc.c ****   * @}
 225:/home/user/Desktop/STM32-Projekte/FH-Vertibot/src/STM32F30x_StdPeriph_Driver/src/stm32f30x_crc.c ****   */
 226:/home/user/Desktop/STM32-Projekte/FH-Vertibot/src/STM32F30x_StdPeriph_Driver/src/stm32f30x_crc.c **** 
 227:/home/user/Desktop/STM32-Projekte/FH-Vertibot/src/STM32F30x_StdPeriph_Driver/src/stm32f30x_crc.c **** /** @defgroup CRC_Group2 CRC computation of one/many 32-bit data functions
 228:/home/user/Desktop/STM32-Projekte/FH-Vertibot/src/STM32F30x_StdPeriph_Driver/src/stm32f30x_crc.c ****  *  @brief   CRC computation of one/many 32-bit data functions
 229:/home/user/Desktop/STM32-Projekte/FH-Vertibot/src/STM32F30x_StdPeriph_Driver/src/stm32f30x_crc.c ****  *
 230:/home/user/Desktop/STM32-Projekte/FH-Vertibot/src/STM32F30x_StdPeriph_Driver/src/stm32f30x_crc.c **** @verbatim
 231:/home/user/Desktop/STM32-Projekte/FH-Vertibot/src/STM32F30x_StdPeriph_Driver/src/stm32f30x_crc.c ****  ===============================================================================
 232:/home/user/Desktop/STM32-Projekte/FH-Vertibot/src/STM32F30x_StdPeriph_Driver/src/stm32f30x_crc.c ****                       ##### CRC computation functions #####
 233:/home/user/Desktop/STM32-Projekte/FH-Vertibot/src/STM32F30x_StdPeriph_Driver/src/stm32f30x_crc.c ****  ===============================================================================
 234:/home/user/Desktop/STM32-Projekte/FH-Vertibot/src/STM32F30x_StdPeriph_Driver/src/stm32f30x_crc.c **** 
 235:/home/user/Desktop/STM32-Projekte/FH-Vertibot/src/STM32F30x_StdPeriph_Driver/src/stm32f30x_crc.c **** @endverbatim
 236:/home/user/Desktop/STM32-Projekte/FH-Vertibot/src/STM32F30x_StdPeriph_Driver/src/stm32f30x_crc.c ****   * @{
 237:/home/user/Desktop/STM32-Projekte/FH-Vertibot/src/STM32F30x_StdPeriph_Driver/src/stm32f30x_crc.c ****   */
 238:/home/user/Desktop/STM32-Projekte/FH-Vertibot/src/STM32F30x_StdPeriph_Driver/src/stm32f30x_crc.c **** 
 239:/home/user/Desktop/STM32-Projekte/FH-Vertibot/src/STM32F30x_StdPeriph_Driver/src/stm32f30x_crc.c **** /**
 240:/home/user/Desktop/STM32-Projekte/FH-Vertibot/src/STM32F30x_StdPeriph_Driver/src/stm32f30x_crc.c ****   * @brief  Computes the 32-bit CRC of a given data word(32-bit).
 241:/home/user/Desktop/STM32-Projekte/FH-Vertibot/src/STM32F30x_StdPeriph_Driver/src/stm32f30x_crc.c ****   * @param  CRC_Data: data word(32-bit) to compute its CRC
 242:/home/user/Desktop/STM32-Projekte/FH-Vertibot/src/STM32F30x_StdPeriph_Driver/src/stm32f30x_crc.c ****   * @retval 32-bit CRC
 243:/home/user/Desktop/STM32-Projekte/FH-Vertibot/src/STM32F30x_StdPeriph_Driver/src/stm32f30x_crc.c ****   */
 244:/home/user/Desktop/STM32-Projekte/FH-Vertibot/src/STM32F30x_StdPeriph_Driver/src/stm32f30x_crc.c **** uint32_t CRC_CalcCRC(uint32_t CRC_Data)
 245:/home/user/Desktop/STM32-Projekte/FH-Vertibot/src/STM32F30x_StdPeriph_Driver/src/stm32f30x_crc.c **** {
 239              		.loc 1 245 0
 240              		.cfi_startproc
 241              		@ args = 0, pretend = 0, frame = 0
 242              		@ frame_needed = 0, uses_anonymous_args = 0
 243              		@ link register save eliminated.
 244              	.LVL11:
 246:/home/user/Desktop/STM32-Projekte/FH-Vertibot/src/STM32F30x_StdPeriph_Driver/src/stm32f30x_crc.c ****   CRC->DR = CRC_Data;
 245              		.loc 1 246 0
 246 0088 014B     		ldr	r3, .L26
 247 008a 1860     		str	r0, [r3, #0]
 247:/home/user/Desktop/STM32-Projekte/FH-Vertibot/src/STM32F30x_StdPeriph_Driver/src/stm32f30x_crc.c ****   
 248:/home/user/Desktop/STM32-Projekte/FH-Vertibot/src/STM32F30x_StdPeriph_Driver/src/stm32f30x_crc.c ****   return (CRC->DR);
 248              		.loc 1 248 0
 249 008c 1868     		ldr	r0, [r3, #0]
 250              	.LVL12:
 249:/home/user/Desktop/STM32-Projekte/FH-Vertibot/src/STM32F30x_StdPeriph_Driver/src/stm32f30x_crc.c **** }
 251              		.loc 1 249 0
 252 008e 7047     		bx	lr
 253              	.L27:
 254              		.align	2
 255              	.L26:
 256 0090 00300240 		.word	1073885184
 257              		.cfi_endproc
 258              	.LFE118:
 260              		.align	1
 261              		.global	CRC_CalcCRC16bits
 262              		.thumb
 263              		.thumb_func
 265              	CRC_CalcCRC16bits:
 266              	.LFB119:
 250:/home/user/Desktop/STM32-Projekte/FH-Vertibot/src/STM32F30x_StdPeriph_Driver/src/stm32f30x_crc.c **** 
 251:/home/user/Desktop/STM32-Projekte/FH-Vertibot/src/STM32F30x_StdPeriph_Driver/src/stm32f30x_crc.c **** /**
 252:/home/user/Desktop/STM32-Projekte/FH-Vertibot/src/STM32F30x_StdPeriph_Driver/src/stm32f30x_crc.c ****   * @brief  Computes the 16-bit CRC of a given 16-bit data.
 253:/home/user/Desktop/STM32-Projekte/FH-Vertibot/src/STM32F30x_StdPeriph_Driver/src/stm32f30x_crc.c ****   * @param  CRC_Data: data half-word(16-bit) to compute its CRC
 254:/home/user/Desktop/STM32-Projekte/FH-Vertibot/src/STM32F30x_StdPeriph_Driver/src/stm32f30x_crc.c ****   * @retval 16-bit CRC
 255:/home/user/Desktop/STM32-Projekte/FH-Vertibot/src/STM32F30x_StdPeriph_Driver/src/stm32f30x_crc.c ****   */
 256:/home/user/Desktop/STM32-Projekte/FH-Vertibot/src/STM32F30x_StdPeriph_Driver/src/stm32f30x_crc.c **** uint32_t CRC_CalcCRC16bits(uint16_t CRC_Data)
 257:/home/user/Desktop/STM32-Projekte/FH-Vertibot/src/STM32F30x_StdPeriph_Driver/src/stm32f30x_crc.c **** {
 267              		.loc 1 257 0
 268              		.cfi_startproc
 269              		@ args = 0, pretend = 0, frame = 0
 270              		@ frame_needed = 0, uses_anonymous_args = 0
 271              		@ link register save eliminated.
 272              	.LVL13:
 258:/home/user/Desktop/STM32-Projekte/FH-Vertibot/src/STM32F30x_StdPeriph_Driver/src/stm32f30x_crc.c ****   *(uint16_t*)(CRC_BASE) = (uint16_t) CRC_Data;
 273              		.loc 1 258 0
 274 0094 014B     		ldr	r3, .L29
 275 0096 1880     		strh	r0, [r3, #0]	@ movhi
 259:/home/user/Desktop/STM32-Projekte/FH-Vertibot/src/STM32F30x_StdPeriph_Driver/src/stm32f30x_crc.c ****   
 260:/home/user/Desktop/STM32-Projekte/FH-Vertibot/src/STM32F30x_StdPeriph_Driver/src/stm32f30x_crc.c ****   return (CRC->DR);
 276              		.loc 1 260 0
 277 0098 1868     		ldr	r0, [r3, #0]
 278              	.LVL14:
 261:/home/user/Desktop/STM32-Projekte/FH-Vertibot/src/STM32F30x_StdPeriph_Driver/src/stm32f30x_crc.c **** }
 279              		.loc 1 261 0
 280 009a 7047     		bx	lr
 281              	.L30:
 282              		.align	2
 283              	.L29:
 284 009c 00300240 		.word	1073885184
 285              		.cfi_endproc
 286              	.LFE119:
 288              		.align	1
 289              		.global	CRC_CalcCRC8bits
 290              		.thumb
 291              		.thumb_func
 293              	CRC_CalcCRC8bits:
 294              	.LFB120:
 262:/home/user/Desktop/STM32-Projekte/FH-Vertibot/src/STM32F30x_StdPeriph_Driver/src/stm32f30x_crc.c **** 
 263:/home/user/Desktop/STM32-Projekte/FH-Vertibot/src/STM32F30x_StdPeriph_Driver/src/stm32f30x_crc.c **** /**
 264:/home/user/Desktop/STM32-Projekte/FH-Vertibot/src/STM32F30x_StdPeriph_Driver/src/stm32f30x_crc.c ****   * @brief  Computes the 8-bit CRC of a given 8-bit data.
 265:/home/user/Desktop/STM32-Projekte/FH-Vertibot/src/STM32F30x_StdPeriph_Driver/src/stm32f30x_crc.c ****   * @param  CRC_Data: 8-bit data to compute its CRC
 266:/home/user/Desktop/STM32-Projekte/FH-Vertibot/src/STM32F30x_StdPeriph_Driver/src/stm32f30x_crc.c ****   * @retval 8-bit CRC
 267:/home/user/Desktop/STM32-Projekte/FH-Vertibot/src/STM32F30x_StdPeriph_Driver/src/stm32f30x_crc.c ****   */
 268:/home/user/Desktop/STM32-Projekte/FH-Vertibot/src/STM32F30x_StdPeriph_Driver/src/stm32f30x_crc.c **** uint32_t CRC_CalcCRC8bits(uint8_t CRC_Data)
 269:/home/user/Desktop/STM32-Projekte/FH-Vertibot/src/STM32F30x_StdPeriph_Driver/src/stm32f30x_crc.c **** {
 295              		.loc 1 269 0
 296              		.cfi_startproc
 297              		@ args = 0, pretend = 0, frame = 0
 298              		@ frame_needed = 0, uses_anonymous_args = 0
 299              		@ link register save eliminated.
 300              	.LVL15:
 270:/home/user/Desktop/STM32-Projekte/FH-Vertibot/src/STM32F30x_StdPeriph_Driver/src/stm32f30x_crc.c ****   *(uint8_t*)(CRC_BASE) = (uint8_t) CRC_Data;
 301              		.loc 1 270 0
 302 00a0 014B     		ldr	r3, .L32
 303 00a2 1870     		strb	r0, [r3, #0]
 271:/home/user/Desktop/STM32-Projekte/FH-Vertibot/src/STM32F30x_StdPeriph_Driver/src/stm32f30x_crc.c **** 
 272:/home/user/Desktop/STM32-Projekte/FH-Vertibot/src/STM32F30x_StdPeriph_Driver/src/stm32f30x_crc.c ****   return (CRC->DR);
 304              		.loc 1 272 0
 305 00a4 1868     		ldr	r0, [r3, #0]
 306              	.LVL16:
 273:/home/user/Desktop/STM32-Projekte/FH-Vertibot/src/STM32F30x_StdPeriph_Driver/src/stm32f30x_crc.c **** }
 307              		.loc 1 273 0
 308 00a6 7047     		bx	lr
 309              	.L33:
 310              		.align	2
 311              	.L32:
 312 00a8 00300240 		.word	1073885184
 313              		.cfi_endproc
 314              	.LFE120:
 316              		.align	1
 317              		.global	CRC_CalcBlockCRC
 318              		.thumb
 319              		.thumb_func
 321              	CRC_CalcBlockCRC:
 322              	.LFB121:
 274:/home/user/Desktop/STM32-Projekte/FH-Vertibot/src/STM32F30x_StdPeriph_Driver/src/stm32f30x_crc.c **** 
 275:/home/user/Desktop/STM32-Projekte/FH-Vertibot/src/STM32F30x_StdPeriph_Driver/src/stm32f30x_crc.c **** /**
 276:/home/user/Desktop/STM32-Projekte/FH-Vertibot/src/STM32F30x_StdPeriph_Driver/src/stm32f30x_crc.c ****   * @brief  Computes the 32-bit CRC of a given buffer of data word(32-bit).
 277:/home/user/Desktop/STM32-Projekte/FH-Vertibot/src/STM32F30x_StdPeriph_Driver/src/stm32f30x_crc.c ****   * @param  pBuffer: pointer to the buffer containing the data to be computed
 278:/home/user/Desktop/STM32-Projekte/FH-Vertibot/src/STM32F30x_StdPeriph_Driver/src/stm32f30x_crc.c ****   * @param  BufferLength: length of the buffer to be computed
 279:/home/user/Desktop/STM32-Projekte/FH-Vertibot/src/STM32F30x_StdPeriph_Driver/src/stm32f30x_crc.c ****   * @retval 32-bit CRC
 280:/home/user/Desktop/STM32-Projekte/FH-Vertibot/src/STM32F30x_StdPeriph_Driver/src/stm32f30x_crc.c ****   */
 281:/home/user/Desktop/STM32-Projekte/FH-Vertibot/src/STM32F30x_StdPeriph_Driver/src/stm32f30x_crc.c **** uint32_t CRC_CalcBlockCRC(uint32_t pBuffer[], uint32_t BufferLength)
 282:/home/user/Desktop/STM32-Projekte/FH-Vertibot/src/STM32F30x_StdPeriph_Driver/src/stm32f30x_crc.c **** {
 323              		.loc 1 282 0
 324              		.cfi_startproc
 325              		@ args = 0, pretend = 0, frame = 0
 326              		@ frame_needed = 0, uses_anonymous_args = 0
 327              	.LVL17:
 328 00ac 10B5     		push	{r4, lr}
 329              	.LCFI0:
 330              		.cfi_def_cfa_offset 8
 331              		.cfi_offset 4, -8
 332              		.cfi_offset 14, -4
 283:/home/user/Desktop/STM32-Projekte/FH-Vertibot/src/STM32F30x_StdPeriph_Driver/src/stm32f30x_crc.c ****   uint32_t index = 0;
 284:/home/user/Desktop/STM32-Projekte/FH-Vertibot/src/STM32F30x_StdPeriph_Driver/src/stm32f30x_crc.c ****   
 285:/home/user/Desktop/STM32-Projekte/FH-Vertibot/src/STM32F30x_StdPeriph_Driver/src/stm32f30x_crc.c ****   for(index = 0; index < BufferLength; index++)
 333              		.loc 1 285 0
 334 00ae 0023     		movs	r3, #0
 335 00b0 054C     		ldr	r4, .L37
 336 00b2 03E0     		b	.L35
 337              	.LVL18:
 338              	.L36:
 286:/home/user/Desktop/STM32-Projekte/FH-Vertibot/src/STM32F30x_StdPeriph_Driver/src/stm32f30x_crc.c ****   {
 287:/home/user/Desktop/STM32-Projekte/FH-Vertibot/src/STM32F30x_StdPeriph_Driver/src/stm32f30x_crc.c ****     CRC->DR = pBuffer[index];
 339              		.loc 1 287 0 discriminator 2
 340 00b4 50F82320 		ldr	r2, [r0, r3, lsl #2]
 285:/home/user/Desktop/STM32-Projekte/FH-Vertibot/src/STM32F30x_StdPeriph_Driver/src/stm32f30x_crc.c ****   for(index = 0; index < BufferLength; index++)
 341              		.loc 1 285 0 discriminator 2
 342 00b8 0133     		adds	r3, r3, #1
 343              	.LVL19:
 344              		.loc 1 287 0 discriminator 2
 345 00ba 2260     		str	r2, [r4, #0]
 346              	.LVL20:
 347              	.L35:
 285:/home/user/Desktop/STM32-Projekte/FH-Vertibot/src/STM32F30x_StdPeriph_Driver/src/stm32f30x_crc.c ****   for(index = 0; index < BufferLength; index++)
 348              		.loc 1 285 0 discriminator 1
 349 00bc 8B42     		cmp	r3, r1
 350 00be F9D1     		bne	.L36
 288:/home/user/Desktop/STM32-Projekte/FH-Vertibot/src/STM32F30x_StdPeriph_Driver/src/stm32f30x_crc.c ****   }
 289:/home/user/Desktop/STM32-Projekte/FH-Vertibot/src/STM32F30x_StdPeriph_Driver/src/stm32f30x_crc.c ****   return (CRC->DR);
 351              		.loc 1 289 0
 352 00c0 014B     		ldr	r3, .L37
 353              	.LVL21:
 354 00c2 1868     		ldr	r0, [r3, #0]
 355              	.LVL22:
 290:/home/user/Desktop/STM32-Projekte/FH-Vertibot/src/STM32F30x_StdPeriph_Driver/src/stm32f30x_crc.c **** }
 356              		.loc 1 290 0
 357 00c4 10BD     		pop	{r4, pc}
 358              	.L38:
 359 00c6 00BF     		.align	2
 360              	.L37:
 361 00c8 00300240 		.word	1073885184
 362              		.cfi_endproc
 363              	.LFE121:
 365              		.align	1
 366              		.global	CRC_GetCRC
 367              		.thumb
 368              		.thumb_func
 370              	CRC_GetCRC:
 371              	.LFB122:
 291:/home/user/Desktop/STM32-Projekte/FH-Vertibot/src/STM32F30x_StdPeriph_Driver/src/stm32f30x_crc.c **** 
 292:/home/user/Desktop/STM32-Projekte/FH-Vertibot/src/STM32F30x_StdPeriph_Driver/src/stm32f30x_crc.c **** /**
 293:/home/user/Desktop/STM32-Projekte/FH-Vertibot/src/STM32F30x_StdPeriph_Driver/src/stm32f30x_crc.c ****   * @brief  Returns the current CRC value.
 294:/home/user/Desktop/STM32-Projekte/FH-Vertibot/src/STM32F30x_StdPeriph_Driver/src/stm32f30x_crc.c ****   * @param  None
 295:/home/user/Desktop/STM32-Projekte/FH-Vertibot/src/STM32F30x_StdPeriph_Driver/src/stm32f30x_crc.c ****   * @retval 32-bit CRC
 296:/home/user/Desktop/STM32-Projekte/FH-Vertibot/src/STM32F30x_StdPeriph_Driver/src/stm32f30x_crc.c ****   */
 297:/home/user/Desktop/STM32-Projekte/FH-Vertibot/src/STM32F30x_StdPeriph_Driver/src/stm32f30x_crc.c **** uint32_t CRC_GetCRC(void)
 298:/home/user/Desktop/STM32-Projekte/FH-Vertibot/src/STM32F30x_StdPeriph_Driver/src/stm32f30x_crc.c **** {
 372              		.loc 1 298 0
 373              		.cfi_startproc
 374              		@ args = 0, pretend = 0, frame = 0
 375              		@ frame_needed = 0, uses_anonymous_args = 0
 376              		@ link register save eliminated.
 299:/home/user/Desktop/STM32-Projekte/FH-Vertibot/src/STM32F30x_StdPeriph_Driver/src/stm32f30x_crc.c ****   return (CRC->DR);
 377              		.loc 1 299 0
 378 00cc 014B     		ldr	r3, .L40
 379 00ce 1868     		ldr	r0, [r3, #0]
 300:/home/user/Desktop/STM32-Projekte/FH-Vertibot/src/STM32F30x_StdPeriph_Driver/src/stm32f30x_crc.c **** }
 380              		.loc 1 300 0
 381 00d0 7047     		bx	lr
 382              	.L41:
 383 00d2 00BF     		.align	2
 384              	.L40:
 385 00d4 00300240 		.word	1073885184
 386              		.cfi_endproc
 387              	.LFE122:
 389              		.align	1
 390              		.global	CRC_SetIDRegister
 391              		.thumb
 392              		.thumb_func
 394              	CRC_SetIDRegister:
 395              	.LFB123:
 301:/home/user/Desktop/STM32-Projekte/FH-Vertibot/src/STM32F30x_StdPeriph_Driver/src/stm32f30x_crc.c **** 
 302:/home/user/Desktop/STM32-Projekte/FH-Vertibot/src/STM32F30x_StdPeriph_Driver/src/stm32f30x_crc.c **** /**
 303:/home/user/Desktop/STM32-Projekte/FH-Vertibot/src/STM32F30x_StdPeriph_Driver/src/stm32f30x_crc.c ****   * @}
 304:/home/user/Desktop/STM32-Projekte/FH-Vertibot/src/STM32F30x_StdPeriph_Driver/src/stm32f30x_crc.c ****   */
 305:/home/user/Desktop/STM32-Projekte/FH-Vertibot/src/STM32F30x_StdPeriph_Driver/src/stm32f30x_crc.c **** 
 306:/home/user/Desktop/STM32-Projekte/FH-Vertibot/src/STM32F30x_StdPeriph_Driver/src/stm32f30x_crc.c **** /** @defgroup CRC_Group3 CRC Independent Register (IDR) access functions
 307:/home/user/Desktop/STM32-Projekte/FH-Vertibot/src/STM32F30x_StdPeriph_Driver/src/stm32f30x_crc.c ****  *  @brief   CRC Independent Register (IDR) access (write/read) functions
 308:/home/user/Desktop/STM32-Projekte/FH-Vertibot/src/STM32F30x_StdPeriph_Driver/src/stm32f30x_crc.c ****  *
 309:/home/user/Desktop/STM32-Projekte/FH-Vertibot/src/STM32F30x_StdPeriph_Driver/src/stm32f30x_crc.c **** @verbatim
 310:/home/user/Desktop/STM32-Projekte/FH-Vertibot/src/STM32F30x_StdPeriph_Driver/src/stm32f30x_crc.c ****  ===============================================================================
 311:/home/user/Desktop/STM32-Projekte/FH-Vertibot/src/STM32F30x_StdPeriph_Driver/src/stm32f30x_crc.c ****            ##### CRC Independent Register (IDR) access functions #####
 312:/home/user/Desktop/STM32-Projekte/FH-Vertibot/src/STM32F30x_StdPeriph_Driver/src/stm32f30x_crc.c ****  ===============================================================================
 313:/home/user/Desktop/STM32-Projekte/FH-Vertibot/src/STM32F30x_StdPeriph_Driver/src/stm32f30x_crc.c **** 
 314:/home/user/Desktop/STM32-Projekte/FH-Vertibot/src/STM32F30x_StdPeriph_Driver/src/stm32f30x_crc.c **** @endverbatim
 315:/home/user/Desktop/STM32-Projekte/FH-Vertibot/src/STM32F30x_StdPeriph_Driver/src/stm32f30x_crc.c ****   * @{
 316:/home/user/Desktop/STM32-Projekte/FH-Vertibot/src/STM32F30x_StdPeriph_Driver/src/stm32f30x_crc.c ****   */
 317:/home/user/Desktop/STM32-Projekte/FH-Vertibot/src/STM32F30x_StdPeriph_Driver/src/stm32f30x_crc.c **** 
 318:/home/user/Desktop/STM32-Projekte/FH-Vertibot/src/STM32F30x_StdPeriph_Driver/src/stm32f30x_crc.c **** /**
 319:/home/user/Desktop/STM32-Projekte/FH-Vertibot/src/STM32F30x_StdPeriph_Driver/src/stm32f30x_crc.c ****   * @brief  Stores an 8-bit data in the Independent Data(ID) register.
 320:/home/user/Desktop/STM32-Projekte/FH-Vertibot/src/STM32F30x_StdPeriph_Driver/src/stm32f30x_crc.c ****   * @param  CRC_IDValue: 8-bit value to be stored in the ID register 					
 321:/home/user/Desktop/STM32-Projekte/FH-Vertibot/src/STM32F30x_StdPeriph_Driver/src/stm32f30x_crc.c ****   * @retval None
 322:/home/user/Desktop/STM32-Projekte/FH-Vertibot/src/STM32F30x_StdPeriph_Driver/src/stm32f30x_crc.c ****   */
 323:/home/user/Desktop/STM32-Projekte/FH-Vertibot/src/STM32F30x_StdPeriph_Driver/src/stm32f30x_crc.c **** void CRC_SetIDRegister(uint8_t CRC_IDValue)
 324:/home/user/Desktop/STM32-Projekte/FH-Vertibot/src/STM32F30x_StdPeriph_Driver/src/stm32f30x_crc.c **** {
 396              		.loc 1 324 0
 397              		.cfi_startproc
 398              		@ args = 0, pretend = 0, frame = 0
 399              		@ frame_needed = 0, uses_anonymous_args = 0
 400              		@ link register save eliminated.
 401              	.LVL23:
 325:/home/user/Desktop/STM32-Projekte/FH-Vertibot/src/STM32F30x_StdPeriph_Driver/src/stm32f30x_crc.c ****   CRC->IDR = CRC_IDValue;
 402              		.loc 1 325 0
 403 00d8 014B     		ldr	r3, .L43
 404 00da 1871     		strb	r0, [r3, #4]
 405 00dc 7047     		bx	lr
 406              	.L44:
 407 00de 00BF     		.align	2
 408              	.L43:
 409 00e0 00300240 		.word	1073885184
 410              		.cfi_endproc
 411              	.LFE123:
 413              		.align	1
 414              		.global	CRC_GetIDRegister
 415              		.thumb
 416              		.thumb_func
 418              	CRC_GetIDRegister:
 419              	.LFB124:
 326:/home/user/Desktop/STM32-Projekte/FH-Vertibot/src/STM32F30x_StdPeriph_Driver/src/stm32f30x_crc.c **** }
 327:/home/user/Desktop/STM32-Projekte/FH-Vertibot/src/STM32F30x_StdPeriph_Driver/src/stm32f30x_crc.c **** 
 328:/home/user/Desktop/STM32-Projekte/FH-Vertibot/src/STM32F30x_StdPeriph_Driver/src/stm32f30x_crc.c **** /**
 329:/home/user/Desktop/STM32-Projekte/FH-Vertibot/src/STM32F30x_StdPeriph_Driver/src/stm32f30x_crc.c ****   * @brief  Returns the 8-bit data stored in the Independent Data(ID) register
 330:/home/user/Desktop/STM32-Projekte/FH-Vertibot/src/STM32F30x_StdPeriph_Driver/src/stm32f30x_crc.c ****   * @param  None
 331:/home/user/Desktop/STM32-Projekte/FH-Vertibot/src/STM32F30x_StdPeriph_Driver/src/stm32f30x_crc.c ****   * @retval 8-bit value of the ID register 
 332:/home/user/Desktop/STM32-Projekte/FH-Vertibot/src/STM32F30x_StdPeriph_Driver/src/stm32f30x_crc.c ****   */
 333:/home/user/Desktop/STM32-Projekte/FH-Vertibot/src/STM32F30x_StdPeriph_Driver/src/stm32f30x_crc.c **** uint8_t CRC_GetIDRegister(void)
 334:/home/user/Desktop/STM32-Projekte/FH-Vertibot/src/STM32F30x_StdPeriph_Driver/src/stm32f30x_crc.c **** {
 420              		.loc 1 334 0
 421              		.cfi_startproc
 422              		@ args = 0, pretend = 0, frame = 0
 423              		@ frame_needed = 0, uses_anonymous_args = 0
 424              		@ link register save eliminated.
 335:/home/user/Desktop/STM32-Projekte/FH-Vertibot/src/STM32F30x_StdPeriph_Driver/src/stm32f30x_crc.c ****   return (CRC->IDR);
 425              		.loc 1 335 0
 426 00e4 014B     		ldr	r3, .L46
 427 00e6 1879     		ldrb	r0, [r3, #4]	@ zero_extendqisi2
 336:/home/user/Desktop/STM32-Projekte/FH-Vertibot/src/STM32F30x_StdPeriph_Driver/src/stm32f30x_crc.c **** }
 428              		.loc 1 336 0
 429 00e8 7047     		bx	lr
 430              	.L47:
 431 00ea 00BF     		.align	2
 432              	.L46:
 433 00ec 00300240 		.word	1073885184
 434              		.cfi_endproc
 435              	.LFE124:
 437              	.Letext0:
 438              		.file 2 "/opt/CodeSourcery/Sourcery_CodeBench_Lite_for_ARM_EABI/bin/../lib/gcc/arm-none-eabi/4.7.2
 439              		.file 3 "/home/user/Desktop/STM32-Projekte/FH-Vertibot/src/CMSIS/Device/ST/STM32F30x/Include/stm32
 440              		.file 4 "/home/user/Desktop/STM32-Projekte/FH-Vertibot/src/CMSIS/Include/core_cm4.h"