   1              		.syntax unified
   2              		.cpu cortex-m4
   3              		.eabi_attribute 27, 3
   4              		.eabi_attribute 28, 1
   5              		.fpu fpv4-sp-d16
   6              		.eabi_attribute 20, 1
   7              		.eabi_attribute 21, 1
   8              		.eabi_attribute 23, 3
   9              		.eabi_attribute 24, 1
  10              		.eabi_attribute 25, 1
  11              		.eabi_attribute 26, 1
  12              		.eabi_attribute 30, 4
  13              		.eabi_attribute 34, 1
  14              		.eabi_attribute 18, 4
  15              		.thumb
  16              		.file	"stm32f30x_pwr.c"
  17              		.text
  18              	.Ltext0:
  19              		.cfi_sections	.debug_frame
  20              		.align	1
  21              		.global	PWR_DeInit
  22              		.thumb
  23              		.thumb_func
  25              	PWR_DeInit:
  26              	.LFB111:
  27              		.file 1 "/home/user/Desktop/STM32-Projekte/FH-Vertibot/src/STM32F30x_StdPeriph_Driver/src/stm32f30
   1:/home/user/Desktop/STM32-Projekte/FH-Vertibot/src/STM32F30x_StdPeriph_Driver/src/stm32f30x_pwr.c **** /**
   2:/home/user/Desktop/STM32-Projekte/FH-Vertibot/src/STM32F30x_StdPeriph_Driver/src/stm32f30x_pwr.c ****   ******************************************************************************
   3:/home/user/Desktop/STM32-Projekte/FH-Vertibot/src/STM32F30x_StdPeriph_Driver/src/stm32f30x_pwr.c ****   * @file    stm32f30x_pwr.c
   4:/home/user/Desktop/STM32-Projekte/FH-Vertibot/src/STM32F30x_StdPeriph_Driver/src/stm32f30x_pwr.c ****   * @author  MCD Application Team
   5:/home/user/Desktop/STM32-Projekte/FH-Vertibot/src/STM32F30x_StdPeriph_Driver/src/stm32f30x_pwr.c ****   * @version V1.0.1
   6:/home/user/Desktop/STM32-Projekte/FH-Vertibot/src/STM32F30x_StdPeriph_Driver/src/stm32f30x_pwr.c ****   * @date    23-October-2012
   7:/home/user/Desktop/STM32-Projekte/FH-Vertibot/src/STM32F30x_StdPeriph_Driver/src/stm32f30x_pwr.c ****   * @brief   This file provides firmware functions to manage the following 
   8:/home/user/Desktop/STM32-Projekte/FH-Vertibot/src/STM32F30x_StdPeriph_Driver/src/stm32f30x_pwr.c ****   *          functionalities of the Power Controller (PWR) peripheral:           
   9:/home/user/Desktop/STM32-Projekte/FH-Vertibot/src/STM32F30x_StdPeriph_Driver/src/stm32f30x_pwr.c ****   *           + Backup Domain Access
  10:/home/user/Desktop/STM32-Projekte/FH-Vertibot/src/STM32F30x_StdPeriph_Driver/src/stm32f30x_pwr.c ****   *           + PVD configuration
  11:/home/user/Desktop/STM32-Projekte/FH-Vertibot/src/STM32F30x_StdPeriph_Driver/src/stm32f30x_pwr.c ****   *           + WakeUp pins configuration
  12:/home/user/Desktop/STM32-Projekte/FH-Vertibot/src/STM32F30x_StdPeriph_Driver/src/stm32f30x_pwr.c ****   *           + Low Power modes configuration
  13:/home/user/Desktop/STM32-Projekte/FH-Vertibot/src/STM32F30x_StdPeriph_Driver/src/stm32f30x_pwr.c ****   *           + Flags management
  14:/home/user/Desktop/STM32-Projekte/FH-Vertibot/src/STM32F30x_StdPeriph_Driver/src/stm32f30x_pwr.c ****   *               
  15:/home/user/Desktop/STM32-Projekte/FH-Vertibot/src/STM32F30x_StdPeriph_Driver/src/stm32f30x_pwr.c ****   ******************************************************************************
  16:/home/user/Desktop/STM32-Projekte/FH-Vertibot/src/STM32F30x_StdPeriph_Driver/src/stm32f30x_pwr.c ****   * @attention
  17:/home/user/Desktop/STM32-Projekte/FH-Vertibot/src/STM32F30x_StdPeriph_Driver/src/stm32f30x_pwr.c ****   *
  18:/home/user/Desktop/STM32-Projekte/FH-Vertibot/src/STM32F30x_StdPeriph_Driver/src/stm32f30x_pwr.c ****   * <h2><center>&copy; COPYRIGHT 2012 STMicroelectronics</center></h2>
  19:/home/user/Desktop/STM32-Projekte/FH-Vertibot/src/STM32F30x_StdPeriph_Driver/src/stm32f30x_pwr.c ****   *
  20:/home/user/Desktop/STM32-Projekte/FH-Vertibot/src/STM32F30x_StdPeriph_Driver/src/stm32f30x_pwr.c ****   * Licensed under MCD-ST Liberty SW License Agreement V2, (the "License");
  21:/home/user/Desktop/STM32-Projekte/FH-Vertibot/src/STM32F30x_StdPeriph_Driver/src/stm32f30x_pwr.c ****   * You may not use this file except in compliance with the License.
  22:/home/user/Desktop/STM32-Projekte/FH-Vertibot/src/STM32F30x_StdPeriph_Driver/src/stm32f30x_pwr.c ****   * You may obtain a copy of the License at:
  23:/home/user/Desktop/STM32-Projekte/FH-Vertibot/src/STM32F30x_StdPeriph_Driver/src/stm32f30x_pwr.c ****   *
  24:/home/user/Desktop/STM32-Projekte/FH-Vertibot/src/STM32F30x_StdPeriph_Driver/src/stm32f30x_pwr.c ****   *        http://www.st.com/software_license_agreement_liberty_v2
  25:/home/user/Desktop/STM32-Projekte/FH-Vertibot/src/STM32F30x_StdPeriph_Driver/src/stm32f30x_pwr.c ****   *
  26:/home/user/Desktop/STM32-Projekte/FH-Vertibot/src/STM32F30x_StdPeriph_Driver/src/stm32f30x_pwr.c ****   * Unless required by applicable law or agreed to in writing, software 
  27:/home/user/Desktop/STM32-Projekte/FH-Vertibot/src/STM32F30x_StdPeriph_Driver/src/stm32f30x_pwr.c ****   * distributed under the License is distributed on an "AS IS" BASIS, 
  28:/home/user/Desktop/STM32-Projekte/FH-Vertibot/src/STM32F30x_StdPeriph_Driver/src/stm32f30x_pwr.c ****   * WITHOUT WARRANTIES OR CONDITIONS OF ANY KIND, either express or implied.
  29:/home/user/Desktop/STM32-Projekte/FH-Vertibot/src/STM32F30x_StdPeriph_Driver/src/stm32f30x_pwr.c ****   * See the License for the specific language governing permissions and
  30:/home/user/Desktop/STM32-Projekte/FH-Vertibot/src/STM32F30x_StdPeriph_Driver/src/stm32f30x_pwr.c ****   * limitations under the License.
  31:/home/user/Desktop/STM32-Projekte/FH-Vertibot/src/STM32F30x_StdPeriph_Driver/src/stm32f30x_pwr.c ****   *
  32:/home/user/Desktop/STM32-Projekte/FH-Vertibot/src/STM32F30x_StdPeriph_Driver/src/stm32f30x_pwr.c ****   ******************************************************************************
  33:/home/user/Desktop/STM32-Projekte/FH-Vertibot/src/STM32F30x_StdPeriph_Driver/src/stm32f30x_pwr.c ****   */
  34:/home/user/Desktop/STM32-Projekte/FH-Vertibot/src/STM32F30x_StdPeriph_Driver/src/stm32f30x_pwr.c **** 
  35:/home/user/Desktop/STM32-Projekte/FH-Vertibot/src/STM32F30x_StdPeriph_Driver/src/stm32f30x_pwr.c **** /* Includes ------------------------------------------------------------------*/
  36:/home/user/Desktop/STM32-Projekte/FH-Vertibot/src/STM32F30x_StdPeriph_Driver/src/stm32f30x_pwr.c **** #include "stm32f30x_pwr.h"
  37:/home/user/Desktop/STM32-Projekte/FH-Vertibot/src/STM32F30x_StdPeriph_Driver/src/stm32f30x_pwr.c **** #include "stm32f30x_rcc.h"
  38:/home/user/Desktop/STM32-Projekte/FH-Vertibot/src/STM32F30x_StdPeriph_Driver/src/stm32f30x_pwr.c **** 
  39:/home/user/Desktop/STM32-Projekte/FH-Vertibot/src/STM32F30x_StdPeriph_Driver/src/stm32f30x_pwr.c **** /** @addtogroup STM32F30x_StdPeriph_Driver
  40:/home/user/Desktop/STM32-Projekte/FH-Vertibot/src/STM32F30x_StdPeriph_Driver/src/stm32f30x_pwr.c ****   * @{
  41:/home/user/Desktop/STM32-Projekte/FH-Vertibot/src/STM32F30x_StdPeriph_Driver/src/stm32f30x_pwr.c ****   */
  42:/home/user/Desktop/STM32-Projekte/FH-Vertibot/src/STM32F30x_StdPeriph_Driver/src/stm32f30x_pwr.c **** 
  43:/home/user/Desktop/STM32-Projekte/FH-Vertibot/src/STM32F30x_StdPeriph_Driver/src/stm32f30x_pwr.c **** /** @defgroup PWR 
  44:/home/user/Desktop/STM32-Projekte/FH-Vertibot/src/STM32F30x_StdPeriph_Driver/src/stm32f30x_pwr.c ****   * @brief PWR driver modules
  45:/home/user/Desktop/STM32-Projekte/FH-Vertibot/src/STM32F30x_StdPeriph_Driver/src/stm32f30x_pwr.c ****   * @{
  46:/home/user/Desktop/STM32-Projekte/FH-Vertibot/src/STM32F30x_StdPeriph_Driver/src/stm32f30x_pwr.c ****   */ 
  47:/home/user/Desktop/STM32-Projekte/FH-Vertibot/src/STM32F30x_StdPeriph_Driver/src/stm32f30x_pwr.c **** 
  48:/home/user/Desktop/STM32-Projekte/FH-Vertibot/src/STM32F30x_StdPeriph_Driver/src/stm32f30x_pwr.c **** /* Private typedef -----------------------------------------------------------*/
  49:/home/user/Desktop/STM32-Projekte/FH-Vertibot/src/STM32F30x_StdPeriph_Driver/src/stm32f30x_pwr.c **** /* Private define ------------------------------------------------------------*/
  50:/home/user/Desktop/STM32-Projekte/FH-Vertibot/src/STM32F30x_StdPeriph_Driver/src/stm32f30x_pwr.c **** /* --------- PWR registers bit address in the alias region ---------- */
  51:/home/user/Desktop/STM32-Projekte/FH-Vertibot/src/STM32F30x_StdPeriph_Driver/src/stm32f30x_pwr.c **** #define PWR_OFFSET               (PWR_BASE - PERIPH_BASE)
  52:/home/user/Desktop/STM32-Projekte/FH-Vertibot/src/STM32F30x_StdPeriph_Driver/src/stm32f30x_pwr.c **** 
  53:/home/user/Desktop/STM32-Projekte/FH-Vertibot/src/STM32F30x_StdPeriph_Driver/src/stm32f30x_pwr.c **** /* --- CR Register ---*/
  54:/home/user/Desktop/STM32-Projekte/FH-Vertibot/src/STM32F30x_StdPeriph_Driver/src/stm32f30x_pwr.c **** 
  55:/home/user/Desktop/STM32-Projekte/FH-Vertibot/src/STM32F30x_StdPeriph_Driver/src/stm32f30x_pwr.c **** /* Alias word address of DBP bit */
  56:/home/user/Desktop/STM32-Projekte/FH-Vertibot/src/STM32F30x_StdPeriph_Driver/src/stm32f30x_pwr.c **** #define CR_OFFSET                (PWR_OFFSET + 0x00)
  57:/home/user/Desktop/STM32-Projekte/FH-Vertibot/src/STM32F30x_StdPeriph_Driver/src/stm32f30x_pwr.c **** #define DBP_BitNumber            0x08
  58:/home/user/Desktop/STM32-Projekte/FH-Vertibot/src/STM32F30x_StdPeriph_Driver/src/stm32f30x_pwr.c **** #define CR_DBP_BB                (PERIPH_BB_BASE + (CR_OFFSET * 32) + (DBP_BitNumber * 4))
  59:/home/user/Desktop/STM32-Projekte/FH-Vertibot/src/STM32F30x_StdPeriph_Driver/src/stm32f30x_pwr.c **** 
  60:/home/user/Desktop/STM32-Projekte/FH-Vertibot/src/STM32F30x_StdPeriph_Driver/src/stm32f30x_pwr.c **** /* Alias word address of PVDE bit */
  61:/home/user/Desktop/STM32-Projekte/FH-Vertibot/src/STM32F30x_StdPeriph_Driver/src/stm32f30x_pwr.c **** #define PVDE_BitNumber           0x04
  62:/home/user/Desktop/STM32-Projekte/FH-Vertibot/src/STM32F30x_StdPeriph_Driver/src/stm32f30x_pwr.c **** #define CR_PVDE_BB               (PERIPH_BB_BASE + (CR_OFFSET * 32) + (PVDE_BitNumber * 4))
  63:/home/user/Desktop/STM32-Projekte/FH-Vertibot/src/STM32F30x_StdPeriph_Driver/src/stm32f30x_pwr.c **** 
  64:/home/user/Desktop/STM32-Projekte/FH-Vertibot/src/STM32F30x_StdPeriph_Driver/src/stm32f30x_pwr.c **** /* ------------------ PWR registers bit mask ------------------------ */
  65:/home/user/Desktop/STM32-Projekte/FH-Vertibot/src/STM32F30x_StdPeriph_Driver/src/stm32f30x_pwr.c **** 
  66:/home/user/Desktop/STM32-Projekte/FH-Vertibot/src/STM32F30x_StdPeriph_Driver/src/stm32f30x_pwr.c **** /* CR register bit mask */
  67:/home/user/Desktop/STM32-Projekte/FH-Vertibot/src/STM32F30x_StdPeriph_Driver/src/stm32f30x_pwr.c **** #define CR_DS_MASK               ((uint32_t)0xFFFFFFFC)
  68:/home/user/Desktop/STM32-Projekte/FH-Vertibot/src/STM32F30x_StdPeriph_Driver/src/stm32f30x_pwr.c **** #define CR_PLS_MASK              ((uint32_t)0xFFFFFF1F)
  69:/home/user/Desktop/STM32-Projekte/FH-Vertibot/src/STM32F30x_StdPeriph_Driver/src/stm32f30x_pwr.c **** 
  70:/home/user/Desktop/STM32-Projekte/FH-Vertibot/src/STM32F30x_StdPeriph_Driver/src/stm32f30x_pwr.c **** /* Private macro -------------------------------------------------------------*/
  71:/home/user/Desktop/STM32-Projekte/FH-Vertibot/src/STM32F30x_StdPeriph_Driver/src/stm32f30x_pwr.c **** /* Private variables ---------------------------------------------------------*/
  72:/home/user/Desktop/STM32-Projekte/FH-Vertibot/src/STM32F30x_StdPeriph_Driver/src/stm32f30x_pwr.c **** /* Private function prototypes -----------------------------------------------*/
  73:/home/user/Desktop/STM32-Projekte/FH-Vertibot/src/STM32F30x_StdPeriph_Driver/src/stm32f30x_pwr.c **** /* Private functions ---------------------------------------------------------*/
  74:/home/user/Desktop/STM32-Projekte/FH-Vertibot/src/STM32F30x_StdPeriph_Driver/src/stm32f30x_pwr.c **** 
  75:/home/user/Desktop/STM32-Projekte/FH-Vertibot/src/STM32F30x_StdPeriph_Driver/src/stm32f30x_pwr.c **** /** @defgroup PWR_Private_Functions
  76:/home/user/Desktop/STM32-Projekte/FH-Vertibot/src/STM32F30x_StdPeriph_Driver/src/stm32f30x_pwr.c ****   * @{
  77:/home/user/Desktop/STM32-Projekte/FH-Vertibot/src/STM32F30x_StdPeriph_Driver/src/stm32f30x_pwr.c ****   */
  78:/home/user/Desktop/STM32-Projekte/FH-Vertibot/src/STM32F30x_StdPeriph_Driver/src/stm32f30x_pwr.c **** 
  79:/home/user/Desktop/STM32-Projekte/FH-Vertibot/src/STM32F30x_StdPeriph_Driver/src/stm32f30x_pwr.c **** /** @defgroup PWR_Group1 Backup Domain Access function 
  80:/home/user/Desktop/STM32-Projekte/FH-Vertibot/src/STM32F30x_StdPeriph_Driver/src/stm32f30x_pwr.c ****  *  @brief   Backup Domain Access function
  81:/home/user/Desktop/STM32-Projekte/FH-Vertibot/src/STM32F30x_StdPeriph_Driver/src/stm32f30x_pwr.c ****  *
  82:/home/user/Desktop/STM32-Projekte/FH-Vertibot/src/STM32F30x_StdPeriph_Driver/src/stm32f30x_pwr.c **** @verbatim
  83:/home/user/Desktop/STM32-Projekte/FH-Vertibot/src/STM32F30x_StdPeriph_Driver/src/stm32f30x_pwr.c ****   ==============================================================================
  84:/home/user/Desktop/STM32-Projekte/FH-Vertibot/src/STM32F30x_StdPeriph_Driver/src/stm32f30x_pwr.c ****                    ##### Backup Domain Access function #####
  85:/home/user/Desktop/STM32-Projekte/FH-Vertibot/src/STM32F30x_StdPeriph_Driver/src/stm32f30x_pwr.c ****   ==============================================================================
  86:/home/user/Desktop/STM32-Projekte/FH-Vertibot/src/STM32F30x_StdPeriph_Driver/src/stm32f30x_pwr.c **** 
  87:/home/user/Desktop/STM32-Projekte/FH-Vertibot/src/STM32F30x_StdPeriph_Driver/src/stm32f30x_pwr.c ****     [..] After reset, the Backup Domain Registers (RCC BDCR Register, RTC registers
  88:/home/user/Desktop/STM32-Projekte/FH-Vertibot/src/STM32F30x_StdPeriph_Driver/src/stm32f30x_pwr.c ****          and RTC backup registers) are protected against possible stray write accesses.
  89:/home/user/Desktop/STM32-Projekte/FH-Vertibot/src/STM32F30x_StdPeriph_Driver/src/stm32f30x_pwr.c ****     [..] To enable access to Backup domain use the PWR_BackupAccessCmd(ENABLE) function.
  90:/home/user/Desktop/STM32-Projekte/FH-Vertibot/src/STM32F30x_StdPeriph_Driver/src/stm32f30x_pwr.c **** 
  91:/home/user/Desktop/STM32-Projekte/FH-Vertibot/src/STM32F30x_StdPeriph_Driver/src/stm32f30x_pwr.c **** @endverbatim
  92:/home/user/Desktop/STM32-Projekte/FH-Vertibot/src/STM32F30x_StdPeriph_Driver/src/stm32f30x_pwr.c ****   * @{
  93:/home/user/Desktop/STM32-Projekte/FH-Vertibot/src/STM32F30x_StdPeriph_Driver/src/stm32f30x_pwr.c ****   */
  94:/home/user/Desktop/STM32-Projekte/FH-Vertibot/src/STM32F30x_StdPeriph_Driver/src/stm32f30x_pwr.c **** 
  95:/home/user/Desktop/STM32-Projekte/FH-Vertibot/src/STM32F30x_StdPeriph_Driver/src/stm32f30x_pwr.c **** /**
  96:/home/user/Desktop/STM32-Projekte/FH-Vertibot/src/STM32F30x_StdPeriph_Driver/src/stm32f30x_pwr.c ****   * @brief  Deinitializes the PWR peripheral registers to their default reset values.
  97:/home/user/Desktop/STM32-Projekte/FH-Vertibot/src/STM32F30x_StdPeriph_Driver/src/stm32f30x_pwr.c ****   * @param  None
  98:/home/user/Desktop/STM32-Projekte/FH-Vertibot/src/STM32F30x_StdPeriph_Driver/src/stm32f30x_pwr.c ****   * @retval None
  99:/home/user/Desktop/STM32-Projekte/FH-Vertibot/src/STM32F30x_StdPeriph_Driver/src/stm32f30x_pwr.c ****   */
 100:/home/user/Desktop/STM32-Projekte/FH-Vertibot/src/STM32F30x_StdPeriph_Driver/src/stm32f30x_pwr.c **** void PWR_DeInit(void)
 101:/home/user/Desktop/STM32-Projekte/FH-Vertibot/src/STM32F30x_StdPeriph_Driver/src/stm32f30x_pwr.c **** {
  28              		.loc 1 101 0
  29              		.cfi_startproc
  30              		@ args = 0, pretend = 0, frame = 0
  31              		@ frame_needed = 0, uses_anonymous_args = 0
  32 0000 08B5     		push	{r3, lr}
  33              	.LCFI0:
  34              		.cfi_def_cfa_offset 8
  35              		.cfi_offset 3, -8
  36              		.cfi_offset 14, -4
 102:/home/user/Desktop/STM32-Projekte/FH-Vertibot/src/STM32F30x_StdPeriph_Driver/src/stm32f30x_pwr.c ****   RCC_APB1PeriphResetCmd(RCC_APB1Periph_PWR, ENABLE);
  37              		.loc 1 102 0
  38 0002 4FF08050 		mov	r0, #268435456
  39 0006 0121     		movs	r1, #1
  40 0008 FFF7FEFF 		bl	RCC_APB1PeriphResetCmd
  41              	.LVL0:
 103:/home/user/Desktop/STM32-Projekte/FH-Vertibot/src/STM32F30x_StdPeriph_Driver/src/stm32f30x_pwr.c ****   RCC_APB1PeriphResetCmd(RCC_APB1Periph_PWR, DISABLE);
  42              		.loc 1 103 0
  43 000c 4FF08050 		mov	r0, #268435456
  44 0010 0021     		movs	r1, #0
 104:/home/user/Desktop/STM32-Projekte/FH-Vertibot/src/STM32F30x_StdPeriph_Driver/src/stm32f30x_pwr.c **** }
  45              		.loc 1 104 0
  46 0012 BDE80840 		pop	{r3, lr}
 103:/home/user/Desktop/STM32-Projekte/FH-Vertibot/src/STM32F30x_StdPeriph_Driver/src/stm32f30x_pwr.c ****   RCC_APB1PeriphResetCmd(RCC_APB1Periph_PWR, DISABLE);
  47              		.loc 1 103 0
  48 0016 FFF7FEBF 		b	RCC_APB1PeriphResetCmd
  49              	.LVL1:
  50              		.cfi_endproc
  51              	.LFE111:
  53              		.align	1
  54              		.global	PWR_BackupAccessCmd
  55              		.thumb
  56              		.thumb_func
  58              	PWR_BackupAccessCmd:
  59              	.LFB112:
 105:/home/user/Desktop/STM32-Projekte/FH-Vertibot/src/STM32F30x_StdPeriph_Driver/src/stm32f30x_pwr.c **** 
 106:/home/user/Desktop/STM32-Projekte/FH-Vertibot/src/STM32F30x_StdPeriph_Driver/src/stm32f30x_pwr.c **** /**
 107:/home/user/Desktop/STM32-Projekte/FH-Vertibot/src/STM32F30x_StdPeriph_Driver/src/stm32f30x_pwr.c ****   * @brief  Enables or disables access to the RTC and backup registers.
 108:/home/user/Desktop/STM32-Projekte/FH-Vertibot/src/STM32F30x_StdPeriph_Driver/src/stm32f30x_pwr.c ****   * @note   If the HSE divided by 32 is used as the RTC clock, the 
 109:/home/user/Desktop/STM32-Projekte/FH-Vertibot/src/STM32F30x_StdPeriph_Driver/src/stm32f30x_pwr.c ****   *         Backup Domain Access should be kept enabled.
 110:/home/user/Desktop/STM32-Projekte/FH-Vertibot/src/STM32F30x_StdPeriph_Driver/src/stm32f30x_pwr.c ****   * @param  NewState: new state of the access to the RTC and backup registers.
 111:/home/user/Desktop/STM32-Projekte/FH-Vertibot/src/STM32F30x_StdPeriph_Driver/src/stm32f30x_pwr.c ****   *         This parameter can be: ENABLE or DISABLE.
 112:/home/user/Desktop/STM32-Projekte/FH-Vertibot/src/STM32F30x_StdPeriph_Driver/src/stm32f30x_pwr.c ****   * @retval None
 113:/home/user/Desktop/STM32-Projekte/FH-Vertibot/src/STM32F30x_StdPeriph_Driver/src/stm32f30x_pwr.c ****   */
 114:/home/user/Desktop/STM32-Projekte/FH-Vertibot/src/STM32F30x_StdPeriph_Driver/src/stm32f30x_pwr.c **** void PWR_BackupAccessCmd(FunctionalState NewState)
 115:/home/user/Desktop/STM32-Projekte/FH-Vertibot/src/STM32F30x_StdPeriph_Driver/src/stm32f30x_pwr.c **** {
  60              		.loc 1 115 0
  61              		.cfi_startproc
  62              		@ args = 0, pretend = 0, frame = 0
  63              		@ frame_needed = 0, uses_anonymous_args = 0
  64              		@ link register save eliminated.
  65              	.LVL2:
 116:/home/user/Desktop/STM32-Projekte/FH-Vertibot/src/STM32F30x_StdPeriph_Driver/src/stm32f30x_pwr.c ****   /* Check the parameters */
 117:/home/user/Desktop/STM32-Projekte/FH-Vertibot/src/STM32F30x_StdPeriph_Driver/src/stm32f30x_pwr.c ****   assert_param(IS_FUNCTIONAL_STATE(NewState));
 118:/home/user/Desktop/STM32-Projekte/FH-Vertibot/src/STM32F30x_StdPeriph_Driver/src/stm32f30x_pwr.c ****   *(__IO uint32_t *) CR_DBP_BB = (uint32_t)NewState;
  66              		.loc 1 118 0
  67 001a 014B     		ldr	r3, .L3
  68 001c 1860     		str	r0, [r3]
  69 001e 7047     		bx	lr
  70              	.L4:
  71              		.align	2
  72              	.L3:
  73 0020 20000E42 		.word	1108213792
  74              		.cfi_endproc
  75              	.LFE112:
  77              		.align	1
  78              		.global	PWR_PVDLevelConfig
  79              		.thumb
  80              		.thumb_func
  82              	PWR_PVDLevelConfig:
  83              	.LFB113:
 119:/home/user/Desktop/STM32-Projekte/FH-Vertibot/src/STM32F30x_StdPeriph_Driver/src/stm32f30x_pwr.c **** }
 120:/home/user/Desktop/STM32-Projekte/FH-Vertibot/src/STM32F30x_StdPeriph_Driver/src/stm32f30x_pwr.c **** 
 121:/home/user/Desktop/STM32-Projekte/FH-Vertibot/src/STM32F30x_StdPeriph_Driver/src/stm32f30x_pwr.c **** /**
 122:/home/user/Desktop/STM32-Projekte/FH-Vertibot/src/STM32F30x_StdPeriph_Driver/src/stm32f30x_pwr.c ****   * @}
 123:/home/user/Desktop/STM32-Projekte/FH-Vertibot/src/STM32F30x_StdPeriph_Driver/src/stm32f30x_pwr.c ****   */
 124:/home/user/Desktop/STM32-Projekte/FH-Vertibot/src/STM32F30x_StdPeriph_Driver/src/stm32f30x_pwr.c **** 
 125:/home/user/Desktop/STM32-Projekte/FH-Vertibot/src/STM32F30x_StdPeriph_Driver/src/stm32f30x_pwr.c **** /** @defgroup PWR_Group2 PVD configuration functions
 126:/home/user/Desktop/STM32-Projekte/FH-Vertibot/src/STM32F30x_StdPeriph_Driver/src/stm32f30x_pwr.c ****  *  @brief   PVD configuration functions 
 127:/home/user/Desktop/STM32-Projekte/FH-Vertibot/src/STM32F30x_StdPeriph_Driver/src/stm32f30x_pwr.c ****  *
 128:/home/user/Desktop/STM32-Projekte/FH-Vertibot/src/STM32F30x_StdPeriph_Driver/src/stm32f30x_pwr.c **** @verbatim   
 129:/home/user/Desktop/STM32-Projekte/FH-Vertibot/src/STM32F30x_StdPeriph_Driver/src/stm32f30x_pwr.c ****  ===============================================================================
 130:/home/user/Desktop/STM32-Projekte/FH-Vertibot/src/STM32F30x_StdPeriph_Driver/src/stm32f30x_pwr.c ****                     ##### PVD configuration functions #####
 131:/home/user/Desktop/STM32-Projekte/FH-Vertibot/src/STM32F30x_StdPeriph_Driver/src/stm32f30x_pwr.c ****   ==============================================================================
 132:/home/user/Desktop/STM32-Projekte/FH-Vertibot/src/STM32F30x_StdPeriph_Driver/src/stm32f30x_pwr.c ****   [..]
 133:/home/user/Desktop/STM32-Projekte/FH-Vertibot/src/STM32F30x_StdPeriph_Driver/src/stm32f30x_pwr.c ****   (+) The PVD is used to monitor the VDD power supply by comparing it to a threshold
 134:/home/user/Desktop/STM32-Projekte/FH-Vertibot/src/STM32F30x_StdPeriph_Driver/src/stm32f30x_pwr.c ****       selected by the PVD Level (PLS[2:0] bits in the PWR_CR).
 135:/home/user/Desktop/STM32-Projekte/FH-Vertibot/src/STM32F30x_StdPeriph_Driver/src/stm32f30x_pwr.c ****   (+) A PVDO flag is available to indicate if VDD/VDDA is higher or lower than the 
 136:/home/user/Desktop/STM32-Projekte/FH-Vertibot/src/STM32F30x_StdPeriph_Driver/src/stm32f30x_pwr.c ****       PVD threshold. This event is internally connected to the EXTI line16
 137:/home/user/Desktop/STM32-Projekte/FH-Vertibot/src/STM32F30x_StdPeriph_Driver/src/stm32f30x_pwr.c ****       and can generate an interrupt if enabled through the EXTI registers.
 138:/home/user/Desktop/STM32-Projekte/FH-Vertibot/src/STM32F30x_StdPeriph_Driver/src/stm32f30x_pwr.c ****   (+) The PVD is stopped in Standby mode.
 139:/home/user/Desktop/STM32-Projekte/FH-Vertibot/src/STM32F30x_StdPeriph_Driver/src/stm32f30x_pwr.c **** 
 140:/home/user/Desktop/STM32-Projekte/FH-Vertibot/src/STM32F30x_StdPeriph_Driver/src/stm32f30x_pwr.c **** @endverbatim
 141:/home/user/Desktop/STM32-Projekte/FH-Vertibot/src/STM32F30x_StdPeriph_Driver/src/stm32f30x_pwr.c ****   * @{
 142:/home/user/Desktop/STM32-Projekte/FH-Vertibot/src/STM32F30x_StdPeriph_Driver/src/stm32f30x_pwr.c ****   */
 143:/home/user/Desktop/STM32-Projekte/FH-Vertibot/src/STM32F30x_StdPeriph_Driver/src/stm32f30x_pwr.c **** 
 144:/home/user/Desktop/STM32-Projekte/FH-Vertibot/src/STM32F30x_StdPeriph_Driver/src/stm32f30x_pwr.c **** /**
 145:/home/user/Desktop/STM32-Projekte/FH-Vertibot/src/STM32F30x_StdPeriph_Driver/src/stm32f30x_pwr.c ****   * @brief  Configures the voltage threshold detected by the Power Voltage Detector(PVD).
 146:/home/user/Desktop/STM32-Projekte/FH-Vertibot/src/STM32F30x_StdPeriph_Driver/src/stm32f30x_pwr.c ****   * @param  PWR_PVDLevel: specifies the PVD detection level
 147:/home/user/Desktop/STM32-Projekte/FH-Vertibot/src/STM32F30x_StdPeriph_Driver/src/stm32f30x_pwr.c ****   *         This parameter can be one of the following values:
 148:/home/user/Desktop/STM32-Projekte/FH-Vertibot/src/STM32F30x_StdPeriph_Driver/src/stm32f30x_pwr.c ****   *             @arg PWR_PVDLevel_0: PVD detection level set to 2.18V
 149:/home/user/Desktop/STM32-Projekte/FH-Vertibot/src/STM32F30x_StdPeriph_Driver/src/stm32f30x_pwr.c ****   *             @arg PWR_PVDLevel_1: PVD detection level set to 2.28V
 150:/home/user/Desktop/STM32-Projekte/FH-Vertibot/src/STM32F30x_StdPeriph_Driver/src/stm32f30x_pwr.c ****   *             @arg PWR_PVDLevel_2: PVD detection level set to 2.38V
 151:/home/user/Desktop/STM32-Projekte/FH-Vertibot/src/STM32F30x_StdPeriph_Driver/src/stm32f30x_pwr.c ****   *             @arg PWR_PVDLevel_3: PVD detection level set to 2.48V
 152:/home/user/Desktop/STM32-Projekte/FH-Vertibot/src/STM32F30x_StdPeriph_Driver/src/stm32f30x_pwr.c ****   *             @arg PWR_PVDLevel_4: PVD detection level set to 2.58V
 153:/home/user/Desktop/STM32-Projekte/FH-Vertibot/src/STM32F30x_StdPeriph_Driver/src/stm32f30x_pwr.c ****   *             @arg PWR_PVDLevel_5: PVD detection level set to 2.68V
 154:/home/user/Desktop/STM32-Projekte/FH-Vertibot/src/STM32F30x_StdPeriph_Driver/src/stm32f30x_pwr.c ****   *             @arg PWR_PVDLevel_6: PVD detection level set to 2.78V
 155:/home/user/Desktop/STM32-Projekte/FH-Vertibot/src/STM32F30x_StdPeriph_Driver/src/stm32f30x_pwr.c ****   *             @arg PWR_PVDLevel_7: PVD detection level set to 2.88V
 156:/home/user/Desktop/STM32-Projekte/FH-Vertibot/src/STM32F30x_StdPeriph_Driver/src/stm32f30x_pwr.c ****   * @retval None
 157:/home/user/Desktop/STM32-Projekte/FH-Vertibot/src/STM32F30x_StdPeriph_Driver/src/stm32f30x_pwr.c ****   */
 158:/home/user/Desktop/STM32-Projekte/FH-Vertibot/src/STM32F30x_StdPeriph_Driver/src/stm32f30x_pwr.c **** void PWR_PVDLevelConfig(uint32_t PWR_PVDLevel)
 159:/home/user/Desktop/STM32-Projekte/FH-Vertibot/src/STM32F30x_StdPeriph_Driver/src/stm32f30x_pwr.c **** {
  84              		.loc 1 159 0
  85              		.cfi_startproc
  86              		@ args = 0, pretend = 0, frame = 0
  87              		@ frame_needed = 0, uses_anonymous_args = 0
  88              		@ link register save eliminated.
  89              	.LVL3:
 160:/home/user/Desktop/STM32-Projekte/FH-Vertibot/src/STM32F30x_StdPeriph_Driver/src/stm32f30x_pwr.c ****   uint32_t tmpreg = 0;
 161:/home/user/Desktop/STM32-Projekte/FH-Vertibot/src/STM32F30x_StdPeriph_Driver/src/stm32f30x_pwr.c ****   
 162:/home/user/Desktop/STM32-Projekte/FH-Vertibot/src/STM32F30x_StdPeriph_Driver/src/stm32f30x_pwr.c ****   /* Check the parameters */
 163:/home/user/Desktop/STM32-Projekte/FH-Vertibot/src/STM32F30x_StdPeriph_Driver/src/stm32f30x_pwr.c ****   assert_param(IS_PWR_PVD_LEVEL(PWR_PVDLevel));
 164:/home/user/Desktop/STM32-Projekte/FH-Vertibot/src/STM32F30x_StdPeriph_Driver/src/stm32f30x_pwr.c ****   
 165:/home/user/Desktop/STM32-Projekte/FH-Vertibot/src/STM32F30x_StdPeriph_Driver/src/stm32f30x_pwr.c ****   tmpreg = PWR->CR;
  90              		.loc 1 165 0
  91 0024 034B     		ldr	r3, .L6
  92 0026 1A68     		ldr	r2, [r3]
  93              	.LVL4:
 166:/home/user/Desktop/STM32-Projekte/FH-Vertibot/src/STM32F30x_StdPeriph_Driver/src/stm32f30x_pwr.c ****   
 167:/home/user/Desktop/STM32-Projekte/FH-Vertibot/src/STM32F30x_StdPeriph_Driver/src/stm32f30x_pwr.c ****   /* Clear PLS[7:5] bits */
 168:/home/user/Desktop/STM32-Projekte/FH-Vertibot/src/STM32F30x_StdPeriph_Driver/src/stm32f30x_pwr.c ****   tmpreg &= CR_PLS_MASK;
  94              		.loc 1 168 0
  95 0028 22F0E002 		bic	r2, r2, #224
  96              	.LVL5:
 169:/home/user/Desktop/STM32-Projekte/FH-Vertibot/src/STM32F30x_StdPeriph_Driver/src/stm32f30x_pwr.c ****   
 170:/home/user/Desktop/STM32-Projekte/FH-Vertibot/src/STM32F30x_StdPeriph_Driver/src/stm32f30x_pwr.c ****   /* Set PLS[7:5] bits according to PWR_PVDLevel value */
 171:/home/user/Desktop/STM32-Projekte/FH-Vertibot/src/STM32F30x_StdPeriph_Driver/src/stm32f30x_pwr.c ****   tmpreg |= PWR_PVDLevel;
  97              		.loc 1 171 0
  98 002c 1043     		orrs	r0, r0, r2
  99              	.LVL6:
 172:/home/user/Desktop/STM32-Projekte/FH-Vertibot/src/STM32F30x_StdPeriph_Driver/src/stm32f30x_pwr.c ****   
 173:/home/user/Desktop/STM32-Projekte/FH-Vertibot/src/STM32F30x_StdPeriph_Driver/src/stm32f30x_pwr.c ****   /* Store the new value */
 174:/home/user/Desktop/STM32-Projekte/FH-Vertibot/src/STM32F30x_StdPeriph_Driver/src/stm32f30x_pwr.c ****   PWR->CR = tmpreg;
 100              		.loc 1 174 0
 101 002e 1860     		str	r0, [r3]
 102 0030 7047     		bx	lr
 103              	.L7:
 104 0032 00BF     		.align	2
 105              	.L6:
 106 0034 00700040 		.word	1073770496
 107              		.cfi_endproc
 108              	.LFE113:
 110              		.align	1
 111              		.global	PWR_PVDCmd
 112              		.thumb
 113              		.thumb_func
 115              	PWR_PVDCmd:
 116              	.LFB114:
 175:/home/user/Desktop/STM32-Projekte/FH-Vertibot/src/STM32F30x_StdPeriph_Driver/src/stm32f30x_pwr.c **** }
 176:/home/user/Desktop/STM32-Projekte/FH-Vertibot/src/STM32F30x_StdPeriph_Driver/src/stm32f30x_pwr.c **** 
 177:/home/user/Desktop/STM32-Projekte/FH-Vertibot/src/STM32F30x_StdPeriph_Driver/src/stm32f30x_pwr.c **** /**
 178:/home/user/Desktop/STM32-Projekte/FH-Vertibot/src/STM32F30x_StdPeriph_Driver/src/stm32f30x_pwr.c ****   * @brief  Enables or disables the Power Voltage Detector(PVD).
 179:/home/user/Desktop/STM32-Projekte/FH-Vertibot/src/STM32F30x_StdPeriph_Driver/src/stm32f30x_pwr.c ****   * @param  NewState: new state of the PVD.
 180:/home/user/Desktop/STM32-Projekte/FH-Vertibot/src/STM32F30x_StdPeriph_Driver/src/stm32f30x_pwr.c ****   *         This parameter can be: ENABLE or DISABLE.
 181:/home/user/Desktop/STM32-Projekte/FH-Vertibot/src/STM32F30x_StdPeriph_Driver/src/stm32f30x_pwr.c ****   * @retval None
 182:/home/user/Desktop/STM32-Projekte/FH-Vertibot/src/STM32F30x_StdPeriph_Driver/src/stm32f30x_pwr.c ****   */
 183:/home/user/Desktop/STM32-Projekte/FH-Vertibot/src/STM32F30x_StdPeriph_Driver/src/stm32f30x_pwr.c **** void PWR_PVDCmd(FunctionalState NewState)
 184:/home/user/Desktop/STM32-Projekte/FH-Vertibot/src/STM32F30x_StdPeriph_Driver/src/stm32f30x_pwr.c **** {
 117              		.loc 1 184 0
 118              		.cfi_startproc
 119              		@ args = 0, pretend = 0, frame = 0
 120              		@ frame_needed = 0, uses_anonymous_args = 0
 121              		@ link register save eliminated.
 122              	.LVL7:
 185:/home/user/Desktop/STM32-Projekte/FH-Vertibot/src/STM32F30x_StdPeriph_Driver/src/stm32f30x_pwr.c ****   /* Check the parameters */
 186:/home/user/Desktop/STM32-Projekte/FH-Vertibot/src/STM32F30x_StdPeriph_Driver/src/stm32f30x_pwr.c ****   assert_param(IS_FUNCTIONAL_STATE(NewState));
 187:/home/user/Desktop/STM32-Projekte/FH-Vertibot/src/STM32F30x_StdPeriph_Driver/src/stm32f30x_pwr.c ****   *(__IO uint32_t *) CR_PVDE_BB = (uint32_t)NewState;
 123              		.loc 1 187 0
 124 0038 014B     		ldr	r3, .L9
 125 003a 1860     		str	r0, [r3]
 126 003c 7047     		bx	lr
 127              	.L10:
 128 003e 00BF     		.align	2
 129              	.L9:
 130 0040 10000E42 		.word	1108213776
 131              		.cfi_endproc
 132              	.LFE114:
 134              		.align	1
 135              		.global	PWR_WakeUpPinCmd
 136              		.thumb
 137              		.thumb_func
 139              	PWR_WakeUpPinCmd:
 140              	.LFB115:
 188:/home/user/Desktop/STM32-Projekte/FH-Vertibot/src/STM32F30x_StdPeriph_Driver/src/stm32f30x_pwr.c **** }
 189:/home/user/Desktop/STM32-Projekte/FH-Vertibot/src/STM32F30x_StdPeriph_Driver/src/stm32f30x_pwr.c **** 
 190:/home/user/Desktop/STM32-Projekte/FH-Vertibot/src/STM32F30x_StdPeriph_Driver/src/stm32f30x_pwr.c **** /**
 191:/home/user/Desktop/STM32-Projekte/FH-Vertibot/src/STM32F30x_StdPeriph_Driver/src/stm32f30x_pwr.c ****   * @}
 192:/home/user/Desktop/STM32-Projekte/FH-Vertibot/src/STM32F30x_StdPeriph_Driver/src/stm32f30x_pwr.c ****   */
 193:/home/user/Desktop/STM32-Projekte/FH-Vertibot/src/STM32F30x_StdPeriph_Driver/src/stm32f30x_pwr.c **** 
 194:/home/user/Desktop/STM32-Projekte/FH-Vertibot/src/STM32F30x_StdPeriph_Driver/src/stm32f30x_pwr.c **** /** @defgroup PWR_Group3 WakeUp pins configuration functions
 195:/home/user/Desktop/STM32-Projekte/FH-Vertibot/src/STM32F30x_StdPeriph_Driver/src/stm32f30x_pwr.c ****  *  @brief   WakeUp pins configuration functions 
 196:/home/user/Desktop/STM32-Projekte/FH-Vertibot/src/STM32F30x_StdPeriph_Driver/src/stm32f30x_pwr.c ****  *
 197:/home/user/Desktop/STM32-Projekte/FH-Vertibot/src/STM32F30x_StdPeriph_Driver/src/stm32f30x_pwr.c **** @verbatim   
 198:/home/user/Desktop/STM32-Projekte/FH-Vertibot/src/STM32F30x_StdPeriph_Driver/src/stm32f30x_pwr.c ****  ===============================================================================
 199:/home/user/Desktop/STM32-Projekte/FH-Vertibot/src/STM32F30x_StdPeriph_Driver/src/stm32f30x_pwr.c ****               ##### WakeUp pins configuration functions #####
 200:/home/user/Desktop/STM32-Projekte/FH-Vertibot/src/STM32F30x_StdPeriph_Driver/src/stm32f30x_pwr.c ****  ===============================================================================  
 201:/home/user/Desktop/STM32-Projekte/FH-Vertibot/src/STM32F30x_StdPeriph_Driver/src/stm32f30x_pwr.c ****     [..]
 202:/home/user/Desktop/STM32-Projekte/FH-Vertibot/src/STM32F30x_StdPeriph_Driver/src/stm32f30x_pwr.c ****     (+) WakeUp pins are used to wakeup the system from Standby mode. These pins are 
 203:/home/user/Desktop/STM32-Projekte/FH-Vertibot/src/STM32F30x_StdPeriph_Driver/src/stm32f30x_pwr.c ****         forced in input pull down configuration and are active on rising edges.
 204:/home/user/Desktop/STM32-Projekte/FH-Vertibot/src/STM32F30x_StdPeriph_Driver/src/stm32f30x_pwr.c ****     (+) There are three WakeUp pins: WakeUp Pin 1 on PA.00, WakeUp Pin 2 on PC.13 and
 205:/home/user/Desktop/STM32-Projekte/FH-Vertibot/src/STM32F30x_StdPeriph_Driver/src/stm32f30x_pwr.c ****         WakeUp Pin 3 on PE.06.
 206:/home/user/Desktop/STM32-Projekte/FH-Vertibot/src/STM32F30x_StdPeriph_Driver/src/stm32f30x_pwr.c **** 
 207:/home/user/Desktop/STM32-Projekte/FH-Vertibot/src/STM32F30x_StdPeriph_Driver/src/stm32f30x_pwr.c **** @endverbatim
 208:/home/user/Desktop/STM32-Projekte/FH-Vertibot/src/STM32F30x_StdPeriph_Driver/src/stm32f30x_pwr.c ****   * @{
 209:/home/user/Desktop/STM32-Projekte/FH-Vertibot/src/STM32F30x_StdPeriph_Driver/src/stm32f30x_pwr.c ****   */
 210:/home/user/Desktop/STM32-Projekte/FH-Vertibot/src/STM32F30x_StdPeriph_Driver/src/stm32f30x_pwr.c **** 
 211:/home/user/Desktop/STM32-Projekte/FH-Vertibot/src/STM32F30x_StdPeriph_Driver/src/stm32f30x_pwr.c **** /**
 212:/home/user/Desktop/STM32-Projekte/FH-Vertibot/src/STM32F30x_StdPeriph_Driver/src/stm32f30x_pwr.c ****   * @brief  Enables or disables the WakeUp Pin functionality.
 213:/home/user/Desktop/STM32-Projekte/FH-Vertibot/src/STM32F30x_StdPeriph_Driver/src/stm32f30x_pwr.c ****   * @param  PWR_WakeUpPin: specifies the WakeUpPin.
 214:/home/user/Desktop/STM32-Projekte/FH-Vertibot/src/STM32F30x_StdPeriph_Driver/src/stm32f30x_pwr.c ****   *         This parameter can be: PWR_WakeUpPin_1, PWR_WakeUpPin_2 or PWR_WakeUpPin_3.
 215:/home/user/Desktop/STM32-Projekte/FH-Vertibot/src/STM32F30x_StdPeriph_Driver/src/stm32f30x_pwr.c ****   * @param  NewState: new state of the WakeUp Pin functionality.
 216:/home/user/Desktop/STM32-Projekte/FH-Vertibot/src/STM32F30x_StdPeriph_Driver/src/stm32f30x_pwr.c ****   *         This parameter can be: ENABLE or DISABLE.
 217:/home/user/Desktop/STM32-Projekte/FH-Vertibot/src/STM32F30x_StdPeriph_Driver/src/stm32f30x_pwr.c ****   * @retval None
 218:/home/user/Desktop/STM32-Projekte/FH-Vertibot/src/STM32F30x_StdPeriph_Driver/src/stm32f30x_pwr.c ****   */
 219:/home/user/Desktop/STM32-Projekte/FH-Vertibot/src/STM32F30x_StdPeriph_Driver/src/stm32f30x_pwr.c **** void PWR_WakeUpPinCmd(uint32_t PWR_WakeUpPin, FunctionalState NewState)
 220:/home/user/Desktop/STM32-Projekte/FH-Vertibot/src/STM32F30x_StdPeriph_Driver/src/stm32f30x_pwr.c **** {  
 141              		.loc 1 220 0
 142              		.cfi_startproc
 143              		@ args = 0, pretend = 0, frame = 0
 144              		@ frame_needed = 0, uses_anonymous_args = 0
 145              		@ link register save eliminated.
 146              	.LVL8:
 147 0044 044B     		ldr	r3, .L16
 221:/home/user/Desktop/STM32-Projekte/FH-Vertibot/src/STM32F30x_StdPeriph_Driver/src/stm32f30x_pwr.c ****   /* Check the parameters */
 222:/home/user/Desktop/STM32-Projekte/FH-Vertibot/src/STM32F30x_StdPeriph_Driver/src/stm32f30x_pwr.c ****   assert_param(IS_PWR_WAKEUP_PIN(PWR_WakeUpPin));  
 223:/home/user/Desktop/STM32-Projekte/FH-Vertibot/src/STM32F30x_StdPeriph_Driver/src/stm32f30x_pwr.c ****   assert_param(IS_FUNCTIONAL_STATE(NewState));
 224:/home/user/Desktop/STM32-Projekte/FH-Vertibot/src/STM32F30x_StdPeriph_Driver/src/stm32f30x_pwr.c **** 
 225:/home/user/Desktop/STM32-Projekte/FH-Vertibot/src/STM32F30x_StdPeriph_Driver/src/stm32f30x_pwr.c ****   if (NewState != DISABLE)
 226:/home/user/Desktop/STM32-Projekte/FH-Vertibot/src/STM32F30x_StdPeriph_Driver/src/stm32f30x_pwr.c ****   {
 227:/home/user/Desktop/STM32-Projekte/FH-Vertibot/src/STM32F30x_StdPeriph_Driver/src/stm32f30x_pwr.c ****     /* Enable the EWUPx pin */
 228:/home/user/Desktop/STM32-Projekte/FH-Vertibot/src/STM32F30x_StdPeriph_Driver/src/stm32f30x_pwr.c ****     PWR->CSR |= PWR_WakeUpPin;
 148              		.loc 1 228 0
 149 0046 5A68     		ldr	r2, [r3, #4]
 225:/home/user/Desktop/STM32-Projekte/FH-Vertibot/src/STM32F30x_StdPeriph_Driver/src/stm32f30x_pwr.c ****   if (NewState != DISABLE)
 150              		.loc 1 225 0
 151 0048 09B1     		cbz	r1, .L12
 152              		.loc 1 228 0
 153 004a 1043     		orrs	r0, r0, r2
 154              	.LVL9:
 155 004c 01E0     		b	.L14
 156              	.LVL10:
 157              	.L12:
 229:/home/user/Desktop/STM32-Projekte/FH-Vertibot/src/STM32F30x_StdPeriph_Driver/src/stm32f30x_pwr.c ****   }
 230:/home/user/Desktop/STM32-Projekte/FH-Vertibot/src/STM32F30x_StdPeriph_Driver/src/stm32f30x_pwr.c ****   else
 231:/home/user/Desktop/STM32-Projekte/FH-Vertibot/src/STM32F30x_StdPeriph_Driver/src/stm32f30x_pwr.c ****   {
 232:/home/user/Desktop/STM32-Projekte/FH-Vertibot/src/STM32F30x_StdPeriph_Driver/src/stm32f30x_pwr.c ****     /* Disable the EWUPx pin */
 233:/home/user/Desktop/STM32-Projekte/FH-Vertibot/src/STM32F30x_StdPeriph_Driver/src/stm32f30x_pwr.c ****     PWR->CSR &= ~PWR_WakeUpPin;
 158              		.loc 1 233 0
 159 004e 22EA0000 		bic	r0, r2, r0
 160              	.LVL11:
 161              	.L14:
 162 0052 5860     		str	r0, [r3, #4]
 163 0054 7047     		bx	lr
 164              	.L17:
 165 0056 00BF     		.align	2
 166              	.L16:
 167 0058 00700040 		.word	1073770496
 168              		.cfi_endproc
 169              	.LFE115:
 171              		.align	1
 172              		.global	PWR_EnterSleepMode
 173              		.thumb
 174              		.thumb_func
 176              	PWR_EnterSleepMode:
 177              	.LFB116:
 234:/home/user/Desktop/STM32-Projekte/FH-Vertibot/src/STM32F30x_StdPeriph_Driver/src/stm32f30x_pwr.c ****   }
 235:/home/user/Desktop/STM32-Projekte/FH-Vertibot/src/STM32F30x_StdPeriph_Driver/src/stm32f30x_pwr.c **** }
 236:/home/user/Desktop/STM32-Projekte/FH-Vertibot/src/STM32F30x_StdPeriph_Driver/src/stm32f30x_pwr.c **** 
 237:/home/user/Desktop/STM32-Projekte/FH-Vertibot/src/STM32F30x_StdPeriph_Driver/src/stm32f30x_pwr.c **** /**
 238:/home/user/Desktop/STM32-Projekte/FH-Vertibot/src/STM32F30x_StdPeriph_Driver/src/stm32f30x_pwr.c ****   * @}
 239:/home/user/Desktop/STM32-Projekte/FH-Vertibot/src/STM32F30x_StdPeriph_Driver/src/stm32f30x_pwr.c ****   */
 240:/home/user/Desktop/STM32-Projekte/FH-Vertibot/src/STM32F30x_StdPeriph_Driver/src/stm32f30x_pwr.c **** 
 241:/home/user/Desktop/STM32-Projekte/FH-Vertibot/src/STM32F30x_StdPeriph_Driver/src/stm32f30x_pwr.c **** 
 242:/home/user/Desktop/STM32-Projekte/FH-Vertibot/src/STM32F30x_StdPeriph_Driver/src/stm32f30x_pwr.c **** /** @defgroup PWR_Group4 Low Power modes configuration functions
 243:/home/user/Desktop/STM32-Projekte/FH-Vertibot/src/STM32F30x_StdPeriph_Driver/src/stm32f30x_pwr.c ****  *  @brief   Low Power modes configuration functions 
 244:/home/user/Desktop/STM32-Projekte/FH-Vertibot/src/STM32F30x_StdPeriph_Driver/src/stm32f30x_pwr.c ****  *
 245:/home/user/Desktop/STM32-Projekte/FH-Vertibot/src/STM32F30x_StdPeriph_Driver/src/stm32f30x_pwr.c **** @verbatim   
 246:/home/user/Desktop/STM32-Projekte/FH-Vertibot/src/STM32F30x_StdPeriph_Driver/src/stm32f30x_pwr.c ****  ===============================================================================
 247:/home/user/Desktop/STM32-Projekte/FH-Vertibot/src/STM32F30x_StdPeriph_Driver/src/stm32f30x_pwr.c ****               ##### Low Power modes configuration functions #####
 248:/home/user/Desktop/STM32-Projekte/FH-Vertibot/src/STM32F30x_StdPeriph_Driver/src/stm32f30x_pwr.c ****   ==============================================================================
 249:/home/user/Desktop/STM32-Projekte/FH-Vertibot/src/STM32F30x_StdPeriph_Driver/src/stm32f30x_pwr.c **** 
 250:/home/user/Desktop/STM32-Projekte/FH-Vertibot/src/STM32F30x_StdPeriph_Driver/src/stm32f30x_pwr.c ****     [..] The devices feature three low-power modes:
 251:/home/user/Desktop/STM32-Projekte/FH-Vertibot/src/STM32F30x_StdPeriph_Driver/src/stm32f30x_pwr.c ****     (+) Sleep mode: Cortex-M4 core stopped, peripherals kept running.
 252:/home/user/Desktop/STM32-Projekte/FH-Vertibot/src/STM32F30x_StdPeriph_Driver/src/stm32f30x_pwr.c ****     (+) Stop mode: all clocks are stopped, regulator running, regulator in low power mode
 253:/home/user/Desktop/STM32-Projekte/FH-Vertibot/src/STM32F30x_StdPeriph_Driver/src/stm32f30x_pwr.c ****     (+) Standby mode: VCORE domain powered off
 254:/home/user/Desktop/STM32-Projekte/FH-Vertibot/src/STM32F30x_StdPeriph_Driver/src/stm32f30x_pwr.c **** 
 255:/home/user/Desktop/STM32-Projekte/FH-Vertibot/src/STM32F30x_StdPeriph_Driver/src/stm32f30x_pwr.c ****   *** Sleep mode *** 
 256:/home/user/Desktop/STM32-Projekte/FH-Vertibot/src/STM32F30x_StdPeriph_Driver/src/stm32f30x_pwr.c ****   ==================
 257:/home/user/Desktop/STM32-Projekte/FH-Vertibot/src/STM32F30x_StdPeriph_Driver/src/stm32f30x_pwr.c ****   [..] 
 258:/home/user/Desktop/STM32-Projekte/FH-Vertibot/src/STM32F30x_StdPeriph_Driver/src/stm32f30x_pwr.c ****     (+) Entry:
 259:/home/user/Desktop/STM32-Projekte/FH-Vertibot/src/STM32F30x_StdPeriph_Driver/src/stm32f30x_pwr.c ****         (++) The Sleep mode is entered by executing the WFE() or WFI() instructions.
 260:/home/user/Desktop/STM32-Projekte/FH-Vertibot/src/STM32F30x_StdPeriph_Driver/src/stm32f30x_pwr.c ****     (+) Exit:
 261:/home/user/Desktop/STM32-Projekte/FH-Vertibot/src/STM32F30x_StdPeriph_Driver/src/stm32f30x_pwr.c ****         (++) Any peripheral interrupt acknowledged by the nested vectored interrupt 
 262:/home/user/Desktop/STM32-Projekte/FH-Vertibot/src/STM32F30x_StdPeriph_Driver/src/stm32f30x_pwr.c ****              controller (NVIC) can wake up the device from Sleep mode.
 263:/home/user/Desktop/STM32-Projekte/FH-Vertibot/src/STM32F30x_StdPeriph_Driver/src/stm32f30x_pwr.c **** 
 264:/home/user/Desktop/STM32-Projekte/FH-Vertibot/src/STM32F30x_StdPeriph_Driver/src/stm32f30x_pwr.c ****   *** Stop mode *** 
 265:/home/user/Desktop/STM32-Projekte/FH-Vertibot/src/STM32F30x_StdPeriph_Driver/src/stm32f30x_pwr.c ****   =================
 266:/home/user/Desktop/STM32-Projekte/FH-Vertibot/src/STM32F30x_StdPeriph_Driver/src/stm32f30x_pwr.c ****   [..] In Stop mode, all clocks in the VCORE domain are stopped, the PLL, the HSI,
 267:/home/user/Desktop/STM32-Projekte/FH-Vertibot/src/STM32F30x_StdPeriph_Driver/src/stm32f30x_pwr.c ****        and the HSE RC oscillators are disabled. Internal SRAM and register 
 268:/home/user/Desktop/STM32-Projekte/FH-Vertibot/src/STM32F30x_StdPeriph_Driver/src/stm32f30x_pwr.c ****        contents are preserved.
 269:/home/user/Desktop/STM32-Projekte/FH-Vertibot/src/STM32F30x_StdPeriph_Driver/src/stm32f30x_pwr.c ****        The voltage regulator can be configured either in normal or low-power mode.
 270:/home/user/Desktop/STM32-Projekte/FH-Vertibot/src/STM32F30x_StdPeriph_Driver/src/stm32f30x_pwr.c **** 
 271:/home/user/Desktop/STM32-Projekte/FH-Vertibot/src/STM32F30x_StdPeriph_Driver/src/stm32f30x_pwr.c ****     (+) Entry:
 272:/home/user/Desktop/STM32-Projekte/FH-Vertibot/src/STM32F30x_StdPeriph_Driver/src/stm32f30x_pwr.c ****         (++) The Stop mode is entered using the PWR_EnterSTOPMode(PWR_Regulator_LowPower,) 
 273:/home/user/Desktop/STM32-Projekte/FH-Vertibot/src/STM32F30x_StdPeriph_Driver/src/stm32f30x_pwr.c ****              function with regulator in LowPower or with Regulator ON.
 274:/home/user/Desktop/STM32-Projekte/FH-Vertibot/src/STM32F30x_StdPeriph_Driver/src/stm32f30x_pwr.c ****     (+) Exit:
 275:/home/user/Desktop/STM32-Projekte/FH-Vertibot/src/STM32F30x_StdPeriph_Driver/src/stm32f30x_pwr.c ****         (++) Any EXTI Line (Internal or External) configured in Interrupt/Event mode
 276:/home/user/Desktop/STM32-Projekte/FH-Vertibot/src/STM32F30x_StdPeriph_Driver/src/stm32f30x_pwr.c ****              or any internal IPs (I2C or UASRT) wakeup event.
 277:/home/user/Desktop/STM32-Projekte/FH-Vertibot/src/STM32F30x_StdPeriph_Driver/src/stm32f30x_pwr.c **** 
 278:/home/user/Desktop/STM32-Projekte/FH-Vertibot/src/STM32F30x_StdPeriph_Driver/src/stm32f30x_pwr.c ****   *** Standby mode *** 
 279:/home/user/Desktop/STM32-Projekte/FH-Vertibot/src/STM32F30x_StdPeriph_Driver/src/stm32f30x_pwr.c ****   ====================
 280:/home/user/Desktop/STM32-Projekte/FH-Vertibot/src/STM32F30x_StdPeriph_Driver/src/stm32f30x_pwr.c ****   [..] The Standby mode allows to achieve the lowest power consumption. It is based 
 281:/home/user/Desktop/STM32-Projekte/FH-Vertibot/src/STM32F30x_StdPeriph_Driver/src/stm32f30x_pwr.c ****        on the Cortex-M4 deepsleep mode, with the voltage regulator disabled. 
 282:/home/user/Desktop/STM32-Projekte/FH-Vertibot/src/STM32F30x_StdPeriph_Driver/src/stm32f30x_pwr.c ****        The VCORE domain is consequently powered off. The PLL, the HSI, and the HSE 
 283:/home/user/Desktop/STM32-Projekte/FH-Vertibot/src/STM32F30x_StdPeriph_Driver/src/stm32f30x_pwr.c ****        oscillator are also switched off. SRAM and register 
 284:/home/user/Desktop/STM32-Projekte/FH-Vertibot/src/STM32F30x_StdPeriph_Driver/src/stm32f30x_pwr.c ****        contents are lost except for the Backup domain (RTC registers, RTC backup 
 285:/home/user/Desktop/STM32-Projekte/FH-Vertibot/src/STM32F30x_StdPeriph_Driver/src/stm32f30x_pwr.c ****        registers and Standby circuitry).
 286:/home/user/Desktop/STM32-Projekte/FH-Vertibot/src/STM32F30x_StdPeriph_Driver/src/stm32f30x_pwr.c ****    
 287:/home/user/Desktop/STM32-Projekte/FH-Vertibot/src/STM32F30x_StdPeriph_Driver/src/stm32f30x_pwr.c ****   [..] The voltage regulator is OFF.
 288:/home/user/Desktop/STM32-Projekte/FH-Vertibot/src/STM32F30x_StdPeriph_Driver/src/stm32f30x_pwr.c **** 
 289:/home/user/Desktop/STM32-Projekte/FH-Vertibot/src/STM32F30x_StdPeriph_Driver/src/stm32f30x_pwr.c ****     (+) Entry:
 290:/home/user/Desktop/STM32-Projekte/FH-Vertibot/src/STM32F30x_StdPeriph_Driver/src/stm32f30x_pwr.c ****         (++) The Standby mode is entered using the PWR_EnterSTANDBYMode() function.
 291:/home/user/Desktop/STM32-Projekte/FH-Vertibot/src/STM32F30x_StdPeriph_Driver/src/stm32f30x_pwr.c ****     (+) Exit:
 292:/home/user/Desktop/STM32-Projekte/FH-Vertibot/src/STM32F30x_StdPeriph_Driver/src/stm32f30x_pwr.c ****         (++) WKUP pin rising edge, RTC alarm (Alarm A and Alarm B), RTC wakeup,
 293:/home/user/Desktop/STM32-Projekte/FH-Vertibot/src/STM32F30x_StdPeriph_Driver/src/stm32f30x_pwr.c ****              tamper event, time-stamp event, external reset in NRST pin, IWDG reset.
 294:/home/user/Desktop/STM32-Projekte/FH-Vertibot/src/STM32F30x_StdPeriph_Driver/src/stm32f30x_pwr.c **** 
 295:/home/user/Desktop/STM32-Projekte/FH-Vertibot/src/STM32F30x_StdPeriph_Driver/src/stm32f30x_pwr.c ****   *** Auto-wakeup (AWU) from low-power mode *** 
 296:/home/user/Desktop/STM32-Projekte/FH-Vertibot/src/STM32F30x_StdPeriph_Driver/src/stm32f30x_pwr.c ****   =============================================
 297:/home/user/Desktop/STM32-Projekte/FH-Vertibot/src/STM32F30x_StdPeriph_Driver/src/stm32f30x_pwr.c ****   [..] The MCU can be woken up from low-power mode by an RTC Alarm event, a tamper 
 298:/home/user/Desktop/STM32-Projekte/FH-Vertibot/src/STM32F30x_StdPeriph_Driver/src/stm32f30x_pwr.c ****        event, a time-stamp event, or a comparator event, without depending on an 
 299:/home/user/Desktop/STM32-Projekte/FH-Vertibot/src/STM32F30x_StdPeriph_Driver/src/stm32f30x_pwr.c ****        external interrupt (Auto-wakeup mode).
 300:/home/user/Desktop/STM32-Projekte/FH-Vertibot/src/STM32F30x_StdPeriph_Driver/src/stm32f30x_pwr.c **** 
 301:/home/user/Desktop/STM32-Projekte/FH-Vertibot/src/STM32F30x_StdPeriph_Driver/src/stm32f30x_pwr.c ****     (+) RTC auto-wakeup (AWU) from the Stop mode
 302:/home/user/Desktop/STM32-Projekte/FH-Vertibot/src/STM32F30x_StdPeriph_Driver/src/stm32f30x_pwr.c ****         (++) To wake up from the Stop mode with an RTC alarm event, it is necessary to:
 303:/home/user/Desktop/STM32-Projekte/FH-Vertibot/src/STM32F30x_StdPeriph_Driver/src/stm32f30x_pwr.c ****              (+++) Configure the EXTI Line 17 to be sensitive to rising edges (Interrupt 
 304:/home/user/Desktop/STM32-Projekte/FH-Vertibot/src/STM32F30x_StdPeriph_Driver/src/stm32f30x_pwr.c ****                    or Event modes) using the EXTI_Init() function.
 305:/home/user/Desktop/STM32-Projekte/FH-Vertibot/src/STM32F30x_StdPeriph_Driver/src/stm32f30x_pwr.c ****              (+++) Enable the RTC Alarm Interrupt using the RTC_ITConfig() function
 306:/home/user/Desktop/STM32-Projekte/FH-Vertibot/src/STM32F30x_StdPeriph_Driver/src/stm32f30x_pwr.c ****              (+++) Configure the RTC to generate the RTC alarm using the RTC_SetAlarm() 
 307:/home/user/Desktop/STM32-Projekte/FH-Vertibot/src/STM32F30x_StdPeriph_Driver/src/stm32f30x_pwr.c ****                    and RTC_AlarmCmd() functions.
 308:/home/user/Desktop/STM32-Projekte/FH-Vertibot/src/STM32F30x_StdPeriph_Driver/src/stm32f30x_pwr.c ****         (++) To wake up from the Stop mode with an RTC Tamper or time stamp event, it 
 309:/home/user/Desktop/STM32-Projekte/FH-Vertibot/src/STM32F30x_StdPeriph_Driver/src/stm32f30x_pwr.c ****              is necessary to:
 310:/home/user/Desktop/STM32-Projekte/FH-Vertibot/src/STM32F30x_StdPeriph_Driver/src/stm32f30x_pwr.c ****              (+++) Configure the EXTI Line 19 to be sensitive to rising edges (Interrupt 
 311:/home/user/Desktop/STM32-Projekte/FH-Vertibot/src/STM32F30x_StdPeriph_Driver/src/stm32f30x_pwr.c ****                    or Event modes) using the EXTI_Init() function.
 312:/home/user/Desktop/STM32-Projekte/FH-Vertibot/src/STM32F30x_StdPeriph_Driver/src/stm32f30x_pwr.c ****              (+++) Enable the RTC Tamper or time stamp Interrupt using the RTC_ITConfig() 
 313:/home/user/Desktop/STM32-Projekte/FH-Vertibot/src/STM32F30x_StdPeriph_Driver/src/stm32f30x_pwr.c ****                    function.
 314:/home/user/Desktop/STM32-Projekte/FH-Vertibot/src/STM32F30x_StdPeriph_Driver/src/stm32f30x_pwr.c ****              (+++) Configure the RTC to detect the tamper or time stamp event using the
 315:/home/user/Desktop/STM32-Projekte/FH-Vertibot/src/STM32F30x_StdPeriph_Driver/src/stm32f30x_pwr.c ****                    RTC_TimeStampConfig(), RTC_TamperTriggerConfig() and RTC_TamperCmd()
 316:/home/user/Desktop/STM32-Projekte/FH-Vertibot/src/STM32F30x_StdPeriph_Driver/src/stm32f30x_pwr.c ****                    functions.
 317:/home/user/Desktop/STM32-Projekte/FH-Vertibot/src/STM32F30x_StdPeriph_Driver/src/stm32f30x_pwr.c **** 
 318:/home/user/Desktop/STM32-Projekte/FH-Vertibot/src/STM32F30x_StdPeriph_Driver/src/stm32f30x_pwr.c ****     (+) RTC auto-wakeup (AWU) from the Standby mode
 319:/home/user/Desktop/STM32-Projekte/FH-Vertibot/src/STM32F30x_StdPeriph_Driver/src/stm32f30x_pwr.c ****         (++) To wake up from the Standby mode with an RTC alarm event, it is necessary to:
 320:/home/user/Desktop/STM32-Projekte/FH-Vertibot/src/STM32F30x_StdPeriph_Driver/src/stm32f30x_pwr.c ****              (+++) Enable the RTC Alarm Interrupt using the RTC_ITConfig() function.
 321:/home/user/Desktop/STM32-Projekte/FH-Vertibot/src/STM32F30x_StdPeriph_Driver/src/stm32f30x_pwr.c ****              (+++) Configure the RTC to generate the RTC alarm using the RTC_SetAlarm() 
 322:/home/user/Desktop/STM32-Projekte/FH-Vertibot/src/STM32F30x_StdPeriph_Driver/src/stm32f30x_pwr.c ****                    and RTC_AlarmCmd() functions.
 323:/home/user/Desktop/STM32-Projekte/FH-Vertibot/src/STM32F30x_StdPeriph_Driver/src/stm32f30x_pwr.c ****         (++) To wake up from the Standby mode with an RTC Tamper or time stamp event, it 
 324:/home/user/Desktop/STM32-Projekte/FH-Vertibot/src/STM32F30x_StdPeriph_Driver/src/stm32f30x_pwr.c ****              is necessary to:
 325:/home/user/Desktop/STM32-Projekte/FH-Vertibot/src/STM32F30x_StdPeriph_Driver/src/stm32f30x_pwr.c ****              (+++) Enable the RTC Tamper or time stamp Interrupt using the RTC_ITConfig() 
 326:/home/user/Desktop/STM32-Projekte/FH-Vertibot/src/STM32F30x_StdPeriph_Driver/src/stm32f30x_pwr.c ****                    function.
 327:/home/user/Desktop/STM32-Projekte/FH-Vertibot/src/STM32F30x_StdPeriph_Driver/src/stm32f30x_pwr.c ****              (+++) Configure the RTC to detect the tamper or time stamp event using the
 328:/home/user/Desktop/STM32-Projekte/FH-Vertibot/src/STM32F30x_StdPeriph_Driver/src/stm32f30x_pwr.c ****                    RTC_TimeStampConfig(), RTC_TamperTriggerConfig() and RTC_TamperCmd()
 329:/home/user/Desktop/STM32-Projekte/FH-Vertibot/src/STM32F30x_StdPeriph_Driver/src/stm32f30x_pwr.c ****                    functions.
 330:/home/user/Desktop/STM32-Projekte/FH-Vertibot/src/STM32F30x_StdPeriph_Driver/src/stm32f30x_pwr.c **** 
 331:/home/user/Desktop/STM32-Projekte/FH-Vertibot/src/STM32F30x_StdPeriph_Driver/src/stm32f30x_pwr.c ****     (+) Comparator auto-wakeup (AWU) from the Stop mode
 332:/home/user/Desktop/STM32-Projekte/FH-Vertibot/src/STM32F30x_StdPeriph_Driver/src/stm32f30x_pwr.c ****         (++) To wake up from the Stop mode with a comparator wakeup event, it is necessary to:
 333:/home/user/Desktop/STM32-Projekte/FH-Vertibot/src/STM32F30x_StdPeriph_Driver/src/stm32f30x_pwr.c ****              (+++) Configure the correspondant comparator EXTI Line to be sensitive to 
 334:/home/user/Desktop/STM32-Projekte/FH-Vertibot/src/STM32F30x_StdPeriph_Driver/src/stm32f30x_pwr.c ****                    the selected edges (falling, rising or falling and rising) 
 335:/home/user/Desktop/STM32-Projekte/FH-Vertibot/src/STM32F30x_StdPeriph_Driver/src/stm32f30x_pwr.c ****                    (Interrupt or Event modes) using the EXTI_Init() function.
 336:/home/user/Desktop/STM32-Projekte/FH-Vertibot/src/STM32F30x_StdPeriph_Driver/src/stm32f30x_pwr.c ****              (+++) Configure the comparator to generate the event.
 337:/home/user/Desktop/STM32-Projekte/FH-Vertibot/src/STM32F30x_StdPeriph_Driver/src/stm32f30x_pwr.c **** 
 338:/home/user/Desktop/STM32-Projekte/FH-Vertibot/src/STM32F30x_StdPeriph_Driver/src/stm32f30x_pwr.c **** @endverbatim
 339:/home/user/Desktop/STM32-Projekte/FH-Vertibot/src/STM32F30x_StdPeriph_Driver/src/stm32f30x_pwr.c ****   * @{
 340:/home/user/Desktop/STM32-Projekte/FH-Vertibot/src/STM32F30x_StdPeriph_Driver/src/stm32f30x_pwr.c ****   */
 341:/home/user/Desktop/STM32-Projekte/FH-Vertibot/src/STM32F30x_StdPeriph_Driver/src/stm32f30x_pwr.c **** 
 342:/home/user/Desktop/STM32-Projekte/FH-Vertibot/src/STM32F30x_StdPeriph_Driver/src/stm32f30x_pwr.c **** /**
 343:/home/user/Desktop/STM32-Projekte/FH-Vertibot/src/STM32F30x_StdPeriph_Driver/src/stm32f30x_pwr.c ****   * @brief  Enters Sleep mode.
 344:/home/user/Desktop/STM32-Projekte/FH-Vertibot/src/STM32F30x_StdPeriph_Driver/src/stm32f30x_pwr.c ****   * @note   In Sleep mode, all I/O pins keep the same state as in Run mode.                 
 345:/home/user/Desktop/STM32-Projekte/FH-Vertibot/src/STM32F30x_StdPeriph_Driver/src/stm32f30x_pwr.c ****   * @param  PWR_SLEEPEntry: specifies if SLEEP mode in entered with WFI or WFE instruction.
 346:/home/user/Desktop/STM32-Projekte/FH-Vertibot/src/STM32F30x_StdPeriph_Driver/src/stm32f30x_pwr.c ****   *         This parameter can be one of the following values:
 347:/home/user/Desktop/STM32-Projekte/FH-Vertibot/src/STM32F30x_StdPeriph_Driver/src/stm32f30x_pwr.c ****   *             @arg PWR_SLEEPEntry_WFI: enter SLEEP mode with WFI instruction
 348:/home/user/Desktop/STM32-Projekte/FH-Vertibot/src/STM32F30x_StdPeriph_Driver/src/stm32f30x_pwr.c ****   *             @arg PWR_SLEEPEntry_WFE: enter SLEEP mode with WFE instruction
 349:/home/user/Desktop/STM32-Projekte/FH-Vertibot/src/STM32F30x_StdPeriph_Driver/src/stm32f30x_pwr.c ****   * @retval None
 350:/home/user/Desktop/STM32-Projekte/FH-Vertibot/src/STM32F30x_StdPeriph_Driver/src/stm32f30x_pwr.c ****   */
 351:/home/user/Desktop/STM32-Projekte/FH-Vertibot/src/STM32F30x_StdPeriph_Driver/src/stm32f30x_pwr.c **** void PWR_EnterSleepMode(uint8_t PWR_SLEEPEntry)
 352:/home/user/Desktop/STM32-Projekte/FH-Vertibot/src/STM32F30x_StdPeriph_Driver/src/stm32f30x_pwr.c **** {
 178              		.loc 1 352 0
 179              		.cfi_startproc
 180              		@ args = 0, pretend = 0, frame = 0
 181              		@ frame_needed = 0, uses_anonymous_args = 0
 182              		@ link register save eliminated.
 183              	.LVL12:
 353:/home/user/Desktop/STM32-Projekte/FH-Vertibot/src/STM32F30x_StdPeriph_Driver/src/stm32f30x_pwr.c ****   /* Check the parameters */
 354:/home/user/Desktop/STM32-Projekte/FH-Vertibot/src/STM32F30x_StdPeriph_Driver/src/stm32f30x_pwr.c ****   assert_param(IS_PWR_SLEEP_ENTRY(PWR_SLEEPEntry));
 355:/home/user/Desktop/STM32-Projekte/FH-Vertibot/src/STM32F30x_StdPeriph_Driver/src/stm32f30x_pwr.c ****   
 356:/home/user/Desktop/STM32-Projekte/FH-Vertibot/src/STM32F30x_StdPeriph_Driver/src/stm32f30x_pwr.c ****   /* Clear SLEEPDEEP bit of Cortex System Control Register */
 357:/home/user/Desktop/STM32-Projekte/FH-Vertibot/src/STM32F30x_StdPeriph_Driver/src/stm32f30x_pwr.c ****   SCB->SCR &= (uint32_t)~((uint32_t)SCB_SCR_SLEEPDEEP_Msk);
 184              		.loc 1 357 0
 185 005c 054B     		ldr	r3, .L21
 186 005e 1A69     		ldr	r2, [r3, #16]
 358:/home/user/Desktop/STM32-Projekte/FH-Vertibot/src/STM32F30x_StdPeriph_Driver/src/stm32f30x_pwr.c ****   
 359:/home/user/Desktop/STM32-Projekte/FH-Vertibot/src/STM32F30x_StdPeriph_Driver/src/stm32f30x_pwr.c ****   /* Select SLEEP mode entry -------------------------------------------------*/
 360:/home/user/Desktop/STM32-Projekte/FH-Vertibot/src/STM32F30x_StdPeriph_Driver/src/stm32f30x_pwr.c ****   if(PWR_SLEEPEntry == PWR_SLEEPEntry_WFI)
 187              		.loc 1 360 0
 188 0060 0128     		cmp	r0, #1
 357:/home/user/Desktop/STM32-Projekte/FH-Vertibot/src/STM32F30x_StdPeriph_Driver/src/stm32f30x_pwr.c ****   SCB->SCR &= (uint32_t)~((uint32_t)SCB_SCR_SLEEPDEEP_Msk);
 189              		.loc 1 357 0
 190 0062 22F00402 		bic	r2, r2, #4
 191 0066 1A61     		str	r2, [r3, #16]
 192              		.loc 1 360 0
 193 0068 01D1     		bne	.L19
 194              	.LBB12:
 195              	.LBB13:
 196              		.file 2 "/home/user/Desktop/STM32-Projekte/FH-Vertibot/src/CMSIS/Include/core_cmInstr.h"
   1:/home/user/Desktop/STM32-Projekte/FH-Vertibot/src/CMSIS/Include/core_cmInstr.h **** /**************************************************************************//**
   2:/home/user/Desktop/STM32-Projekte/FH-Vertibot/src/CMSIS/Include/core_cmInstr.h ****  * @file     core_cmInstr.h
   3:/home/user/Desktop/STM32-Projekte/FH-Vertibot/src/CMSIS/Include/core_cmInstr.h ****  * @brief    CMSIS Cortex-M Core Instruction Access Header File
   4:/home/user/Desktop/STM32-Projekte/FH-Vertibot/src/CMSIS/Include/core_cmInstr.h ****  * @version  V3.00
   5:/home/user/Desktop/STM32-Projekte/FH-Vertibot/src/CMSIS/Include/core_cmInstr.h ****  * @date     07. February 2012
   6:/home/user/Desktop/STM32-Projekte/FH-Vertibot/src/CMSIS/Include/core_cmInstr.h ****  *
   7:/home/user/Desktop/STM32-Projekte/FH-Vertibot/src/CMSIS/Include/core_cmInstr.h ****  * @note
   8:/home/user/Desktop/STM32-Projekte/FH-Vertibot/src/CMSIS/Include/core_cmInstr.h ****  * Copyright (C) 2009-2012 ARM Limited. All rights reserved.
   9:/home/user/Desktop/STM32-Projekte/FH-Vertibot/src/CMSIS/Include/core_cmInstr.h ****  *
  10:/home/user/Desktop/STM32-Projekte/FH-Vertibot/src/CMSIS/Include/core_cmInstr.h ****  * @par
  11:/home/user/Desktop/STM32-Projekte/FH-Vertibot/src/CMSIS/Include/core_cmInstr.h ****  * ARM Limited (ARM) is supplying this software for use with Cortex-M
  12:/home/user/Desktop/STM32-Projekte/FH-Vertibot/src/CMSIS/Include/core_cmInstr.h ****  * processor based microcontrollers.  This file can be freely distributed
  13:/home/user/Desktop/STM32-Projekte/FH-Vertibot/src/CMSIS/Include/core_cmInstr.h ****  * within development tools that are supporting such ARM based processors.
  14:/home/user/Desktop/STM32-Projekte/FH-Vertibot/src/CMSIS/Include/core_cmInstr.h ****  *
  15:/home/user/Desktop/STM32-Projekte/FH-Vertibot/src/CMSIS/Include/core_cmInstr.h ****  * @par
  16:/home/user/Desktop/STM32-Projekte/FH-Vertibot/src/CMSIS/Include/core_cmInstr.h ****  * THIS SOFTWARE IS PROVIDED "AS IS".  NO WARRANTIES, WHETHER EXPRESS, IMPLIED
  17:/home/user/Desktop/STM32-Projekte/FH-Vertibot/src/CMSIS/Include/core_cmInstr.h ****  * OR STATUTORY, INCLUDING, BUT NOT LIMITED TO, IMPLIED WARRANTIES OF
  18:/home/user/Desktop/STM32-Projekte/FH-Vertibot/src/CMSIS/Include/core_cmInstr.h ****  * MERCHANTABILITY AND FITNESS FOR A PARTICULAR PURPOSE APPLY TO THIS SOFTWARE.
  19:/home/user/Desktop/STM32-Projekte/FH-Vertibot/src/CMSIS/Include/core_cmInstr.h ****  * ARM SHALL NOT, IN ANY CIRCUMSTANCES, BE LIABLE FOR SPECIAL, INCIDENTAL, OR
  20:/home/user/Desktop/STM32-Projekte/FH-Vertibot/src/CMSIS/Include/core_cmInstr.h ****  * CONSEQUENTIAL DAMAGES, FOR ANY REASON WHATSOEVER.
  21:/home/user/Desktop/STM32-Projekte/FH-Vertibot/src/CMSIS/Include/core_cmInstr.h ****  *
  22:/home/user/Desktop/STM32-Projekte/FH-Vertibot/src/CMSIS/Include/core_cmInstr.h ****  ******************************************************************************/
  23:/home/user/Desktop/STM32-Projekte/FH-Vertibot/src/CMSIS/Include/core_cmInstr.h **** 
  24:/home/user/Desktop/STM32-Projekte/FH-Vertibot/src/CMSIS/Include/core_cmInstr.h **** #ifndef __CORE_CMINSTR_H
  25:/home/user/Desktop/STM32-Projekte/FH-Vertibot/src/CMSIS/Include/core_cmInstr.h **** #define __CORE_CMINSTR_H
  26:/home/user/Desktop/STM32-Projekte/FH-Vertibot/src/CMSIS/Include/core_cmInstr.h **** 
  27:/home/user/Desktop/STM32-Projekte/FH-Vertibot/src/CMSIS/Include/core_cmInstr.h **** 
  28:/home/user/Desktop/STM32-Projekte/FH-Vertibot/src/CMSIS/Include/core_cmInstr.h **** /* ##########################  Core Instruction Access  ######################### */
  29:/home/user/Desktop/STM32-Projekte/FH-Vertibot/src/CMSIS/Include/core_cmInstr.h **** /** \defgroup CMSIS_Core_InstructionInterface CMSIS Core Instruction Interface
  30:/home/user/Desktop/STM32-Projekte/FH-Vertibot/src/CMSIS/Include/core_cmInstr.h ****   Access to dedicated instructions
  31:/home/user/Desktop/STM32-Projekte/FH-Vertibot/src/CMSIS/Include/core_cmInstr.h ****   @{
  32:/home/user/Desktop/STM32-Projekte/FH-Vertibot/src/CMSIS/Include/core_cmInstr.h **** */
  33:/home/user/Desktop/STM32-Projekte/FH-Vertibot/src/CMSIS/Include/core_cmInstr.h **** 
  34:/home/user/Desktop/STM32-Projekte/FH-Vertibot/src/CMSIS/Include/core_cmInstr.h **** #if   defined ( __CC_ARM ) /*------------------RealView Compiler -----------------*/
  35:/home/user/Desktop/STM32-Projekte/FH-Vertibot/src/CMSIS/Include/core_cmInstr.h **** /* ARM armcc specific functions */
  36:/home/user/Desktop/STM32-Projekte/FH-Vertibot/src/CMSIS/Include/core_cmInstr.h **** 
  37:/home/user/Desktop/STM32-Projekte/FH-Vertibot/src/CMSIS/Include/core_cmInstr.h **** #if (__ARMCC_VERSION < 400677)
  38:/home/user/Desktop/STM32-Projekte/FH-Vertibot/src/CMSIS/Include/core_cmInstr.h ****   #error "Please use ARM Compiler Toolchain V4.0.677 or later!"
  39:/home/user/Desktop/STM32-Projekte/FH-Vertibot/src/CMSIS/Include/core_cmInstr.h **** #endif
  40:/home/user/Desktop/STM32-Projekte/FH-Vertibot/src/CMSIS/Include/core_cmInstr.h **** 
  41:/home/user/Desktop/STM32-Projekte/FH-Vertibot/src/CMSIS/Include/core_cmInstr.h **** 
  42:/home/user/Desktop/STM32-Projekte/FH-Vertibot/src/CMSIS/Include/core_cmInstr.h **** /** \brief  No Operation
  43:/home/user/Desktop/STM32-Projekte/FH-Vertibot/src/CMSIS/Include/core_cmInstr.h **** 
  44:/home/user/Desktop/STM32-Projekte/FH-Vertibot/src/CMSIS/Include/core_cmInstr.h ****     No Operation does nothing. This instruction can be used for code alignment purposes.
  45:/home/user/Desktop/STM32-Projekte/FH-Vertibot/src/CMSIS/Include/core_cmInstr.h ****  */
  46:/home/user/Desktop/STM32-Projekte/FH-Vertibot/src/CMSIS/Include/core_cmInstr.h **** #define __NOP                             __nop
  47:/home/user/Desktop/STM32-Projekte/FH-Vertibot/src/CMSIS/Include/core_cmInstr.h **** 
  48:/home/user/Desktop/STM32-Projekte/FH-Vertibot/src/CMSIS/Include/core_cmInstr.h **** 
  49:/home/user/Desktop/STM32-Projekte/FH-Vertibot/src/CMSIS/Include/core_cmInstr.h **** /** \brief  Wait For Interrupt
  50:/home/user/Desktop/STM32-Projekte/FH-Vertibot/src/CMSIS/Include/core_cmInstr.h **** 
  51:/home/user/Desktop/STM32-Projekte/FH-Vertibot/src/CMSIS/Include/core_cmInstr.h ****     Wait For Interrupt is a hint instruction that suspends execution
  52:/home/user/Desktop/STM32-Projekte/FH-Vertibot/src/CMSIS/Include/core_cmInstr.h ****     until one of a number of events occurs.
  53:/home/user/Desktop/STM32-Projekte/FH-Vertibot/src/CMSIS/Include/core_cmInstr.h ****  */
  54:/home/user/Desktop/STM32-Projekte/FH-Vertibot/src/CMSIS/Include/core_cmInstr.h **** #define __WFI                             __wfi
  55:/home/user/Desktop/STM32-Projekte/FH-Vertibot/src/CMSIS/Include/core_cmInstr.h **** 
  56:/home/user/Desktop/STM32-Projekte/FH-Vertibot/src/CMSIS/Include/core_cmInstr.h **** 
  57:/home/user/Desktop/STM32-Projekte/FH-Vertibot/src/CMSIS/Include/core_cmInstr.h **** /** \brief  Wait For Event
  58:/home/user/Desktop/STM32-Projekte/FH-Vertibot/src/CMSIS/Include/core_cmInstr.h **** 
  59:/home/user/Desktop/STM32-Projekte/FH-Vertibot/src/CMSIS/Include/core_cmInstr.h ****     Wait For Event is a hint instruction that permits the processor to enter
  60:/home/user/Desktop/STM32-Projekte/FH-Vertibot/src/CMSIS/Include/core_cmInstr.h ****     a low-power state until one of a number of events occurs.
  61:/home/user/Desktop/STM32-Projekte/FH-Vertibot/src/CMSIS/Include/core_cmInstr.h ****  */
  62:/home/user/Desktop/STM32-Projekte/FH-Vertibot/src/CMSIS/Include/core_cmInstr.h **** #define __WFE                             __wfe
  63:/home/user/Desktop/STM32-Projekte/FH-Vertibot/src/CMSIS/Include/core_cmInstr.h **** 
  64:/home/user/Desktop/STM32-Projekte/FH-Vertibot/src/CMSIS/Include/core_cmInstr.h **** 
  65:/home/user/Desktop/STM32-Projekte/FH-Vertibot/src/CMSIS/Include/core_cmInstr.h **** /** \brief  Send Event
  66:/home/user/Desktop/STM32-Projekte/FH-Vertibot/src/CMSIS/Include/core_cmInstr.h **** 
  67:/home/user/Desktop/STM32-Projekte/FH-Vertibot/src/CMSIS/Include/core_cmInstr.h ****     Send Event is a hint instruction. It causes an event to be signaled to the CPU.
  68:/home/user/Desktop/STM32-Projekte/FH-Vertibot/src/CMSIS/Include/core_cmInstr.h ****  */
  69:/home/user/Desktop/STM32-Projekte/FH-Vertibot/src/CMSIS/Include/core_cmInstr.h **** #define __SEV                             __sev
  70:/home/user/Desktop/STM32-Projekte/FH-Vertibot/src/CMSIS/Include/core_cmInstr.h **** 
  71:/home/user/Desktop/STM32-Projekte/FH-Vertibot/src/CMSIS/Include/core_cmInstr.h **** 
  72:/home/user/Desktop/STM32-Projekte/FH-Vertibot/src/CMSIS/Include/core_cmInstr.h **** /** \brief  Instruction Synchronization Barrier
  73:/home/user/Desktop/STM32-Projekte/FH-Vertibot/src/CMSIS/Include/core_cmInstr.h **** 
  74:/home/user/Desktop/STM32-Projekte/FH-Vertibot/src/CMSIS/Include/core_cmInstr.h ****     Instruction Synchronization Barrier flushes the pipeline in the processor,
  75:/home/user/Desktop/STM32-Projekte/FH-Vertibot/src/CMSIS/Include/core_cmInstr.h ****     so that all instructions following the ISB are fetched from cache or
  76:/home/user/Desktop/STM32-Projekte/FH-Vertibot/src/CMSIS/Include/core_cmInstr.h ****     memory, after the instruction has been completed.
  77:/home/user/Desktop/STM32-Projekte/FH-Vertibot/src/CMSIS/Include/core_cmInstr.h ****  */
  78:/home/user/Desktop/STM32-Projekte/FH-Vertibot/src/CMSIS/Include/core_cmInstr.h **** #define __ISB()                           __isb(0xF)
  79:/home/user/Desktop/STM32-Projekte/FH-Vertibot/src/CMSIS/Include/core_cmInstr.h **** 
  80:/home/user/Desktop/STM32-Projekte/FH-Vertibot/src/CMSIS/Include/core_cmInstr.h **** 
  81:/home/user/Desktop/STM32-Projekte/FH-Vertibot/src/CMSIS/Include/core_cmInstr.h **** /** \brief  Data Synchronization Barrier
  82:/home/user/Desktop/STM32-Projekte/FH-Vertibot/src/CMSIS/Include/core_cmInstr.h **** 
  83:/home/user/Desktop/STM32-Projekte/FH-Vertibot/src/CMSIS/Include/core_cmInstr.h ****     This function acts as a special kind of Data Memory Barrier.
  84:/home/user/Desktop/STM32-Projekte/FH-Vertibot/src/CMSIS/Include/core_cmInstr.h ****     It completes when all explicit memory accesses before this instruction complete.
  85:/home/user/Desktop/STM32-Projekte/FH-Vertibot/src/CMSIS/Include/core_cmInstr.h ****  */
  86:/home/user/Desktop/STM32-Projekte/FH-Vertibot/src/CMSIS/Include/core_cmInstr.h **** #define __DSB()                           __dsb(0xF)
  87:/home/user/Desktop/STM32-Projekte/FH-Vertibot/src/CMSIS/Include/core_cmInstr.h **** 
  88:/home/user/Desktop/STM32-Projekte/FH-Vertibot/src/CMSIS/Include/core_cmInstr.h **** 
  89:/home/user/Desktop/STM32-Projekte/FH-Vertibot/src/CMSIS/Include/core_cmInstr.h **** /** \brief  Data Memory Barrier
  90:/home/user/Desktop/STM32-Projekte/FH-Vertibot/src/CMSIS/Include/core_cmInstr.h **** 
  91:/home/user/Desktop/STM32-Projekte/FH-Vertibot/src/CMSIS/Include/core_cmInstr.h ****     This function ensures the apparent order of the explicit memory operations before
  92:/home/user/Desktop/STM32-Projekte/FH-Vertibot/src/CMSIS/Include/core_cmInstr.h ****     and after the instruction, without ensuring their completion.
  93:/home/user/Desktop/STM32-Projekte/FH-Vertibot/src/CMSIS/Include/core_cmInstr.h ****  */
  94:/home/user/Desktop/STM32-Projekte/FH-Vertibot/src/CMSIS/Include/core_cmInstr.h **** #define __DMB()                           __dmb(0xF)
  95:/home/user/Desktop/STM32-Projekte/FH-Vertibot/src/CMSIS/Include/core_cmInstr.h **** 
  96:/home/user/Desktop/STM32-Projekte/FH-Vertibot/src/CMSIS/Include/core_cmInstr.h **** 
  97:/home/user/Desktop/STM32-Projekte/FH-Vertibot/src/CMSIS/Include/core_cmInstr.h **** /** \brief  Reverse byte order (32 bit)
  98:/home/user/Desktop/STM32-Projekte/FH-Vertibot/src/CMSIS/Include/core_cmInstr.h **** 
  99:/home/user/Desktop/STM32-Projekte/FH-Vertibot/src/CMSIS/Include/core_cmInstr.h ****     This function reverses the byte order in integer value.
 100:/home/user/Desktop/STM32-Projekte/FH-Vertibot/src/CMSIS/Include/core_cmInstr.h **** 
 101:/home/user/Desktop/STM32-Projekte/FH-Vertibot/src/CMSIS/Include/core_cmInstr.h ****     \param [in]    value  Value to reverse
 102:/home/user/Desktop/STM32-Projekte/FH-Vertibot/src/CMSIS/Include/core_cmInstr.h ****     \return               Reversed value
 103:/home/user/Desktop/STM32-Projekte/FH-Vertibot/src/CMSIS/Include/core_cmInstr.h ****  */
 104:/home/user/Desktop/STM32-Projekte/FH-Vertibot/src/CMSIS/Include/core_cmInstr.h **** #define __REV                             __rev
 105:/home/user/Desktop/STM32-Projekte/FH-Vertibot/src/CMSIS/Include/core_cmInstr.h **** 
 106:/home/user/Desktop/STM32-Projekte/FH-Vertibot/src/CMSIS/Include/core_cmInstr.h **** 
 107:/home/user/Desktop/STM32-Projekte/FH-Vertibot/src/CMSIS/Include/core_cmInstr.h **** /** \brief  Reverse byte order (16 bit)
 108:/home/user/Desktop/STM32-Projekte/FH-Vertibot/src/CMSIS/Include/core_cmInstr.h **** 
 109:/home/user/Desktop/STM32-Projekte/FH-Vertibot/src/CMSIS/Include/core_cmInstr.h ****     This function reverses the byte order in two unsigned short values.
 110:/home/user/Desktop/STM32-Projekte/FH-Vertibot/src/CMSIS/Include/core_cmInstr.h **** 
 111:/home/user/Desktop/STM32-Projekte/FH-Vertibot/src/CMSIS/Include/core_cmInstr.h ****     \param [in]    value  Value to reverse
 112:/home/user/Desktop/STM32-Projekte/FH-Vertibot/src/CMSIS/Include/core_cmInstr.h ****     \return               Reversed value
 113:/home/user/Desktop/STM32-Projekte/FH-Vertibot/src/CMSIS/Include/core_cmInstr.h ****  */
 114:/home/user/Desktop/STM32-Projekte/FH-Vertibot/src/CMSIS/Include/core_cmInstr.h **** __attribute__((section(".rev16_text"))) __STATIC_INLINE __ASM uint32_t __REV16(uint32_t value)
 115:/home/user/Desktop/STM32-Projekte/FH-Vertibot/src/CMSIS/Include/core_cmInstr.h **** {
 116:/home/user/Desktop/STM32-Projekte/FH-Vertibot/src/CMSIS/Include/core_cmInstr.h ****   rev16 r0, r0
 117:/home/user/Desktop/STM32-Projekte/FH-Vertibot/src/CMSIS/Include/core_cmInstr.h ****   bx lr
 118:/home/user/Desktop/STM32-Projekte/FH-Vertibot/src/CMSIS/Include/core_cmInstr.h **** }
 119:/home/user/Desktop/STM32-Projekte/FH-Vertibot/src/CMSIS/Include/core_cmInstr.h **** 
 120:/home/user/Desktop/STM32-Projekte/FH-Vertibot/src/CMSIS/Include/core_cmInstr.h **** 
 121:/home/user/Desktop/STM32-Projekte/FH-Vertibot/src/CMSIS/Include/core_cmInstr.h **** /** \brief  Reverse byte order in signed short value
 122:/home/user/Desktop/STM32-Projekte/FH-Vertibot/src/CMSIS/Include/core_cmInstr.h **** 
 123:/home/user/Desktop/STM32-Projekte/FH-Vertibot/src/CMSIS/Include/core_cmInstr.h ****     This function reverses the byte order in a signed short value with sign extension to integer.
 124:/home/user/Desktop/STM32-Projekte/FH-Vertibot/src/CMSIS/Include/core_cmInstr.h **** 
 125:/home/user/Desktop/STM32-Projekte/FH-Vertibot/src/CMSIS/Include/core_cmInstr.h ****     \param [in]    value  Value to reverse
 126:/home/user/Desktop/STM32-Projekte/FH-Vertibot/src/CMSIS/Include/core_cmInstr.h ****     \return               Reversed value
 127:/home/user/Desktop/STM32-Projekte/FH-Vertibot/src/CMSIS/Include/core_cmInstr.h ****  */
 128:/home/user/Desktop/STM32-Projekte/FH-Vertibot/src/CMSIS/Include/core_cmInstr.h **** __attribute__((section(".revsh_text"))) __STATIC_INLINE __ASM int32_t __REVSH(int32_t value)
 129:/home/user/Desktop/STM32-Projekte/FH-Vertibot/src/CMSIS/Include/core_cmInstr.h **** {
 130:/home/user/Desktop/STM32-Projekte/FH-Vertibot/src/CMSIS/Include/core_cmInstr.h ****   revsh r0, r0
 131:/home/user/Desktop/STM32-Projekte/FH-Vertibot/src/CMSIS/Include/core_cmInstr.h ****   bx lr
 132:/home/user/Desktop/STM32-Projekte/FH-Vertibot/src/CMSIS/Include/core_cmInstr.h **** }
 133:/home/user/Desktop/STM32-Projekte/FH-Vertibot/src/CMSIS/Include/core_cmInstr.h **** 
 134:/home/user/Desktop/STM32-Projekte/FH-Vertibot/src/CMSIS/Include/core_cmInstr.h **** 
 135:/home/user/Desktop/STM32-Projekte/FH-Vertibot/src/CMSIS/Include/core_cmInstr.h **** /** \brief  Rotate Right in unsigned value (32 bit)
 136:/home/user/Desktop/STM32-Projekte/FH-Vertibot/src/CMSIS/Include/core_cmInstr.h **** 
 137:/home/user/Desktop/STM32-Projekte/FH-Vertibot/src/CMSIS/Include/core_cmInstr.h ****     This function Rotate Right (immediate) provides the value of the contents of a register rotated
 138:/home/user/Desktop/STM32-Projekte/FH-Vertibot/src/CMSIS/Include/core_cmInstr.h **** 
 139:/home/user/Desktop/STM32-Projekte/FH-Vertibot/src/CMSIS/Include/core_cmInstr.h ****     \param [in]    value  Value to rotate
 140:/home/user/Desktop/STM32-Projekte/FH-Vertibot/src/CMSIS/Include/core_cmInstr.h ****     \param [in]    value  Number of Bits to rotate
 141:/home/user/Desktop/STM32-Projekte/FH-Vertibot/src/CMSIS/Include/core_cmInstr.h ****     \return               Rotated value
 142:/home/user/Desktop/STM32-Projekte/FH-Vertibot/src/CMSIS/Include/core_cmInstr.h ****  */
 143:/home/user/Desktop/STM32-Projekte/FH-Vertibot/src/CMSIS/Include/core_cmInstr.h **** #define __ROR                             __ror
 144:/home/user/Desktop/STM32-Projekte/FH-Vertibot/src/CMSIS/Include/core_cmInstr.h **** 
 145:/home/user/Desktop/STM32-Projekte/FH-Vertibot/src/CMSIS/Include/core_cmInstr.h **** 
 146:/home/user/Desktop/STM32-Projekte/FH-Vertibot/src/CMSIS/Include/core_cmInstr.h **** #if       (__CORTEX_M >= 0x03)
 147:/home/user/Desktop/STM32-Projekte/FH-Vertibot/src/CMSIS/Include/core_cmInstr.h **** 
 148:/home/user/Desktop/STM32-Projekte/FH-Vertibot/src/CMSIS/Include/core_cmInstr.h **** /** \brief  Reverse bit order of value
 149:/home/user/Desktop/STM32-Projekte/FH-Vertibot/src/CMSIS/Include/core_cmInstr.h **** 
 150:/home/user/Desktop/STM32-Projekte/FH-Vertibot/src/CMSIS/Include/core_cmInstr.h ****     This function reverses the bit order of the given value.
 151:/home/user/Desktop/STM32-Projekte/FH-Vertibot/src/CMSIS/Include/core_cmInstr.h **** 
 152:/home/user/Desktop/STM32-Projekte/FH-Vertibot/src/CMSIS/Include/core_cmInstr.h ****     \param [in]    value  Value to reverse
 153:/home/user/Desktop/STM32-Projekte/FH-Vertibot/src/CMSIS/Include/core_cmInstr.h ****     \return               Reversed value
 154:/home/user/Desktop/STM32-Projekte/FH-Vertibot/src/CMSIS/Include/core_cmInstr.h ****  */
 155:/home/user/Desktop/STM32-Projekte/FH-Vertibot/src/CMSIS/Include/core_cmInstr.h **** #define __RBIT                            __rbit
 156:/home/user/Desktop/STM32-Projekte/FH-Vertibot/src/CMSIS/Include/core_cmInstr.h **** 
 157:/home/user/Desktop/STM32-Projekte/FH-Vertibot/src/CMSIS/Include/core_cmInstr.h **** 
 158:/home/user/Desktop/STM32-Projekte/FH-Vertibot/src/CMSIS/Include/core_cmInstr.h **** /** \brief  LDR Exclusive (8 bit)
 159:/home/user/Desktop/STM32-Projekte/FH-Vertibot/src/CMSIS/Include/core_cmInstr.h **** 
 160:/home/user/Desktop/STM32-Projekte/FH-Vertibot/src/CMSIS/Include/core_cmInstr.h ****     This function performs a exclusive LDR command for 8 bit value.
 161:/home/user/Desktop/STM32-Projekte/FH-Vertibot/src/CMSIS/Include/core_cmInstr.h **** 
 162:/home/user/Desktop/STM32-Projekte/FH-Vertibot/src/CMSIS/Include/core_cmInstr.h ****     \param [in]    ptr  Pointer to data
 163:/home/user/Desktop/STM32-Projekte/FH-Vertibot/src/CMSIS/Include/core_cmInstr.h ****     \return             value of type uint8_t at (*ptr)
 164:/home/user/Desktop/STM32-Projekte/FH-Vertibot/src/CMSIS/Include/core_cmInstr.h ****  */
 165:/home/user/Desktop/STM32-Projekte/FH-Vertibot/src/CMSIS/Include/core_cmInstr.h **** #define __LDREXB(ptr)                     ((uint8_t ) __ldrex(ptr))
 166:/home/user/Desktop/STM32-Projekte/FH-Vertibot/src/CMSIS/Include/core_cmInstr.h **** 
 167:/home/user/Desktop/STM32-Projekte/FH-Vertibot/src/CMSIS/Include/core_cmInstr.h **** 
 168:/home/user/Desktop/STM32-Projekte/FH-Vertibot/src/CMSIS/Include/core_cmInstr.h **** /** \brief  LDR Exclusive (16 bit)
 169:/home/user/Desktop/STM32-Projekte/FH-Vertibot/src/CMSIS/Include/core_cmInstr.h **** 
 170:/home/user/Desktop/STM32-Projekte/FH-Vertibot/src/CMSIS/Include/core_cmInstr.h ****     This function performs a exclusive LDR command for 16 bit values.
 171:/home/user/Desktop/STM32-Projekte/FH-Vertibot/src/CMSIS/Include/core_cmInstr.h **** 
 172:/home/user/Desktop/STM32-Projekte/FH-Vertibot/src/CMSIS/Include/core_cmInstr.h ****     \param [in]    ptr  Pointer to data
 173:/home/user/Desktop/STM32-Projekte/FH-Vertibot/src/CMSIS/Include/core_cmInstr.h ****     \return        value of type uint16_t at (*ptr)
 174:/home/user/Desktop/STM32-Projekte/FH-Vertibot/src/CMSIS/Include/core_cmInstr.h ****  */
 175:/home/user/Desktop/STM32-Projekte/FH-Vertibot/src/CMSIS/Include/core_cmInstr.h **** #define __LDREXH(ptr)                     ((uint16_t) __ldrex(ptr))
 176:/home/user/Desktop/STM32-Projekte/FH-Vertibot/src/CMSIS/Include/core_cmInstr.h **** 
 177:/home/user/Desktop/STM32-Projekte/FH-Vertibot/src/CMSIS/Include/core_cmInstr.h **** 
 178:/home/user/Desktop/STM32-Projekte/FH-Vertibot/src/CMSIS/Include/core_cmInstr.h **** /** \brief  LDR Exclusive (32 bit)
 179:/home/user/Desktop/STM32-Projekte/FH-Vertibot/src/CMSIS/Include/core_cmInstr.h **** 
 180:/home/user/Desktop/STM32-Projekte/FH-Vertibot/src/CMSIS/Include/core_cmInstr.h ****     This function performs a exclusive LDR command for 32 bit values.
 181:/home/user/Desktop/STM32-Projekte/FH-Vertibot/src/CMSIS/Include/core_cmInstr.h **** 
 182:/home/user/Desktop/STM32-Projekte/FH-Vertibot/src/CMSIS/Include/core_cmInstr.h ****     \param [in]    ptr  Pointer to data
 183:/home/user/Desktop/STM32-Projekte/FH-Vertibot/src/CMSIS/Include/core_cmInstr.h ****     \return        value of type uint32_t at (*ptr)
 184:/home/user/Desktop/STM32-Projekte/FH-Vertibot/src/CMSIS/Include/core_cmInstr.h ****  */
 185:/home/user/Desktop/STM32-Projekte/FH-Vertibot/src/CMSIS/Include/core_cmInstr.h **** #define __LDREXW(ptr)                     ((uint32_t ) __ldrex(ptr))
 186:/home/user/Desktop/STM32-Projekte/FH-Vertibot/src/CMSIS/Include/core_cmInstr.h **** 
 187:/home/user/Desktop/STM32-Projekte/FH-Vertibot/src/CMSIS/Include/core_cmInstr.h **** 
 188:/home/user/Desktop/STM32-Projekte/FH-Vertibot/src/CMSIS/Include/core_cmInstr.h **** /** \brief  STR Exclusive (8 bit)
 189:/home/user/Desktop/STM32-Projekte/FH-Vertibot/src/CMSIS/Include/core_cmInstr.h **** 
 190:/home/user/Desktop/STM32-Projekte/FH-Vertibot/src/CMSIS/Include/core_cmInstr.h ****     This function performs a exclusive STR command for 8 bit values.
 191:/home/user/Desktop/STM32-Projekte/FH-Vertibot/src/CMSIS/Include/core_cmInstr.h **** 
 192:/home/user/Desktop/STM32-Projekte/FH-Vertibot/src/CMSIS/Include/core_cmInstr.h ****     \param [in]  value  Value to store
 193:/home/user/Desktop/STM32-Projekte/FH-Vertibot/src/CMSIS/Include/core_cmInstr.h ****     \param [in]    ptr  Pointer to location
 194:/home/user/Desktop/STM32-Projekte/FH-Vertibot/src/CMSIS/Include/core_cmInstr.h ****     \return          0  Function succeeded
 195:/home/user/Desktop/STM32-Projekte/FH-Vertibot/src/CMSIS/Include/core_cmInstr.h ****     \return          1  Function failed
 196:/home/user/Desktop/STM32-Projekte/FH-Vertibot/src/CMSIS/Include/core_cmInstr.h ****  */
 197:/home/user/Desktop/STM32-Projekte/FH-Vertibot/src/CMSIS/Include/core_cmInstr.h **** #define __STREXB(value, ptr)              __strex(value, ptr)
 198:/home/user/Desktop/STM32-Projekte/FH-Vertibot/src/CMSIS/Include/core_cmInstr.h **** 
 199:/home/user/Desktop/STM32-Projekte/FH-Vertibot/src/CMSIS/Include/core_cmInstr.h **** 
 200:/home/user/Desktop/STM32-Projekte/FH-Vertibot/src/CMSIS/Include/core_cmInstr.h **** /** \brief  STR Exclusive (16 bit)
 201:/home/user/Desktop/STM32-Projekte/FH-Vertibot/src/CMSIS/Include/core_cmInstr.h **** 
 202:/home/user/Desktop/STM32-Projekte/FH-Vertibot/src/CMSIS/Include/core_cmInstr.h ****     This function performs a exclusive STR command for 16 bit values.
 203:/home/user/Desktop/STM32-Projekte/FH-Vertibot/src/CMSIS/Include/core_cmInstr.h **** 
 204:/home/user/Desktop/STM32-Projekte/FH-Vertibot/src/CMSIS/Include/core_cmInstr.h ****     \param [in]  value  Value to store
 205:/home/user/Desktop/STM32-Projekte/FH-Vertibot/src/CMSIS/Include/core_cmInstr.h ****     \param [in]    ptr  Pointer to location
 206:/home/user/Desktop/STM32-Projekte/FH-Vertibot/src/CMSIS/Include/core_cmInstr.h ****     \return          0  Function succeeded
 207:/home/user/Desktop/STM32-Projekte/FH-Vertibot/src/CMSIS/Include/core_cmInstr.h ****     \return          1  Function failed
 208:/home/user/Desktop/STM32-Projekte/FH-Vertibot/src/CMSIS/Include/core_cmInstr.h ****  */
 209:/home/user/Desktop/STM32-Projekte/FH-Vertibot/src/CMSIS/Include/core_cmInstr.h **** #define __STREXH(value, ptr)              __strex(value, ptr)
 210:/home/user/Desktop/STM32-Projekte/FH-Vertibot/src/CMSIS/Include/core_cmInstr.h **** 
 211:/home/user/Desktop/STM32-Projekte/FH-Vertibot/src/CMSIS/Include/core_cmInstr.h **** 
 212:/home/user/Desktop/STM32-Projekte/FH-Vertibot/src/CMSIS/Include/core_cmInstr.h **** /** \brief  STR Exclusive (32 bit)
 213:/home/user/Desktop/STM32-Projekte/FH-Vertibot/src/CMSIS/Include/core_cmInstr.h **** 
 214:/home/user/Desktop/STM32-Projekte/FH-Vertibot/src/CMSIS/Include/core_cmInstr.h ****     This function performs a exclusive STR command for 32 bit values.
 215:/home/user/Desktop/STM32-Projekte/FH-Vertibot/src/CMSIS/Include/core_cmInstr.h **** 
 216:/home/user/Desktop/STM32-Projekte/FH-Vertibot/src/CMSIS/Include/core_cmInstr.h ****     \param [in]  value  Value to store
 217:/home/user/Desktop/STM32-Projekte/FH-Vertibot/src/CMSIS/Include/core_cmInstr.h ****     \param [in]    ptr  Pointer to location
 218:/home/user/Desktop/STM32-Projekte/FH-Vertibot/src/CMSIS/Include/core_cmInstr.h ****     \return          0  Function succeeded
 219:/home/user/Desktop/STM32-Projekte/FH-Vertibot/src/CMSIS/Include/core_cmInstr.h ****     \return          1  Function failed
 220:/home/user/Desktop/STM32-Projekte/FH-Vertibot/src/CMSIS/Include/core_cmInstr.h ****  */
 221:/home/user/Desktop/STM32-Projekte/FH-Vertibot/src/CMSIS/Include/core_cmInstr.h **** #define __STREXW(value, ptr)              __strex(value, ptr)
 222:/home/user/Desktop/STM32-Projekte/FH-Vertibot/src/CMSIS/Include/core_cmInstr.h **** 
 223:/home/user/Desktop/STM32-Projekte/FH-Vertibot/src/CMSIS/Include/core_cmInstr.h **** 
 224:/home/user/Desktop/STM32-Projekte/FH-Vertibot/src/CMSIS/Include/core_cmInstr.h **** /** \brief  Remove the exclusive lock
 225:/home/user/Desktop/STM32-Projekte/FH-Vertibot/src/CMSIS/Include/core_cmInstr.h **** 
 226:/home/user/Desktop/STM32-Projekte/FH-Vertibot/src/CMSIS/Include/core_cmInstr.h ****     This function removes the exclusive lock which is created by LDREX.
 227:/home/user/Desktop/STM32-Projekte/FH-Vertibot/src/CMSIS/Include/core_cmInstr.h **** 
 228:/home/user/Desktop/STM32-Projekte/FH-Vertibot/src/CMSIS/Include/core_cmInstr.h ****  */
 229:/home/user/Desktop/STM32-Projekte/FH-Vertibot/src/CMSIS/Include/core_cmInstr.h **** #define __CLREX                           __clrex
 230:/home/user/Desktop/STM32-Projekte/FH-Vertibot/src/CMSIS/Include/core_cmInstr.h **** 
 231:/home/user/Desktop/STM32-Projekte/FH-Vertibot/src/CMSIS/Include/core_cmInstr.h **** 
 232:/home/user/Desktop/STM32-Projekte/FH-Vertibot/src/CMSIS/Include/core_cmInstr.h **** /** \brief  Signed Saturate
 233:/home/user/Desktop/STM32-Projekte/FH-Vertibot/src/CMSIS/Include/core_cmInstr.h **** 
 234:/home/user/Desktop/STM32-Projekte/FH-Vertibot/src/CMSIS/Include/core_cmInstr.h ****     This function saturates a signed value.
 235:/home/user/Desktop/STM32-Projekte/FH-Vertibot/src/CMSIS/Include/core_cmInstr.h **** 
 236:/home/user/Desktop/STM32-Projekte/FH-Vertibot/src/CMSIS/Include/core_cmInstr.h ****     \param [in]  value  Value to be saturated
 237:/home/user/Desktop/STM32-Projekte/FH-Vertibot/src/CMSIS/Include/core_cmInstr.h ****     \param [in]    sat  Bit position to saturate to (1..32)
 238:/home/user/Desktop/STM32-Projekte/FH-Vertibot/src/CMSIS/Include/core_cmInstr.h ****     \return             Saturated value
 239:/home/user/Desktop/STM32-Projekte/FH-Vertibot/src/CMSIS/Include/core_cmInstr.h ****  */
 240:/home/user/Desktop/STM32-Projekte/FH-Vertibot/src/CMSIS/Include/core_cmInstr.h **** #define __SSAT                            __ssat
 241:/home/user/Desktop/STM32-Projekte/FH-Vertibot/src/CMSIS/Include/core_cmInstr.h **** 
 242:/home/user/Desktop/STM32-Projekte/FH-Vertibot/src/CMSIS/Include/core_cmInstr.h **** 
 243:/home/user/Desktop/STM32-Projekte/FH-Vertibot/src/CMSIS/Include/core_cmInstr.h **** /** \brief  Unsigned Saturate
 244:/home/user/Desktop/STM32-Projekte/FH-Vertibot/src/CMSIS/Include/core_cmInstr.h **** 
 245:/home/user/Desktop/STM32-Projekte/FH-Vertibot/src/CMSIS/Include/core_cmInstr.h ****     This function saturates an unsigned value.
 246:/home/user/Desktop/STM32-Projekte/FH-Vertibot/src/CMSIS/Include/core_cmInstr.h **** 
 247:/home/user/Desktop/STM32-Projekte/FH-Vertibot/src/CMSIS/Include/core_cmInstr.h ****     \param [in]  value  Value to be saturated
 248:/home/user/Desktop/STM32-Projekte/FH-Vertibot/src/CMSIS/Include/core_cmInstr.h ****     \param [in]    sat  Bit position to saturate to (0..31)
 249:/home/user/Desktop/STM32-Projekte/FH-Vertibot/src/CMSIS/Include/core_cmInstr.h ****     \return             Saturated value
 250:/home/user/Desktop/STM32-Projekte/FH-Vertibot/src/CMSIS/Include/core_cmInstr.h ****  */
 251:/home/user/Desktop/STM32-Projekte/FH-Vertibot/src/CMSIS/Include/core_cmInstr.h **** #define __USAT                            __usat
 252:/home/user/Desktop/STM32-Projekte/FH-Vertibot/src/CMSIS/Include/core_cmInstr.h **** 
 253:/home/user/Desktop/STM32-Projekte/FH-Vertibot/src/CMSIS/Include/core_cmInstr.h **** 
 254:/home/user/Desktop/STM32-Projekte/FH-Vertibot/src/CMSIS/Include/core_cmInstr.h **** /** \brief  Count leading zeros
 255:/home/user/Desktop/STM32-Projekte/FH-Vertibot/src/CMSIS/Include/core_cmInstr.h **** 
 256:/home/user/Desktop/STM32-Projekte/FH-Vertibot/src/CMSIS/Include/core_cmInstr.h ****     This function counts the number of leading zeros of a data value.
 257:/home/user/Desktop/STM32-Projekte/FH-Vertibot/src/CMSIS/Include/core_cmInstr.h **** 
 258:/home/user/Desktop/STM32-Projekte/FH-Vertibot/src/CMSIS/Include/core_cmInstr.h ****     \param [in]  value  Value to count the leading zeros
 259:/home/user/Desktop/STM32-Projekte/FH-Vertibot/src/CMSIS/Include/core_cmInstr.h ****     \return             number of leading zeros in value
 260:/home/user/Desktop/STM32-Projekte/FH-Vertibot/src/CMSIS/Include/core_cmInstr.h ****  */
 261:/home/user/Desktop/STM32-Projekte/FH-Vertibot/src/CMSIS/Include/core_cmInstr.h **** #define __CLZ                             __clz
 262:/home/user/Desktop/STM32-Projekte/FH-Vertibot/src/CMSIS/Include/core_cmInstr.h **** 
 263:/home/user/Desktop/STM32-Projekte/FH-Vertibot/src/CMSIS/Include/core_cmInstr.h **** #endif /* (__CORTEX_M >= 0x03) */
 264:/home/user/Desktop/STM32-Projekte/FH-Vertibot/src/CMSIS/Include/core_cmInstr.h **** 
 265:/home/user/Desktop/STM32-Projekte/FH-Vertibot/src/CMSIS/Include/core_cmInstr.h **** 
 266:/home/user/Desktop/STM32-Projekte/FH-Vertibot/src/CMSIS/Include/core_cmInstr.h **** 
 267:/home/user/Desktop/STM32-Projekte/FH-Vertibot/src/CMSIS/Include/core_cmInstr.h **** #elif defined ( __ICCARM__ ) /*------------------ ICC Compiler -------------------*/
 268:/home/user/Desktop/STM32-Projekte/FH-Vertibot/src/CMSIS/Include/core_cmInstr.h **** /* IAR iccarm specific functions */
 269:/home/user/Desktop/STM32-Projekte/FH-Vertibot/src/CMSIS/Include/core_cmInstr.h **** 
 270:/home/user/Desktop/STM32-Projekte/FH-Vertibot/src/CMSIS/Include/core_cmInstr.h **** #include <cmsis_iar.h>
 271:/home/user/Desktop/STM32-Projekte/FH-Vertibot/src/CMSIS/Include/core_cmInstr.h **** 
 272:/home/user/Desktop/STM32-Projekte/FH-Vertibot/src/CMSIS/Include/core_cmInstr.h **** 
 273:/home/user/Desktop/STM32-Projekte/FH-Vertibot/src/CMSIS/Include/core_cmInstr.h **** #elif defined ( __TMS470__ ) /*---------------- TI CCS Compiler ------------------*/
 274:/home/user/Desktop/STM32-Projekte/FH-Vertibot/src/CMSIS/Include/core_cmInstr.h **** /* TI CCS specific functions */
 275:/home/user/Desktop/STM32-Projekte/FH-Vertibot/src/CMSIS/Include/core_cmInstr.h **** 
 276:/home/user/Desktop/STM32-Projekte/FH-Vertibot/src/CMSIS/Include/core_cmInstr.h **** #include <cmsis_ccs.h>
 277:/home/user/Desktop/STM32-Projekte/FH-Vertibot/src/CMSIS/Include/core_cmInstr.h **** 
 278:/home/user/Desktop/STM32-Projekte/FH-Vertibot/src/CMSIS/Include/core_cmInstr.h **** 
 279:/home/user/Desktop/STM32-Projekte/FH-Vertibot/src/CMSIS/Include/core_cmInstr.h **** #elif defined ( __GNUC__ ) /*------------------ GNU Compiler ---------------------*/
 280:/home/user/Desktop/STM32-Projekte/FH-Vertibot/src/CMSIS/Include/core_cmInstr.h **** /* GNU gcc specific functions */
 281:/home/user/Desktop/STM32-Projekte/FH-Vertibot/src/CMSIS/Include/core_cmInstr.h **** 
 282:/home/user/Desktop/STM32-Projekte/FH-Vertibot/src/CMSIS/Include/core_cmInstr.h **** /** \brief  No Operation
 283:/home/user/Desktop/STM32-Projekte/FH-Vertibot/src/CMSIS/Include/core_cmInstr.h **** 
 284:/home/user/Desktop/STM32-Projekte/FH-Vertibot/src/CMSIS/Include/core_cmInstr.h ****     No Operation does nothing. This instruction can be used for code alignment purposes.
 285:/home/user/Desktop/STM32-Projekte/FH-Vertibot/src/CMSIS/Include/core_cmInstr.h ****  */
 286:/home/user/Desktop/STM32-Projekte/FH-Vertibot/src/CMSIS/Include/core_cmInstr.h **** __attribute__( ( always_inline ) ) __STATIC_INLINE void __NOP(void)
 287:/home/user/Desktop/STM32-Projekte/FH-Vertibot/src/CMSIS/Include/core_cmInstr.h **** {
 288:/home/user/Desktop/STM32-Projekte/FH-Vertibot/src/CMSIS/Include/core_cmInstr.h ****   __ASM volatile ("nop");
 289:/home/user/Desktop/STM32-Projekte/FH-Vertibot/src/CMSIS/Include/core_cmInstr.h **** }
 290:/home/user/Desktop/STM32-Projekte/FH-Vertibot/src/CMSIS/Include/core_cmInstr.h **** 
 291:/home/user/Desktop/STM32-Projekte/FH-Vertibot/src/CMSIS/Include/core_cmInstr.h **** 
 292:/home/user/Desktop/STM32-Projekte/FH-Vertibot/src/CMSIS/Include/core_cmInstr.h **** /** \brief  Wait For Interrupt
 293:/home/user/Desktop/STM32-Projekte/FH-Vertibot/src/CMSIS/Include/core_cmInstr.h **** 
 294:/home/user/Desktop/STM32-Projekte/FH-Vertibot/src/CMSIS/Include/core_cmInstr.h ****     Wait For Interrupt is a hint instruction that suspends execution
 295:/home/user/Desktop/STM32-Projekte/FH-Vertibot/src/CMSIS/Include/core_cmInstr.h ****     until one of a number of events occurs.
 296:/home/user/Desktop/STM32-Projekte/FH-Vertibot/src/CMSIS/Include/core_cmInstr.h ****  */
 297:/home/user/Desktop/STM32-Projekte/FH-Vertibot/src/CMSIS/Include/core_cmInstr.h **** __attribute__( ( always_inline ) ) __STATIC_INLINE void __WFI(void)
 298:/home/user/Desktop/STM32-Projekte/FH-Vertibot/src/CMSIS/Include/core_cmInstr.h **** {
 299:/home/user/Desktop/STM32-Projekte/FH-Vertibot/src/CMSIS/Include/core_cmInstr.h ****   __ASM volatile ("wfi");
 197              		.loc 2 299 0
 198              	@ 299 "/home/user/Desktop/STM32-Projekte/FH-Vertibot/src/CMSIS/Include/core_cmInstr.h" 1
 199 006a 30BF     		wfi
 200              	@ 0 "" 2
 201              		.thumb
 202 006c 7047     		bx	lr
 203              	.L19:
 204              	.LBE13:
 205              	.LBE12:
 206              	.LBB14:
 207              	.LBB15:
 300:/home/user/Desktop/STM32-Projekte/FH-Vertibot/src/CMSIS/Include/core_cmInstr.h **** }
 301:/home/user/Desktop/STM32-Projekte/FH-Vertibot/src/CMSIS/Include/core_cmInstr.h **** 
 302:/home/user/Desktop/STM32-Projekte/FH-Vertibot/src/CMSIS/Include/core_cmInstr.h **** 
 303:/home/user/Desktop/STM32-Projekte/FH-Vertibot/src/CMSIS/Include/core_cmInstr.h **** /** \brief  Wait For Event
 304:/home/user/Desktop/STM32-Projekte/FH-Vertibot/src/CMSIS/Include/core_cmInstr.h **** 
 305:/home/user/Desktop/STM32-Projekte/FH-Vertibot/src/CMSIS/Include/core_cmInstr.h ****     Wait For Event is a hint instruction that permits the processor to enter
 306:/home/user/Desktop/STM32-Projekte/FH-Vertibot/src/CMSIS/Include/core_cmInstr.h ****     a low-power state until one of a number of events occurs.
 307:/home/user/Desktop/STM32-Projekte/FH-Vertibot/src/CMSIS/Include/core_cmInstr.h ****  */
 308:/home/user/Desktop/STM32-Projekte/FH-Vertibot/src/CMSIS/Include/core_cmInstr.h **** __attribute__( ( always_inline ) ) __STATIC_INLINE void __WFE(void)
 309:/home/user/Desktop/STM32-Projekte/FH-Vertibot/src/CMSIS/Include/core_cmInstr.h **** {
 310:/home/user/Desktop/STM32-Projekte/FH-Vertibot/src/CMSIS/Include/core_cmInstr.h ****   __ASM volatile ("wfe");
 208              		.loc 2 310 0
 209              	@ 310 "/home/user/Desktop/STM32-Projekte/FH-Vertibot/src/CMSIS/Include/core_cmInstr.h" 1
 210 006e 20BF     		wfe
 211              	@ 0 "" 2
 212              		.thumb
 213 0070 7047     		bx	lr
 214              	.L22:
 215 0072 00BF     		.align	2
 216              	.L21:
 217 0074 00ED00E0 		.word	-536810240
 218              	.LBE15:
 219              	.LBE14:
 220              		.cfi_endproc
 221              	.LFE116:
 223              		.align	1
 224              		.global	PWR_EnterSTOPMode
 225              		.thumb
 226              		.thumb_func
 228              	PWR_EnterSTOPMode:
 229              	.LFB117:
 361:/home/user/Desktop/STM32-Projekte/FH-Vertibot/src/STM32F30x_StdPeriph_Driver/src/stm32f30x_pwr.c ****   {   
 362:/home/user/Desktop/STM32-Projekte/FH-Vertibot/src/STM32F30x_StdPeriph_Driver/src/stm32f30x_pwr.c ****     /* Request Wait For Interrupt */
 363:/home/user/Desktop/STM32-Projekte/FH-Vertibot/src/STM32F30x_StdPeriph_Driver/src/stm32f30x_pwr.c ****     __WFI();
 364:/home/user/Desktop/STM32-Projekte/FH-Vertibot/src/STM32F30x_StdPeriph_Driver/src/stm32f30x_pwr.c ****   }
 365:/home/user/Desktop/STM32-Projekte/FH-Vertibot/src/STM32F30x_StdPeriph_Driver/src/stm32f30x_pwr.c ****   else
 366:/home/user/Desktop/STM32-Projekte/FH-Vertibot/src/STM32F30x_StdPeriph_Driver/src/stm32f30x_pwr.c ****   {
 367:/home/user/Desktop/STM32-Projekte/FH-Vertibot/src/STM32F30x_StdPeriph_Driver/src/stm32f30x_pwr.c ****     /* Request Wait For Event */
 368:/home/user/Desktop/STM32-Projekte/FH-Vertibot/src/STM32F30x_StdPeriph_Driver/src/stm32f30x_pwr.c ****     __WFE();
 369:/home/user/Desktop/STM32-Projekte/FH-Vertibot/src/STM32F30x_StdPeriph_Driver/src/stm32f30x_pwr.c ****   }
 370:/home/user/Desktop/STM32-Projekte/FH-Vertibot/src/STM32F30x_StdPeriph_Driver/src/stm32f30x_pwr.c **** }
 371:/home/user/Desktop/STM32-Projekte/FH-Vertibot/src/STM32F30x_StdPeriph_Driver/src/stm32f30x_pwr.c **** 
 372:/home/user/Desktop/STM32-Projekte/FH-Vertibot/src/STM32F30x_StdPeriph_Driver/src/stm32f30x_pwr.c **** /**
 373:/home/user/Desktop/STM32-Projekte/FH-Vertibot/src/STM32F30x_StdPeriph_Driver/src/stm32f30x_pwr.c ****   * @brief  Enters STOP mode.
 374:/home/user/Desktop/STM32-Projekte/FH-Vertibot/src/STM32F30x_StdPeriph_Driver/src/stm32f30x_pwr.c ****   * @note   In Stop mode, all I/O pins keep the same state as in Run mode.
 375:/home/user/Desktop/STM32-Projekte/FH-Vertibot/src/STM32F30x_StdPeriph_Driver/src/stm32f30x_pwr.c ****   * @note   When exiting Stop mode by issuing an interrupt or a wakeup event, 
 376:/home/user/Desktop/STM32-Projekte/FH-Vertibot/src/STM32F30x_StdPeriph_Driver/src/stm32f30x_pwr.c ****   *         the HSI RC oscillator is selected as system clock.
 377:/home/user/Desktop/STM32-Projekte/FH-Vertibot/src/STM32F30x_StdPeriph_Driver/src/stm32f30x_pwr.c ****   * @note   When the voltage regulator operates in low power mode, an additional 
 378:/home/user/Desktop/STM32-Projekte/FH-Vertibot/src/STM32F30x_StdPeriph_Driver/src/stm32f30x_pwr.c ****   *         startup delay is incurred when waking up from Stop mode. 
 379:/home/user/Desktop/STM32-Projekte/FH-Vertibot/src/STM32F30x_StdPeriph_Driver/src/stm32f30x_pwr.c ****   *         By keeping the internal regulator ON during Stop mode, the consumption 
 380:/home/user/Desktop/STM32-Projekte/FH-Vertibot/src/STM32F30x_StdPeriph_Driver/src/stm32f30x_pwr.c ****   *         is higher although the startup time is reduced.
 381:/home/user/Desktop/STM32-Projekte/FH-Vertibot/src/STM32F30x_StdPeriph_Driver/src/stm32f30x_pwr.c ****   * @param  PWR_Regulator: specifies the regulator state in STOP mode.
 382:/home/user/Desktop/STM32-Projekte/FH-Vertibot/src/STM32F30x_StdPeriph_Driver/src/stm32f30x_pwr.c ****   *         This parameter can be one of the following values:
 383:/home/user/Desktop/STM32-Projekte/FH-Vertibot/src/STM32F30x_StdPeriph_Driver/src/stm32f30x_pwr.c ****   *             @arg PWR_Regulator_ON: STOP mode with regulator ON
 384:/home/user/Desktop/STM32-Projekte/FH-Vertibot/src/STM32F30x_StdPeriph_Driver/src/stm32f30x_pwr.c ****   *             @arg PWR_Regulator_LowPower: STOP mode with regulator in low power mode
 385:/home/user/Desktop/STM32-Projekte/FH-Vertibot/src/STM32F30x_StdPeriph_Driver/src/stm32f30x_pwr.c ****   * @param  PWR_STOPEntry: specifies if STOP mode in entered with WFI or WFE instruction.
 386:/home/user/Desktop/STM32-Projekte/FH-Vertibot/src/STM32F30x_StdPeriph_Driver/src/stm32f30x_pwr.c ****   *         This parameter can be one of the following values:
 387:/home/user/Desktop/STM32-Projekte/FH-Vertibot/src/STM32F30x_StdPeriph_Driver/src/stm32f30x_pwr.c ****   *             @arg PWR_STOPEntry_WFI: enter STOP mode with WFI instruction
 388:/home/user/Desktop/STM32-Projekte/FH-Vertibot/src/STM32F30x_StdPeriph_Driver/src/stm32f30x_pwr.c ****   *             @arg PWR_STOPEntry_WFE: enter STOP mode with WFE instruction
 389:/home/user/Desktop/STM32-Projekte/FH-Vertibot/src/STM32F30x_StdPeriph_Driver/src/stm32f30x_pwr.c ****   * @retval None
 390:/home/user/Desktop/STM32-Projekte/FH-Vertibot/src/STM32F30x_StdPeriph_Driver/src/stm32f30x_pwr.c ****   */
 391:/home/user/Desktop/STM32-Projekte/FH-Vertibot/src/STM32F30x_StdPeriph_Driver/src/stm32f30x_pwr.c **** void PWR_EnterSTOPMode(uint32_t PWR_Regulator, uint8_t PWR_STOPEntry)
 392:/home/user/Desktop/STM32-Projekte/FH-Vertibot/src/STM32F30x_StdPeriph_Driver/src/stm32f30x_pwr.c **** {
 230              		.loc 1 392 0
 231              		.cfi_startproc
 232              		@ args = 0, pretend = 0, frame = 0
 233              		@ frame_needed = 0, uses_anonymous_args = 0
 234              		@ link register save eliminated.
 235              	.LVL13:
 393:/home/user/Desktop/STM32-Projekte/FH-Vertibot/src/STM32F30x_StdPeriph_Driver/src/stm32f30x_pwr.c ****   uint32_t tmpreg = 0;
 394:/home/user/Desktop/STM32-Projekte/FH-Vertibot/src/STM32F30x_StdPeriph_Driver/src/stm32f30x_pwr.c ****   
 395:/home/user/Desktop/STM32-Projekte/FH-Vertibot/src/STM32F30x_StdPeriph_Driver/src/stm32f30x_pwr.c ****   /* Check the parameters */
 396:/home/user/Desktop/STM32-Projekte/FH-Vertibot/src/STM32F30x_StdPeriph_Driver/src/stm32f30x_pwr.c ****   assert_param(IS_PWR_REGULATOR(PWR_Regulator));
 397:/home/user/Desktop/STM32-Projekte/FH-Vertibot/src/STM32F30x_StdPeriph_Driver/src/stm32f30x_pwr.c ****   assert_param(IS_PWR_STOP_ENTRY(PWR_STOPEntry));
 398:/home/user/Desktop/STM32-Projekte/FH-Vertibot/src/STM32F30x_StdPeriph_Driver/src/stm32f30x_pwr.c ****   
 399:/home/user/Desktop/STM32-Projekte/FH-Vertibot/src/STM32F30x_StdPeriph_Driver/src/stm32f30x_pwr.c ****   /* Select the regulator state in STOP mode ---------------------------------*/
 400:/home/user/Desktop/STM32-Projekte/FH-Vertibot/src/STM32F30x_StdPeriph_Driver/src/stm32f30x_pwr.c ****   tmpreg = PWR->CR;
 236              		.loc 1 400 0
 237 0078 0A4B     		ldr	r3, .L26
 238 007a 1A68     		ldr	r2, [r3]
 239              	.LVL14:
 401:/home/user/Desktop/STM32-Projekte/FH-Vertibot/src/STM32F30x_StdPeriph_Driver/src/stm32f30x_pwr.c ****   /* Clear PDDS and LPDSR bits */
 402:/home/user/Desktop/STM32-Projekte/FH-Vertibot/src/STM32F30x_StdPeriph_Driver/src/stm32f30x_pwr.c ****   tmpreg &= CR_DS_MASK;
 240              		.loc 1 402 0
 241 007c 22F00302 		bic	r2, r2, #3
 242              	.LVL15:
 403:/home/user/Desktop/STM32-Projekte/FH-Vertibot/src/STM32F30x_StdPeriph_Driver/src/stm32f30x_pwr.c ****   
 404:/home/user/Desktop/STM32-Projekte/FH-Vertibot/src/STM32F30x_StdPeriph_Driver/src/stm32f30x_pwr.c ****   /* Set LPDSR bit according to PWR_Regulator value */
 405:/home/user/Desktop/STM32-Projekte/FH-Vertibot/src/STM32F30x_StdPeriph_Driver/src/stm32f30x_pwr.c ****   tmpreg |= PWR_Regulator;
 243              		.loc 1 405 0
 244 0080 1043     		orrs	r0, r0, r2
 245              	.LVL16:
 406:/home/user/Desktop/STM32-Projekte/FH-Vertibot/src/STM32F30x_StdPeriph_Driver/src/stm32f30x_pwr.c ****   
 407:/home/user/Desktop/STM32-Projekte/FH-Vertibot/src/STM32F30x_StdPeriph_Driver/src/stm32f30x_pwr.c ****   /* Store the new value */
 408:/home/user/Desktop/STM32-Projekte/FH-Vertibot/src/STM32F30x_StdPeriph_Driver/src/stm32f30x_pwr.c ****   PWR->CR = tmpreg;
 246              		.loc 1 408 0
 247 0082 1860     		str	r0, [r3]
 409:/home/user/Desktop/STM32-Projekte/FH-Vertibot/src/STM32F30x_StdPeriph_Driver/src/stm32f30x_pwr.c ****   
 410:/home/user/Desktop/STM32-Projekte/FH-Vertibot/src/STM32F30x_StdPeriph_Driver/src/stm32f30x_pwr.c ****   /* Set SLEEPDEEP bit of Cortex System Control Register */
 411:/home/user/Desktop/STM32-Projekte/FH-Vertibot/src/STM32F30x_StdPeriph_Driver/src/stm32f30x_pwr.c ****   SCB->SCR |= SCB_SCR_SLEEPDEEP_Msk;
 248              		.loc 1 411 0
 249 0084 084B     		ldr	r3, .L26+4
 250 0086 1A69     		ldr	r2, [r3, #16]
 412:/home/user/Desktop/STM32-Projekte/FH-Vertibot/src/STM32F30x_StdPeriph_Driver/src/stm32f30x_pwr.c ****   
 413:/home/user/Desktop/STM32-Projekte/FH-Vertibot/src/STM32F30x_StdPeriph_Driver/src/stm32f30x_pwr.c ****   /* Select STOP mode entry --------------------------------------------------*/
 414:/home/user/Desktop/STM32-Projekte/FH-Vertibot/src/STM32F30x_StdPeriph_Driver/src/stm32f30x_pwr.c ****   if(PWR_STOPEntry == PWR_STOPEntry_WFI)
 251              		.loc 1 414 0
 252 0088 0129     		cmp	r1, #1
 411:/home/user/Desktop/STM32-Projekte/FH-Vertibot/src/STM32F30x_StdPeriph_Driver/src/stm32f30x_pwr.c ****   SCB->SCR |= SCB_SCR_SLEEPDEEP_Msk;
 253              		.loc 1 411 0
 254 008a 42F00402 		orr	r2, r2, #4
 255 008e 1A61     		str	r2, [r3, #16]
 256              		.loc 1 414 0
 257 0090 01D1     		bne	.L24
 258              	.LBB16:
 259              	.LBB17:
 299:/home/user/Desktop/STM32-Projekte/FH-Vertibot/src/CMSIS/Include/core_cmInstr.h ****   __ASM volatile ("wfi");
 260              		.loc 2 299 0
 261              	@ 299 "/home/user/Desktop/STM32-Projekte/FH-Vertibot/src/CMSIS/Include/core_cmInstr.h" 1
 262 0092 30BF     		wfi
 263              	@ 0 "" 2
 264              		.thumb
 265 0094 00E0     		b	.L25
 266              	.L24:
 267              	.LBE17:
 268              	.LBE16:
 269              	.LBB18:
 270              	.LBB19:
 271              		.loc 2 310 0
 272              	@ 310 "/home/user/Desktop/STM32-Projekte/FH-Vertibot/src/CMSIS/Include/core_cmInstr.h" 1
 273 0096 20BF     		wfe
 274              	@ 0 "" 2
 275              		.thumb
 276              	.L25:
 277              	.LBE19:
 278              	.LBE18:
 415:/home/user/Desktop/STM32-Projekte/FH-Vertibot/src/STM32F30x_StdPeriph_Driver/src/stm32f30x_pwr.c ****   {   
 416:/home/user/Desktop/STM32-Projekte/FH-Vertibot/src/STM32F30x_StdPeriph_Driver/src/stm32f30x_pwr.c ****     /* Request Wait For Interrupt */
 417:/home/user/Desktop/STM32-Projekte/FH-Vertibot/src/STM32F30x_StdPeriph_Driver/src/stm32f30x_pwr.c ****     __WFI();
 418:/home/user/Desktop/STM32-Projekte/FH-Vertibot/src/STM32F30x_StdPeriph_Driver/src/stm32f30x_pwr.c ****   }
 419:/home/user/Desktop/STM32-Projekte/FH-Vertibot/src/STM32F30x_StdPeriph_Driver/src/stm32f30x_pwr.c ****   else
 420:/home/user/Desktop/STM32-Projekte/FH-Vertibot/src/STM32F30x_StdPeriph_Driver/src/stm32f30x_pwr.c ****   {
 421:/home/user/Desktop/STM32-Projekte/FH-Vertibot/src/STM32F30x_StdPeriph_Driver/src/stm32f30x_pwr.c ****     /* Request Wait For Event */
 422:/home/user/Desktop/STM32-Projekte/FH-Vertibot/src/STM32F30x_StdPeriph_Driver/src/stm32f30x_pwr.c ****     __WFE();
 423:/home/user/Desktop/STM32-Projekte/FH-Vertibot/src/STM32F30x_StdPeriph_Driver/src/stm32f30x_pwr.c ****   }
 424:/home/user/Desktop/STM32-Projekte/FH-Vertibot/src/STM32F30x_StdPeriph_Driver/src/stm32f30x_pwr.c ****   /* Reset SLEEPDEEP bit of Cortex System Control Register */
 425:/home/user/Desktop/STM32-Projekte/FH-Vertibot/src/STM32F30x_StdPeriph_Driver/src/stm32f30x_pwr.c ****   SCB->SCR &= (uint32_t)~((uint32_t)SCB_SCR_SLEEPDEEP_Msk);  
 279              		.loc 1 425 0
 280 0098 1A69     		ldr	r2, [r3, #16]
 281 009a 22F00402 		bic	r2, r2, #4
 282 009e 1A61     		str	r2, [r3, #16]
 283 00a0 7047     		bx	lr
 284              	.L27:
 285 00a2 00BF     		.align	2
 286              	.L26:
 287 00a4 00700040 		.word	1073770496
 288 00a8 00ED00E0 		.word	-536810240
 289              		.cfi_endproc
 290              	.LFE117:
 292              		.align	1
 293              		.global	PWR_EnterSTANDBYMode
 294              		.thumb
 295              		.thumb_func
 297              	PWR_EnterSTANDBYMode:
 298              	.LFB118:
 426:/home/user/Desktop/STM32-Projekte/FH-Vertibot/src/STM32F30x_StdPeriph_Driver/src/stm32f30x_pwr.c **** }
 427:/home/user/Desktop/STM32-Projekte/FH-Vertibot/src/STM32F30x_StdPeriph_Driver/src/stm32f30x_pwr.c **** 
 428:/home/user/Desktop/STM32-Projekte/FH-Vertibot/src/STM32F30x_StdPeriph_Driver/src/stm32f30x_pwr.c **** /**
 429:/home/user/Desktop/STM32-Projekte/FH-Vertibot/src/STM32F30x_StdPeriph_Driver/src/stm32f30x_pwr.c ****   * @brief  Enters STANDBY mode.
 430:/home/user/Desktop/STM32-Projekte/FH-Vertibot/src/STM32F30x_StdPeriph_Driver/src/stm32f30x_pwr.c ****   * @note   In Standby mode, all I/O pins are high impedance except for:
 431:/home/user/Desktop/STM32-Projekte/FH-Vertibot/src/STM32F30x_StdPeriph_Driver/src/stm32f30x_pwr.c ****   * @note     Reset pad (still available) 
 432:/home/user/Desktop/STM32-Projekte/FH-Vertibot/src/STM32F30x_StdPeriph_Driver/src/stm32f30x_pwr.c ****   * @note     RTC_AF1 pin (PC13) if configured for Wakeup pin 2 (WKUP2), tamper, 
 433:/home/user/Desktop/STM32-Projekte/FH-Vertibot/src/STM32F30x_StdPeriph_Driver/src/stm32f30x_pwr.c ****   *           time-stamp, RTC Alarm out, or RTC clock calibration out.
 434:/home/user/Desktop/STM32-Projekte/FH-Vertibot/src/STM32F30x_StdPeriph_Driver/src/stm32f30x_pwr.c ****   * @note     WKUP pin 1 (PA0) and WKUP pin 3 (PE6), if enabled.       
 435:/home/user/Desktop/STM32-Projekte/FH-Vertibot/src/STM32F30x_StdPeriph_Driver/src/stm32f30x_pwr.c ****   * @param  None
 436:/home/user/Desktop/STM32-Projekte/FH-Vertibot/src/STM32F30x_StdPeriph_Driver/src/stm32f30x_pwr.c ****   * @retval None
 437:/home/user/Desktop/STM32-Projekte/FH-Vertibot/src/STM32F30x_StdPeriph_Driver/src/stm32f30x_pwr.c ****   */
 438:/home/user/Desktop/STM32-Projekte/FH-Vertibot/src/STM32F30x_StdPeriph_Driver/src/stm32f30x_pwr.c **** void PWR_EnterSTANDBYMode(void)
 439:/home/user/Desktop/STM32-Projekte/FH-Vertibot/src/STM32F30x_StdPeriph_Driver/src/stm32f30x_pwr.c **** {
 299              		.loc 1 439 0
 300              		.cfi_startproc
 301              		@ args = 0, pretend = 0, frame = 0
 302              		@ frame_needed = 0, uses_anonymous_args = 0
 303              		@ link register save eliminated.
 440:/home/user/Desktop/STM32-Projekte/FH-Vertibot/src/STM32F30x_StdPeriph_Driver/src/stm32f30x_pwr.c ****   /* Clear Wakeup flag */
 441:/home/user/Desktop/STM32-Projekte/FH-Vertibot/src/STM32F30x_StdPeriph_Driver/src/stm32f30x_pwr.c ****   PWR->CR |= PWR_CR_CWUF;
 304              		.loc 1 441 0
 305 00ac 074B     		ldr	r3, .L29
 306 00ae 1A68     		ldr	r2, [r3]
 307 00b0 42F00402 		orr	r2, r2, #4
 308 00b4 1A60     		str	r2, [r3]
 442:/home/user/Desktop/STM32-Projekte/FH-Vertibot/src/STM32F30x_StdPeriph_Driver/src/stm32f30x_pwr.c ****   
 443:/home/user/Desktop/STM32-Projekte/FH-Vertibot/src/STM32F30x_StdPeriph_Driver/src/stm32f30x_pwr.c ****   /* Select STANDBY mode */
 444:/home/user/Desktop/STM32-Projekte/FH-Vertibot/src/STM32F30x_StdPeriph_Driver/src/stm32f30x_pwr.c ****   PWR->CR |= PWR_CR_PDDS;
 309              		.loc 1 444 0
 310 00b6 1A68     		ldr	r2, [r3]
 311 00b8 42F00202 		orr	r2, r2, #2
 312 00bc 1A60     		str	r2, [r3]
 445:/home/user/Desktop/STM32-Projekte/FH-Vertibot/src/STM32F30x_StdPeriph_Driver/src/stm32f30x_pwr.c ****   
 446:/home/user/Desktop/STM32-Projekte/FH-Vertibot/src/STM32F30x_StdPeriph_Driver/src/stm32f30x_pwr.c ****   /* Set SLEEPDEEP bit of Cortex System Control Register */
 447:/home/user/Desktop/STM32-Projekte/FH-Vertibot/src/STM32F30x_StdPeriph_Driver/src/stm32f30x_pwr.c ****   SCB->SCR |= SCB_SCR_SLEEPDEEP_Msk;
 313              		.loc 1 447 0
 314 00be 044B     		ldr	r3, .L29+4
 315 00c0 1A69     		ldr	r2, [r3, #16]
 316 00c2 42F00402 		orr	r2, r2, #4
 317 00c6 1A61     		str	r2, [r3, #16]
 318              	.LBB20:
 319              	.LBB21:
 299:/home/user/Desktop/STM32-Projekte/FH-Vertibot/src/CMSIS/Include/core_cmInstr.h ****   __ASM volatile ("wfi");
 320              		.loc 2 299 0
 321              	@ 299 "/home/user/Desktop/STM32-Projekte/FH-Vertibot/src/CMSIS/Include/core_cmInstr.h" 1
 322 00c8 30BF     		wfi
 323              	@ 0 "" 2
 324              		.thumb
 325 00ca 7047     		bx	lr
 326              	.L30:
 327              		.align	2
 328              	.L29:
 329 00cc 00700040 		.word	1073770496
 330 00d0 00ED00E0 		.word	-536810240
 331              	.LBE21:
 332              	.LBE20:
 333              		.cfi_endproc
 334              	.LFE118:
 336              		.align	1
 337              		.global	PWR_GetFlagStatus
 338              		.thumb
 339              		.thumb_func
 341              	PWR_GetFlagStatus:
 342              	.LFB119:
 448:/home/user/Desktop/STM32-Projekte/FH-Vertibot/src/STM32F30x_StdPeriph_Driver/src/stm32f30x_pwr.c ****   
 449:/home/user/Desktop/STM32-Projekte/FH-Vertibot/src/STM32F30x_StdPeriph_Driver/src/stm32f30x_pwr.c **** /* This option is used to ensure that store operations are completed */
 450:/home/user/Desktop/STM32-Projekte/FH-Vertibot/src/STM32F30x_StdPeriph_Driver/src/stm32f30x_pwr.c **** #if defined ( __CC_ARM   )
 451:/home/user/Desktop/STM32-Projekte/FH-Vertibot/src/STM32F30x_StdPeriph_Driver/src/stm32f30x_pwr.c ****   __force_stores();
 452:/home/user/Desktop/STM32-Projekte/FH-Vertibot/src/STM32F30x_StdPeriph_Driver/src/stm32f30x_pwr.c **** #endif
 453:/home/user/Desktop/STM32-Projekte/FH-Vertibot/src/STM32F30x_StdPeriph_Driver/src/stm32f30x_pwr.c ****   /* Request Wait For Interrupt */
 454:/home/user/Desktop/STM32-Projekte/FH-Vertibot/src/STM32F30x_StdPeriph_Driver/src/stm32f30x_pwr.c ****   __WFI();
 455:/home/user/Desktop/STM32-Projekte/FH-Vertibot/src/STM32F30x_StdPeriph_Driver/src/stm32f30x_pwr.c **** }
 456:/home/user/Desktop/STM32-Projekte/FH-Vertibot/src/STM32F30x_StdPeriph_Driver/src/stm32f30x_pwr.c **** 
 457:/home/user/Desktop/STM32-Projekte/FH-Vertibot/src/STM32F30x_StdPeriph_Driver/src/stm32f30x_pwr.c **** /**
 458:/home/user/Desktop/STM32-Projekte/FH-Vertibot/src/STM32F30x_StdPeriph_Driver/src/stm32f30x_pwr.c ****   * @}
 459:/home/user/Desktop/STM32-Projekte/FH-Vertibot/src/STM32F30x_StdPeriph_Driver/src/stm32f30x_pwr.c ****   */
 460:/home/user/Desktop/STM32-Projekte/FH-Vertibot/src/STM32F30x_StdPeriph_Driver/src/stm32f30x_pwr.c **** 
 461:/home/user/Desktop/STM32-Projekte/FH-Vertibot/src/STM32F30x_StdPeriph_Driver/src/stm32f30x_pwr.c **** /** @defgroup PWR_Group5 Flags management functions
 462:/home/user/Desktop/STM32-Projekte/FH-Vertibot/src/STM32F30x_StdPeriph_Driver/src/stm32f30x_pwr.c ****  *  @brief   Flags management functions 
 463:/home/user/Desktop/STM32-Projekte/FH-Vertibot/src/STM32F30x_StdPeriph_Driver/src/stm32f30x_pwr.c ****  *
 464:/home/user/Desktop/STM32-Projekte/FH-Vertibot/src/STM32F30x_StdPeriph_Driver/src/stm32f30x_pwr.c **** @verbatim   
 465:/home/user/Desktop/STM32-Projekte/FH-Vertibot/src/STM32F30x_StdPeriph_Driver/src/stm32f30x_pwr.c ****  ===============================================================================
 466:/home/user/Desktop/STM32-Projekte/FH-Vertibot/src/STM32F30x_StdPeriph_Driver/src/stm32f30x_pwr.c ****                     ##### Flags management functions #####
 467:/home/user/Desktop/STM32-Projekte/FH-Vertibot/src/STM32F30x_StdPeriph_Driver/src/stm32f30x_pwr.c ****  ===============================================================================  
 468:/home/user/Desktop/STM32-Projekte/FH-Vertibot/src/STM32F30x_StdPeriph_Driver/src/stm32f30x_pwr.c **** 
 469:/home/user/Desktop/STM32-Projekte/FH-Vertibot/src/STM32F30x_StdPeriph_Driver/src/stm32f30x_pwr.c **** @endverbatim
 470:/home/user/Desktop/STM32-Projekte/FH-Vertibot/src/STM32F30x_StdPeriph_Driver/src/stm32f30x_pwr.c ****   * @{
 471:/home/user/Desktop/STM32-Projekte/FH-Vertibot/src/STM32F30x_StdPeriph_Driver/src/stm32f30x_pwr.c ****   */
 472:/home/user/Desktop/STM32-Projekte/FH-Vertibot/src/STM32F30x_StdPeriph_Driver/src/stm32f30x_pwr.c **** 
 473:/home/user/Desktop/STM32-Projekte/FH-Vertibot/src/STM32F30x_StdPeriph_Driver/src/stm32f30x_pwr.c **** /**
 474:/home/user/Desktop/STM32-Projekte/FH-Vertibot/src/STM32F30x_StdPeriph_Driver/src/stm32f30x_pwr.c ****   * @brief  Checks whether the specified PWR flag is set or not.
 475:/home/user/Desktop/STM32-Projekte/FH-Vertibot/src/STM32F30x_StdPeriph_Driver/src/stm32f30x_pwr.c ****   * @param  PWR_FLAG: specifies the flag to check.
 476:/home/user/Desktop/STM32-Projekte/FH-Vertibot/src/STM32F30x_StdPeriph_Driver/src/stm32f30x_pwr.c ****   *   This parameter can be one of the following values:
 477:/home/user/Desktop/STM32-Projekte/FH-Vertibot/src/STM32F30x_StdPeriph_Driver/src/stm32f30x_pwr.c ****   *     @arg PWR_FLAG_WU: Wake Up flag. This flag indicates that a wakeup event 
 478:/home/user/Desktop/STM32-Projekte/FH-Vertibot/src/STM32F30x_StdPeriph_Driver/src/stm32f30x_pwr.c ****   *       was received from the WKUP pin or from the RTC alarm (Alarm A or Alarm B), 
 479:/home/user/Desktop/STM32-Projekte/FH-Vertibot/src/STM32F30x_StdPeriph_Driver/src/stm32f30x_pwr.c ****   *       RTC Tamper event, RTC TimeStamp event or RTC Wakeup.
 480:/home/user/Desktop/STM32-Projekte/FH-Vertibot/src/STM32F30x_StdPeriph_Driver/src/stm32f30x_pwr.c ****   *     @arg PWR_FLAG_SB: StandBy flag. This flag indicates that the system was
 481:/home/user/Desktop/STM32-Projekte/FH-Vertibot/src/STM32F30x_StdPeriph_Driver/src/stm32f30x_pwr.c ****   *                       resumed from StandBy mode.    
 482:/home/user/Desktop/STM32-Projekte/FH-Vertibot/src/STM32F30x_StdPeriph_Driver/src/stm32f30x_pwr.c ****   *     @arg PWR_FLAG_PVDO: PVD Output. This flag is valid only if PVD is enabled 
 483:/home/user/Desktop/STM32-Projekte/FH-Vertibot/src/STM32F30x_StdPeriph_Driver/src/stm32f30x_pwr.c ****   *       by the PWR_PVDCmd() function.
 484:/home/user/Desktop/STM32-Projekte/FH-Vertibot/src/STM32F30x_StdPeriph_Driver/src/stm32f30x_pwr.c ****   *     @arg PWR_FLAG_VREFINTRDY: Internal Voltage Reference Ready flag. This 
 485:/home/user/Desktop/STM32-Projekte/FH-Vertibot/src/STM32F30x_StdPeriph_Driver/src/stm32f30x_pwr.c ****   *       flag indicates the state of the internal voltage reference, VREFINT.
 486:/home/user/Desktop/STM32-Projekte/FH-Vertibot/src/STM32F30x_StdPeriph_Driver/src/stm32f30x_pwr.c ****   * @retval The new state of PWR_FLAG (SET or RESET).
 487:/home/user/Desktop/STM32-Projekte/FH-Vertibot/src/STM32F30x_StdPeriph_Driver/src/stm32f30x_pwr.c ****   */
 488:/home/user/Desktop/STM32-Projekte/FH-Vertibot/src/STM32F30x_StdPeriph_Driver/src/stm32f30x_pwr.c **** FlagStatus PWR_GetFlagStatus(uint32_t PWR_FLAG)
 489:/home/user/Desktop/STM32-Projekte/FH-Vertibot/src/STM32F30x_StdPeriph_Driver/src/stm32f30x_pwr.c **** {
 343              		.loc 1 489 0
 344              		.cfi_startproc
 345              		@ args = 0, pretend = 0, frame = 0
 346              		@ frame_needed = 0, uses_anonymous_args = 0
 347              		@ link register save eliminated.
 348              	.LVL17:
 490:/home/user/Desktop/STM32-Projekte/FH-Vertibot/src/STM32F30x_StdPeriph_Driver/src/stm32f30x_pwr.c ****   FlagStatus bitstatus = RESET;
 491:/home/user/Desktop/STM32-Projekte/FH-Vertibot/src/STM32F30x_StdPeriph_Driver/src/stm32f30x_pwr.c ****   /* Check the parameters */
 492:/home/user/Desktop/STM32-Projekte/FH-Vertibot/src/STM32F30x_StdPeriph_Driver/src/stm32f30x_pwr.c ****   assert_param(IS_PWR_GET_FLAG(PWR_FLAG));
 493:/home/user/Desktop/STM32-Projekte/FH-Vertibot/src/STM32F30x_StdPeriph_Driver/src/stm32f30x_pwr.c ****   
 494:/home/user/Desktop/STM32-Projekte/FH-Vertibot/src/STM32F30x_StdPeriph_Driver/src/stm32f30x_pwr.c ****   if ((PWR->CSR & PWR_FLAG) != (uint32_t)RESET)
 349              		.loc 1 494 0
 350 00d4 034B     		ldr	r3, .L32
 351 00d6 5B68     		ldr	r3, [r3, #4]
 352              	.LVL18:
 353 00d8 1842     		tst	r0, r3
 495:/home/user/Desktop/STM32-Projekte/FH-Vertibot/src/STM32F30x_StdPeriph_Driver/src/stm32f30x_pwr.c ****   {
 496:/home/user/Desktop/STM32-Projekte/FH-Vertibot/src/STM32F30x_StdPeriph_Driver/src/stm32f30x_pwr.c ****     bitstatus = SET;
 497:/home/user/Desktop/STM32-Projekte/FH-Vertibot/src/STM32F30x_StdPeriph_Driver/src/stm32f30x_pwr.c ****   }
 498:/home/user/Desktop/STM32-Projekte/FH-Vertibot/src/STM32F30x_StdPeriph_Driver/src/stm32f30x_pwr.c ****   else
 499:/home/user/Desktop/STM32-Projekte/FH-Vertibot/src/STM32F30x_StdPeriph_Driver/src/stm32f30x_pwr.c ****   {
 500:/home/user/Desktop/STM32-Projekte/FH-Vertibot/src/STM32F30x_StdPeriph_Driver/src/stm32f30x_pwr.c ****     bitstatus = RESET;
 501:/home/user/Desktop/STM32-Projekte/FH-Vertibot/src/STM32F30x_StdPeriph_Driver/src/stm32f30x_pwr.c ****   }
 502:/home/user/Desktop/STM32-Projekte/FH-Vertibot/src/STM32F30x_StdPeriph_Driver/src/stm32f30x_pwr.c ****   /* Return the flag status */
 503:/home/user/Desktop/STM32-Projekte/FH-Vertibot/src/STM32F30x_StdPeriph_Driver/src/stm32f30x_pwr.c ****   return bitstatus;
 504:/home/user/Desktop/STM32-Projekte/FH-Vertibot/src/STM32F30x_StdPeriph_Driver/src/stm32f30x_pwr.c **** }
 354              		.loc 1 504 0
 355 00da 0CBF     		ite	eq
 356 00dc 0020     		moveq	r0, #0
 357 00de 0120     		movne	r0, #1
 358              	.LVL19:
 359 00e0 7047     		bx	lr
 360              	.L33:
 361 00e2 00BF     		.align	2
 362              	.L32:
 363 00e4 00700040 		.word	1073770496
 364              		.cfi_endproc
 365              	.LFE119:
 367              		.align	1
 368              		.global	PWR_ClearFlag
 369              		.thumb
 370              		.thumb_func
 372              	PWR_ClearFlag:
 373              	.LFB120:
 505:/home/user/Desktop/STM32-Projekte/FH-Vertibot/src/STM32F30x_StdPeriph_Driver/src/stm32f30x_pwr.c **** 
 506:/home/user/Desktop/STM32-Projekte/FH-Vertibot/src/STM32F30x_StdPeriph_Driver/src/stm32f30x_pwr.c **** /**
 507:/home/user/Desktop/STM32-Projekte/FH-Vertibot/src/STM32F30x_StdPeriph_Driver/src/stm32f30x_pwr.c ****   * @brief  Clears the PWR's pending flags.
 508:/home/user/Desktop/STM32-Projekte/FH-Vertibot/src/STM32F30x_StdPeriph_Driver/src/stm32f30x_pwr.c ****   * @param  PWR_FLAG: specifies the flag to clear.
 509:/home/user/Desktop/STM32-Projekte/FH-Vertibot/src/STM32F30x_StdPeriph_Driver/src/stm32f30x_pwr.c ****   *   This parameter can be one of the following values:
 510:/home/user/Desktop/STM32-Projekte/FH-Vertibot/src/STM32F30x_StdPeriph_Driver/src/stm32f30x_pwr.c ****   *     @arg PWR_FLAG_WU: Wake Up flag
 511:/home/user/Desktop/STM32-Projekte/FH-Vertibot/src/STM32F30x_StdPeriph_Driver/src/stm32f30x_pwr.c ****   *     @arg PWR_FLAG_SB: StandBy flag
 512:/home/user/Desktop/STM32-Projekte/FH-Vertibot/src/STM32F30x_StdPeriph_Driver/src/stm32f30x_pwr.c ****   * @retval None
 513:/home/user/Desktop/STM32-Projekte/FH-Vertibot/src/STM32F30x_StdPeriph_Driver/src/stm32f30x_pwr.c ****   */
 514:/home/user/Desktop/STM32-Projekte/FH-Vertibot/src/STM32F30x_StdPeriph_Driver/src/stm32f30x_pwr.c **** void PWR_ClearFlag(uint32_t PWR_FLAG)
 515:/home/user/Desktop/STM32-Projekte/FH-Vertibot/src/STM32F30x_StdPeriph_Driver/src/stm32f30x_pwr.c **** {
 374              		.loc 1 515 0
 375              		.cfi_startproc
 376              		@ args = 0, pretend = 0, frame = 0
 377              		@ frame_needed = 0, uses_anonymous_args = 0
 378              		@ link register save eliminated.
 379              	.LVL20:
 516:/home/user/Desktop/STM32-Projekte/FH-Vertibot/src/STM32F30x_StdPeriph_Driver/src/stm32f30x_pwr.c ****   /* Check the parameters */
 517:/home/user/Desktop/STM32-Projekte/FH-Vertibot/src/STM32F30x_StdPeriph_Driver/src/stm32f30x_pwr.c ****   assert_param(IS_PWR_CLEAR_FLAG(PWR_FLAG));
 518:/home/user/Desktop/STM32-Projekte/FH-Vertibot/src/STM32F30x_StdPeriph_Driver/src/stm32f30x_pwr.c ****          
 519:/home/user/Desktop/STM32-Projekte/FH-Vertibot/src/STM32F30x_StdPeriph_Driver/src/stm32f30x_pwr.c ****   PWR->CR |=  PWR_FLAG << 2;
 380              		.loc 1 519 0
 381 00e8 024B     		ldr	r3, .L35
 382 00ea 1A68     		ldr	r2, [r3]
 383 00ec 42EA8000 		orr	r0, r2, r0, lsl #2
 384              	.LVL21:
 385 00f0 1860     		str	r0, [r3]
 386 00f2 7047     		bx	lr
 387              	.L36:
 388              		.align	2
 389              	.L35:
 390 00f4 00700040 		.word	1073770496
 391              		.cfi_endproc
 392              	.LFE120:
 394              	.Letext0:
 395              		.file 3 "/home/user/gcc-arm-none-eabi-4_8-2013q4/arm-none-eabi/include/stdint.h"
 396              		.file 4 "/home/user/Desktop/STM32-Projekte/FH-Vertibot/src/CMSIS/Include/core_cm4.h"
 397              		.file 5 "/home/user/Desktop/STM32-Projekte/FH-Vertibot/src/CMSIS/Device/ST/STM32F30x/Include/stm32
 398              		.file 6 "/home/user/Desktop/STM32-Projekte/FH-Vertibot/src/STM32F30x_StdPeriph_Driver/inc/stm32f30