   1              		.syntax unified
   2              		.cpu cortex-m4
   3              		.eabi_attribute 27, 3
   4              		.eabi_attribute 28, 1
   5              		.fpu fpv4-sp-d16
   6              		.eabi_attribute 20, 1
   7              		.eabi_attribute 21, 1
   8              		.eabi_attribute 23, 3
   9              		.eabi_attribute 24, 1
  10              		.eabi_attribute 25, 1
  11              		.eabi_attribute 26, 1
  12              		.eabi_attribute 30, 4
  13              		.eabi_attribute 34, 1
  14              		.eabi_attribute 18, 4
  15              		.thumb
  16              		.file	"stm32f30x_syscfg.c"
  17              		.text
  18              	.Ltext0:
  19              		.cfi_sections	.debug_frame
  20              		.align	1
  21              		.global	SYSCFG_DeInit
  22              		.thumb
  23              		.thumb_func
  25              	SYSCFG_DeInit:
  26              	.LFB111:
  27              		.file 1 "/home/user/Desktop/STM32-Projekte/FH-Vertibot/src/STM32F30x_StdPeriph_Driver/src/stm32f30
   1:/home/user/Desktop/STM32-Projekte/FH-Vertibot/src/STM32F30x_StdPeriph_Driver/src/stm32f30x_syscfg.c **** /**
   2:/home/user/Desktop/STM32-Projekte/FH-Vertibot/src/STM32F30x_StdPeriph_Driver/src/stm32f30x_syscfg.c ****   ******************************************************************************
   3:/home/user/Desktop/STM32-Projekte/FH-Vertibot/src/STM32F30x_StdPeriph_Driver/src/stm32f30x_syscfg.c ****   * @file    stm32f30x_syscfg.c
   4:/home/user/Desktop/STM32-Projekte/FH-Vertibot/src/STM32F30x_StdPeriph_Driver/src/stm32f30x_syscfg.c ****   * @author  MCD Application Team
   5:/home/user/Desktop/STM32-Projekte/FH-Vertibot/src/STM32F30x_StdPeriph_Driver/src/stm32f30x_syscfg.c ****   * @version V1.0.1
   6:/home/user/Desktop/STM32-Projekte/FH-Vertibot/src/STM32F30x_StdPeriph_Driver/src/stm32f30x_syscfg.c ****   * @date    23-October-2012
   7:/home/user/Desktop/STM32-Projekte/FH-Vertibot/src/STM32F30x_StdPeriph_Driver/src/stm32f30x_syscfg.c ****   * @brief   This file provides firmware functions to manage the following 
   8:/home/user/Desktop/STM32-Projekte/FH-Vertibot/src/STM32F30x_StdPeriph_Driver/src/stm32f30x_syscfg.c ****   *          functionalities of the SYSCFG peripheral:
   9:/home/user/Desktop/STM32-Projekte/FH-Vertibot/src/STM32F30x_StdPeriph_Driver/src/stm32f30x_syscfg.c ****   *           + Remapping the memory mapped at 0x00000000  
  10:/home/user/Desktop/STM32-Projekte/FH-Vertibot/src/STM32F30x_StdPeriph_Driver/src/stm32f30x_syscfg.c ****   *           + Remapping the DMA channels
  11:/home/user/Desktop/STM32-Projekte/FH-Vertibot/src/STM32F30x_StdPeriph_Driver/src/stm32f30x_syscfg.c ****   *           + Enabling I2C fast mode plus driving capability for I2C plus
  12:/home/user/Desktop/STM32-Projekte/FH-Vertibot/src/STM32F30x_StdPeriph_Driver/src/stm32f30x_syscfg.c ****   *           + Remapping USB interrupt line    
  13:/home/user/Desktop/STM32-Projekte/FH-Vertibot/src/STM32F30x_StdPeriph_Driver/src/stm32f30x_syscfg.c ****   *           + Configuring the EXTI lines connection to the GPIO port
  14:/home/user/Desktop/STM32-Projekte/FH-Vertibot/src/STM32F30x_StdPeriph_Driver/src/stm32f30x_syscfg.c ****   *           + Configuring the CLASSB requirements
  15:/home/user/Desktop/STM32-Projekte/FH-Vertibot/src/STM32F30x_StdPeriph_Driver/src/stm32f30x_syscfg.c ****   *   
  16:/home/user/Desktop/STM32-Projekte/FH-Vertibot/src/STM32F30x_StdPeriph_Driver/src/stm32f30x_syscfg.c ****   @verbatim
  17:/home/user/Desktop/STM32-Projekte/FH-Vertibot/src/STM32F30x_StdPeriph_Driver/src/stm32f30x_syscfg.c ****   
  18:/home/user/Desktop/STM32-Projekte/FH-Vertibot/src/STM32F30x_StdPeriph_Driver/src/stm32f30x_syscfg.c ****  ===============================================================================
  19:/home/user/Desktop/STM32-Projekte/FH-Vertibot/src/STM32F30x_StdPeriph_Driver/src/stm32f30x_syscfg.c ****                       ##### How to use this driver #####
  20:/home/user/Desktop/STM32-Projekte/FH-Vertibot/src/STM32F30x_StdPeriph_Driver/src/stm32f30x_syscfg.c ****  ===============================================================================
  21:/home/user/Desktop/STM32-Projekte/FH-Vertibot/src/STM32F30x_StdPeriph_Driver/src/stm32f30x_syscfg.c ****     [..] The SYSCFG registers can be accessed only when the SYSCFG 
  22:/home/user/Desktop/STM32-Projekte/FH-Vertibot/src/STM32F30x_StdPeriph_Driver/src/stm32f30x_syscfg.c ****          interface APB clock is enabled.
  23:/home/user/Desktop/STM32-Projekte/FH-Vertibot/src/STM32F30x_StdPeriph_Driver/src/stm32f30x_syscfg.c ****     [..] To enable SYSCFG APB clock use:
  24:/home/user/Desktop/STM32-Projekte/FH-Vertibot/src/STM32F30x_StdPeriph_Driver/src/stm32f30x_syscfg.c ****          RCC_APBPeriphClockCmd(RCC_APBPeriph_SYSCFG, ENABLE);
  25:/home/user/Desktop/STM32-Projekte/FH-Vertibot/src/STM32F30x_StdPeriph_Driver/src/stm32f30x_syscfg.c ****   
  26:/home/user/Desktop/STM32-Projekte/FH-Vertibot/src/STM32F30x_StdPeriph_Driver/src/stm32f30x_syscfg.c ****   @endverbatim
  27:/home/user/Desktop/STM32-Projekte/FH-Vertibot/src/STM32F30x_StdPeriph_Driver/src/stm32f30x_syscfg.c ****   
  28:/home/user/Desktop/STM32-Projekte/FH-Vertibot/src/STM32F30x_StdPeriph_Driver/src/stm32f30x_syscfg.c ****   ******************************************************************************
  29:/home/user/Desktop/STM32-Projekte/FH-Vertibot/src/STM32F30x_StdPeriph_Driver/src/stm32f30x_syscfg.c ****   * @attention
  30:/home/user/Desktop/STM32-Projekte/FH-Vertibot/src/STM32F30x_StdPeriph_Driver/src/stm32f30x_syscfg.c ****   *
  31:/home/user/Desktop/STM32-Projekte/FH-Vertibot/src/STM32F30x_StdPeriph_Driver/src/stm32f30x_syscfg.c ****   * <h2><center>&copy; COPYRIGHT 2012 STMicroelectronics</center></h2>
  32:/home/user/Desktop/STM32-Projekte/FH-Vertibot/src/STM32F30x_StdPeriph_Driver/src/stm32f30x_syscfg.c ****   *
  33:/home/user/Desktop/STM32-Projekte/FH-Vertibot/src/STM32F30x_StdPeriph_Driver/src/stm32f30x_syscfg.c ****   * Licensed under MCD-ST Liberty SW License Agreement V2, (the "License");
  34:/home/user/Desktop/STM32-Projekte/FH-Vertibot/src/STM32F30x_StdPeriph_Driver/src/stm32f30x_syscfg.c ****   * You may not use this file except in compliance with the License.
  35:/home/user/Desktop/STM32-Projekte/FH-Vertibot/src/STM32F30x_StdPeriph_Driver/src/stm32f30x_syscfg.c ****   * You may obtain a copy of the License at:
  36:/home/user/Desktop/STM32-Projekte/FH-Vertibot/src/STM32F30x_StdPeriph_Driver/src/stm32f30x_syscfg.c ****   *
  37:/home/user/Desktop/STM32-Projekte/FH-Vertibot/src/STM32F30x_StdPeriph_Driver/src/stm32f30x_syscfg.c ****   *        http://www.st.com/software_license_agreement_liberty_v2
  38:/home/user/Desktop/STM32-Projekte/FH-Vertibot/src/STM32F30x_StdPeriph_Driver/src/stm32f30x_syscfg.c ****   *
  39:/home/user/Desktop/STM32-Projekte/FH-Vertibot/src/STM32F30x_StdPeriph_Driver/src/stm32f30x_syscfg.c ****   * Unless required by applicable law or agreed to in writing, software 
  40:/home/user/Desktop/STM32-Projekte/FH-Vertibot/src/STM32F30x_StdPeriph_Driver/src/stm32f30x_syscfg.c ****   * distributed under the License is distributed on an "AS IS" BASIS, 
  41:/home/user/Desktop/STM32-Projekte/FH-Vertibot/src/STM32F30x_StdPeriph_Driver/src/stm32f30x_syscfg.c ****   * WITHOUT WARRANTIES OR CONDITIONS OF ANY KIND, either express or implied.
  42:/home/user/Desktop/STM32-Projekte/FH-Vertibot/src/STM32F30x_StdPeriph_Driver/src/stm32f30x_syscfg.c ****   * See the License for the specific language governing permissions and
  43:/home/user/Desktop/STM32-Projekte/FH-Vertibot/src/STM32F30x_StdPeriph_Driver/src/stm32f30x_syscfg.c ****   * limitations under the License.
  44:/home/user/Desktop/STM32-Projekte/FH-Vertibot/src/STM32F30x_StdPeriph_Driver/src/stm32f30x_syscfg.c ****   *
  45:/home/user/Desktop/STM32-Projekte/FH-Vertibot/src/STM32F30x_StdPeriph_Driver/src/stm32f30x_syscfg.c ****   ******************************************************************************
  46:/home/user/Desktop/STM32-Projekte/FH-Vertibot/src/STM32F30x_StdPeriph_Driver/src/stm32f30x_syscfg.c ****   */
  47:/home/user/Desktop/STM32-Projekte/FH-Vertibot/src/STM32F30x_StdPeriph_Driver/src/stm32f30x_syscfg.c **** 
  48:/home/user/Desktop/STM32-Projekte/FH-Vertibot/src/STM32F30x_StdPeriph_Driver/src/stm32f30x_syscfg.c **** /* Includes ------------------------------------------------------------------*/
  49:/home/user/Desktop/STM32-Projekte/FH-Vertibot/src/STM32F30x_StdPeriph_Driver/src/stm32f30x_syscfg.c **** #include "stm32f30x_syscfg.h"
  50:/home/user/Desktop/STM32-Projekte/FH-Vertibot/src/STM32F30x_StdPeriph_Driver/src/stm32f30x_syscfg.c **** 
  51:/home/user/Desktop/STM32-Projekte/FH-Vertibot/src/STM32F30x_StdPeriph_Driver/src/stm32f30x_syscfg.c **** /** @addtogroup STM32F30x_StdPeriph_Driver
  52:/home/user/Desktop/STM32-Projekte/FH-Vertibot/src/STM32F30x_StdPeriph_Driver/src/stm32f30x_syscfg.c ****   * @{
  53:/home/user/Desktop/STM32-Projekte/FH-Vertibot/src/STM32F30x_StdPeriph_Driver/src/stm32f30x_syscfg.c ****   */
  54:/home/user/Desktop/STM32-Projekte/FH-Vertibot/src/STM32F30x_StdPeriph_Driver/src/stm32f30x_syscfg.c **** 
  55:/home/user/Desktop/STM32-Projekte/FH-Vertibot/src/STM32F30x_StdPeriph_Driver/src/stm32f30x_syscfg.c **** /** @defgroup SYSCFG 
  56:/home/user/Desktop/STM32-Projekte/FH-Vertibot/src/STM32F30x_StdPeriph_Driver/src/stm32f30x_syscfg.c ****   * @brief SYSCFG driver modules
  57:/home/user/Desktop/STM32-Projekte/FH-Vertibot/src/STM32F30x_StdPeriph_Driver/src/stm32f30x_syscfg.c ****   * @{
  58:/home/user/Desktop/STM32-Projekte/FH-Vertibot/src/STM32F30x_StdPeriph_Driver/src/stm32f30x_syscfg.c ****   */ 
  59:/home/user/Desktop/STM32-Projekte/FH-Vertibot/src/STM32F30x_StdPeriph_Driver/src/stm32f30x_syscfg.c **** 
  60:/home/user/Desktop/STM32-Projekte/FH-Vertibot/src/STM32F30x_StdPeriph_Driver/src/stm32f30x_syscfg.c **** /* Private typedef -----------------------------------------------------------*/
  61:/home/user/Desktop/STM32-Projekte/FH-Vertibot/src/STM32F30x_StdPeriph_Driver/src/stm32f30x_syscfg.c **** /* Private define ------------------------------------------------------------*/
  62:/home/user/Desktop/STM32-Projekte/FH-Vertibot/src/STM32F30x_StdPeriph_Driver/src/stm32f30x_syscfg.c **** /* Reset value od SYSCFG_CFGR1 register */
  63:/home/user/Desktop/STM32-Projekte/FH-Vertibot/src/STM32F30x_StdPeriph_Driver/src/stm32f30x_syscfg.c **** #define CFGR1_CLEAR_MASK            ((uint32_t)0x7C000000)
  64:/home/user/Desktop/STM32-Projekte/FH-Vertibot/src/STM32F30x_StdPeriph_Driver/src/stm32f30x_syscfg.c **** 
  65:/home/user/Desktop/STM32-Projekte/FH-Vertibot/src/STM32F30x_StdPeriph_Driver/src/stm32f30x_syscfg.c **** /* ------------ SYSCFG registers bit address in the alias region -------------*/
  66:/home/user/Desktop/STM32-Projekte/FH-Vertibot/src/STM32F30x_StdPeriph_Driver/src/stm32f30x_syscfg.c **** #define SYSCFG_OFFSET                (SYSCFG_BASE - PERIPH_BASE)
  67:/home/user/Desktop/STM32-Projekte/FH-Vertibot/src/STM32F30x_StdPeriph_Driver/src/stm32f30x_syscfg.c **** 
  68:/home/user/Desktop/STM32-Projekte/FH-Vertibot/src/STM32F30x_StdPeriph_Driver/src/stm32f30x_syscfg.c **** /* --- CFGR1 Register ---*/
  69:/home/user/Desktop/STM32-Projekte/FH-Vertibot/src/STM32F30x_StdPeriph_Driver/src/stm32f30x_syscfg.c **** /* Alias word address of USB_IT_RMP bit */
  70:/home/user/Desktop/STM32-Projekte/FH-Vertibot/src/STM32F30x_StdPeriph_Driver/src/stm32f30x_syscfg.c **** #define CFGR1_OFFSET                 (SYSCFG_OFFSET + 0x00)
  71:/home/user/Desktop/STM32-Projekte/FH-Vertibot/src/STM32F30x_StdPeriph_Driver/src/stm32f30x_syscfg.c **** #define USBITRMP_BitNumber            0x05
  72:/home/user/Desktop/STM32-Projekte/FH-Vertibot/src/STM32F30x_StdPeriph_Driver/src/stm32f30x_syscfg.c **** #define CFGR1_USBITRMP_BB            (PERIPH_BB_BASE + (CFGR1_OFFSET * 32) + (USBITRMP_BitNumber * 
  73:/home/user/Desktop/STM32-Projekte/FH-Vertibot/src/STM32F30x_StdPeriph_Driver/src/stm32f30x_syscfg.c **** 
  74:/home/user/Desktop/STM32-Projekte/FH-Vertibot/src/STM32F30x_StdPeriph_Driver/src/stm32f30x_syscfg.c **** /* --- CFGR2 Register ---*/
  75:/home/user/Desktop/STM32-Projekte/FH-Vertibot/src/STM32F30x_StdPeriph_Driver/src/stm32f30x_syscfg.c **** /* Alias word address of BYP_ADDR_PAR bit */
  76:/home/user/Desktop/STM32-Projekte/FH-Vertibot/src/STM32F30x_StdPeriph_Driver/src/stm32f30x_syscfg.c **** #define CFGR2_OFFSET                 (SYSCFG_OFFSET + 0x18)
  77:/home/user/Desktop/STM32-Projekte/FH-Vertibot/src/STM32F30x_StdPeriph_Driver/src/stm32f30x_syscfg.c **** #define BYPADDRPAR_BitNumber          0x04
  78:/home/user/Desktop/STM32-Projekte/FH-Vertibot/src/STM32F30x_StdPeriph_Driver/src/stm32f30x_syscfg.c **** #define CFGR1_BYPADDRPAR_BB          (PERIPH_BB_BASE + (CFGR2_OFFSET * 32) + (BYPADDRPAR_BitNumber 
  79:/home/user/Desktop/STM32-Projekte/FH-Vertibot/src/STM32F30x_StdPeriph_Driver/src/stm32f30x_syscfg.c **** 
  80:/home/user/Desktop/STM32-Projekte/FH-Vertibot/src/STM32F30x_StdPeriph_Driver/src/stm32f30x_syscfg.c **** /* Private macro -------------------------------------------------------------*/
  81:/home/user/Desktop/STM32-Projekte/FH-Vertibot/src/STM32F30x_StdPeriph_Driver/src/stm32f30x_syscfg.c **** /* Private variables ---------------------------------------------------------*/
  82:/home/user/Desktop/STM32-Projekte/FH-Vertibot/src/STM32F30x_StdPeriph_Driver/src/stm32f30x_syscfg.c **** /* Private function prototypes -----------------------------------------------*/
  83:/home/user/Desktop/STM32-Projekte/FH-Vertibot/src/STM32F30x_StdPeriph_Driver/src/stm32f30x_syscfg.c **** /* Private functions ---------------------------------------------------------*/
  84:/home/user/Desktop/STM32-Projekte/FH-Vertibot/src/STM32F30x_StdPeriph_Driver/src/stm32f30x_syscfg.c **** 
  85:/home/user/Desktop/STM32-Projekte/FH-Vertibot/src/STM32F30x_StdPeriph_Driver/src/stm32f30x_syscfg.c **** /** @defgroup SYSCFG_Private_Functions
  86:/home/user/Desktop/STM32-Projekte/FH-Vertibot/src/STM32F30x_StdPeriph_Driver/src/stm32f30x_syscfg.c ****   * @{
  87:/home/user/Desktop/STM32-Projekte/FH-Vertibot/src/STM32F30x_StdPeriph_Driver/src/stm32f30x_syscfg.c ****   */ 
  88:/home/user/Desktop/STM32-Projekte/FH-Vertibot/src/STM32F30x_StdPeriph_Driver/src/stm32f30x_syscfg.c **** 
  89:/home/user/Desktop/STM32-Projekte/FH-Vertibot/src/STM32F30x_StdPeriph_Driver/src/stm32f30x_syscfg.c **** /** @defgroup SYSCFG_Group1 SYSCFG Initialization and Configuration functions
  90:/home/user/Desktop/STM32-Projekte/FH-Vertibot/src/STM32F30x_StdPeriph_Driver/src/stm32f30x_syscfg.c ****  *  @brief   SYSCFG Initialization and Configuration functions 
  91:/home/user/Desktop/STM32-Projekte/FH-Vertibot/src/STM32F30x_StdPeriph_Driver/src/stm32f30x_syscfg.c ****  *
  92:/home/user/Desktop/STM32-Projekte/FH-Vertibot/src/STM32F30x_StdPeriph_Driver/src/stm32f30x_syscfg.c **** @verbatim
  93:/home/user/Desktop/STM32-Projekte/FH-Vertibot/src/STM32F30x_StdPeriph_Driver/src/stm32f30x_syscfg.c ****  ===============================================================================
  94:/home/user/Desktop/STM32-Projekte/FH-Vertibot/src/STM32F30x_StdPeriph_Driver/src/stm32f30x_syscfg.c ****          ##### SYSCFG Initialization and Configuration functions #####
  95:/home/user/Desktop/STM32-Projekte/FH-Vertibot/src/STM32F30x_StdPeriph_Driver/src/stm32f30x_syscfg.c ****  ===============================================================================
  96:/home/user/Desktop/STM32-Projekte/FH-Vertibot/src/STM32F30x_StdPeriph_Driver/src/stm32f30x_syscfg.c **** 
  97:/home/user/Desktop/STM32-Projekte/FH-Vertibot/src/STM32F30x_StdPeriph_Driver/src/stm32f30x_syscfg.c **** @endverbatim
  98:/home/user/Desktop/STM32-Projekte/FH-Vertibot/src/STM32F30x_StdPeriph_Driver/src/stm32f30x_syscfg.c ****   * @{
  99:/home/user/Desktop/STM32-Projekte/FH-Vertibot/src/STM32F30x_StdPeriph_Driver/src/stm32f30x_syscfg.c ****   */
 100:/home/user/Desktop/STM32-Projekte/FH-Vertibot/src/STM32F30x_StdPeriph_Driver/src/stm32f30x_syscfg.c **** 
 101:/home/user/Desktop/STM32-Projekte/FH-Vertibot/src/STM32F30x_StdPeriph_Driver/src/stm32f30x_syscfg.c **** /**
 102:/home/user/Desktop/STM32-Projekte/FH-Vertibot/src/STM32F30x_StdPeriph_Driver/src/stm32f30x_syscfg.c ****   * @brief  Deinitializes the SYSCFG registers to their default reset values.
 103:/home/user/Desktop/STM32-Projekte/FH-Vertibot/src/STM32F30x_StdPeriph_Driver/src/stm32f30x_syscfg.c ****   * @param  None
 104:/home/user/Desktop/STM32-Projekte/FH-Vertibot/src/STM32F30x_StdPeriph_Driver/src/stm32f30x_syscfg.c ****   * @retval None
 105:/home/user/Desktop/STM32-Projekte/FH-Vertibot/src/STM32F30x_StdPeriph_Driver/src/stm32f30x_syscfg.c ****   * @note   MEM_MODE bits are not affected by APB reset.
 106:/home/user/Desktop/STM32-Projekte/FH-Vertibot/src/STM32F30x_StdPeriph_Driver/src/stm32f30x_syscfg.c ****   *         MEM_MODE bits took the value from the user option bytes.
 107:/home/user/Desktop/STM32-Projekte/FH-Vertibot/src/STM32F30x_StdPeriph_Driver/src/stm32f30x_syscfg.c ****   */
 108:/home/user/Desktop/STM32-Projekte/FH-Vertibot/src/STM32F30x_StdPeriph_Driver/src/stm32f30x_syscfg.c **** void SYSCFG_DeInit(void)
 109:/home/user/Desktop/STM32-Projekte/FH-Vertibot/src/STM32F30x_StdPeriph_Driver/src/stm32f30x_syscfg.c **** {
  28              		.loc 1 109 0
  29              		.cfi_startproc
  30              		@ args = 0, pretend = 0, frame = 0
  31              		@ frame_needed = 0, uses_anonymous_args = 0
  32              		@ link register save eliminated.
 110:/home/user/Desktop/STM32-Projekte/FH-Vertibot/src/STM32F30x_StdPeriph_Driver/src/stm32f30x_syscfg.c ****   /* Reset SYSCFG_CFGR1 register to reset value without affecting MEM_MODE bits */
 111:/home/user/Desktop/STM32-Projekte/FH-Vertibot/src/STM32F30x_StdPeriph_Driver/src/stm32f30x_syscfg.c ****   SYSCFG->CFGR1 &= SYSCFG_CFGR1_MEM_MODE;
  33              		.loc 1 111 0
  34 0000 084B     		ldr	r3, .L2
  35 0002 1A68     		ldr	r2, [r3]
  36 0004 02F00302 		and	r2, r2, #3
  37 0008 1A60     		str	r2, [r3]
 112:/home/user/Desktop/STM32-Projekte/FH-Vertibot/src/STM32F30x_StdPeriph_Driver/src/stm32f30x_syscfg.c ****   /* Set FPU Interrupt Enable bits to default value */
 113:/home/user/Desktop/STM32-Projekte/FH-Vertibot/src/STM32F30x_StdPeriph_Driver/src/stm32f30x_syscfg.c ****   SYSCFG->CFGR1 |= 0x7C000000;
  38              		.loc 1 113 0
  39 000a 1A68     		ldr	r2, [r3]
  40 000c 42F0F842 		orr	r2, r2, #2080374784
  41 0010 1A60     		str	r2, [r3]
 114:/home/user/Desktop/STM32-Projekte/FH-Vertibot/src/STM32F30x_StdPeriph_Driver/src/stm32f30x_syscfg.c ****   /* Reset RAM Write protection bits to default value */
 115:/home/user/Desktop/STM32-Projekte/FH-Vertibot/src/STM32F30x_StdPeriph_Driver/src/stm32f30x_syscfg.c ****   SYSCFG->RCR = 0x00000000;
  42              		.loc 1 115 0
  43 0012 0022     		movs	r2, #0
  44 0014 5A60     		str	r2, [r3, #4]
 116:/home/user/Desktop/STM32-Projekte/FH-Vertibot/src/STM32F30x_StdPeriph_Driver/src/stm32f30x_syscfg.c ****   /* Set EXTICRx registers to reset value */
 117:/home/user/Desktop/STM32-Projekte/FH-Vertibot/src/STM32F30x_StdPeriph_Driver/src/stm32f30x_syscfg.c ****   SYSCFG->EXTICR[0] = 0;
  45              		.loc 1 117 0
  46 0016 9A60     		str	r2, [r3, #8]
 118:/home/user/Desktop/STM32-Projekte/FH-Vertibot/src/STM32F30x_StdPeriph_Driver/src/stm32f30x_syscfg.c ****   SYSCFG->EXTICR[1] = 0;
  47              		.loc 1 118 0
  48 0018 DA60     		str	r2, [r3, #12]
 119:/home/user/Desktop/STM32-Projekte/FH-Vertibot/src/STM32F30x_StdPeriph_Driver/src/stm32f30x_syscfg.c ****   SYSCFG->EXTICR[2] = 0;
  49              		.loc 1 119 0
  50 001a 1A61     		str	r2, [r3, #16]
 120:/home/user/Desktop/STM32-Projekte/FH-Vertibot/src/STM32F30x_StdPeriph_Driver/src/stm32f30x_syscfg.c ****   SYSCFG->EXTICR[3] = 0;
  51              		.loc 1 120 0
  52 001c 5A61     		str	r2, [r3, #20]
 121:/home/user/Desktop/STM32-Projekte/FH-Vertibot/src/STM32F30x_StdPeriph_Driver/src/stm32f30x_syscfg.c ****   /* Set CFGR2 register to reset value */
 122:/home/user/Desktop/STM32-Projekte/FH-Vertibot/src/STM32F30x_StdPeriph_Driver/src/stm32f30x_syscfg.c ****   SYSCFG->CFGR2 = 0;
  53              		.loc 1 122 0
  54 001e 9A61     		str	r2, [r3, #24]
  55 0020 7047     		bx	lr
  56              	.L3:
  57 0022 00BF     		.align	2
  58              	.L2:
  59 0024 00000140 		.word	1073807360
  60              		.cfi_endproc
  61              	.LFE111:
  63              		.align	1
  64              		.global	SYSCFG_MemoryRemapConfig
  65              		.thumb
  66              		.thumb_func
  68              	SYSCFG_MemoryRemapConfig:
  69              	.LFB112:
 123:/home/user/Desktop/STM32-Projekte/FH-Vertibot/src/STM32F30x_StdPeriph_Driver/src/stm32f30x_syscfg.c **** }
 124:/home/user/Desktop/STM32-Projekte/FH-Vertibot/src/STM32F30x_StdPeriph_Driver/src/stm32f30x_syscfg.c **** 
 125:/home/user/Desktop/STM32-Projekte/FH-Vertibot/src/STM32F30x_StdPeriph_Driver/src/stm32f30x_syscfg.c **** /**
 126:/home/user/Desktop/STM32-Projekte/FH-Vertibot/src/STM32F30x_StdPeriph_Driver/src/stm32f30x_syscfg.c ****   * @brief  Configures the memory mapping at address 0x00000000.
 127:/home/user/Desktop/STM32-Projekte/FH-Vertibot/src/STM32F30x_StdPeriph_Driver/src/stm32f30x_syscfg.c ****   * @param  SYSCFG_MemoryRemap: selects the memory remapping.
 128:/home/user/Desktop/STM32-Projekte/FH-Vertibot/src/STM32F30x_StdPeriph_Driver/src/stm32f30x_syscfg.c ****   *   This parameter can be one of the following values:
 129:/home/user/Desktop/STM32-Projekte/FH-Vertibot/src/STM32F30x_StdPeriph_Driver/src/stm32f30x_syscfg.c ****   *     @arg SYSCFG_MemoryRemap_Flash: Main Flash memory mapped at 0x00000000  
 130:/home/user/Desktop/STM32-Projekte/FH-Vertibot/src/STM32F30x_StdPeriph_Driver/src/stm32f30x_syscfg.c ****   *     @arg SYSCFG_MemoryRemap_SystemMemory: System Flash memory mapped at 0x00000000
 131:/home/user/Desktop/STM32-Projekte/FH-Vertibot/src/STM32F30x_StdPeriph_Driver/src/stm32f30x_syscfg.c ****   *     @arg SYSCFG_MemoryRemap_SRAM: Embedded SRAM mapped at 0x00000000
 132:/home/user/Desktop/STM32-Projekte/FH-Vertibot/src/STM32F30x_StdPeriph_Driver/src/stm32f30x_syscfg.c ****   * @retval None
 133:/home/user/Desktop/STM32-Projekte/FH-Vertibot/src/STM32F30x_StdPeriph_Driver/src/stm32f30x_syscfg.c ****   */
 134:/home/user/Desktop/STM32-Projekte/FH-Vertibot/src/STM32F30x_StdPeriph_Driver/src/stm32f30x_syscfg.c **** void SYSCFG_MemoryRemapConfig(uint32_t SYSCFG_MemoryRemap)
 135:/home/user/Desktop/STM32-Projekte/FH-Vertibot/src/STM32F30x_StdPeriph_Driver/src/stm32f30x_syscfg.c **** {
  70              		.loc 1 135 0
  71              		.cfi_startproc
  72              		@ args = 0, pretend = 0, frame = 0
  73              		@ frame_needed = 0, uses_anonymous_args = 0
  74              		@ link register save eliminated.
  75              	.LVL0:
 136:/home/user/Desktop/STM32-Projekte/FH-Vertibot/src/STM32F30x_StdPeriph_Driver/src/stm32f30x_syscfg.c ****   uint32_t tmpcfgr1 = 0;
 137:/home/user/Desktop/STM32-Projekte/FH-Vertibot/src/STM32F30x_StdPeriph_Driver/src/stm32f30x_syscfg.c **** 
 138:/home/user/Desktop/STM32-Projekte/FH-Vertibot/src/STM32F30x_StdPeriph_Driver/src/stm32f30x_syscfg.c ****   /* Check the parameter */
 139:/home/user/Desktop/STM32-Projekte/FH-Vertibot/src/STM32F30x_StdPeriph_Driver/src/stm32f30x_syscfg.c ****   assert_param(IS_SYSCFG_MEMORY_REMAP(SYSCFG_MemoryRemap));
 140:/home/user/Desktop/STM32-Projekte/FH-Vertibot/src/STM32F30x_StdPeriph_Driver/src/stm32f30x_syscfg.c **** 
 141:/home/user/Desktop/STM32-Projekte/FH-Vertibot/src/STM32F30x_StdPeriph_Driver/src/stm32f30x_syscfg.c ****   /* Get CFGR1 register value */
 142:/home/user/Desktop/STM32-Projekte/FH-Vertibot/src/STM32F30x_StdPeriph_Driver/src/stm32f30x_syscfg.c ****   tmpcfgr1 = SYSCFG->CFGR1;
  76              		.loc 1 142 0
  77 0028 034B     		ldr	r3, .L5
  78 002a 1A68     		ldr	r2, [r3]
  79              	.LVL1:
 143:/home/user/Desktop/STM32-Projekte/FH-Vertibot/src/STM32F30x_StdPeriph_Driver/src/stm32f30x_syscfg.c **** 
 144:/home/user/Desktop/STM32-Projekte/FH-Vertibot/src/STM32F30x_StdPeriph_Driver/src/stm32f30x_syscfg.c ****   /* Clear MEM_MODE bits */
 145:/home/user/Desktop/STM32-Projekte/FH-Vertibot/src/STM32F30x_StdPeriph_Driver/src/stm32f30x_syscfg.c ****   tmpcfgr1 &= (uint32_t) (~SYSCFG_CFGR1_MEM_MODE);
  80              		.loc 1 145 0
  81 002c 22F00302 		bic	r2, r2, #3
  82              	.LVL2:
 146:/home/user/Desktop/STM32-Projekte/FH-Vertibot/src/STM32F30x_StdPeriph_Driver/src/stm32f30x_syscfg.c **** 
 147:/home/user/Desktop/STM32-Projekte/FH-Vertibot/src/STM32F30x_StdPeriph_Driver/src/stm32f30x_syscfg.c ****   /* Set the new MEM_MODE bits value */
 148:/home/user/Desktop/STM32-Projekte/FH-Vertibot/src/STM32F30x_StdPeriph_Driver/src/stm32f30x_syscfg.c ****   tmpcfgr1 |= (uint32_t) SYSCFG_MemoryRemap;
  83              		.loc 1 148 0
  84 0030 1043     		orrs	r0, r0, r2
  85              	.LVL3:
 149:/home/user/Desktop/STM32-Projekte/FH-Vertibot/src/STM32F30x_StdPeriph_Driver/src/stm32f30x_syscfg.c **** 
 150:/home/user/Desktop/STM32-Projekte/FH-Vertibot/src/STM32F30x_StdPeriph_Driver/src/stm32f30x_syscfg.c ****   /* Set CFGR1 register with the new memory remap configuration */
 151:/home/user/Desktop/STM32-Projekte/FH-Vertibot/src/STM32F30x_StdPeriph_Driver/src/stm32f30x_syscfg.c ****   SYSCFG->CFGR1 = tmpcfgr1;
  86              		.loc 1 151 0
  87 0032 1860     		str	r0, [r3]
  88 0034 7047     		bx	lr
  89              	.L6:
  90 0036 00BF     		.align	2
  91              	.L5:
  92 0038 00000140 		.word	1073807360
  93              		.cfi_endproc
  94              	.LFE112:
  96              		.align	1
  97              		.global	SYSCFG_DMAChannelRemapConfig
  98              		.thumb
  99              		.thumb_func
 101              	SYSCFG_DMAChannelRemapConfig:
 102              	.LFB113:
 152:/home/user/Desktop/STM32-Projekte/FH-Vertibot/src/STM32F30x_StdPeriph_Driver/src/stm32f30x_syscfg.c **** }
 153:/home/user/Desktop/STM32-Projekte/FH-Vertibot/src/STM32F30x_StdPeriph_Driver/src/stm32f30x_syscfg.c **** 
 154:/home/user/Desktop/STM32-Projekte/FH-Vertibot/src/STM32F30x_StdPeriph_Driver/src/stm32f30x_syscfg.c **** /**
 155:/home/user/Desktop/STM32-Projekte/FH-Vertibot/src/STM32F30x_StdPeriph_Driver/src/stm32f30x_syscfg.c ****   * @brief  Configures the DMA channels remapping.
 156:/home/user/Desktop/STM32-Projekte/FH-Vertibot/src/STM32F30x_StdPeriph_Driver/src/stm32f30x_syscfg.c ****   * @param  SYSCFG_DMARemap: selects the DMA channels remap.
 157:/home/user/Desktop/STM32-Projekte/FH-Vertibot/src/STM32F30x_StdPeriph_Driver/src/stm32f30x_syscfg.c ****   *   This parameter can be one of the following values:
 158:/home/user/Desktop/STM32-Projekte/FH-Vertibot/src/STM32F30x_StdPeriph_Driver/src/stm32f30x_syscfg.c ****   *     @arg SYSCFG_DMARemap_TIM17: Remap TIM17 DMA requests from DMA1 channel1 to channel2
 159:/home/user/Desktop/STM32-Projekte/FH-Vertibot/src/STM32F30x_StdPeriph_Driver/src/stm32f30x_syscfg.c ****   *     @arg SYSCFG_DMARemap_TIM16: Remap TIM16 DMA requests from DMA1 channel3 to channel4
 160:/home/user/Desktop/STM32-Projekte/FH-Vertibot/src/STM32F30x_StdPeriph_Driver/src/stm32f30x_syscfg.c ****   *     @arg SYSCFG_DMARemap_TIM6DAC1: Remap TIM6/DAC1 DMA requests from DMA2 channel 3 to DMA1 cha
 161:/home/user/Desktop/STM32-Projekte/FH-Vertibot/src/STM32F30x_StdPeriph_Driver/src/stm32f30x_syscfg.c ****   *     @arg SYSCFG_DMARemap_TIM7DAC2: Remap TIM7/DAC2 DMA requests from DMA2 channel 4 to DMA1 cha
 162:/home/user/Desktop/STM32-Projekte/FH-Vertibot/src/STM32F30x_StdPeriph_Driver/src/stm32f30x_syscfg.c ****   *     @arg SYSCFG_DMARemap_ADC2ADC4: Remap ADC2 and ADC4 DMA requests from DMA2 channel1/channel3
 163:/home/user/Desktop/STM32-Projekte/FH-Vertibot/src/STM32F30x_StdPeriph_Driver/src/stm32f30x_syscfg.c ****   * @param  NewState: new state of the DMA channel remapping. 
 164:/home/user/Desktop/STM32-Projekte/FH-Vertibot/src/STM32F30x_StdPeriph_Driver/src/stm32f30x_syscfg.c ****   *         This parameter can be: Enable or Disable.
 165:/home/user/Desktop/STM32-Projekte/FH-Vertibot/src/STM32F30x_StdPeriph_Driver/src/stm32f30x_syscfg.c ****   * @note   When enabled, DMA channel of the selected peripheral is remapped
 166:/home/user/Desktop/STM32-Projekte/FH-Vertibot/src/STM32F30x_StdPeriph_Driver/src/stm32f30x_syscfg.c ****   * @note   When disabled, Default DMA channel is mapped to the selected peripheral
 167:/home/user/Desktop/STM32-Projekte/FH-Vertibot/src/STM32F30x_StdPeriph_Driver/src/stm32f30x_syscfg.c ****   * @note
 168:/home/user/Desktop/STM32-Projekte/FH-Vertibot/src/STM32F30x_StdPeriph_Driver/src/stm32f30x_syscfg.c ****   *           By default TIM17 DMA requests is mapped to channel 1
 169:/home/user/Desktop/STM32-Projekte/FH-Vertibot/src/STM32F30x_StdPeriph_Driver/src/stm32f30x_syscfg.c ****   *           use SYSCFG_DMAChannelRemapConfig(SYSCFG_DMARemap_TIM17, Enable)
 170:/home/user/Desktop/STM32-Projekte/FH-Vertibot/src/STM32F30x_StdPeriph_Driver/src/stm32f30x_syscfg.c ****   *           to remap TIM17 DMA requests to DMA1 channel 2
 171:/home/user/Desktop/STM32-Projekte/FH-Vertibot/src/STM32F30x_StdPeriph_Driver/src/stm32f30x_syscfg.c ****   *           use SYSCFG_DMAChannelRemapConfig(SYSCFG_DMARemap_TIM17, Disable)
 172:/home/user/Desktop/STM32-Projekte/FH-Vertibot/src/STM32F30x_StdPeriph_Driver/src/stm32f30x_syscfg.c ****   *           to map TIM17 DMA requests to DMA1 channel 1 (default mapping)
 173:/home/user/Desktop/STM32-Projekte/FH-Vertibot/src/STM32F30x_StdPeriph_Driver/src/stm32f30x_syscfg.c ****   * @retval None
 174:/home/user/Desktop/STM32-Projekte/FH-Vertibot/src/STM32F30x_StdPeriph_Driver/src/stm32f30x_syscfg.c ****   */
 175:/home/user/Desktop/STM32-Projekte/FH-Vertibot/src/STM32F30x_StdPeriph_Driver/src/stm32f30x_syscfg.c **** void SYSCFG_DMAChannelRemapConfig(uint32_t SYSCFG_DMARemap, FunctionalState NewState)
 176:/home/user/Desktop/STM32-Projekte/FH-Vertibot/src/STM32F30x_StdPeriph_Driver/src/stm32f30x_syscfg.c **** {
 103              		.loc 1 176 0
 104              		.cfi_startproc
 105              		@ args = 0, pretend = 0, frame = 0
 106              		@ frame_needed = 0, uses_anonymous_args = 0
 107              		@ link register save eliminated.
 108              	.LVL4:
 109 003c 044B     		ldr	r3, .L12
 177:/home/user/Desktop/STM32-Projekte/FH-Vertibot/src/STM32F30x_StdPeriph_Driver/src/stm32f30x_syscfg.c ****   /* Check the parameters */
 178:/home/user/Desktop/STM32-Projekte/FH-Vertibot/src/STM32F30x_StdPeriph_Driver/src/stm32f30x_syscfg.c ****   assert_param(IS_SYSCFG_DMA_REMAP(SYSCFG_DMARemap));
 179:/home/user/Desktop/STM32-Projekte/FH-Vertibot/src/STM32F30x_StdPeriph_Driver/src/stm32f30x_syscfg.c ****   assert_param(IS_FUNCTIONAL_STATE(NewState));
 180:/home/user/Desktop/STM32-Projekte/FH-Vertibot/src/STM32F30x_StdPeriph_Driver/src/stm32f30x_syscfg.c **** 
 181:/home/user/Desktop/STM32-Projekte/FH-Vertibot/src/STM32F30x_StdPeriph_Driver/src/stm32f30x_syscfg.c ****   if (NewState != DISABLE)
 182:/home/user/Desktop/STM32-Projekte/FH-Vertibot/src/STM32F30x_StdPeriph_Driver/src/stm32f30x_syscfg.c ****   {
 183:/home/user/Desktop/STM32-Projekte/FH-Vertibot/src/STM32F30x_StdPeriph_Driver/src/stm32f30x_syscfg.c ****     /* Remap the DMA channel */
 184:/home/user/Desktop/STM32-Projekte/FH-Vertibot/src/STM32F30x_StdPeriph_Driver/src/stm32f30x_syscfg.c ****     SYSCFG->CFGR1 |= (uint32_t)SYSCFG_DMARemap;
 110              		.loc 1 184 0
 111 003e 1A68     		ldr	r2, [r3]
 181:/home/user/Desktop/STM32-Projekte/FH-Vertibot/src/STM32F30x_StdPeriph_Driver/src/stm32f30x_syscfg.c ****   if (NewState != DISABLE)
 112              		.loc 1 181 0
 113 0040 09B1     		cbz	r1, .L8
 114              		.loc 1 184 0
 115 0042 1043     		orrs	r0, r0, r2
 116              	.LVL5:
 117 0044 01E0     		b	.L10
 118              	.LVL6:
 119              	.L8:
 185:/home/user/Desktop/STM32-Projekte/FH-Vertibot/src/STM32F30x_StdPeriph_Driver/src/stm32f30x_syscfg.c ****   }
 186:/home/user/Desktop/STM32-Projekte/FH-Vertibot/src/STM32F30x_StdPeriph_Driver/src/stm32f30x_syscfg.c ****   else
 187:/home/user/Desktop/STM32-Projekte/FH-Vertibot/src/STM32F30x_StdPeriph_Driver/src/stm32f30x_syscfg.c ****   {
 188:/home/user/Desktop/STM32-Projekte/FH-Vertibot/src/STM32F30x_StdPeriph_Driver/src/stm32f30x_syscfg.c ****     /* use the default DMA channel mapping */
 189:/home/user/Desktop/STM32-Projekte/FH-Vertibot/src/STM32F30x_StdPeriph_Driver/src/stm32f30x_syscfg.c ****     SYSCFG->CFGR1 &= (uint32_t)(~SYSCFG_DMARemap);
 120              		.loc 1 189 0
 121 0046 22EA0000 		bic	r0, r2, r0
 122              	.LVL7:
 123              	.L10:
 124 004a 1860     		str	r0, [r3]
 125 004c 7047     		bx	lr
 126              	.L13:
 127 004e 00BF     		.align	2
 128              	.L12:
 129 0050 00000140 		.word	1073807360
 130              		.cfi_endproc
 131              	.LFE113:
 133              		.align	1
 134              		.global	SYSCFG_TriggerRemapConfig
 135              		.thumb
 136              		.thumb_func
 138              	SYSCFG_TriggerRemapConfig:
 139              	.LFB114:
 190:/home/user/Desktop/STM32-Projekte/FH-Vertibot/src/STM32F30x_StdPeriph_Driver/src/stm32f30x_syscfg.c ****   }
 191:/home/user/Desktop/STM32-Projekte/FH-Vertibot/src/STM32F30x_StdPeriph_Driver/src/stm32f30x_syscfg.c **** }
 192:/home/user/Desktop/STM32-Projekte/FH-Vertibot/src/STM32F30x_StdPeriph_Driver/src/stm32f30x_syscfg.c **** 
 193:/home/user/Desktop/STM32-Projekte/FH-Vertibot/src/STM32F30x_StdPeriph_Driver/src/stm32f30x_syscfg.c **** /**
 194:/home/user/Desktop/STM32-Projekte/FH-Vertibot/src/STM32F30x_StdPeriph_Driver/src/stm32f30x_syscfg.c ****   * @brief  Configures the remapping capabilities of DAC/TIM triggers.
 195:/home/user/Desktop/STM32-Projekte/FH-Vertibot/src/STM32F30x_StdPeriph_Driver/src/stm32f30x_syscfg.c ****   * @param  SYSCFG_TriggerRemap: selects the trigger to be remapped.
 196:/home/user/Desktop/STM32-Projekte/FH-Vertibot/src/STM32F30x_StdPeriph_Driver/src/stm32f30x_syscfg.c ****   *   This parameter can be one of the following values:
 197:/home/user/Desktop/STM32-Projekte/FH-Vertibot/src/STM32F30x_StdPeriph_Driver/src/stm32f30x_syscfg.c ****   *     @arg SYSCFG_TriggerRemap_DACTIM3: Remap DAC trigger from TIM8 to TIM3
 198:/home/user/Desktop/STM32-Projekte/FH-Vertibot/src/STM32F30x_StdPeriph_Driver/src/stm32f30x_syscfg.c ****   *     @arg SYSCFG_TriggerRemap_TIM1TIM17: Remap TIM1 ITR3 from TIM4 TRGO to TIM17 OC
 199:/home/user/Desktop/STM32-Projekte/FH-Vertibot/src/STM32F30x_StdPeriph_Driver/src/stm32f30x_syscfg.c ****   * @param  NewState: new state of the trigger mapping. 
 200:/home/user/Desktop/STM32-Projekte/FH-Vertibot/src/STM32F30x_StdPeriph_Driver/src/stm32f30x_syscfg.c ****   *         This parameter can be: ENABLE or DISABLE.
 201:/home/user/Desktop/STM32-Projekte/FH-Vertibot/src/STM32F30x_StdPeriph_Driver/src/stm32f30x_syscfg.c ****   * @note   ENABLE:  Enable fast mode plus driving capability for selected pin
 202:/home/user/Desktop/STM32-Projekte/FH-Vertibot/src/STM32F30x_StdPeriph_Driver/src/stm32f30x_syscfg.c ****   * @note   DISABLE: Disable fast mode plus driving capability for selected pin
 203:/home/user/Desktop/STM32-Projekte/FH-Vertibot/src/STM32F30x_StdPeriph_Driver/src/stm32f30x_syscfg.c ****   * @retval None
 204:/home/user/Desktop/STM32-Projekte/FH-Vertibot/src/STM32F30x_StdPeriph_Driver/src/stm32f30x_syscfg.c ****   */
 205:/home/user/Desktop/STM32-Projekte/FH-Vertibot/src/STM32F30x_StdPeriph_Driver/src/stm32f30x_syscfg.c **** void SYSCFG_TriggerRemapConfig(uint32_t SYSCFG_TriggerRemap, FunctionalState NewState)
 206:/home/user/Desktop/STM32-Projekte/FH-Vertibot/src/STM32F30x_StdPeriph_Driver/src/stm32f30x_syscfg.c **** {
 140              		.loc 1 206 0
 141              		.cfi_startproc
 142              		@ args = 0, pretend = 0, frame = 0
 143              		@ frame_needed = 0, uses_anonymous_args = 0
 144              		@ link register save eliminated.
 145              	.LVL8:
 146 0054 044B     		ldr	r3, .L18
 207:/home/user/Desktop/STM32-Projekte/FH-Vertibot/src/STM32F30x_StdPeriph_Driver/src/stm32f30x_syscfg.c ****   /* Check the parameters */
 208:/home/user/Desktop/STM32-Projekte/FH-Vertibot/src/STM32F30x_StdPeriph_Driver/src/stm32f30x_syscfg.c ****   assert_param(IS_SYSCFG_TRIGGER_REMAP(SYSCFG_TriggerRemap));
 209:/home/user/Desktop/STM32-Projekte/FH-Vertibot/src/STM32F30x_StdPeriph_Driver/src/stm32f30x_syscfg.c ****   assert_param(IS_FUNCTIONAL_STATE(NewState));
 210:/home/user/Desktop/STM32-Projekte/FH-Vertibot/src/STM32F30x_StdPeriph_Driver/src/stm32f30x_syscfg.c **** 
 211:/home/user/Desktop/STM32-Projekte/FH-Vertibot/src/STM32F30x_StdPeriph_Driver/src/stm32f30x_syscfg.c ****   if (NewState != DISABLE)
 212:/home/user/Desktop/STM32-Projekte/FH-Vertibot/src/STM32F30x_StdPeriph_Driver/src/stm32f30x_syscfg.c ****   {
 213:/home/user/Desktop/STM32-Projekte/FH-Vertibot/src/STM32F30x_StdPeriph_Driver/src/stm32f30x_syscfg.c ****     /* Remap the trigger */
 214:/home/user/Desktop/STM32-Projekte/FH-Vertibot/src/STM32F30x_StdPeriph_Driver/src/stm32f30x_syscfg.c ****     SYSCFG->CFGR1 |= (uint32_t)SYSCFG_TriggerRemap;
 147              		.loc 1 214 0
 148 0056 1A68     		ldr	r2, [r3]
 211:/home/user/Desktop/STM32-Projekte/FH-Vertibot/src/STM32F30x_StdPeriph_Driver/src/stm32f30x_syscfg.c ****   if (NewState != DISABLE)
 149              		.loc 1 211 0
 150 0058 09B1     		cbz	r1, .L15
 151              		.loc 1 214 0
 152 005a 1043     		orrs	r0, r0, r2
 153              	.LVL9:
 154 005c 01E0     		b	.L17
 155              	.LVL10:
 156              	.L15:
 215:/home/user/Desktop/STM32-Projekte/FH-Vertibot/src/STM32F30x_StdPeriph_Driver/src/stm32f30x_syscfg.c ****   }
 216:/home/user/Desktop/STM32-Projekte/FH-Vertibot/src/STM32F30x_StdPeriph_Driver/src/stm32f30x_syscfg.c ****   else
 217:/home/user/Desktop/STM32-Projekte/FH-Vertibot/src/STM32F30x_StdPeriph_Driver/src/stm32f30x_syscfg.c ****   {
 218:/home/user/Desktop/STM32-Projekte/FH-Vertibot/src/STM32F30x_StdPeriph_Driver/src/stm32f30x_syscfg.c ****     /* Use the default trigger mapping */
 219:/home/user/Desktop/STM32-Projekte/FH-Vertibot/src/STM32F30x_StdPeriph_Driver/src/stm32f30x_syscfg.c ****     SYSCFG->CFGR1 &= (uint32_t)(~SYSCFG_TriggerRemap);
 157              		.loc 1 219 0
 158 005e 22EA0000 		bic	r0, r2, r0
 159              	.LVL11:
 160              	.L17:
 161 0062 1860     		str	r0, [r3]
 162 0064 7047     		bx	lr
 163              	.L19:
 164 0066 00BF     		.align	2
 165              	.L18:
 166 0068 00000140 		.word	1073807360
 167              		.cfi_endproc
 168              	.LFE114:
 170              		.align	1
 171              		.global	SYSCFG_EncoderRemapConfig
 172              		.thumb
 173              		.thumb_func
 175              	SYSCFG_EncoderRemapConfig:
 176              	.LFB115:
 220:/home/user/Desktop/STM32-Projekte/FH-Vertibot/src/STM32F30x_StdPeriph_Driver/src/stm32f30x_syscfg.c ****   }
 221:/home/user/Desktop/STM32-Projekte/FH-Vertibot/src/STM32F30x_StdPeriph_Driver/src/stm32f30x_syscfg.c **** }
 222:/home/user/Desktop/STM32-Projekte/FH-Vertibot/src/STM32F30x_StdPeriph_Driver/src/stm32f30x_syscfg.c **** 
 223:/home/user/Desktop/STM32-Projekte/FH-Vertibot/src/STM32F30x_StdPeriph_Driver/src/stm32f30x_syscfg.c **** /**
 224:/home/user/Desktop/STM32-Projekte/FH-Vertibot/src/STM32F30x_StdPeriph_Driver/src/stm32f30x_syscfg.c ****   * @brief  Configures the remapping capabilities of encoder mode.
 225:/home/user/Desktop/STM32-Projekte/FH-Vertibot/src/STM32F30x_StdPeriph_Driver/src/stm32f30x_syscfg.c ****   * @ note This feature implement the so-called M/T method for measuring speed
 226:/home/user/Desktop/STM32-Projekte/FH-Vertibot/src/STM32F30x_StdPeriph_Driver/src/stm32f30x_syscfg.c ****   *        and position using quadrature encoders.  
 227:/home/user/Desktop/STM32-Projekte/FH-Vertibot/src/STM32F30x_StdPeriph_Driver/src/stm32f30x_syscfg.c ****   * @param  SYSCFG_EncoderRemap: selects the remap option for encoder mode.
 228:/home/user/Desktop/STM32-Projekte/FH-Vertibot/src/STM32F30x_StdPeriph_Driver/src/stm32f30x_syscfg.c ****   *   This parameter can be one of the following values:
 229:/home/user/Desktop/STM32-Projekte/FH-Vertibot/src/STM32F30x_StdPeriph_Driver/src/stm32f30x_syscfg.c ****   *     @arg SYSCFG_EncoderRemap_No: No remap
 230:/home/user/Desktop/STM32-Projekte/FH-Vertibot/src/STM32F30x_StdPeriph_Driver/src/stm32f30x_syscfg.c ****   *     @arg SYSCFG_EncoderRemap_TIM2: Timer 2 IC1 and IC2 connected to TIM15 IC1 and IC2
 231:/home/user/Desktop/STM32-Projekte/FH-Vertibot/src/STM32F30x_StdPeriph_Driver/src/stm32f30x_syscfg.c ****   *     @arg SYSCFG_EncoderRemap_TIM3: Timer 3 IC1 and IC2 connected to TIM15 IC1 and IC2
 232:/home/user/Desktop/STM32-Projekte/FH-Vertibot/src/STM32F30x_StdPeriph_Driver/src/stm32f30x_syscfg.c ****   *     @arg SYSCFG_EncoderRemap_TIM4: Timer 4 IC1 and IC2 connected to TIM15 IC1 and IC2
 233:/home/user/Desktop/STM32-Projekte/FH-Vertibot/src/STM32F30x_StdPeriph_Driver/src/stm32f30x_syscfg.c ****   * @retval None
 234:/home/user/Desktop/STM32-Projekte/FH-Vertibot/src/STM32F30x_StdPeriph_Driver/src/stm32f30x_syscfg.c ****   */
 235:/home/user/Desktop/STM32-Projekte/FH-Vertibot/src/STM32F30x_StdPeriph_Driver/src/stm32f30x_syscfg.c **** void SYSCFG_EncoderRemapConfig(uint32_t SYSCFG_EncoderRemap)
 236:/home/user/Desktop/STM32-Projekte/FH-Vertibot/src/STM32F30x_StdPeriph_Driver/src/stm32f30x_syscfg.c **** {
 177              		.loc 1 236 0
 178              		.cfi_startproc
 179              		@ args = 0, pretend = 0, frame = 0
 180              		@ frame_needed = 0, uses_anonymous_args = 0
 181              		@ link register save eliminated.
 182              	.LVL12:
 237:/home/user/Desktop/STM32-Projekte/FH-Vertibot/src/STM32F30x_StdPeriph_Driver/src/stm32f30x_syscfg.c ****   /* Check the parameter */
 238:/home/user/Desktop/STM32-Projekte/FH-Vertibot/src/STM32F30x_StdPeriph_Driver/src/stm32f30x_syscfg.c ****   assert_param(IS_SYSCFG_ENCODER_REMAP(SYSCFG_EncoderRemap));
 239:/home/user/Desktop/STM32-Projekte/FH-Vertibot/src/STM32F30x_StdPeriph_Driver/src/stm32f30x_syscfg.c **** 
 240:/home/user/Desktop/STM32-Projekte/FH-Vertibot/src/STM32F30x_StdPeriph_Driver/src/stm32f30x_syscfg.c ****   /* Reset the encoder mode remapping bits */
 241:/home/user/Desktop/STM32-Projekte/FH-Vertibot/src/STM32F30x_StdPeriph_Driver/src/stm32f30x_syscfg.c ****   SYSCFG->CFGR1 &= (uint32_t)(~SYSCFG_CFGR1_ENCODER_MODE);
 183              		.loc 1 241 0
 184 006c 044B     		ldr	r3, .L21
 185 006e 1A68     		ldr	r2, [r3]
 186 0070 22F44002 		bic	r2, r2, #12582912
 187 0074 1A60     		str	r2, [r3]
 242:/home/user/Desktop/STM32-Projekte/FH-Vertibot/src/STM32F30x_StdPeriph_Driver/src/stm32f30x_syscfg.c **** 
 243:/home/user/Desktop/STM32-Projekte/FH-Vertibot/src/STM32F30x_StdPeriph_Driver/src/stm32f30x_syscfg.c ****   /* Set the selected configuration */
 244:/home/user/Desktop/STM32-Projekte/FH-Vertibot/src/STM32F30x_StdPeriph_Driver/src/stm32f30x_syscfg.c ****   SYSCFG->CFGR1 |= (uint32_t)(SYSCFG_EncoderRemap);
 188              		.loc 1 244 0
 189 0076 1A68     		ldr	r2, [r3]
 190 0078 1043     		orrs	r0, r0, r2
 191              	.LVL13:
 192 007a 1860     		str	r0, [r3]
 193 007c 7047     		bx	lr
 194              	.L22:
 195 007e 00BF     		.align	2
 196              	.L21:
 197 0080 00000140 		.word	1073807360
 198              		.cfi_endproc
 199              	.LFE115:
 201              		.align	1
 202              		.global	SYSCFG_USBInterruptLineRemapCmd
 203              		.thumb
 204              		.thumb_func
 206              	SYSCFG_USBInterruptLineRemapCmd:
 207              	.LFB116:
 245:/home/user/Desktop/STM32-Projekte/FH-Vertibot/src/STM32F30x_StdPeriph_Driver/src/stm32f30x_syscfg.c **** }
 246:/home/user/Desktop/STM32-Projekte/FH-Vertibot/src/STM32F30x_StdPeriph_Driver/src/stm32f30x_syscfg.c **** 
 247:/home/user/Desktop/STM32-Projekte/FH-Vertibot/src/STM32F30x_StdPeriph_Driver/src/stm32f30x_syscfg.c **** /**
 248:/home/user/Desktop/STM32-Projekte/FH-Vertibot/src/STM32F30x_StdPeriph_Driver/src/stm32f30x_syscfg.c ****   * @brief  Remaps the USB interrupt lines.
 249:/home/user/Desktop/STM32-Projekte/FH-Vertibot/src/STM32F30x_StdPeriph_Driver/src/stm32f30x_syscfg.c ****   * @param  NewState: new state of the mapping of USB interrupt lines. 
 250:/home/user/Desktop/STM32-Projekte/FH-Vertibot/src/STM32F30x_StdPeriph_Driver/src/stm32f30x_syscfg.c ****   *         This parameter can be:
 251:/home/user/Desktop/STM32-Projekte/FH-Vertibot/src/STM32F30x_StdPeriph_Driver/src/stm32f30x_syscfg.c ****   * @param  ENABLE: Remap the USB interrupt line as following:
 252:/home/user/Desktop/STM32-Projekte/FH-Vertibot/src/STM32F30x_StdPeriph_Driver/src/stm32f30x_syscfg.c ****   *         @arg  USB Device High Priority (USB_HP) interrupt mapped to line 74.
 253:/home/user/Desktop/STM32-Projekte/FH-Vertibot/src/STM32F30x_StdPeriph_Driver/src/stm32f30x_syscfg.c ****   *         @arg  USB Device Low Priority (USB_LP) interrupt mapped to line 75.
 254:/home/user/Desktop/STM32-Projekte/FH-Vertibot/src/STM32F30x_StdPeriph_Driver/src/stm32f30x_syscfg.c ****   *         @arg  USB Wakeup Interrupt (USB_WKUP) interrupt mapped to line 76.
 255:/home/user/Desktop/STM32-Projekte/FH-Vertibot/src/STM32F30x_StdPeriph_Driver/src/stm32f30x_syscfg.c ****   * @param  DISABLE: Use the default USB interrupt line:
 256:/home/user/Desktop/STM32-Projekte/FH-Vertibot/src/STM32F30x_StdPeriph_Driver/src/stm32f30x_syscfg.c ****   *         @arg  USB Device High Priority (USB_HP) interrupt mapped to line 19.
 257:/home/user/Desktop/STM32-Projekte/FH-Vertibot/src/STM32F30x_StdPeriph_Driver/src/stm32f30x_syscfg.c ****   *         @arg  USB Device Low Priority (USB_LP) interrupt mapped to line 20.
 258:/home/user/Desktop/STM32-Projekte/FH-Vertibot/src/STM32F30x_StdPeriph_Driver/src/stm32f30x_syscfg.c ****   *         @arg  USB Wakeup Interrupt (USB_WKUP) interrupt mapped to line 42.
 259:/home/user/Desktop/STM32-Projekte/FH-Vertibot/src/STM32F30x_StdPeriph_Driver/src/stm32f30x_syscfg.c ****   * @retval None
 260:/home/user/Desktop/STM32-Projekte/FH-Vertibot/src/STM32F30x_StdPeriph_Driver/src/stm32f30x_syscfg.c ****   */
 261:/home/user/Desktop/STM32-Projekte/FH-Vertibot/src/STM32F30x_StdPeriph_Driver/src/stm32f30x_syscfg.c **** void SYSCFG_USBInterruptLineRemapCmd(FunctionalState NewState)
 262:/home/user/Desktop/STM32-Projekte/FH-Vertibot/src/STM32F30x_StdPeriph_Driver/src/stm32f30x_syscfg.c **** {
 208              		.loc 1 262 0
 209              		.cfi_startproc
 210              		@ args = 0, pretend = 0, frame = 0
 211              		@ frame_needed = 0, uses_anonymous_args = 0
 212              		@ link register save eliminated.
 213              	.LVL14:
 263:/home/user/Desktop/STM32-Projekte/FH-Vertibot/src/STM32F30x_StdPeriph_Driver/src/stm32f30x_syscfg.c ****   /* Check the parameter */
 264:/home/user/Desktop/STM32-Projekte/FH-Vertibot/src/STM32F30x_StdPeriph_Driver/src/stm32f30x_syscfg.c ****   assert_param(IS_FUNCTIONAL_STATE(NewState));
 265:/home/user/Desktop/STM32-Projekte/FH-Vertibot/src/STM32F30x_StdPeriph_Driver/src/stm32f30x_syscfg.c **** 
 266:/home/user/Desktop/STM32-Projekte/FH-Vertibot/src/STM32F30x_StdPeriph_Driver/src/stm32f30x_syscfg.c ****   /* Remap the USB interupt lines */
 267:/home/user/Desktop/STM32-Projekte/FH-Vertibot/src/STM32F30x_StdPeriph_Driver/src/stm32f30x_syscfg.c ****   *(__IO uint32_t *) CFGR1_USBITRMP_BB = (uint32_t)NewState;
 214              		.loc 1 267 0
 215 0084 014B     		ldr	r3, .L24
 216 0086 1860     		str	r0, [r3]
 217 0088 7047     		bx	lr
 218              	.L25:
 219 008a 00BF     		.align	2
 220              	.L24:
 221 008c 14002042 		.word	1109393428
 222              		.cfi_endproc
 223              	.LFE116:
 225              		.align	1
 226              		.global	SYSCFG_I2CFastModePlusConfig
 227              		.thumb
 228              		.thumb_func
 230              	SYSCFG_I2CFastModePlusConfig:
 231              	.LFB117:
 268:/home/user/Desktop/STM32-Projekte/FH-Vertibot/src/STM32F30x_StdPeriph_Driver/src/stm32f30x_syscfg.c **** }
 269:/home/user/Desktop/STM32-Projekte/FH-Vertibot/src/STM32F30x_StdPeriph_Driver/src/stm32f30x_syscfg.c **** 
 270:/home/user/Desktop/STM32-Projekte/FH-Vertibot/src/STM32F30x_StdPeriph_Driver/src/stm32f30x_syscfg.c **** /**
 271:/home/user/Desktop/STM32-Projekte/FH-Vertibot/src/STM32F30x_StdPeriph_Driver/src/stm32f30x_syscfg.c ****   * @brief  Configures the I2C fast mode plus driving capability.
 272:/home/user/Desktop/STM32-Projekte/FH-Vertibot/src/STM32F30x_StdPeriph_Driver/src/stm32f30x_syscfg.c ****   * @param  SYSCFG_I2CFastModePlus: selects the pin.
 273:/home/user/Desktop/STM32-Projekte/FH-Vertibot/src/STM32F30x_StdPeriph_Driver/src/stm32f30x_syscfg.c ****   *   This parameter can be one of the following values:
 274:/home/user/Desktop/STM32-Projekte/FH-Vertibot/src/STM32F30x_StdPeriph_Driver/src/stm32f30x_syscfg.c ****   *     @arg SYSCFG_I2CFastModePlus_PB6: Configure fast mode plus driving capability for PB6
 275:/home/user/Desktop/STM32-Projekte/FH-Vertibot/src/STM32F30x_StdPeriph_Driver/src/stm32f30x_syscfg.c ****   *     @arg SYSCFG_I2CFastModePlus_PB7: Configure fast mode plus driving capability for PB7
 276:/home/user/Desktop/STM32-Projekte/FH-Vertibot/src/STM32F30x_StdPeriph_Driver/src/stm32f30x_syscfg.c ****   *     @arg SYSCFG_I2CFastModePlus_PB8: Configure fast mode plus driving capability for PB8
 277:/home/user/Desktop/STM32-Projekte/FH-Vertibot/src/STM32F30x_StdPeriph_Driver/src/stm32f30x_syscfg.c ****   *     @arg SYSCFG_I2CFastModePlus_PB9: Configure fast mode plus driving capability for PB9
 278:/home/user/Desktop/STM32-Projekte/FH-Vertibot/src/STM32F30x_StdPeriph_Driver/src/stm32f30x_syscfg.c ****   *     @arg SYSCFG_I2CFastModePlus_I2C1: Configure fast mode plus driving capability for I2C1 pins
 279:/home/user/Desktop/STM32-Projekte/FH-Vertibot/src/STM32F30x_StdPeriph_Driver/src/stm32f30x_syscfg.c ****   *     @arg SYSCFG_I2CFastModePlus_I2C2: Configure fast mode plus driving capability for I2C2 pins
 280:/home/user/Desktop/STM32-Projekte/FH-Vertibot/src/STM32F30x_StdPeriph_Driver/src/stm32f30x_syscfg.c ****   * @param  NewState: new state of the DMA channel remapping. 
 281:/home/user/Desktop/STM32-Projekte/FH-Vertibot/src/STM32F30x_StdPeriph_Driver/src/stm32f30x_syscfg.c ****   *         This parameter can be:
 282:/home/user/Desktop/STM32-Projekte/FH-Vertibot/src/STM32F30x_StdPeriph_Driver/src/stm32f30x_syscfg.c ****   *     @arg ENABLE: Enable fast mode plus driving capability for selected I2C pin
 283:/home/user/Desktop/STM32-Projekte/FH-Vertibot/src/STM32F30x_StdPeriph_Driver/src/stm32f30x_syscfg.c ****   *     @arg DISABLE: Disable fast mode plus driving capability for selected I2C pin
 284:/home/user/Desktop/STM32-Projekte/FH-Vertibot/src/STM32F30x_StdPeriph_Driver/src/stm32f30x_syscfg.c ****   * @note  For I2C1, fast mode plus driving capability can be enabled on all selected
 285:/home/user/Desktop/STM32-Projekte/FH-Vertibot/src/STM32F30x_StdPeriph_Driver/src/stm32f30x_syscfg.c ****   *        I2C1 pins using SYSCFG_I2CFastModePlus_I2C1 parameter or independently
 286:/home/user/Desktop/STM32-Projekte/FH-Vertibot/src/STM32F30x_StdPeriph_Driver/src/stm32f30x_syscfg.c ****   *        on each one of the following pins PB6, PB7, PB8 and PB9.
 287:/home/user/Desktop/STM32-Projekte/FH-Vertibot/src/STM32F30x_StdPeriph_Driver/src/stm32f30x_syscfg.c ****   * @note  For remaing I2C1 pins (PA14, PA15...) fast mode plus driving capability
 288:/home/user/Desktop/STM32-Projekte/FH-Vertibot/src/STM32F30x_StdPeriph_Driver/src/stm32f30x_syscfg.c ****   *        can be enabled only by using SYSCFG_I2CFastModePlus_I2C1 parameter.
 289:/home/user/Desktop/STM32-Projekte/FH-Vertibot/src/STM32F30x_StdPeriph_Driver/src/stm32f30x_syscfg.c ****   * @note  For all I2C2 pins fast mode plus driving capability can be enabled
 290:/home/user/Desktop/STM32-Projekte/FH-Vertibot/src/STM32F30x_StdPeriph_Driver/src/stm32f30x_syscfg.c ****   *        only by using SYSCFG_I2CFastModePlus_I2C2 parameter.
 291:/home/user/Desktop/STM32-Projekte/FH-Vertibot/src/STM32F30x_StdPeriph_Driver/src/stm32f30x_syscfg.c ****   * @retval None
 292:/home/user/Desktop/STM32-Projekte/FH-Vertibot/src/STM32F30x_StdPeriph_Driver/src/stm32f30x_syscfg.c ****   */
 293:/home/user/Desktop/STM32-Projekte/FH-Vertibot/src/STM32F30x_StdPeriph_Driver/src/stm32f30x_syscfg.c **** void SYSCFG_I2CFastModePlusConfig(uint32_t SYSCFG_I2CFastModePlus, FunctionalState NewState)
 294:/home/user/Desktop/STM32-Projekte/FH-Vertibot/src/STM32F30x_StdPeriph_Driver/src/stm32f30x_syscfg.c **** {
 232              		.loc 1 294 0
 233              		.cfi_startproc
 234              		@ args = 0, pretend = 0, frame = 0
 235              		@ frame_needed = 0, uses_anonymous_args = 0
 236              		@ link register save eliminated.
 237              	.LVL15:
 238 0090 044B     		ldr	r3, .L30
 295:/home/user/Desktop/STM32-Projekte/FH-Vertibot/src/STM32F30x_StdPeriph_Driver/src/stm32f30x_syscfg.c ****   /* Check the parameters */
 296:/home/user/Desktop/STM32-Projekte/FH-Vertibot/src/STM32F30x_StdPeriph_Driver/src/stm32f30x_syscfg.c ****   assert_param(IS_SYSCFG_I2C_FMP(SYSCFG_I2CFastModePlus));
 297:/home/user/Desktop/STM32-Projekte/FH-Vertibot/src/STM32F30x_StdPeriph_Driver/src/stm32f30x_syscfg.c ****   assert_param(IS_FUNCTIONAL_STATE(NewState));
 298:/home/user/Desktop/STM32-Projekte/FH-Vertibot/src/STM32F30x_StdPeriph_Driver/src/stm32f30x_syscfg.c **** 
 299:/home/user/Desktop/STM32-Projekte/FH-Vertibot/src/STM32F30x_StdPeriph_Driver/src/stm32f30x_syscfg.c ****   if (NewState != DISABLE)
 300:/home/user/Desktop/STM32-Projekte/FH-Vertibot/src/STM32F30x_StdPeriph_Driver/src/stm32f30x_syscfg.c ****   {
 301:/home/user/Desktop/STM32-Projekte/FH-Vertibot/src/STM32F30x_StdPeriph_Driver/src/stm32f30x_syscfg.c ****     /* Enable fast mode plus driving capability for selected I2C pin */
 302:/home/user/Desktop/STM32-Projekte/FH-Vertibot/src/STM32F30x_StdPeriph_Driver/src/stm32f30x_syscfg.c ****     SYSCFG->CFGR1 |= (uint32_t)SYSCFG_I2CFastModePlus;
 239              		.loc 1 302 0
 240 0092 1A68     		ldr	r2, [r3]
 299:/home/user/Desktop/STM32-Projekte/FH-Vertibot/src/STM32F30x_StdPeriph_Driver/src/stm32f30x_syscfg.c ****   if (NewState != DISABLE)
 241              		.loc 1 299 0
 242 0094 09B1     		cbz	r1, .L27
 243              		.loc 1 302 0
 244 0096 1043     		orrs	r0, r0, r2
 245              	.LVL16:
 246 0098 01E0     		b	.L29
 247              	.LVL17:
 248              	.L27:
 303:/home/user/Desktop/STM32-Projekte/FH-Vertibot/src/STM32F30x_StdPeriph_Driver/src/stm32f30x_syscfg.c ****   }
 304:/home/user/Desktop/STM32-Projekte/FH-Vertibot/src/STM32F30x_StdPeriph_Driver/src/stm32f30x_syscfg.c ****   else
 305:/home/user/Desktop/STM32-Projekte/FH-Vertibot/src/STM32F30x_StdPeriph_Driver/src/stm32f30x_syscfg.c ****   {
 306:/home/user/Desktop/STM32-Projekte/FH-Vertibot/src/STM32F30x_StdPeriph_Driver/src/stm32f30x_syscfg.c ****     /* Disable fast mode plus driving capability for selected I2C pin */
 307:/home/user/Desktop/STM32-Projekte/FH-Vertibot/src/STM32F30x_StdPeriph_Driver/src/stm32f30x_syscfg.c ****     SYSCFG->CFGR1 &= (uint32_t)(~SYSCFG_I2CFastModePlus);
 249              		.loc 1 307 0
 250 009a 22EA0000 		bic	r0, r2, r0
 251              	.LVL18:
 252              	.L29:
 253 009e 1860     		str	r0, [r3]
 254 00a0 7047     		bx	lr
 255              	.L31:
 256 00a2 00BF     		.align	2
 257              	.L30:
 258 00a4 00000140 		.word	1073807360
 259              		.cfi_endproc
 260              	.LFE117:
 262              		.align	1
 263              		.global	SYSCFG_ITConfig
 264              		.thumb
 265              		.thumb_func
 267              	SYSCFG_ITConfig:
 268              	.LFB118:
 308:/home/user/Desktop/STM32-Projekte/FH-Vertibot/src/STM32F30x_StdPeriph_Driver/src/stm32f30x_syscfg.c ****   }
 309:/home/user/Desktop/STM32-Projekte/FH-Vertibot/src/STM32F30x_StdPeriph_Driver/src/stm32f30x_syscfg.c **** }
 310:/home/user/Desktop/STM32-Projekte/FH-Vertibot/src/STM32F30x_StdPeriph_Driver/src/stm32f30x_syscfg.c **** 
 311:/home/user/Desktop/STM32-Projekte/FH-Vertibot/src/STM32F30x_StdPeriph_Driver/src/stm32f30x_syscfg.c **** /**
 312:/home/user/Desktop/STM32-Projekte/FH-Vertibot/src/STM32F30x_StdPeriph_Driver/src/stm32f30x_syscfg.c ****   * @brief  Enables or disables the selected SYSCFG interrupts.
 313:/home/user/Desktop/STM32-Projekte/FH-Vertibot/src/STM32F30x_StdPeriph_Driver/src/stm32f30x_syscfg.c ****   * @param  SYSCFG_IT: specifies the SYSCFG interrupt sources to be enabled or disabled.
 314:/home/user/Desktop/STM32-Projekte/FH-Vertibot/src/STM32F30x_StdPeriph_Driver/src/stm32f30x_syscfg.c ****   *   This parameter can be one of the following values:
 315:/home/user/Desktop/STM32-Projekte/FH-Vertibot/src/STM32F30x_StdPeriph_Driver/src/stm32f30x_syscfg.c ****   *     @arg SYSCFG_IT_IXC: Inexact Interrupt
 316:/home/user/Desktop/STM32-Projekte/FH-Vertibot/src/STM32F30x_StdPeriph_Driver/src/stm32f30x_syscfg.c ****   *     @arg SYSCFG_IT_IDC: Input denormal Interrupt
 317:/home/user/Desktop/STM32-Projekte/FH-Vertibot/src/STM32F30x_StdPeriph_Driver/src/stm32f30x_syscfg.c ****   *     @arg SYSCFG_IT_OFC: Overflow Interrupt
 318:/home/user/Desktop/STM32-Projekte/FH-Vertibot/src/STM32F30x_StdPeriph_Driver/src/stm32f30x_syscfg.c ****   *     @arg SYSCFG_IT_UFC: Underflow Interrupt
 319:/home/user/Desktop/STM32-Projekte/FH-Vertibot/src/STM32F30x_StdPeriph_Driver/src/stm32f30x_syscfg.c ****   *     @arg SYSCFG_IT_DZC: Divide-by-zero Interrupt
 320:/home/user/Desktop/STM32-Projekte/FH-Vertibot/src/STM32F30x_StdPeriph_Driver/src/stm32f30x_syscfg.c ****   *     @arg SYSCFG_IT_IOC: Invalid operation Interrupt
 321:/home/user/Desktop/STM32-Projekte/FH-Vertibot/src/STM32F30x_StdPeriph_Driver/src/stm32f30x_syscfg.c ****   * @param  NewState: new state of the specified SYSCFG interrupts.
 322:/home/user/Desktop/STM32-Projekte/FH-Vertibot/src/STM32F30x_StdPeriph_Driver/src/stm32f30x_syscfg.c ****   *         This parameter can be: ENABLE or DISABLE.
 323:/home/user/Desktop/STM32-Projekte/FH-Vertibot/src/STM32F30x_StdPeriph_Driver/src/stm32f30x_syscfg.c ****   * @retval None
 324:/home/user/Desktop/STM32-Projekte/FH-Vertibot/src/STM32F30x_StdPeriph_Driver/src/stm32f30x_syscfg.c ****   */
 325:/home/user/Desktop/STM32-Projekte/FH-Vertibot/src/STM32F30x_StdPeriph_Driver/src/stm32f30x_syscfg.c **** void SYSCFG_ITConfig(uint32_t SYSCFG_IT, FunctionalState NewState)  
 326:/home/user/Desktop/STM32-Projekte/FH-Vertibot/src/STM32F30x_StdPeriph_Driver/src/stm32f30x_syscfg.c **** {
 269              		.loc 1 326 0
 270              		.cfi_startproc
 271              		@ args = 0, pretend = 0, frame = 0
 272              		@ frame_needed = 0, uses_anonymous_args = 0
 273              		@ link register save eliminated.
 274              	.LVL19:
 275 00a8 044B     		ldr	r3, .L36
 327:/home/user/Desktop/STM32-Projekte/FH-Vertibot/src/STM32F30x_StdPeriph_Driver/src/stm32f30x_syscfg.c ****   /* Check the parameters */
 328:/home/user/Desktop/STM32-Projekte/FH-Vertibot/src/STM32F30x_StdPeriph_Driver/src/stm32f30x_syscfg.c ****   assert_param(IS_FUNCTIONAL_STATE(NewState));
 329:/home/user/Desktop/STM32-Projekte/FH-Vertibot/src/STM32F30x_StdPeriph_Driver/src/stm32f30x_syscfg.c ****   assert_param(IS_SYSCFG_IT(SYSCFG_IT)); 
 330:/home/user/Desktop/STM32-Projekte/FH-Vertibot/src/STM32F30x_StdPeriph_Driver/src/stm32f30x_syscfg.c **** 
 331:/home/user/Desktop/STM32-Projekte/FH-Vertibot/src/STM32F30x_StdPeriph_Driver/src/stm32f30x_syscfg.c ****   if (NewState != DISABLE)
 332:/home/user/Desktop/STM32-Projekte/FH-Vertibot/src/STM32F30x_StdPeriph_Driver/src/stm32f30x_syscfg.c ****   {
 333:/home/user/Desktop/STM32-Projekte/FH-Vertibot/src/STM32F30x_StdPeriph_Driver/src/stm32f30x_syscfg.c ****     /* Enable the selected SYSCFG interrupts */
 334:/home/user/Desktop/STM32-Projekte/FH-Vertibot/src/STM32F30x_StdPeriph_Driver/src/stm32f30x_syscfg.c ****     SYSCFG->CFGR1 |= SYSCFG_IT;
 276              		.loc 1 334 0
 277 00aa 1A68     		ldr	r2, [r3]
 331:/home/user/Desktop/STM32-Projekte/FH-Vertibot/src/STM32F30x_StdPeriph_Driver/src/stm32f30x_syscfg.c ****   if (NewState != DISABLE)
 278              		.loc 1 331 0
 279 00ac 09B1     		cbz	r1, .L33
 280              		.loc 1 334 0
 281 00ae 1043     		orrs	r0, r0, r2
 282              	.LVL20:
 283 00b0 01E0     		b	.L35
 284              	.LVL21:
 285              	.L33:
 335:/home/user/Desktop/STM32-Projekte/FH-Vertibot/src/STM32F30x_StdPeriph_Driver/src/stm32f30x_syscfg.c ****   }
 336:/home/user/Desktop/STM32-Projekte/FH-Vertibot/src/STM32F30x_StdPeriph_Driver/src/stm32f30x_syscfg.c ****   else
 337:/home/user/Desktop/STM32-Projekte/FH-Vertibot/src/STM32F30x_StdPeriph_Driver/src/stm32f30x_syscfg.c ****   {
 338:/home/user/Desktop/STM32-Projekte/FH-Vertibot/src/STM32F30x_StdPeriph_Driver/src/stm32f30x_syscfg.c ****     /* Disable the selected SYSCFG interrupts */
 339:/home/user/Desktop/STM32-Projekte/FH-Vertibot/src/STM32F30x_StdPeriph_Driver/src/stm32f30x_syscfg.c ****     SYSCFG->CFGR1 &= ((uint32_t)~SYSCFG_IT);
 286              		.loc 1 339 0
 287 00b2 22EA0000 		bic	r0, r2, r0
 288              	.LVL22:
 289              	.L35:
 290 00b6 1860     		str	r0, [r3]
 291 00b8 7047     		bx	lr
 292              	.L37:
 293 00ba 00BF     		.align	2
 294              	.L36:
 295 00bc 00000140 		.word	1073807360
 296              		.cfi_endproc
 297              	.LFE118:
 299              		.align	1
 300              		.global	SYSCFG_EXTILineConfig
 301              		.thumb
 302              		.thumb_func
 304              	SYSCFG_EXTILineConfig:
 305              	.LFB119:
 340:/home/user/Desktop/STM32-Projekte/FH-Vertibot/src/STM32F30x_StdPeriph_Driver/src/stm32f30x_syscfg.c ****   }
 341:/home/user/Desktop/STM32-Projekte/FH-Vertibot/src/STM32F30x_StdPeriph_Driver/src/stm32f30x_syscfg.c **** }
 342:/home/user/Desktop/STM32-Projekte/FH-Vertibot/src/STM32F30x_StdPeriph_Driver/src/stm32f30x_syscfg.c **** 
 343:/home/user/Desktop/STM32-Projekte/FH-Vertibot/src/STM32F30x_StdPeriph_Driver/src/stm32f30x_syscfg.c **** /**
 344:/home/user/Desktop/STM32-Projekte/FH-Vertibot/src/STM32F30x_StdPeriph_Driver/src/stm32f30x_syscfg.c ****   * @brief  Selects the GPIO pin used as EXTI Line.
 345:/home/user/Desktop/STM32-Projekte/FH-Vertibot/src/STM32F30x_StdPeriph_Driver/src/stm32f30x_syscfg.c ****   * @param  EXTI_PortSourceGPIOx : selects the GPIO port to be used as source 
 346:/home/user/Desktop/STM32-Projekte/FH-Vertibot/src/STM32F30x_StdPeriph_Driver/src/stm32f30x_syscfg.c ****   *                                for EXTI lines where x can be (A, B, C, D, E or F).
 347:/home/user/Desktop/STM32-Projekte/FH-Vertibot/src/STM32F30x_StdPeriph_Driver/src/stm32f30x_syscfg.c ****   * @param  EXTI_PinSourcex: specifies the EXTI line to be configured.
 348:/home/user/Desktop/STM32-Projekte/FH-Vertibot/src/STM32F30x_StdPeriph_Driver/src/stm32f30x_syscfg.c ****   *         This parameter can be EXTI_PinSourcex where x can be (0..15)
 349:/home/user/Desktop/STM32-Projekte/FH-Vertibot/src/STM32F30x_StdPeriph_Driver/src/stm32f30x_syscfg.c ****   * @retval None
 350:/home/user/Desktop/STM32-Projekte/FH-Vertibot/src/STM32F30x_StdPeriph_Driver/src/stm32f30x_syscfg.c ****   */
 351:/home/user/Desktop/STM32-Projekte/FH-Vertibot/src/STM32F30x_StdPeriph_Driver/src/stm32f30x_syscfg.c **** void SYSCFG_EXTILineConfig(uint8_t EXTI_PortSourceGPIOx, uint8_t EXTI_PinSourcex)
 352:/home/user/Desktop/STM32-Projekte/FH-Vertibot/src/STM32F30x_StdPeriph_Driver/src/stm32f30x_syscfg.c **** {
 306              		.loc 1 352 0
 307              		.cfi_startproc
 308              		@ args = 0, pretend = 0, frame = 0
 309              		@ frame_needed = 0, uses_anonymous_args = 0
 310              	.LVL23:
 353:/home/user/Desktop/STM32-Projekte/FH-Vertibot/src/STM32F30x_StdPeriph_Driver/src/stm32f30x_syscfg.c ****   uint32_t tmp = 0x00;
 354:/home/user/Desktop/STM32-Projekte/FH-Vertibot/src/STM32F30x_StdPeriph_Driver/src/stm32f30x_syscfg.c **** 
 355:/home/user/Desktop/STM32-Projekte/FH-Vertibot/src/STM32F30x_StdPeriph_Driver/src/stm32f30x_syscfg.c ****   /* Check the parameters */
 356:/home/user/Desktop/STM32-Projekte/FH-Vertibot/src/STM32F30x_StdPeriph_Driver/src/stm32f30x_syscfg.c ****   assert_param(IS_EXTI_PORT_SOURCE(EXTI_PortSourceGPIOx));
 357:/home/user/Desktop/STM32-Projekte/FH-Vertibot/src/STM32F30x_StdPeriph_Driver/src/stm32f30x_syscfg.c ****   assert_param(IS_EXTI_PIN_SOURCE(EXTI_PinSourcex));
 358:/home/user/Desktop/STM32-Projekte/FH-Vertibot/src/STM32F30x_StdPeriph_Driver/src/stm32f30x_syscfg.c ****   
 359:/home/user/Desktop/STM32-Projekte/FH-Vertibot/src/STM32F30x_StdPeriph_Driver/src/stm32f30x_syscfg.c ****   tmp = ((uint32_t)0x0F) << (0x04 * (EXTI_PinSourcex & (uint8_t)0x03));
 311              		.loc 1 359 0
 312 00c0 01F00303 		and	r3, r1, #3
 313 00c4 01F0FC01 		and	r1, r1, #252
 314              	.LVL24:
 315 00c8 01F18041 		add	r1, r1, #1073741824
 316 00cc 01F58031 		add	r1, r1, #65536
 352:/home/user/Desktop/STM32-Projekte/FH-Vertibot/src/STM32F30x_StdPeriph_Driver/src/stm32f30x_syscfg.c **** {
 317              		.loc 1 352 0
 318 00d0 10B5     		push	{r4, lr}
 319              	.LCFI0:
 320              		.cfi_def_cfa_offset 8
 321              		.cfi_offset 4, -8
 322              		.cfi_offset 14, -4
 323              		.loc 1 359 0
 324 00d2 9B00     		lsls	r3, r3, #2
 325              	.LVL25:
 360:/home/user/Desktop/STM32-Projekte/FH-Vertibot/src/STM32F30x_StdPeriph_Driver/src/stm32f30x_syscfg.c ****   SYSCFG->EXTICR[EXTI_PinSourcex >> 0x02] &= ~tmp;
 326              		.loc 1 360 0
 327 00d4 8C68     		ldr	r4, [r1, #8]
 359:/home/user/Desktop/STM32-Projekte/FH-Vertibot/src/STM32F30x_StdPeriph_Driver/src/stm32f30x_syscfg.c ****   tmp = ((uint32_t)0x0F) << (0x04 * (EXTI_PinSourcex & (uint8_t)0x03));
 328              		.loc 1 359 0
 329 00d6 0F22     		movs	r2, #15
 330 00d8 9A40     		lsls	r2, r2, r3
 331              	.LVL26:
 332              		.loc 1 360 0
 333 00da 24EA0202 		bic	r2, r4, r2
 334              	.LVL27:
 335 00de 8A60     		str	r2, [r1, #8]
 361:/home/user/Desktop/STM32-Projekte/FH-Vertibot/src/STM32F30x_StdPeriph_Driver/src/stm32f30x_syscfg.c ****   SYSCFG->EXTICR[EXTI_PinSourcex >> 0x02] |= (((uint32_t)EXTI_PortSourceGPIOx) << (0x04 * (EXTI_Pin
 336              		.loc 1 361 0
 337 00e0 8A68     		ldr	r2, [r1, #8]
 338 00e2 9840     		lsls	r0, r0, r3
 339              	.LVL28:
 340 00e4 0243     		orrs	r2, r2, r0
 341 00e6 8A60     		str	r2, [r1, #8]
 342 00e8 10BD     		pop	{r4, pc}
 343              		.cfi_endproc
 344              	.LFE119:
 346              		.align	1
 347              		.global	SYSCFG_BreakConfig
 348              		.thumb
 349              		.thumb_func
 351              	SYSCFG_BreakConfig:
 352              	.LFB120:
 362:/home/user/Desktop/STM32-Projekte/FH-Vertibot/src/STM32F30x_StdPeriph_Driver/src/stm32f30x_syscfg.c **** }
 363:/home/user/Desktop/STM32-Projekte/FH-Vertibot/src/STM32F30x_StdPeriph_Driver/src/stm32f30x_syscfg.c **** 
 364:/home/user/Desktop/STM32-Projekte/FH-Vertibot/src/STM32F30x_StdPeriph_Driver/src/stm32f30x_syscfg.c **** /**
 365:/home/user/Desktop/STM32-Projekte/FH-Vertibot/src/STM32F30x_StdPeriph_Driver/src/stm32f30x_syscfg.c ****   * @brief  Connects the selected parameter to the break input of TIM1.
 366:/home/user/Desktop/STM32-Projekte/FH-Vertibot/src/STM32F30x_StdPeriph_Driver/src/stm32f30x_syscfg.c ****   * @note   The selected configuration is locked and can be unlocked by system reset
 367:/home/user/Desktop/STM32-Projekte/FH-Vertibot/src/STM32F30x_StdPeriph_Driver/src/stm32f30x_syscfg.c ****   * @param  SYSCFG_Break: selects the configuration to be connected to break
 368:/home/user/Desktop/STM32-Projekte/FH-Vertibot/src/STM32F30x_StdPeriph_Driver/src/stm32f30x_syscfg.c ****   *         input of TIM1
 369:/home/user/Desktop/STM32-Projekte/FH-Vertibot/src/STM32F30x_StdPeriph_Driver/src/stm32f30x_syscfg.c ****   *   This parameter can be any combination of the following values:
 370:/home/user/Desktop/STM32-Projekte/FH-Vertibot/src/STM32F30x_StdPeriph_Driver/src/stm32f30x_syscfg.c ****   *     @arg SYSCFG_Break_PVD: PVD interrupt is connected to the break input of TIM1.
 371:/home/user/Desktop/STM32-Projekte/FH-Vertibot/src/STM32F30x_StdPeriph_Driver/src/stm32f30x_syscfg.c ****   *     @arg SYSCFG_Break_SRAMParity: SRAM Parity error is connected to the break input of TIM1.
 372:/home/user/Desktop/STM32-Projekte/FH-Vertibot/src/STM32F30x_StdPeriph_Driver/src/stm32f30x_syscfg.c ****   *     @arg SYSCFG_Break_HardFault: Lockup output of CortexM4 is connected to the break input of T
 373:/home/user/Desktop/STM32-Projekte/FH-Vertibot/src/STM32F30x_StdPeriph_Driver/src/stm32f30x_syscfg.c ****   * @retval None
 374:/home/user/Desktop/STM32-Projekte/FH-Vertibot/src/STM32F30x_StdPeriph_Driver/src/stm32f30x_syscfg.c ****   */
 375:/home/user/Desktop/STM32-Projekte/FH-Vertibot/src/STM32F30x_StdPeriph_Driver/src/stm32f30x_syscfg.c **** void SYSCFG_BreakConfig(uint32_t SYSCFG_Break)
 376:/home/user/Desktop/STM32-Projekte/FH-Vertibot/src/STM32F30x_StdPeriph_Driver/src/stm32f30x_syscfg.c **** {
 353              		.loc 1 376 0
 354              		.cfi_startproc
 355              		@ args = 0, pretend = 0, frame = 0
 356              		@ frame_needed = 0, uses_anonymous_args = 0
 357              		@ link register save eliminated.
 358              	.LVL29:
 377:/home/user/Desktop/STM32-Projekte/FH-Vertibot/src/STM32F30x_StdPeriph_Driver/src/stm32f30x_syscfg.c ****   /* Check the parameter */
 378:/home/user/Desktop/STM32-Projekte/FH-Vertibot/src/STM32F30x_StdPeriph_Driver/src/stm32f30x_syscfg.c ****   assert_param(IS_SYSCFG_LOCK_CONFIG(SYSCFG_Break));
 379:/home/user/Desktop/STM32-Projekte/FH-Vertibot/src/STM32F30x_StdPeriph_Driver/src/stm32f30x_syscfg.c **** 
 380:/home/user/Desktop/STM32-Projekte/FH-Vertibot/src/STM32F30x_StdPeriph_Driver/src/stm32f30x_syscfg.c ****   SYSCFG->CFGR2 |= (uint32_t) SYSCFG_Break;
 359              		.loc 1 380 0
 360 00ea 024B     		ldr	r3, .L40
 361 00ec 9A69     		ldr	r2, [r3, #24]
 362 00ee 1043     		orrs	r0, r0, r2
 363              	.LVL30:
 364 00f0 9861     		str	r0, [r3, #24]
 365 00f2 7047     		bx	lr
 366              	.L41:
 367              		.align	2
 368              	.L40:
 369 00f4 00000140 		.word	1073807360
 370              		.cfi_endproc
 371              	.LFE120:
 373              		.align	1
 374              		.global	SYSCFG_BypassParityCheckDisable
 375              		.thumb
 376              		.thumb_func
 378              	SYSCFG_BypassParityCheckDisable:
 379              	.LFB121:
 381:/home/user/Desktop/STM32-Projekte/FH-Vertibot/src/STM32F30x_StdPeriph_Driver/src/stm32f30x_syscfg.c **** }
 382:/home/user/Desktop/STM32-Projekte/FH-Vertibot/src/STM32F30x_StdPeriph_Driver/src/stm32f30x_syscfg.c **** 
 383:/home/user/Desktop/STM32-Projekte/FH-Vertibot/src/STM32F30x_StdPeriph_Driver/src/stm32f30x_syscfg.c **** /**
 384:/home/user/Desktop/STM32-Projekte/FH-Vertibot/src/STM32F30x_StdPeriph_Driver/src/stm32f30x_syscfg.c ****   * @brief  Disables the parity check on RAM.
 385:/home/user/Desktop/STM32-Projekte/FH-Vertibot/src/STM32F30x_StdPeriph_Driver/src/stm32f30x_syscfg.c ****   * @note   Disabling the parity check on RAM locks the configuration bit.
 386:/home/user/Desktop/STM32-Projekte/FH-Vertibot/src/STM32F30x_StdPeriph_Driver/src/stm32f30x_syscfg.c ****   *         To re-enable the parity check on RAM perform a system reset.  
 387:/home/user/Desktop/STM32-Projekte/FH-Vertibot/src/STM32F30x_StdPeriph_Driver/src/stm32f30x_syscfg.c ****   * @param  None
 388:/home/user/Desktop/STM32-Projekte/FH-Vertibot/src/STM32F30x_StdPeriph_Driver/src/stm32f30x_syscfg.c ****   * @retval None
 389:/home/user/Desktop/STM32-Projekte/FH-Vertibot/src/STM32F30x_StdPeriph_Driver/src/stm32f30x_syscfg.c ****   */
 390:/home/user/Desktop/STM32-Projekte/FH-Vertibot/src/STM32F30x_StdPeriph_Driver/src/stm32f30x_syscfg.c **** void SYSCFG_BypassParityCheckDisable(void)
 391:/home/user/Desktop/STM32-Projekte/FH-Vertibot/src/STM32F30x_StdPeriph_Driver/src/stm32f30x_syscfg.c **** {
 380              		.loc 1 391 0
 381              		.cfi_startproc
 382              		@ args = 0, pretend = 0, frame = 0
 383              		@ frame_needed = 0, uses_anonymous_args = 0
 384              		@ link register save eliminated.
 392:/home/user/Desktop/STM32-Projekte/FH-Vertibot/src/STM32F30x_StdPeriph_Driver/src/stm32f30x_syscfg.c ****   /* Disable the adddress parity check on RAM */
 393:/home/user/Desktop/STM32-Projekte/FH-Vertibot/src/STM32F30x_StdPeriph_Driver/src/stm32f30x_syscfg.c ****   *(__IO uint32_t *) CFGR1_BYPADDRPAR_BB = (uint32_t)0x00000001;
 385              		.loc 1 393 0
 386 00f8 014B     		ldr	r3, .L43
 387 00fa 0122     		movs	r2, #1
 388 00fc 1A60     		str	r2, [r3]
 389 00fe 7047     		bx	lr
 390              	.L44:
 391              		.align	2
 392              	.L43:
 393 0100 10032042 		.word	1109394192
 394              		.cfi_endproc
 395              	.LFE121:
 397              		.align	1
 398              		.global	SYSCFG_SRAMWRPEnable
 399              		.thumb
 400              		.thumb_func
 402              	SYSCFG_SRAMWRPEnable:
 403              	.LFB122:
 394:/home/user/Desktop/STM32-Projekte/FH-Vertibot/src/STM32F30x_StdPeriph_Driver/src/stm32f30x_syscfg.c **** }
 395:/home/user/Desktop/STM32-Projekte/FH-Vertibot/src/STM32F30x_StdPeriph_Driver/src/stm32f30x_syscfg.c **** 
 396:/home/user/Desktop/STM32-Projekte/FH-Vertibot/src/STM32F30x_StdPeriph_Driver/src/stm32f30x_syscfg.c **** /**
 397:/home/user/Desktop/STM32-Projekte/FH-Vertibot/src/STM32F30x_StdPeriph_Driver/src/stm32f30x_syscfg.c ****   * @brief  Enables the ICODE SRAM write protection.
 398:/home/user/Desktop/STM32-Projekte/FH-Vertibot/src/STM32F30x_StdPeriph_Driver/src/stm32f30x_syscfg.c ****   * @note   Enabling the ICODE SRAM write protection locks the configuration bit.
 399:/home/user/Desktop/STM32-Projekte/FH-Vertibot/src/STM32F30x_StdPeriph_Driver/src/stm32f30x_syscfg.c ****   *         To disable the ICODE SRAM write protection perform a system reset.
 400:/home/user/Desktop/STM32-Projekte/FH-Vertibot/src/STM32F30x_StdPeriph_Driver/src/stm32f30x_syscfg.c ****   * @param  None
 401:/home/user/Desktop/STM32-Projekte/FH-Vertibot/src/STM32F30x_StdPeriph_Driver/src/stm32f30x_syscfg.c ****   * @retval None
 402:/home/user/Desktop/STM32-Projekte/FH-Vertibot/src/STM32F30x_StdPeriph_Driver/src/stm32f30x_syscfg.c ****   */
 403:/home/user/Desktop/STM32-Projekte/FH-Vertibot/src/STM32F30x_StdPeriph_Driver/src/stm32f30x_syscfg.c **** void SYSCFG_SRAMWRPEnable(uint32_t SYSCFG_SRAMWRP)
 404:/home/user/Desktop/STM32-Projekte/FH-Vertibot/src/STM32F30x_StdPeriph_Driver/src/stm32f30x_syscfg.c **** {
 404              		.loc 1 404 0
 405              		.cfi_startproc
 406              		@ args = 0, pretend = 0, frame = 0
 407              		@ frame_needed = 0, uses_anonymous_args = 0
 408              		@ link register save eliminated.
 409              	.LVL31:
 405:/home/user/Desktop/STM32-Projekte/FH-Vertibot/src/STM32F30x_StdPeriph_Driver/src/stm32f30x_syscfg.c ****   /* Check the parameter */
 406:/home/user/Desktop/STM32-Projekte/FH-Vertibot/src/STM32F30x_StdPeriph_Driver/src/stm32f30x_syscfg.c ****   assert_param(IS_SYSCFG_PAGE(SYSCFG_SRAMWRP));
 407:/home/user/Desktop/STM32-Projekte/FH-Vertibot/src/STM32F30x_StdPeriph_Driver/src/stm32f30x_syscfg.c **** 
 408:/home/user/Desktop/STM32-Projekte/FH-Vertibot/src/STM32F30x_StdPeriph_Driver/src/stm32f30x_syscfg.c ****   /* Enable the write-protection on the selected ICODE SRAM page */
 409:/home/user/Desktop/STM32-Projekte/FH-Vertibot/src/STM32F30x_StdPeriph_Driver/src/stm32f30x_syscfg.c ****   SYSCFG->RCR |= (uint32_t)SYSCFG_SRAMWRP;
 410              		.loc 1 409 0
 411 0104 024B     		ldr	r3, .L46
 412 0106 5A68     		ldr	r2, [r3, #4]
 413 0108 1043     		orrs	r0, r0, r2
 414              	.LVL32:
 415 010a 5860     		str	r0, [r3, #4]
 416 010c 7047     		bx	lr
 417              	.L47:
 418 010e 00BF     		.align	2
 419              	.L46:
 420 0110 00000140 		.word	1073807360
 421              		.cfi_endproc
 422              	.LFE122:
 424              		.align	1
 425              		.global	SYSCFG_GetFlagStatus
 426              		.thumb
 427              		.thumb_func
 429              	SYSCFG_GetFlagStatus:
 430              	.LFB123:
 410:/home/user/Desktop/STM32-Projekte/FH-Vertibot/src/STM32F30x_StdPeriph_Driver/src/stm32f30x_syscfg.c **** }
 411:/home/user/Desktop/STM32-Projekte/FH-Vertibot/src/STM32F30x_StdPeriph_Driver/src/stm32f30x_syscfg.c **** 
 412:/home/user/Desktop/STM32-Projekte/FH-Vertibot/src/STM32F30x_StdPeriph_Driver/src/stm32f30x_syscfg.c **** /**
 413:/home/user/Desktop/STM32-Projekte/FH-Vertibot/src/STM32F30x_StdPeriph_Driver/src/stm32f30x_syscfg.c ****   * @brief  Checks whether the specified SYSCFG flag is set or not.
 414:/home/user/Desktop/STM32-Projekte/FH-Vertibot/src/STM32F30x_StdPeriph_Driver/src/stm32f30x_syscfg.c ****   * @param  SYSCFG_Flag: specifies the SYSCFG flag to check. 
 415:/home/user/Desktop/STM32-Projekte/FH-Vertibot/src/STM32F30x_StdPeriph_Driver/src/stm32f30x_syscfg.c ****   *   This parameter can be one of the following values:
 416:/home/user/Desktop/STM32-Projekte/FH-Vertibot/src/STM32F30x_StdPeriph_Driver/src/stm32f30x_syscfg.c ****   *     @arg SYSCFG_FLAG_PE: SRAM parity error flag.
 417:/home/user/Desktop/STM32-Projekte/FH-Vertibot/src/STM32F30x_StdPeriph_Driver/src/stm32f30x_syscfg.c ****   * @retval The new state of SYSCFG_Flag (SET or RESET).
 418:/home/user/Desktop/STM32-Projekte/FH-Vertibot/src/STM32F30x_StdPeriph_Driver/src/stm32f30x_syscfg.c ****   */
 419:/home/user/Desktop/STM32-Projekte/FH-Vertibot/src/STM32F30x_StdPeriph_Driver/src/stm32f30x_syscfg.c **** FlagStatus SYSCFG_GetFlagStatus(uint32_t SYSCFG_Flag)
 420:/home/user/Desktop/STM32-Projekte/FH-Vertibot/src/STM32F30x_StdPeriph_Driver/src/stm32f30x_syscfg.c **** {
 431              		.loc 1 420 0
 432              		.cfi_startproc
 433              		@ args = 0, pretend = 0, frame = 0
 434              		@ frame_needed = 0, uses_anonymous_args = 0
 435              		@ link register save eliminated.
 436              	.LVL33:
 421:/home/user/Desktop/STM32-Projekte/FH-Vertibot/src/STM32F30x_StdPeriph_Driver/src/stm32f30x_syscfg.c ****   FlagStatus bitstatus = RESET;
 422:/home/user/Desktop/STM32-Projekte/FH-Vertibot/src/STM32F30x_StdPeriph_Driver/src/stm32f30x_syscfg.c **** 
 423:/home/user/Desktop/STM32-Projekte/FH-Vertibot/src/STM32F30x_StdPeriph_Driver/src/stm32f30x_syscfg.c ****   /* Check the parameter */
 424:/home/user/Desktop/STM32-Projekte/FH-Vertibot/src/STM32F30x_StdPeriph_Driver/src/stm32f30x_syscfg.c ****   assert_param(IS_SYSCFG_FLAG(SYSCFG_Flag));
 425:/home/user/Desktop/STM32-Projekte/FH-Vertibot/src/STM32F30x_StdPeriph_Driver/src/stm32f30x_syscfg.c **** 
 426:/home/user/Desktop/STM32-Projekte/FH-Vertibot/src/STM32F30x_StdPeriph_Driver/src/stm32f30x_syscfg.c ****   /* Check the status of the specified SPI flag */
 427:/home/user/Desktop/STM32-Projekte/FH-Vertibot/src/STM32F30x_StdPeriph_Driver/src/stm32f30x_syscfg.c ****   if ((SYSCFG->CFGR2 & SYSCFG_CFGR2_SRAM_PE) != (uint32_t)RESET)
 437              		.loc 1 427 0
 438 0114 024B     		ldr	r3, .L49
 439 0116 9869     		ldr	r0, [r3, #24]
 440              	.LVL34:
 428:/home/user/Desktop/STM32-Projekte/FH-Vertibot/src/STM32F30x_StdPeriph_Driver/src/stm32f30x_syscfg.c ****   {
 429:/home/user/Desktop/STM32-Projekte/FH-Vertibot/src/STM32F30x_StdPeriph_Driver/src/stm32f30x_syscfg.c ****     /* SYSCFG_Flag is set */
 430:/home/user/Desktop/STM32-Projekte/FH-Vertibot/src/STM32F30x_StdPeriph_Driver/src/stm32f30x_syscfg.c ****     bitstatus = SET;
 431:/home/user/Desktop/STM32-Projekte/FH-Vertibot/src/STM32F30x_StdPeriph_Driver/src/stm32f30x_syscfg.c ****   }
 432:/home/user/Desktop/STM32-Projekte/FH-Vertibot/src/STM32F30x_StdPeriph_Driver/src/stm32f30x_syscfg.c ****   else
 433:/home/user/Desktop/STM32-Projekte/FH-Vertibot/src/STM32F30x_StdPeriph_Driver/src/stm32f30x_syscfg.c ****   {
 434:/home/user/Desktop/STM32-Projekte/FH-Vertibot/src/STM32F30x_StdPeriph_Driver/src/stm32f30x_syscfg.c ****     /* SYSCFG_Flag is reset */
 435:/home/user/Desktop/STM32-Projekte/FH-Vertibot/src/STM32F30x_StdPeriph_Driver/src/stm32f30x_syscfg.c ****     bitstatus = RESET;
 436:/home/user/Desktop/STM32-Projekte/FH-Vertibot/src/STM32F30x_StdPeriph_Driver/src/stm32f30x_syscfg.c ****   }
 437:/home/user/Desktop/STM32-Projekte/FH-Vertibot/src/STM32F30x_StdPeriph_Driver/src/stm32f30x_syscfg.c ****   /* Return the SYSCFG_Flag status */
 438:/home/user/Desktop/STM32-Projekte/FH-Vertibot/src/STM32F30x_StdPeriph_Driver/src/stm32f30x_syscfg.c ****   return  bitstatus;
 439:/home/user/Desktop/STM32-Projekte/FH-Vertibot/src/STM32F30x_StdPeriph_Driver/src/stm32f30x_syscfg.c **** }
 441              		.loc 1 439 0
 442 0118 C0F30020 		ubfx	r0, r0, #8, #1
 443              	.LVL35:
 444 011c 7047     		bx	lr
 445              	.L50:
 446 011e 00BF     		.align	2
 447              	.L49:
 448 0120 00000140 		.word	1073807360
 449              		.cfi_endproc
 450              	.LFE123:
 452              		.align	1
 453              		.global	SYSCFG_ClearFlag
 454              		.thumb
 455              		.thumb_func
 457              	SYSCFG_ClearFlag:
 458              	.LFB124:
 440:/home/user/Desktop/STM32-Projekte/FH-Vertibot/src/STM32F30x_StdPeriph_Driver/src/stm32f30x_syscfg.c **** 
 441:/home/user/Desktop/STM32-Projekte/FH-Vertibot/src/STM32F30x_StdPeriph_Driver/src/stm32f30x_syscfg.c **** /**
 442:/home/user/Desktop/STM32-Projekte/FH-Vertibot/src/STM32F30x_StdPeriph_Driver/src/stm32f30x_syscfg.c ****   * @brief  Clears the selected SYSCFG flag.
 443:/home/user/Desktop/STM32-Projekte/FH-Vertibot/src/STM32F30x_StdPeriph_Driver/src/stm32f30x_syscfg.c ****   * @param  SYSCFG_Flag: selects the flag to be cleared.
 444:/home/user/Desktop/STM32-Projekte/FH-Vertibot/src/STM32F30x_StdPeriph_Driver/src/stm32f30x_syscfg.c ****   *   This parameter can be any combination of the following values:
 445:/home/user/Desktop/STM32-Projekte/FH-Vertibot/src/STM32F30x_StdPeriph_Driver/src/stm32f30x_syscfg.c ****   *     @arg SYSCFG_FLAG_PE: SRAM parity error flag.
 446:/home/user/Desktop/STM32-Projekte/FH-Vertibot/src/STM32F30x_StdPeriph_Driver/src/stm32f30x_syscfg.c ****   * @retval None
 447:/home/user/Desktop/STM32-Projekte/FH-Vertibot/src/STM32F30x_StdPeriph_Driver/src/stm32f30x_syscfg.c ****   */
 448:/home/user/Desktop/STM32-Projekte/FH-Vertibot/src/STM32F30x_StdPeriph_Driver/src/stm32f30x_syscfg.c **** void SYSCFG_ClearFlag(uint32_t SYSCFG_Flag)
 449:/home/user/Desktop/STM32-Projekte/FH-Vertibot/src/STM32F30x_StdPeriph_Driver/src/stm32f30x_syscfg.c **** {
 459              		.loc 1 449 0
 460              		.cfi_startproc
 461              		@ args = 0, pretend = 0, frame = 0
 462              		@ frame_needed = 0, uses_anonymous_args = 0
 463              		@ link register save eliminated.
 464              	.LVL36:
 450:/home/user/Desktop/STM32-Projekte/FH-Vertibot/src/STM32F30x_StdPeriph_Driver/src/stm32f30x_syscfg.c ****   /* Check the parameter */
 451:/home/user/Desktop/STM32-Projekte/FH-Vertibot/src/STM32F30x_StdPeriph_Driver/src/stm32f30x_syscfg.c ****   assert_param(IS_SYSCFG_FLAG(SYSCFG_Flag));
 452:/home/user/Desktop/STM32-Projekte/FH-Vertibot/src/STM32F30x_StdPeriph_Driver/src/stm32f30x_syscfg.c **** 
 453:/home/user/Desktop/STM32-Projekte/FH-Vertibot/src/STM32F30x_StdPeriph_Driver/src/stm32f30x_syscfg.c ****   SYSCFG->CFGR2 |= (uint32_t) SYSCFG_Flag;
 465              		.loc 1 453 0
 466 0124 024B     		ldr	r3, .L52
 467 0126 9A69     		ldr	r2, [r3, #24]
 468 0128 1043     		orrs	r0, r0, r2
 469              	.LVL37:
 470 012a 9861     		str	r0, [r3, #24]
 471 012c 7047     		bx	lr
 472              	.L53:
 473 012e 00BF     		.align	2
 474              	.L52:
 475 0130 00000140 		.word	1073807360
 476              		.cfi_endproc
 477              	.LFE124:
 479              	.Letext0:
 480              		.file 2 "/home/user/gcc-arm-none-eabi-4_8-2013q4/arm-none-eabi/include/stdint.h"
 481              		.file 3 "/home/user/Desktop/STM32-Projekte/FH-Vertibot/src/CMSIS/Device/ST/STM32F30x/Include/stm32
 482              		.file 4 "/home/user/Desktop/STM32-Projekte/FH-Vertibot/src/CMSIS/Include/core_cm4.h"