   1              		.syntax unified
   2              		.cpu cortex-m4
   3              		.eabi_attribute 27, 3
   4              		.eabi_attribute 28, 1
   5              		.fpu fpv4-sp-d16
   6              		.eabi_attribute 20, 1
   7              		.eabi_attribute 21, 1
   8              		.eabi_attribute 23, 3
   9              		.eabi_attribute 24, 1
  10              		.eabi_attribute 25, 1
  11              		.eabi_attribute 26, 1
  12              		.eabi_attribute 30, 4
  13              		.eabi_attribute 34, 1
  14              		.eabi_attribute 18, 4
  15              		.thumb
  16              		.file	"stm32f30x_gpio.c"
  17              		.text
  18              	.Ltext0:
  19              		.cfi_sections	.debug_frame
  20              		.align	1
  21              		.global	GPIO_DeInit
  22              		.thumb
  23              		.thumb_func
  25              	GPIO_DeInit:
  26              	.LFB111:
  27              		.file 1 "/home/user/Desktop/STM32-Projekte/FH-Vertibot/src/STM32F30x_StdPeriph_Driver/src/stm32f30
   1:/home/user/Desktop/STM32-Projekte/FH-Vertibot/src/STM32F30x_StdPeriph_Driver/src/stm32f30x_gpio.c **** /**
   2:/home/user/Desktop/STM32-Projekte/FH-Vertibot/src/STM32F30x_StdPeriph_Driver/src/stm32f30x_gpio.c ****   ******************************************************************************
   3:/home/user/Desktop/STM32-Projekte/FH-Vertibot/src/STM32F30x_StdPeriph_Driver/src/stm32f30x_gpio.c ****   * @file    stm32f30x_gpio.c
   4:/home/user/Desktop/STM32-Projekte/FH-Vertibot/src/STM32F30x_StdPeriph_Driver/src/stm32f30x_gpio.c ****   * @author  MCD Application Team
   5:/home/user/Desktop/STM32-Projekte/FH-Vertibot/src/STM32F30x_StdPeriph_Driver/src/stm32f30x_gpio.c ****   * @version V1.0.1
   6:/home/user/Desktop/STM32-Projekte/FH-Vertibot/src/STM32F30x_StdPeriph_Driver/src/stm32f30x_gpio.c ****   * @date    23-October-2012
   7:/home/user/Desktop/STM32-Projekte/FH-Vertibot/src/STM32F30x_StdPeriph_Driver/src/stm32f30x_gpio.c ****   * @brief   This file provides firmware functions to manage the following 
   8:/home/user/Desktop/STM32-Projekte/FH-Vertibot/src/STM32F30x_StdPeriph_Driver/src/stm32f30x_gpio.c ****   *          functionalities of the GPIO peripheral:
   9:/home/user/Desktop/STM32-Projekte/FH-Vertibot/src/STM32F30x_StdPeriph_Driver/src/stm32f30x_gpio.c ****   *           + Initialization and Configuration functions
  10:/home/user/Desktop/STM32-Projekte/FH-Vertibot/src/STM32F30x_StdPeriph_Driver/src/stm32f30x_gpio.c ****   *           + GPIO Read and Write functions
  11:/home/user/Desktop/STM32-Projekte/FH-Vertibot/src/STM32F30x_StdPeriph_Driver/src/stm32f30x_gpio.c ****   *           + GPIO Alternate functions configuration functions
  12:/home/user/Desktop/STM32-Projekte/FH-Vertibot/src/STM32F30x_StdPeriph_Driver/src/stm32f30x_gpio.c ****   *
  13:/home/user/Desktop/STM32-Projekte/FH-Vertibot/src/STM32F30x_StdPeriph_Driver/src/stm32f30x_gpio.c ****   *  @verbatim
  14:/home/user/Desktop/STM32-Projekte/FH-Vertibot/src/STM32F30x_StdPeriph_Driver/src/stm32f30x_gpio.c **** 
  15:/home/user/Desktop/STM32-Projekte/FH-Vertibot/src/STM32F30x_StdPeriph_Driver/src/stm32f30x_gpio.c **** 
  16:/home/user/Desktop/STM32-Projekte/FH-Vertibot/src/STM32F30x_StdPeriph_Driver/src/stm32f30x_gpio.c ****  ===============================================================================
  17:/home/user/Desktop/STM32-Projekte/FH-Vertibot/src/STM32F30x_StdPeriph_Driver/src/stm32f30x_gpio.c ****                       ##### How to use this driver #####
  18:/home/user/Desktop/STM32-Projekte/FH-Vertibot/src/STM32F30x_StdPeriph_Driver/src/stm32f30x_gpio.c ****  ===============================================================================
  19:/home/user/Desktop/STM32-Projekte/FH-Vertibot/src/STM32F30x_StdPeriph_Driver/src/stm32f30x_gpio.c ****     [..]
  20:/home/user/Desktop/STM32-Projekte/FH-Vertibot/src/STM32F30x_StdPeriph_Driver/src/stm32f30x_gpio.c ****     (#) Enable the GPIO AHB clock using RCC_AHBPeriphClockCmd()
  21:/home/user/Desktop/STM32-Projekte/FH-Vertibot/src/STM32F30x_StdPeriph_Driver/src/stm32f30x_gpio.c ****     (#) Configure the GPIO pin(s) using GPIO_Init()
  22:/home/user/Desktop/STM32-Projekte/FH-Vertibot/src/STM32F30x_StdPeriph_Driver/src/stm32f30x_gpio.c ****         Four possible configuration are available for each pin:
  23:/home/user/Desktop/STM32-Projekte/FH-Vertibot/src/STM32F30x_StdPeriph_Driver/src/stm32f30x_gpio.c ****         (++) Input: Floating, Pull-up, Pull-down.
  24:/home/user/Desktop/STM32-Projekte/FH-Vertibot/src/STM32F30x_StdPeriph_Driver/src/stm32f30x_gpio.c ****         (++) Output: Push-Pull (Pull-up, Pull-down or no Pull),
  25:/home/user/Desktop/STM32-Projekte/FH-Vertibot/src/STM32F30x_StdPeriph_Driver/src/stm32f30x_gpio.c ****                      Open Drain (Pull-up, Pull-down or no Pull).
  26:/home/user/Desktop/STM32-Projekte/FH-Vertibot/src/STM32F30x_StdPeriph_Driver/src/stm32f30x_gpio.c ****              In output mode, the speed is configurable: Low, Medium, Fast or High.
  27:/home/user/Desktop/STM32-Projekte/FH-Vertibot/src/STM32F30x_StdPeriph_Driver/src/stm32f30x_gpio.c ****         (++) Alternate Function: Push-Pull (Pull-up, Pull-down or no Pull), 
  28:/home/user/Desktop/STM32-Projekte/FH-Vertibot/src/STM32F30x_StdPeriph_Driver/src/stm32f30x_gpio.c ****                                  Open Drain (Pull-up, Pull-down or no Pull).
  29:/home/user/Desktop/STM32-Projekte/FH-Vertibot/src/STM32F30x_StdPeriph_Driver/src/stm32f30x_gpio.c ****         (++) Analog: required mode when a pin is to be used as ADC channel,
  30:/home/user/Desktop/STM32-Projekte/FH-Vertibot/src/STM32F30x_StdPeriph_Driver/src/stm32f30x_gpio.c ****              DAC output or comparator input.
  31:/home/user/Desktop/STM32-Projekte/FH-Vertibot/src/STM32F30x_StdPeriph_Driver/src/stm32f30x_gpio.c ****     (#) Peripherals alternate function:
  32:/home/user/Desktop/STM32-Projekte/FH-Vertibot/src/STM32F30x_StdPeriph_Driver/src/stm32f30x_gpio.c ****         (++) For ADC, DAC and comparators, configure the desired pin in 
  33:/home/user/Desktop/STM32-Projekte/FH-Vertibot/src/STM32F30x_StdPeriph_Driver/src/stm32f30x_gpio.c ****              analog mode using GPIO_InitStruct->GPIO_Mode = GPIO_Mode_AN
  34:/home/user/Desktop/STM32-Projekte/FH-Vertibot/src/STM32F30x_StdPeriph_Driver/src/stm32f30x_gpio.c ****         (++) For other peripherals (TIM, USART...):
  35:/home/user/Desktop/STM32-Projekte/FH-Vertibot/src/STM32F30x_StdPeriph_Driver/src/stm32f30x_gpio.c ****              (+++) Connect the pin to the desired peripherals' Alternate 
  36:/home/user/Desktop/STM32-Projekte/FH-Vertibot/src/STM32F30x_StdPeriph_Driver/src/stm32f30x_gpio.c ****                    Function (AF) using GPIO_PinAFConfig() function.
  37:/home/user/Desktop/STM32-Projekte/FH-Vertibot/src/STM32F30x_StdPeriph_Driver/src/stm32f30x_gpio.c ****              (+++) Configure the desired pin in alternate function mode using
  38:/home/user/Desktop/STM32-Projekte/FH-Vertibot/src/STM32F30x_StdPeriph_Driver/src/stm32f30x_gpio.c ****                    GPIO_InitStruct->GPIO_Mode = GPIO_Mode_AF
  39:/home/user/Desktop/STM32-Projekte/FH-Vertibot/src/STM32F30x_StdPeriph_Driver/src/stm32f30x_gpio.c ****              (+++) Select the type, pull-up/pull-down and output speed via 
  40:/home/user/Desktop/STM32-Projekte/FH-Vertibot/src/STM32F30x_StdPeriph_Driver/src/stm32f30x_gpio.c ****                    GPIO_PuPd, GPIO_OType and GPIO_Speed members.
  41:/home/user/Desktop/STM32-Projekte/FH-Vertibot/src/STM32F30x_StdPeriph_Driver/src/stm32f30x_gpio.c ****              (+++) Call GPIO_Init() function.
  42:/home/user/Desktop/STM32-Projekte/FH-Vertibot/src/STM32F30x_StdPeriph_Driver/src/stm32f30x_gpio.c ****     (#) To get the level of a pin configured in input mode use GPIO_ReadInputDataBit()
  43:/home/user/Desktop/STM32-Projekte/FH-Vertibot/src/STM32F30x_StdPeriph_Driver/src/stm32f30x_gpio.c ****     (#) To set/reset the level of a pin configured in output mode use
  44:/home/user/Desktop/STM32-Projekte/FH-Vertibot/src/STM32F30x_StdPeriph_Driver/src/stm32f30x_gpio.c ****         GPIO_SetBits()/GPIO_ResetBits()
  45:/home/user/Desktop/STM32-Projekte/FH-Vertibot/src/STM32F30x_StdPeriph_Driver/src/stm32f30x_gpio.c ****     (#) During and just after reset, the alternate functions are not active 
  46:/home/user/Desktop/STM32-Projekte/FH-Vertibot/src/STM32F30x_StdPeriph_Driver/src/stm32f30x_gpio.c ****         and the GPIO pins are configured in input floating mode (except JTAG pins).
  47:/home/user/Desktop/STM32-Projekte/FH-Vertibot/src/STM32F30x_StdPeriph_Driver/src/stm32f30x_gpio.c ****     (#) The LSE oscillator pins OSC32_IN and OSC32_OUT can be used as 
  48:/home/user/Desktop/STM32-Projekte/FH-Vertibot/src/STM32F30x_StdPeriph_Driver/src/stm32f30x_gpio.c ****         general-purpose (PC14 and PC15, respectively) when the LSE
  49:/home/user/Desktop/STM32-Projekte/FH-Vertibot/src/STM32F30x_StdPeriph_Driver/src/stm32f30x_gpio.c ****         oscillator is off. The LSE has priority over the GPIO function.
  50:/home/user/Desktop/STM32-Projekte/FH-Vertibot/src/STM32F30x_StdPeriph_Driver/src/stm32f30x_gpio.c ****     (#) The HSE oscillator pins OSC_IN/OSC_OUT can be used as general-purpose 
  51:/home/user/Desktop/STM32-Projekte/FH-Vertibot/src/STM32F30x_StdPeriph_Driver/src/stm32f30x_gpio.c ****         (PF0 and PF1 respectively) when the HSE oscillator is off. The HSE has 
  52:/home/user/Desktop/STM32-Projekte/FH-Vertibot/src/STM32F30x_StdPeriph_Driver/src/stm32f30x_gpio.c ****         the priority over the GPIO function.  
  53:/home/user/Desktop/STM32-Projekte/FH-Vertibot/src/STM32F30x_StdPeriph_Driver/src/stm32f30x_gpio.c **** 
  54:/home/user/Desktop/STM32-Projekte/FH-Vertibot/src/STM32F30x_StdPeriph_Driver/src/stm32f30x_gpio.c ****   @endverbatim
  55:/home/user/Desktop/STM32-Projekte/FH-Vertibot/src/STM32F30x_StdPeriph_Driver/src/stm32f30x_gpio.c **** 
  56:/home/user/Desktop/STM32-Projekte/FH-Vertibot/src/STM32F30x_StdPeriph_Driver/src/stm32f30x_gpio.c ****   ******************************************************************************
  57:/home/user/Desktop/STM32-Projekte/FH-Vertibot/src/STM32F30x_StdPeriph_Driver/src/stm32f30x_gpio.c ****   * @attention
  58:/home/user/Desktop/STM32-Projekte/FH-Vertibot/src/STM32F30x_StdPeriph_Driver/src/stm32f30x_gpio.c ****   *
  59:/home/user/Desktop/STM32-Projekte/FH-Vertibot/src/STM32F30x_StdPeriph_Driver/src/stm32f30x_gpio.c ****   * <h2><center>&copy; COPYRIGHT 2012 STMicroelectronics</center></h2>
  60:/home/user/Desktop/STM32-Projekte/FH-Vertibot/src/STM32F30x_StdPeriph_Driver/src/stm32f30x_gpio.c ****   *
  61:/home/user/Desktop/STM32-Projekte/FH-Vertibot/src/STM32F30x_StdPeriph_Driver/src/stm32f30x_gpio.c ****   * Licensed under MCD-ST Liberty SW License Agreement V2, (the "License");
  62:/home/user/Desktop/STM32-Projekte/FH-Vertibot/src/STM32F30x_StdPeriph_Driver/src/stm32f30x_gpio.c ****   * You may not use this file except in compliance with the License.
  63:/home/user/Desktop/STM32-Projekte/FH-Vertibot/src/STM32F30x_StdPeriph_Driver/src/stm32f30x_gpio.c ****   * You may obtain a copy of the License at:
  64:/home/user/Desktop/STM32-Projekte/FH-Vertibot/src/STM32F30x_StdPeriph_Driver/src/stm32f30x_gpio.c ****   *
  65:/home/user/Desktop/STM32-Projekte/FH-Vertibot/src/STM32F30x_StdPeriph_Driver/src/stm32f30x_gpio.c ****   *        http://www.st.com/software_license_agreement_liberty_v2
  66:/home/user/Desktop/STM32-Projekte/FH-Vertibot/src/STM32F30x_StdPeriph_Driver/src/stm32f30x_gpio.c ****   *
  67:/home/user/Desktop/STM32-Projekte/FH-Vertibot/src/STM32F30x_StdPeriph_Driver/src/stm32f30x_gpio.c ****   * Unless required by applicable law or agreed to in writing, software 
  68:/home/user/Desktop/STM32-Projekte/FH-Vertibot/src/STM32F30x_StdPeriph_Driver/src/stm32f30x_gpio.c ****   * distributed under the License is distributed on an "AS IS" BASIS, 
  69:/home/user/Desktop/STM32-Projekte/FH-Vertibot/src/STM32F30x_StdPeriph_Driver/src/stm32f30x_gpio.c ****   * WITHOUT WARRANTIES OR CONDITIONS OF ANY KIND, either express or implied.
  70:/home/user/Desktop/STM32-Projekte/FH-Vertibot/src/STM32F30x_StdPeriph_Driver/src/stm32f30x_gpio.c ****   * See the License for the specific language governing permissions and
  71:/home/user/Desktop/STM32-Projekte/FH-Vertibot/src/STM32F30x_StdPeriph_Driver/src/stm32f30x_gpio.c ****   * limitations under the License.
  72:/home/user/Desktop/STM32-Projekte/FH-Vertibot/src/STM32F30x_StdPeriph_Driver/src/stm32f30x_gpio.c ****   *
  73:/home/user/Desktop/STM32-Projekte/FH-Vertibot/src/STM32F30x_StdPeriph_Driver/src/stm32f30x_gpio.c ****   ******************************************************************************
  74:/home/user/Desktop/STM32-Projekte/FH-Vertibot/src/STM32F30x_StdPeriph_Driver/src/stm32f30x_gpio.c ****   */
  75:/home/user/Desktop/STM32-Projekte/FH-Vertibot/src/STM32F30x_StdPeriph_Driver/src/stm32f30x_gpio.c **** 
  76:/home/user/Desktop/STM32-Projekte/FH-Vertibot/src/STM32F30x_StdPeriph_Driver/src/stm32f30x_gpio.c **** /* Includes ------------------------------------------------------------------*/
  77:/home/user/Desktop/STM32-Projekte/FH-Vertibot/src/STM32F30x_StdPeriph_Driver/src/stm32f30x_gpio.c **** #include "stm32f30x_gpio.h"
  78:/home/user/Desktop/STM32-Projekte/FH-Vertibot/src/STM32F30x_StdPeriph_Driver/src/stm32f30x_gpio.c **** #include "stm32f30x_rcc.h"
  79:/home/user/Desktop/STM32-Projekte/FH-Vertibot/src/STM32F30x_StdPeriph_Driver/src/stm32f30x_gpio.c **** 
  80:/home/user/Desktop/STM32-Projekte/FH-Vertibot/src/STM32F30x_StdPeriph_Driver/src/stm32f30x_gpio.c **** /** @addtogroup STM32F30x_StdPeriph_Driver
  81:/home/user/Desktop/STM32-Projekte/FH-Vertibot/src/STM32F30x_StdPeriph_Driver/src/stm32f30x_gpio.c ****   * @{
  82:/home/user/Desktop/STM32-Projekte/FH-Vertibot/src/STM32F30x_StdPeriph_Driver/src/stm32f30x_gpio.c ****   */
  83:/home/user/Desktop/STM32-Projekte/FH-Vertibot/src/STM32F30x_StdPeriph_Driver/src/stm32f30x_gpio.c **** 
  84:/home/user/Desktop/STM32-Projekte/FH-Vertibot/src/STM32F30x_StdPeriph_Driver/src/stm32f30x_gpio.c **** /** @defgroup GPIO 
  85:/home/user/Desktop/STM32-Projekte/FH-Vertibot/src/STM32F30x_StdPeriph_Driver/src/stm32f30x_gpio.c ****   * @brief GPIO driver modules
  86:/home/user/Desktop/STM32-Projekte/FH-Vertibot/src/STM32F30x_StdPeriph_Driver/src/stm32f30x_gpio.c ****   * @{
  87:/home/user/Desktop/STM32-Projekte/FH-Vertibot/src/STM32F30x_StdPeriph_Driver/src/stm32f30x_gpio.c ****   */
  88:/home/user/Desktop/STM32-Projekte/FH-Vertibot/src/STM32F30x_StdPeriph_Driver/src/stm32f30x_gpio.c **** 
  89:/home/user/Desktop/STM32-Projekte/FH-Vertibot/src/STM32F30x_StdPeriph_Driver/src/stm32f30x_gpio.c **** 
  90:/home/user/Desktop/STM32-Projekte/FH-Vertibot/src/STM32F30x_StdPeriph_Driver/src/stm32f30x_gpio.c **** /* Private typedef -----------------------------------------------------------*/
  91:/home/user/Desktop/STM32-Projekte/FH-Vertibot/src/STM32F30x_StdPeriph_Driver/src/stm32f30x_gpio.c **** /* Private define ------------------------------------------------------------*/
  92:/home/user/Desktop/STM32-Projekte/FH-Vertibot/src/STM32F30x_StdPeriph_Driver/src/stm32f30x_gpio.c **** 
  93:/home/user/Desktop/STM32-Projekte/FH-Vertibot/src/STM32F30x_StdPeriph_Driver/src/stm32f30x_gpio.c **** 
  94:/home/user/Desktop/STM32-Projekte/FH-Vertibot/src/STM32F30x_StdPeriph_Driver/src/stm32f30x_gpio.c **** /* Private macro -------------------------------------------------------------*/
  95:/home/user/Desktop/STM32-Projekte/FH-Vertibot/src/STM32F30x_StdPeriph_Driver/src/stm32f30x_gpio.c **** /* Private variables ---------------------------------------------------------*/
  96:/home/user/Desktop/STM32-Projekte/FH-Vertibot/src/STM32F30x_StdPeriph_Driver/src/stm32f30x_gpio.c **** /* Private function prototypes -----------------------------------------------*/
  97:/home/user/Desktop/STM32-Projekte/FH-Vertibot/src/STM32F30x_StdPeriph_Driver/src/stm32f30x_gpio.c **** /* Private functions ---------------------------------------------------------*/
  98:/home/user/Desktop/STM32-Projekte/FH-Vertibot/src/STM32F30x_StdPeriph_Driver/src/stm32f30x_gpio.c **** 
  99:/home/user/Desktop/STM32-Projekte/FH-Vertibot/src/STM32F30x_StdPeriph_Driver/src/stm32f30x_gpio.c **** /** @defgroup GPIO_Private_Functions 
 100:/home/user/Desktop/STM32-Projekte/FH-Vertibot/src/STM32F30x_StdPeriph_Driver/src/stm32f30x_gpio.c ****   * @{
 101:/home/user/Desktop/STM32-Projekte/FH-Vertibot/src/STM32F30x_StdPeriph_Driver/src/stm32f30x_gpio.c ****   */
 102:/home/user/Desktop/STM32-Projekte/FH-Vertibot/src/STM32F30x_StdPeriph_Driver/src/stm32f30x_gpio.c **** 
 103:/home/user/Desktop/STM32-Projekte/FH-Vertibot/src/STM32F30x_StdPeriph_Driver/src/stm32f30x_gpio.c **** /** @defgroup GPIO_Group1 Initialization and Configuration
 104:/home/user/Desktop/STM32-Projekte/FH-Vertibot/src/STM32F30x_StdPeriph_Driver/src/stm32f30x_gpio.c ****  *  @brief   Initialization and Configuration
 105:/home/user/Desktop/STM32-Projekte/FH-Vertibot/src/STM32F30x_StdPeriph_Driver/src/stm32f30x_gpio.c ****  *
 106:/home/user/Desktop/STM32-Projekte/FH-Vertibot/src/STM32F30x_StdPeriph_Driver/src/stm32f30x_gpio.c **** @verbatim
 107:/home/user/Desktop/STM32-Projekte/FH-Vertibot/src/STM32F30x_StdPeriph_Driver/src/stm32f30x_gpio.c ****  ===============================================================================
 108:/home/user/Desktop/STM32-Projekte/FH-Vertibot/src/STM32F30x_StdPeriph_Driver/src/stm32f30x_gpio.c ****             ##### Initialization and Configuration #####
 109:/home/user/Desktop/STM32-Projekte/FH-Vertibot/src/STM32F30x_StdPeriph_Driver/src/stm32f30x_gpio.c ****  ===============================================================================
 110:/home/user/Desktop/STM32-Projekte/FH-Vertibot/src/STM32F30x_StdPeriph_Driver/src/stm32f30x_gpio.c **** 
 111:/home/user/Desktop/STM32-Projekte/FH-Vertibot/src/STM32F30x_StdPeriph_Driver/src/stm32f30x_gpio.c **** @endverbatim
 112:/home/user/Desktop/STM32-Projekte/FH-Vertibot/src/STM32F30x_StdPeriph_Driver/src/stm32f30x_gpio.c ****   * @{
 113:/home/user/Desktop/STM32-Projekte/FH-Vertibot/src/STM32F30x_StdPeriph_Driver/src/stm32f30x_gpio.c ****   */
 114:/home/user/Desktop/STM32-Projekte/FH-Vertibot/src/STM32F30x_StdPeriph_Driver/src/stm32f30x_gpio.c ****   
 115:/home/user/Desktop/STM32-Projekte/FH-Vertibot/src/STM32F30x_StdPeriph_Driver/src/stm32f30x_gpio.c **** /**
 116:/home/user/Desktop/STM32-Projekte/FH-Vertibot/src/STM32F30x_StdPeriph_Driver/src/stm32f30x_gpio.c ****   * @brief  Deinitializes the GPIOx peripheral registers to their default reset 
 117:/home/user/Desktop/STM32-Projekte/FH-Vertibot/src/STM32F30x_StdPeriph_Driver/src/stm32f30x_gpio.c ****   *         values.
 118:/home/user/Desktop/STM32-Projekte/FH-Vertibot/src/STM32F30x_StdPeriph_Driver/src/stm32f30x_gpio.c ****   * @param  GPIOx: where x can be (A, B, C, D, E or F) to select the GPIO peripheral.
 119:/home/user/Desktop/STM32-Projekte/FH-Vertibot/src/STM32F30x_StdPeriph_Driver/src/stm32f30x_gpio.c ****   * @retval None
 120:/home/user/Desktop/STM32-Projekte/FH-Vertibot/src/STM32F30x_StdPeriph_Driver/src/stm32f30x_gpio.c ****   */
 121:/home/user/Desktop/STM32-Projekte/FH-Vertibot/src/STM32F30x_StdPeriph_Driver/src/stm32f30x_gpio.c **** void GPIO_DeInit(GPIO_TypeDef* GPIOx)
 122:/home/user/Desktop/STM32-Projekte/FH-Vertibot/src/STM32F30x_StdPeriph_Driver/src/stm32f30x_gpio.c **** {
  28              		.loc 1 122 0
  29              		.cfi_startproc
  30              		@ args = 0, pretend = 0, frame = 0
  31              		@ frame_needed = 0, uses_anonymous_args = 0
  32              	.LVL0:
 123:/home/user/Desktop/STM32-Projekte/FH-Vertibot/src/STM32F30x_StdPeriph_Driver/src/stm32f30x_gpio.c ****   /* Check the parameters */
 124:/home/user/Desktop/STM32-Projekte/FH-Vertibot/src/STM32F30x_StdPeriph_Driver/src/stm32f30x_gpio.c ****   assert_param(IS_GPIO_ALL_PERIPH(GPIOx));
 125:/home/user/Desktop/STM32-Projekte/FH-Vertibot/src/STM32F30x_StdPeriph_Driver/src/stm32f30x_gpio.c **** 
 126:/home/user/Desktop/STM32-Projekte/FH-Vertibot/src/STM32F30x_StdPeriph_Driver/src/stm32f30x_gpio.c ****   if(GPIOx == GPIOA)
  33              		.loc 1 126 0
  34 0000 B0F1904F 		cmp	r0, #1207959552
 122:/home/user/Desktop/STM32-Projekte/FH-Vertibot/src/STM32F30x_StdPeriph_Driver/src/stm32f30x_gpio.c **** {
  35              		.loc 1 122 0
  36 0004 08B5     		push	{r3, lr}
  37              	.LCFI0:
  38              		.cfi_def_cfa_offset 8
  39              		.cfi_offset 3, -8
  40              		.cfi_offset 14, -4
  41              		.loc 1 126 0
  42 0006 07D1     		bne	.L2
 127:/home/user/Desktop/STM32-Projekte/FH-Vertibot/src/STM32F30x_StdPeriph_Driver/src/stm32f30x_gpio.c ****   {
 128:/home/user/Desktop/STM32-Projekte/FH-Vertibot/src/STM32F30x_StdPeriph_Driver/src/stm32f30x_gpio.c ****     RCC_AHBPeriphResetCmd(RCC_AHBPeriph_GPIOA, ENABLE);
  43              		.loc 1 128 0
  44 0008 4FF40030 		mov	r0, #131072
  45              	.LVL1:
  46 000c 0121     		movs	r1, #1
  47 000e FFF7FEFF 		bl	RCC_AHBPeriphResetCmd
  48              	.LVL2:
 129:/home/user/Desktop/STM32-Projekte/FH-Vertibot/src/STM32F30x_StdPeriph_Driver/src/stm32f30x_gpio.c ****     RCC_AHBPeriphResetCmd(RCC_AHBPeriph_GPIOA, DISABLE);
  49              		.loc 1 129 0
  50 0012 4FF40030 		mov	r0, #131072
  51 0016 35E0     		b	.L8
  52              	.LVL3:
  53              	.L2:
 130:/home/user/Desktop/STM32-Projekte/FH-Vertibot/src/STM32F30x_StdPeriph_Driver/src/stm32f30x_gpio.c ****   }
 131:/home/user/Desktop/STM32-Projekte/FH-Vertibot/src/STM32F30x_StdPeriph_Driver/src/stm32f30x_gpio.c ****   else if(GPIOx == GPIOB)
  54              		.loc 1 131 0
  55 0018 1D4B     		ldr	r3, .L9
  56 001a 9842     		cmp	r0, r3
  57 001c 07D1     		bne	.L3
 132:/home/user/Desktop/STM32-Projekte/FH-Vertibot/src/STM32F30x_StdPeriph_Driver/src/stm32f30x_gpio.c ****   {
 133:/home/user/Desktop/STM32-Projekte/FH-Vertibot/src/STM32F30x_StdPeriph_Driver/src/stm32f30x_gpio.c ****     RCC_AHBPeriphResetCmd(RCC_AHBPeriph_GPIOB, ENABLE);
  58              		.loc 1 133 0
  59 001e 4FF48020 		mov	r0, #262144
  60              	.LVL4:
  61 0022 0121     		movs	r1, #1
  62 0024 FFF7FEFF 		bl	RCC_AHBPeriphResetCmd
  63              	.LVL5:
 134:/home/user/Desktop/STM32-Projekte/FH-Vertibot/src/STM32F30x_StdPeriph_Driver/src/stm32f30x_gpio.c ****     RCC_AHBPeriphResetCmd(RCC_AHBPeriph_GPIOB, DISABLE);
  64              		.loc 1 134 0
  65 0028 4FF48020 		mov	r0, #262144
  66 002c 2AE0     		b	.L8
  67              	.LVL6:
  68              	.L3:
 135:/home/user/Desktop/STM32-Projekte/FH-Vertibot/src/STM32F30x_StdPeriph_Driver/src/stm32f30x_gpio.c ****   }
 136:/home/user/Desktop/STM32-Projekte/FH-Vertibot/src/STM32F30x_StdPeriph_Driver/src/stm32f30x_gpio.c ****   else if(GPIOx == GPIOC)
  69              		.loc 1 136 0
  70 002e 194B     		ldr	r3, .L9+4
  71 0030 9842     		cmp	r0, r3
  72 0032 07D1     		bne	.L4
 137:/home/user/Desktop/STM32-Projekte/FH-Vertibot/src/STM32F30x_StdPeriph_Driver/src/stm32f30x_gpio.c ****   {
 138:/home/user/Desktop/STM32-Projekte/FH-Vertibot/src/STM32F30x_StdPeriph_Driver/src/stm32f30x_gpio.c ****     RCC_AHBPeriphResetCmd(RCC_AHBPeriph_GPIOC, ENABLE);
  73              		.loc 1 138 0
  74 0034 4FF40020 		mov	r0, #524288
  75              	.LVL7:
  76 0038 0121     		movs	r1, #1
  77 003a FFF7FEFF 		bl	RCC_AHBPeriphResetCmd
  78              	.LVL8:
 139:/home/user/Desktop/STM32-Projekte/FH-Vertibot/src/STM32F30x_StdPeriph_Driver/src/stm32f30x_gpio.c ****     RCC_AHBPeriphResetCmd(RCC_AHBPeriph_GPIOC, DISABLE);
  79              		.loc 1 139 0
  80 003e 4FF40020 		mov	r0, #524288
  81 0042 1FE0     		b	.L8
  82              	.LVL9:
  83              	.L4:
 140:/home/user/Desktop/STM32-Projekte/FH-Vertibot/src/STM32F30x_StdPeriph_Driver/src/stm32f30x_gpio.c ****   }
 141:/home/user/Desktop/STM32-Projekte/FH-Vertibot/src/STM32F30x_StdPeriph_Driver/src/stm32f30x_gpio.c ****   else if(GPIOx == GPIOD)
  84              		.loc 1 141 0
  85 0044 144B     		ldr	r3, .L9+8
  86 0046 9842     		cmp	r0, r3
  87 0048 07D1     		bne	.L5
 142:/home/user/Desktop/STM32-Projekte/FH-Vertibot/src/STM32F30x_StdPeriph_Driver/src/stm32f30x_gpio.c ****   {
 143:/home/user/Desktop/STM32-Projekte/FH-Vertibot/src/STM32F30x_StdPeriph_Driver/src/stm32f30x_gpio.c ****     RCC_AHBPeriphResetCmd(RCC_AHBPeriph_GPIOD, ENABLE);
  88              		.loc 1 143 0
  89 004a 4FF48010 		mov	r0, #1048576
  90              	.LVL10:
  91 004e 0121     		movs	r1, #1
  92 0050 FFF7FEFF 		bl	RCC_AHBPeriphResetCmd
  93              	.LVL11:
 144:/home/user/Desktop/STM32-Projekte/FH-Vertibot/src/STM32F30x_StdPeriph_Driver/src/stm32f30x_gpio.c ****     RCC_AHBPeriphResetCmd(RCC_AHBPeriph_GPIOD, DISABLE);
  94              		.loc 1 144 0
  95 0054 4FF48010 		mov	r0, #1048576
  96 0058 14E0     		b	.L8
  97              	.LVL12:
  98              	.L5:
 145:/home/user/Desktop/STM32-Projekte/FH-Vertibot/src/STM32F30x_StdPeriph_Driver/src/stm32f30x_gpio.c ****   }
 146:/home/user/Desktop/STM32-Projekte/FH-Vertibot/src/STM32F30x_StdPeriph_Driver/src/stm32f30x_gpio.c ****   else if(GPIOx == GPIOE)
  99              		.loc 1 146 0
 100 005a 104B     		ldr	r3, .L9+12
 101 005c 9842     		cmp	r0, r3
 102 005e 07D1     		bne	.L6
 147:/home/user/Desktop/STM32-Projekte/FH-Vertibot/src/STM32F30x_StdPeriph_Driver/src/stm32f30x_gpio.c ****   {
 148:/home/user/Desktop/STM32-Projekte/FH-Vertibot/src/STM32F30x_StdPeriph_Driver/src/stm32f30x_gpio.c ****     RCC_AHBPeriphResetCmd(RCC_AHBPeriph_GPIOE, ENABLE);
 103              		.loc 1 148 0
 104 0060 4FF40010 		mov	r0, #2097152
 105              	.LVL13:
 106 0064 0121     		movs	r1, #1
 107 0066 FFF7FEFF 		bl	RCC_AHBPeriphResetCmd
 108              	.LVL14:
 149:/home/user/Desktop/STM32-Projekte/FH-Vertibot/src/STM32F30x_StdPeriph_Driver/src/stm32f30x_gpio.c ****     RCC_AHBPeriphResetCmd(RCC_AHBPeriph_GPIOE, DISABLE);
 109              		.loc 1 149 0
 110 006a 4FF40010 		mov	r0, #2097152
 111 006e 09E0     		b	.L8
 112              	.LVL15:
 113              	.L6:
 150:/home/user/Desktop/STM32-Projekte/FH-Vertibot/src/STM32F30x_StdPeriph_Driver/src/stm32f30x_gpio.c ****   }
 151:/home/user/Desktop/STM32-Projekte/FH-Vertibot/src/STM32F30x_StdPeriph_Driver/src/stm32f30x_gpio.c ****   else
 152:/home/user/Desktop/STM32-Projekte/FH-Vertibot/src/STM32F30x_StdPeriph_Driver/src/stm32f30x_gpio.c ****   {
 153:/home/user/Desktop/STM32-Projekte/FH-Vertibot/src/STM32F30x_StdPeriph_Driver/src/stm32f30x_gpio.c ****     if(GPIOx == GPIOF)
 114              		.loc 1 153 0
 115 0070 0B4B     		ldr	r3, .L9+16
 116 0072 9842     		cmp	r0, r3
 117 0074 0BD1     		bne	.L1
 154:/home/user/Desktop/STM32-Projekte/FH-Vertibot/src/STM32F30x_StdPeriph_Driver/src/stm32f30x_gpio.c ****     {
 155:/home/user/Desktop/STM32-Projekte/FH-Vertibot/src/STM32F30x_StdPeriph_Driver/src/stm32f30x_gpio.c ****       RCC_AHBPeriphResetCmd(RCC_AHBPeriph_GPIOF, ENABLE);
 118              		.loc 1 155 0
 119 0076 4FF48000 		mov	r0, #4194304
 120              	.LVL16:
 121 007a 0121     		movs	r1, #1
 122 007c FFF7FEFF 		bl	RCC_AHBPeriphResetCmd
 123              	.LVL17:
 156:/home/user/Desktop/STM32-Projekte/FH-Vertibot/src/STM32F30x_StdPeriph_Driver/src/stm32f30x_gpio.c ****       RCC_AHBPeriphResetCmd(RCC_AHBPeriph_GPIOF, DISABLE);
 124              		.loc 1 156 0
 125 0080 4FF48000 		mov	r0, #4194304
 126              	.L8:
 127 0084 0021     		movs	r1, #0
 157:/home/user/Desktop/STM32-Projekte/FH-Vertibot/src/STM32F30x_StdPeriph_Driver/src/stm32f30x_gpio.c ****     }
 158:/home/user/Desktop/STM32-Projekte/FH-Vertibot/src/STM32F30x_StdPeriph_Driver/src/stm32f30x_gpio.c ****   }
 159:/home/user/Desktop/STM32-Projekte/FH-Vertibot/src/STM32F30x_StdPeriph_Driver/src/stm32f30x_gpio.c **** }
 128              		.loc 1 159 0
 129 0086 BDE80840 		pop	{r3, lr}
 156:/home/user/Desktop/STM32-Projekte/FH-Vertibot/src/STM32F30x_StdPeriph_Driver/src/stm32f30x_gpio.c ****       RCC_AHBPeriphResetCmd(RCC_AHBPeriph_GPIOF, DISABLE);
 130              		.loc 1 156 0
 131 008a FFF7FEBF 		b	RCC_AHBPeriphResetCmd
 132              	.LVL18:
 133              	.L1:
 134 008e 08BD     		pop	{r3, pc}
 135              	.L10:
 136              		.align	2
 137              	.L9:
 138 0090 00040048 		.word	1207960576
 139 0094 00080048 		.word	1207961600
 140 0098 000C0048 		.word	1207962624
 141 009c 00100048 		.word	1207963648
 142 00a0 00140048 		.word	1207964672
 143              		.cfi_endproc
 144              	.LFE111:
 146              		.align	1
 147              		.global	GPIO_Init
 148              		.thumb
 149              		.thumb_func
 151              	GPIO_Init:
 152              	.LFB112:
 160:/home/user/Desktop/STM32-Projekte/FH-Vertibot/src/STM32F30x_StdPeriph_Driver/src/stm32f30x_gpio.c **** 
 161:/home/user/Desktop/STM32-Projekte/FH-Vertibot/src/STM32F30x_StdPeriph_Driver/src/stm32f30x_gpio.c **** /**
 162:/home/user/Desktop/STM32-Projekte/FH-Vertibot/src/STM32F30x_StdPeriph_Driver/src/stm32f30x_gpio.c ****   * @brief  Initializes the GPIOx peripheral according to the specified 
 163:/home/user/Desktop/STM32-Projekte/FH-Vertibot/src/STM32F30x_StdPeriph_Driver/src/stm32f30x_gpio.c ****   *         parameters in the GPIO_InitStruct.
 164:/home/user/Desktop/STM32-Projekte/FH-Vertibot/src/STM32F30x_StdPeriph_Driver/src/stm32f30x_gpio.c ****   * @param  GPIOx: where x can be (A, B, C, D, E or F) to select the GPIO peripheral.
 165:/home/user/Desktop/STM32-Projekte/FH-Vertibot/src/STM32F30x_StdPeriph_Driver/src/stm32f30x_gpio.c ****   * @param  GPIO_InitStruct: pointer to a GPIO_InitTypeDef structure that 
 166:/home/user/Desktop/STM32-Projekte/FH-Vertibot/src/STM32F30x_StdPeriph_Driver/src/stm32f30x_gpio.c ****   *         contains the configuration information for the specified GPIO
 167:/home/user/Desktop/STM32-Projekte/FH-Vertibot/src/STM32F30x_StdPeriph_Driver/src/stm32f30x_gpio.c ****   *         peripheral.
 168:/home/user/Desktop/STM32-Projekte/FH-Vertibot/src/STM32F30x_StdPeriph_Driver/src/stm32f30x_gpio.c ****   * @note   GPIO_Pin: selects the pin to be configured:
 169:/home/user/Desktop/STM32-Projekte/FH-Vertibot/src/STM32F30x_StdPeriph_Driver/src/stm32f30x_gpio.c ****   *         GPIO_Pin_0->GPIO_Pin_15 for GPIOA, GPIOB, GPIOC, GPIOD and GPIOE;
 170:/home/user/Desktop/STM32-Projekte/FH-Vertibot/src/STM32F30x_StdPeriph_Driver/src/stm32f30x_gpio.c ****   *         GPIO_Pin_0->GPIO_Pin_2, GPIO_Pin_4, GPIO_Pin_6, GPIO_Pin_9 
 171:/home/user/Desktop/STM32-Projekte/FH-Vertibot/src/STM32F30x_StdPeriph_Driver/src/stm32f30x_gpio.c ****   *                       and GPIO_Pin_10 for GPIOF.
 172:/home/user/Desktop/STM32-Projekte/FH-Vertibot/src/STM32F30x_StdPeriph_Driver/src/stm32f30x_gpio.c ****   * @retval None
 173:/home/user/Desktop/STM32-Projekte/FH-Vertibot/src/STM32F30x_StdPeriph_Driver/src/stm32f30x_gpio.c ****   */
 174:/home/user/Desktop/STM32-Projekte/FH-Vertibot/src/STM32F30x_StdPeriph_Driver/src/stm32f30x_gpio.c **** void GPIO_Init(GPIO_TypeDef* GPIOx, GPIO_InitTypeDef* GPIO_InitStruct)
 175:/home/user/Desktop/STM32-Projekte/FH-Vertibot/src/STM32F30x_StdPeriph_Driver/src/stm32f30x_gpio.c **** { 
 153              		.loc 1 175 0
 154              		.cfi_startproc
 155              		@ args = 0, pretend = 0, frame = 0
 156              		@ frame_needed = 0, uses_anonymous_args = 0
 157              	.LVL19:
 158 00a4 2DE9F043 		push	{r4, r5, r6, r7, r8, r9, lr}
 159              	.LCFI1:
 160              		.cfi_def_cfa_offset 28
 161              		.cfi_offset 4, -28
 162              		.cfi_offset 5, -24
 163              		.cfi_offset 6, -20
 164              		.cfi_offset 7, -16
 165              		.cfi_offset 8, -12
 166              		.cfi_offset 9, -8
 167              		.cfi_offset 14, -4
 176:/home/user/Desktop/STM32-Projekte/FH-Vertibot/src/STM32F30x_StdPeriph_Driver/src/stm32f30x_gpio.c ****   uint32_t pinpos = 0x00, pos = 0x00 , currentpin = 0x00;
 177:/home/user/Desktop/STM32-Projekte/FH-Vertibot/src/STM32F30x_StdPeriph_Driver/src/stm32f30x_gpio.c **** 
 178:/home/user/Desktop/STM32-Projekte/FH-Vertibot/src/STM32F30x_StdPeriph_Driver/src/stm32f30x_gpio.c ****   /* Check the parameters */
 179:/home/user/Desktop/STM32-Projekte/FH-Vertibot/src/STM32F30x_StdPeriph_Driver/src/stm32f30x_gpio.c ****   assert_param(IS_GPIO_ALL_PERIPH(GPIOx));
 180:/home/user/Desktop/STM32-Projekte/FH-Vertibot/src/STM32F30x_StdPeriph_Driver/src/stm32f30x_gpio.c ****   assert_param(IS_GPIO_PIN(GPIO_InitStruct->GPIO_Pin));
 181:/home/user/Desktop/STM32-Projekte/FH-Vertibot/src/STM32F30x_StdPeriph_Driver/src/stm32f30x_gpio.c ****   assert_param(IS_GPIO_MODE(GPIO_InitStruct->GPIO_Mode));
 182:/home/user/Desktop/STM32-Projekte/FH-Vertibot/src/STM32F30x_StdPeriph_Driver/src/stm32f30x_gpio.c ****   assert_param(IS_GPIO_PUPD(GPIO_InitStruct->GPIO_PuPd));
 183:/home/user/Desktop/STM32-Projekte/FH-Vertibot/src/STM32F30x_StdPeriph_Driver/src/stm32f30x_gpio.c **** 
 184:/home/user/Desktop/STM32-Projekte/FH-Vertibot/src/STM32F30x_StdPeriph_Driver/src/stm32f30x_gpio.c ****   /*-------------------------- Configure the port pins -----------------------*/
 185:/home/user/Desktop/STM32-Projekte/FH-Vertibot/src/STM32F30x_StdPeriph_Driver/src/stm32f30x_gpio.c ****   /*-- GPIO Mode Configuration --*/
 186:/home/user/Desktop/STM32-Projekte/FH-Vertibot/src/STM32F30x_StdPeriph_Driver/src/stm32f30x_gpio.c ****   for (pinpos = 0x00; pinpos < 0x10; pinpos++)
 187:/home/user/Desktop/STM32-Projekte/FH-Vertibot/src/STM32F30x_StdPeriph_Driver/src/stm32f30x_gpio.c ****   {
 188:/home/user/Desktop/STM32-Projekte/FH-Vertibot/src/STM32F30x_StdPeriph_Driver/src/stm32f30x_gpio.c ****     pos = ((uint32_t)0x01) << pinpos;
 189:/home/user/Desktop/STM32-Projekte/FH-Vertibot/src/STM32F30x_StdPeriph_Driver/src/stm32f30x_gpio.c **** 
 190:/home/user/Desktop/STM32-Projekte/FH-Vertibot/src/STM32F30x_StdPeriph_Driver/src/stm32f30x_gpio.c ****     /* Get the port pins position */
 191:/home/user/Desktop/STM32-Projekte/FH-Vertibot/src/STM32F30x_StdPeriph_Driver/src/stm32f30x_gpio.c ****     currentpin = (GPIO_InitStruct->GPIO_Pin) & pos;
 168              		.loc 1 191 0
 169 00a8 0023     		movs	r3, #0
 170 00aa 0F68     		ldr	r7, [r1, #0]
 186:/home/user/Desktop/STM32-Projekte/FH-Vertibot/src/STM32F30x_StdPeriph_Driver/src/stm32f30x_gpio.c ****   for (pinpos = 0x00; pinpos < 0x10; pinpos++)
 171              		.loc 1 186 0
 172 00ac 1A46     		mov	r2, r3
 188:/home/user/Desktop/STM32-Projekte/FH-Vertibot/src/STM32F30x_StdPeriph_Driver/src/stm32f30x_gpio.c ****     pos = ((uint32_t)0x01) << pinpos;
 173              		.loc 1 188 0
 174 00ae 4FF0010C 		mov	ip, #1
 192:/home/user/Desktop/STM32-Projekte/FH-Vertibot/src/STM32F30x_StdPeriph_Driver/src/stm32f30x_gpio.c **** 
 193:/home/user/Desktop/STM32-Projekte/FH-Vertibot/src/STM32F30x_StdPeriph_Driver/src/stm32f30x_gpio.c ****     if (currentpin == pos)
 194:/home/user/Desktop/STM32-Projekte/FH-Vertibot/src/STM32F30x_StdPeriph_Driver/src/stm32f30x_gpio.c ****     {
 195:/home/user/Desktop/STM32-Projekte/FH-Vertibot/src/STM32F30x_StdPeriph_Driver/src/stm32f30x_gpio.c ****       if ((GPIO_InitStruct->GPIO_Mode == GPIO_Mode_OUT) || (GPIO_InitStruct->GPIO_Mode == GPIO_Mode
 196:/home/user/Desktop/STM32-Projekte/FH-Vertibot/src/STM32F30x_StdPeriph_Driver/src/stm32f30x_gpio.c ****       {
 197:/home/user/Desktop/STM32-Projekte/FH-Vertibot/src/STM32F30x_StdPeriph_Driver/src/stm32f30x_gpio.c ****         /* Check Speed mode parameters */
 198:/home/user/Desktop/STM32-Projekte/FH-Vertibot/src/STM32F30x_StdPeriph_Driver/src/stm32f30x_gpio.c ****         assert_param(IS_GPIO_SPEED(GPIO_InitStruct->GPIO_Speed));
 199:/home/user/Desktop/STM32-Projekte/FH-Vertibot/src/STM32F30x_StdPeriph_Driver/src/stm32f30x_gpio.c **** 
 200:/home/user/Desktop/STM32-Projekte/FH-Vertibot/src/STM32F30x_StdPeriph_Driver/src/stm32f30x_gpio.c ****         /* Speed mode configuration */
 201:/home/user/Desktop/STM32-Projekte/FH-Vertibot/src/STM32F30x_StdPeriph_Driver/src/stm32f30x_gpio.c ****         GPIOx->OSPEEDR &= ~(GPIO_OSPEEDER_OSPEEDR0 << (pinpos * 2));
 202:/home/user/Desktop/STM32-Projekte/FH-Vertibot/src/STM32F30x_StdPeriph_Driver/src/stm32f30x_gpio.c ****         GPIOx->OSPEEDR |= ((uint32_t)(GPIO_InitStruct->GPIO_Speed) << (pinpos * 2));
 203:/home/user/Desktop/STM32-Projekte/FH-Vertibot/src/STM32F30x_StdPeriph_Driver/src/stm32f30x_gpio.c **** 
 204:/home/user/Desktop/STM32-Projekte/FH-Vertibot/src/STM32F30x_StdPeriph_Driver/src/stm32f30x_gpio.c ****         /* Check Output mode parameters */
 205:/home/user/Desktop/STM32-Projekte/FH-Vertibot/src/STM32F30x_StdPeriph_Driver/src/stm32f30x_gpio.c ****         assert_param(IS_GPIO_OTYPE(GPIO_InitStruct->GPIO_OType));
 206:/home/user/Desktop/STM32-Projekte/FH-Vertibot/src/STM32F30x_StdPeriph_Driver/src/stm32f30x_gpio.c **** 
 207:/home/user/Desktop/STM32-Projekte/FH-Vertibot/src/STM32F30x_StdPeriph_Driver/src/stm32f30x_gpio.c ****         /* Output mode configuration */
 208:/home/user/Desktop/STM32-Projekte/FH-Vertibot/src/STM32F30x_StdPeriph_Driver/src/stm32f30x_gpio.c ****         GPIOx->OTYPER &= ~((GPIO_OTYPER_OT_0) << ((uint16_t)pinpos));
 209:/home/user/Desktop/STM32-Projekte/FH-Vertibot/src/STM32F30x_StdPeriph_Driver/src/stm32f30x_gpio.c ****         GPIOx->OTYPER |= (uint16_t)(((uint16_t)GPIO_InitStruct->GPIO_OType) << ((uint16_t)pinpos));
 210:/home/user/Desktop/STM32-Projekte/FH-Vertibot/src/STM32F30x_StdPeriph_Driver/src/stm32f30x_gpio.c ****       }
 211:/home/user/Desktop/STM32-Projekte/FH-Vertibot/src/STM32F30x_StdPeriph_Driver/src/stm32f30x_gpio.c ****       
 212:/home/user/Desktop/STM32-Projekte/FH-Vertibot/src/STM32F30x_StdPeriph_Driver/src/stm32f30x_gpio.c ****       GPIOx->MODER  &= ~(GPIO_MODER_MODER0 << (pinpos * 2));
 175              		.loc 1 212 0
 176 00b2 0324     		movs	r4, #3
 177              	.LVL20:
 178              	.L14:
 188:/home/user/Desktop/STM32-Projekte/FH-Vertibot/src/STM32F30x_StdPeriph_Driver/src/stm32f30x_gpio.c ****     pos = ((uint32_t)0x01) << pinpos;
 179              		.loc 1 188 0
 180 00b4 0CFA02F6 		lsl	r6, ip, r2
 181              	.LVL21:
 191:/home/user/Desktop/STM32-Projekte/FH-Vertibot/src/STM32F30x_StdPeriph_Driver/src/stm32f30x_gpio.c ****     currentpin = (GPIO_InitStruct->GPIO_Pin) & pos;
 182              		.loc 1 191 0
 183 00b8 06EA0705 		and	r5, r6, r7
 184              	.LVL22:
 193:/home/user/Desktop/STM32-Projekte/FH-Vertibot/src/STM32F30x_StdPeriph_Driver/src/stm32f30x_gpio.c ****     if (currentpin == pos)
 185              		.loc 1 193 0
 186 00bc B542     		cmp	r5, r6
 187 00be 3FD1     		bne	.L12
 195:/home/user/Desktop/STM32-Projekte/FH-Vertibot/src/STM32F30x_StdPeriph_Driver/src/stm32f30x_gpio.c ****       if ((GPIO_InitStruct->GPIO_Mode == GPIO_Mode_OUT) || (GPIO_InitStruct->GPIO_Mode == GPIO_Mode
 188              		.loc 1 195 0
 189 00c0 0E79     		ldrb	r6, [r1, #4]	@ zero_extendqisi2
 190              	.LVL23:
 191 00c2 06F1FF38 		add	r8, r6, #-1
 192 00c6 B8F1010F 		cmp	r8, #1
 193 00ca 20D8     		bhi	.L13
 201:/home/user/Desktop/STM32-Projekte/FH-Vertibot/src/STM32F30x_StdPeriph_Driver/src/stm32f30x_gpio.c ****         GPIOx->OSPEEDR &= ~(GPIO_OSPEEDER_OSPEEDR0 << (pinpos * 2));
 194              		.loc 1 201 0
 195 00cc D0F80880 		ldr	r8, [r0, #8]
 196 00d0 04FA03F9 		lsl	r9, r4, r3
 197 00d4 28EA0908 		bic	r8, r8, r9
 198 00d8 C0F80880 		str	r8, [r0, #8]
 202:/home/user/Desktop/STM32-Projekte/FH-Vertibot/src/STM32F30x_StdPeriph_Driver/src/stm32f30x_gpio.c ****         GPIOx->OSPEEDR |= ((uint32_t)(GPIO_InitStruct->GPIO_Speed) << (pinpos * 2));
 199              		.loc 1 202 0
 200 00dc 91F80580 		ldrb	r8, [r1, #5]	@ zero_extendqisi2
 201 00e0 D0F80890 		ldr	r9, [r0, #8]
 202 00e4 08FA03F8 		lsl	r8, r8, r3
 203 00e8 48EA0908 		orr	r8, r8, r9
 204 00ec C0F80880 		str	r8, [r0, #8]
 208:/home/user/Desktop/STM32-Projekte/FH-Vertibot/src/STM32F30x_StdPeriph_Driver/src/stm32f30x_gpio.c ****         GPIOx->OTYPER &= ~((GPIO_OTYPER_OT_0) << ((uint16_t)pinpos));
 205              		.loc 1 208 0
 206 00f0 B0F80480 		ldrh	r8, [r0, #4]
 207 00f4 1FFA88F8 		uxth	r8, r8
 208 00f8 28EA0505 		bic	r5, r8, r5
 209              	.LVL24:
 210 00fc 8580     		strh	r5, [r0, #4]	@ movhi
 209:/home/user/Desktop/STM32-Projekte/FH-Vertibot/src/STM32F30x_StdPeriph_Driver/src/stm32f30x_gpio.c ****         GPIOx->OTYPER |= (uint16_t)(((uint16_t)GPIO_InitStruct->GPIO_OType) << ((uint16_t)pinpos));
 211              		.loc 1 209 0
 212 00fe 8D79     		ldrb	r5, [r1, #6]	@ zero_extendqisi2
 213 0100 B0F80480 		ldrh	r8, [r0, #4]
 214 0104 05FA02F5 		lsl	r5, r5, r2
 215 0108 45EA0805 		orr	r5, r5, r8
 216 010c 8580     		strh	r5, [r0, #4]	@ movhi
 217              	.L13:
 218              		.loc 1 212 0
 219 010e D0F80080 		ldr	r8, [r0, #0]
 220 0112 04FA03F5 		lsl	r5, r4, r3
 221 0116 ED43     		mvns	r5, r5
 222 0118 05EA0808 		and	r8, r5, r8
 223 011c C0F80080 		str	r8, [r0, #0]
 213:/home/user/Desktop/STM32-Projekte/FH-Vertibot/src/STM32F30x_StdPeriph_Driver/src/stm32f30x_gpio.c **** 
 214:/home/user/Desktop/STM32-Projekte/FH-Vertibot/src/STM32F30x_StdPeriph_Driver/src/stm32f30x_gpio.c ****       GPIOx->MODER |= (((uint32_t)GPIO_InitStruct->GPIO_Mode) << (pinpos * 2));
 224              		.loc 1 214 0
 225 0120 D0F80080 		ldr	r8, [r0, #0]
 226 0124 06FA03F6 		lsl	r6, r6, r3
 227 0128 46EA0806 		orr	r6, r6, r8
 228 012c 0660     		str	r6, [r0, #0]
 215:/home/user/Desktop/STM32-Projekte/FH-Vertibot/src/STM32F30x_StdPeriph_Driver/src/stm32f30x_gpio.c **** 
 216:/home/user/Desktop/STM32-Projekte/FH-Vertibot/src/STM32F30x_StdPeriph_Driver/src/stm32f30x_gpio.c ****       /* Pull-up Pull down resistor configuration */
 217:/home/user/Desktop/STM32-Projekte/FH-Vertibot/src/STM32F30x_StdPeriph_Driver/src/stm32f30x_gpio.c ****       GPIOx->PUPDR &= ~(GPIO_PUPDR_PUPDR0 << ((uint16_t)pinpos * 2));
 229              		.loc 1 217 0
 230 012e C668     		ldr	r6, [r0, #12]
 231 0130 3540     		ands	r5, r5, r6
 232 0132 C560     		str	r5, [r0, #12]
 218:/home/user/Desktop/STM32-Projekte/FH-Vertibot/src/STM32F30x_StdPeriph_Driver/src/stm32f30x_gpio.c ****       GPIOx->PUPDR |= (((uint32_t)GPIO_InitStruct->GPIO_PuPd) << (pinpos * 2));
 233              		.loc 1 218 0
 234 0134 CD79     		ldrb	r5, [r1, #7]	@ zero_extendqisi2
 235 0136 C668     		ldr	r6, [r0, #12]
 236 0138 05FA03F5 		lsl	r5, r5, r3
 237 013c 3543     		orrs	r5, r5, r6
 238 013e C560     		str	r5, [r0, #12]
 239              	.L12:
 186:/home/user/Desktop/STM32-Projekte/FH-Vertibot/src/STM32F30x_StdPeriph_Driver/src/stm32f30x_gpio.c ****   for (pinpos = 0x00; pinpos < 0x10; pinpos++)
 240              		.loc 1 186 0
 241 0140 0132     		adds	r2, r2, #1
 242              	.LVL25:
 243 0142 0233     		adds	r3, r3, #2
 244 0144 102A     		cmp	r2, #16
 245 0146 B5D1     		bne	.L14
 219:/home/user/Desktop/STM32-Projekte/FH-Vertibot/src/STM32F30x_StdPeriph_Driver/src/stm32f30x_gpio.c ****     }
 220:/home/user/Desktop/STM32-Projekte/FH-Vertibot/src/STM32F30x_StdPeriph_Driver/src/stm32f30x_gpio.c ****   }
 221:/home/user/Desktop/STM32-Projekte/FH-Vertibot/src/STM32F30x_StdPeriph_Driver/src/stm32f30x_gpio.c **** }
 246              		.loc 1 221 0
 247 0148 BDE8F083 		pop	{r4, r5, r6, r7, r8, r9, pc}
 248              		.cfi_endproc
 249              	.LFE112:
 251              		.align	1
 252              		.global	GPIO_StructInit
 253              		.thumb
 254              		.thumb_func
 256              	GPIO_StructInit:
 257              	.LFB113:
 222:/home/user/Desktop/STM32-Projekte/FH-Vertibot/src/STM32F30x_StdPeriph_Driver/src/stm32f30x_gpio.c **** 
 223:/home/user/Desktop/STM32-Projekte/FH-Vertibot/src/STM32F30x_StdPeriph_Driver/src/stm32f30x_gpio.c **** /**
 224:/home/user/Desktop/STM32-Projekte/FH-Vertibot/src/STM32F30x_StdPeriph_Driver/src/stm32f30x_gpio.c ****   * @brief  Fills each GPIO_InitStruct member with its default value.
 225:/home/user/Desktop/STM32-Projekte/FH-Vertibot/src/STM32F30x_StdPeriph_Driver/src/stm32f30x_gpio.c ****   * @param  GPIO_InitStruct: pointer to a GPIO_InitTypeDef structure which will 
 226:/home/user/Desktop/STM32-Projekte/FH-Vertibot/src/STM32F30x_StdPeriph_Driver/src/stm32f30x_gpio.c ****   *         be initialized.
 227:/home/user/Desktop/STM32-Projekte/FH-Vertibot/src/STM32F30x_StdPeriph_Driver/src/stm32f30x_gpio.c ****   * @retval None
 228:/home/user/Desktop/STM32-Projekte/FH-Vertibot/src/STM32F30x_StdPeriph_Driver/src/stm32f30x_gpio.c ****   */
 229:/home/user/Desktop/STM32-Projekte/FH-Vertibot/src/STM32F30x_StdPeriph_Driver/src/stm32f30x_gpio.c **** void GPIO_StructInit(GPIO_InitTypeDef* GPIO_InitStruct)
 230:/home/user/Desktop/STM32-Projekte/FH-Vertibot/src/STM32F30x_StdPeriph_Driver/src/stm32f30x_gpio.c **** {
 258              		.loc 1 230 0
 259              		.cfi_startproc
 260              		@ args = 0, pretend = 0, frame = 0
 261              		@ frame_needed = 0, uses_anonymous_args = 0
 262              		@ link register save eliminated.
 263              	.LVL26:
 231:/home/user/Desktop/STM32-Projekte/FH-Vertibot/src/STM32F30x_StdPeriph_Driver/src/stm32f30x_gpio.c ****   /* Reset GPIO init structure parameters values */
 232:/home/user/Desktop/STM32-Projekte/FH-Vertibot/src/STM32F30x_StdPeriph_Driver/src/stm32f30x_gpio.c ****   GPIO_InitStruct->GPIO_Pin  = GPIO_Pin_All;
 264              		.loc 1 232 0
 265 014c 4FF6FF73 		movw	r3, #65535
 266 0150 0360     		str	r3, [r0, #0]
 233:/home/user/Desktop/STM32-Projekte/FH-Vertibot/src/STM32F30x_StdPeriph_Driver/src/stm32f30x_gpio.c ****   GPIO_InitStruct->GPIO_Mode = GPIO_Mode_IN;
 234:/home/user/Desktop/STM32-Projekte/FH-Vertibot/src/STM32F30x_StdPeriph_Driver/src/stm32f30x_gpio.c ****   GPIO_InitStruct->GPIO_Speed = GPIO_Speed_2MHz;
 267              		.loc 1 234 0
 268 0152 0222     		movs	r2, #2
 233:/home/user/Desktop/STM32-Projekte/FH-Vertibot/src/STM32F30x_StdPeriph_Driver/src/stm32f30x_gpio.c ****   GPIO_InitStruct->GPIO_Mode = GPIO_Mode_IN;
 269              		.loc 1 233 0
 270 0154 0023     		movs	r3, #0
 271 0156 0371     		strb	r3, [r0, #4]
 272              		.loc 1 234 0
 273 0158 4271     		strb	r2, [r0, #5]
 235:/home/user/Desktop/STM32-Projekte/FH-Vertibot/src/STM32F30x_StdPeriph_Driver/src/stm32f30x_gpio.c ****   GPIO_InitStruct->GPIO_OType = GPIO_OType_PP;
 274              		.loc 1 235 0
 275 015a 8371     		strb	r3, [r0, #6]
 236:/home/user/Desktop/STM32-Projekte/FH-Vertibot/src/STM32F30x_StdPeriph_Driver/src/stm32f30x_gpio.c ****   GPIO_InitStruct->GPIO_PuPd = GPIO_PuPd_NOPULL;
 276              		.loc 1 236 0
 277 015c C371     		strb	r3, [r0, #7]
 278 015e 7047     		bx	lr
 279              		.cfi_endproc
 280              	.LFE113:
 282              		.align	1
 283              		.global	GPIO_PinLockConfig
 284              		.thumb
 285              		.thumb_func
 287              	GPIO_PinLockConfig:
 288              	.LFB114:
 237:/home/user/Desktop/STM32-Projekte/FH-Vertibot/src/STM32F30x_StdPeriph_Driver/src/stm32f30x_gpio.c **** }
 238:/home/user/Desktop/STM32-Projekte/FH-Vertibot/src/STM32F30x_StdPeriph_Driver/src/stm32f30x_gpio.c **** 
 239:/home/user/Desktop/STM32-Projekte/FH-Vertibot/src/STM32F30x_StdPeriph_Driver/src/stm32f30x_gpio.c **** /**
 240:/home/user/Desktop/STM32-Projekte/FH-Vertibot/src/STM32F30x_StdPeriph_Driver/src/stm32f30x_gpio.c ****   * @brief  Locks GPIO Pins configuration registers.
 241:/home/user/Desktop/STM32-Projekte/FH-Vertibot/src/STM32F30x_StdPeriph_Driver/src/stm32f30x_gpio.c ****   *         The locked registers are GPIOx_MODER, GPIOx_OTYPER, GPIOx_OSPEEDR,
 242:/home/user/Desktop/STM32-Projekte/FH-Vertibot/src/STM32F30x_StdPeriph_Driver/src/stm32f30x_gpio.c ****   *         GPIOx_PUPDR, GPIOx_AFRL and GPIOx_AFRH.
 243:/home/user/Desktop/STM32-Projekte/FH-Vertibot/src/STM32F30x_StdPeriph_Driver/src/stm32f30x_gpio.c ****   * @note   The configuration of the locked GPIO pins can no longer be modified
 244:/home/user/Desktop/STM32-Projekte/FH-Vertibot/src/STM32F30x_StdPeriph_Driver/src/stm32f30x_gpio.c ****   *         until the next reset.
 245:/home/user/Desktop/STM32-Projekte/FH-Vertibot/src/STM32F30x_StdPeriph_Driver/src/stm32f30x_gpio.c ****   * @param  GPIOx: where x can be (A or B or D) to select the GPIO peripheral.
 246:/home/user/Desktop/STM32-Projekte/FH-Vertibot/src/STM32F30x_StdPeriph_Driver/src/stm32f30x_gpio.c ****   * @param  GPIO_Pin: specifies the port bit to be written.
 247:/home/user/Desktop/STM32-Projekte/FH-Vertibot/src/STM32F30x_StdPeriph_Driver/src/stm32f30x_gpio.c ****   *   This parameter can be any combination of GPIO_Pin_x where x can be (0..15).
 248:/home/user/Desktop/STM32-Projekte/FH-Vertibot/src/STM32F30x_StdPeriph_Driver/src/stm32f30x_gpio.c ****   * @retval None
 249:/home/user/Desktop/STM32-Projekte/FH-Vertibot/src/STM32F30x_StdPeriph_Driver/src/stm32f30x_gpio.c ****   */
 250:/home/user/Desktop/STM32-Projekte/FH-Vertibot/src/STM32F30x_StdPeriph_Driver/src/stm32f30x_gpio.c **** void GPIO_PinLockConfig(GPIO_TypeDef* GPIOx, uint16_t GPIO_Pin)
 251:/home/user/Desktop/STM32-Projekte/FH-Vertibot/src/STM32F30x_StdPeriph_Driver/src/stm32f30x_gpio.c **** {
 289              		.loc 1 251 0
 290              		.cfi_startproc
 291              		@ args = 0, pretend = 0, frame = 0
 292              		@ frame_needed = 0, uses_anonymous_args = 0
 293              		@ link register save eliminated.
 294              	.LVL27:
 252:/home/user/Desktop/STM32-Projekte/FH-Vertibot/src/STM32F30x_StdPeriph_Driver/src/stm32f30x_gpio.c ****   uint32_t tmp = 0x00010000;
 253:/home/user/Desktop/STM32-Projekte/FH-Vertibot/src/STM32F30x_StdPeriph_Driver/src/stm32f30x_gpio.c ****   
 254:/home/user/Desktop/STM32-Projekte/FH-Vertibot/src/STM32F30x_StdPeriph_Driver/src/stm32f30x_gpio.c ****   /* Check the parameters */
 255:/home/user/Desktop/STM32-Projekte/FH-Vertibot/src/STM32F30x_StdPeriph_Driver/src/stm32f30x_gpio.c ****   assert_param(IS_GPIO_LIST_PERIPH(GPIOx));
 256:/home/user/Desktop/STM32-Projekte/FH-Vertibot/src/STM32F30x_StdPeriph_Driver/src/stm32f30x_gpio.c ****   assert_param(IS_GPIO_PIN(GPIO_Pin));
 257:/home/user/Desktop/STM32-Projekte/FH-Vertibot/src/STM32F30x_StdPeriph_Driver/src/stm32f30x_gpio.c ****   
 258:/home/user/Desktop/STM32-Projekte/FH-Vertibot/src/STM32F30x_StdPeriph_Driver/src/stm32f30x_gpio.c ****   tmp |= GPIO_Pin;
 295              		.loc 1 258 0
 296 0160 41F48033 		orr	r3, r1, #65536
 297              	.LVL28:
 259:/home/user/Desktop/STM32-Projekte/FH-Vertibot/src/STM32F30x_StdPeriph_Driver/src/stm32f30x_gpio.c ****   /* Set LCKK bit */
 260:/home/user/Desktop/STM32-Projekte/FH-Vertibot/src/STM32F30x_StdPeriph_Driver/src/stm32f30x_gpio.c ****   GPIOx->LCKR = tmp;
 298              		.loc 1 260 0
 299 0164 C361     		str	r3, [r0, #28]
 261:/home/user/Desktop/STM32-Projekte/FH-Vertibot/src/STM32F30x_StdPeriph_Driver/src/stm32f30x_gpio.c ****   /* Reset LCKK bit */
 262:/home/user/Desktop/STM32-Projekte/FH-Vertibot/src/STM32F30x_StdPeriph_Driver/src/stm32f30x_gpio.c ****   GPIOx->LCKR =  GPIO_Pin;
 300              		.loc 1 262 0
 301 0166 C161     		str	r1, [r0, #28]
 263:/home/user/Desktop/STM32-Projekte/FH-Vertibot/src/STM32F30x_StdPeriph_Driver/src/stm32f30x_gpio.c ****   /* Set LCKK bit */
 264:/home/user/Desktop/STM32-Projekte/FH-Vertibot/src/STM32F30x_StdPeriph_Driver/src/stm32f30x_gpio.c ****   GPIOx->LCKR = tmp;
 302              		.loc 1 264 0
 303 0168 C361     		str	r3, [r0, #28]
 265:/home/user/Desktop/STM32-Projekte/FH-Vertibot/src/STM32F30x_StdPeriph_Driver/src/stm32f30x_gpio.c ****   /* Read LCKK bit */
 266:/home/user/Desktop/STM32-Projekte/FH-Vertibot/src/STM32F30x_StdPeriph_Driver/src/stm32f30x_gpio.c ****   tmp = GPIOx->LCKR;
 304              		.loc 1 266 0
 305 016a C369     		ldr	r3, [r0, #28]
 306              	.LVL29:
 267:/home/user/Desktop/STM32-Projekte/FH-Vertibot/src/STM32F30x_StdPeriph_Driver/src/stm32f30x_gpio.c ****   /* Read LCKK bit */
 268:/home/user/Desktop/STM32-Projekte/FH-Vertibot/src/STM32F30x_StdPeriph_Driver/src/stm32f30x_gpio.c ****   tmp = GPIOx->LCKR;
 307              		.loc 1 268 0
 308 016c C369     		ldr	r3, [r0, #28]
 309 016e 7047     		bx	lr
 310              		.cfi_endproc
 311              	.LFE114:
 313              		.align	1
 314              		.global	GPIO_ReadInputDataBit
 315              		.thumb
 316              		.thumb_func
 318              	GPIO_ReadInputDataBit:
 319              	.LFB115:
 269:/home/user/Desktop/STM32-Projekte/FH-Vertibot/src/STM32F30x_StdPeriph_Driver/src/stm32f30x_gpio.c **** }
 270:/home/user/Desktop/STM32-Projekte/FH-Vertibot/src/STM32F30x_StdPeriph_Driver/src/stm32f30x_gpio.c **** 
 271:/home/user/Desktop/STM32-Projekte/FH-Vertibot/src/STM32F30x_StdPeriph_Driver/src/stm32f30x_gpio.c **** /**
 272:/home/user/Desktop/STM32-Projekte/FH-Vertibot/src/STM32F30x_StdPeriph_Driver/src/stm32f30x_gpio.c ****   * @}
 273:/home/user/Desktop/STM32-Projekte/FH-Vertibot/src/STM32F30x_StdPeriph_Driver/src/stm32f30x_gpio.c ****   */
 274:/home/user/Desktop/STM32-Projekte/FH-Vertibot/src/STM32F30x_StdPeriph_Driver/src/stm32f30x_gpio.c ****   
 275:/home/user/Desktop/STM32-Projekte/FH-Vertibot/src/STM32F30x_StdPeriph_Driver/src/stm32f30x_gpio.c **** /** @defgroup GPIO_Group2 GPIO Read and Write
 276:/home/user/Desktop/STM32-Projekte/FH-Vertibot/src/STM32F30x_StdPeriph_Driver/src/stm32f30x_gpio.c ****  *  @brief    GPIO Read and Write
 277:/home/user/Desktop/STM32-Projekte/FH-Vertibot/src/STM32F30x_StdPeriph_Driver/src/stm32f30x_gpio.c ****  *
 278:/home/user/Desktop/STM32-Projekte/FH-Vertibot/src/STM32F30x_StdPeriph_Driver/src/stm32f30x_gpio.c **** @verbatim
 279:/home/user/Desktop/STM32-Projekte/FH-Vertibot/src/STM32F30x_StdPeriph_Driver/src/stm32f30x_gpio.c ****  ===============================================================================
 280:/home/user/Desktop/STM32-Projekte/FH-Vertibot/src/STM32F30x_StdPeriph_Driver/src/stm32f30x_gpio.c ****                   ##### GPIO Read and Write #####
 281:/home/user/Desktop/STM32-Projekte/FH-Vertibot/src/STM32F30x_StdPeriph_Driver/src/stm32f30x_gpio.c ****  ===============================================================================  
 282:/home/user/Desktop/STM32-Projekte/FH-Vertibot/src/STM32F30x_StdPeriph_Driver/src/stm32f30x_gpio.c **** 
 283:/home/user/Desktop/STM32-Projekte/FH-Vertibot/src/STM32F30x_StdPeriph_Driver/src/stm32f30x_gpio.c **** @endverbatim
 284:/home/user/Desktop/STM32-Projekte/FH-Vertibot/src/STM32F30x_StdPeriph_Driver/src/stm32f30x_gpio.c ****   * @{
 285:/home/user/Desktop/STM32-Projekte/FH-Vertibot/src/STM32F30x_StdPeriph_Driver/src/stm32f30x_gpio.c ****   */   
 286:/home/user/Desktop/STM32-Projekte/FH-Vertibot/src/STM32F30x_StdPeriph_Driver/src/stm32f30x_gpio.c **** 
 287:/home/user/Desktop/STM32-Projekte/FH-Vertibot/src/STM32F30x_StdPeriph_Driver/src/stm32f30x_gpio.c **** /**
 288:/home/user/Desktop/STM32-Projekte/FH-Vertibot/src/STM32F30x_StdPeriph_Driver/src/stm32f30x_gpio.c ****   * @brief  Reads the specified input port pin.
 289:/home/user/Desktop/STM32-Projekte/FH-Vertibot/src/STM32F30x_StdPeriph_Driver/src/stm32f30x_gpio.c ****   * @param  GPIOx: where x can be (A, B, C, D, E or F) to select the GPIO peripheral.
 290:/home/user/Desktop/STM32-Projekte/FH-Vertibot/src/STM32F30x_StdPeriph_Driver/src/stm32f30x_gpio.c ****   * @param  GPIO_Pin: specifies the port bit to read.
 291:/home/user/Desktop/STM32-Projekte/FH-Vertibot/src/STM32F30x_StdPeriph_Driver/src/stm32f30x_gpio.c ****   * @note   This parameter can be GPIO_Pin_x where x can be :
 292:/home/user/Desktop/STM32-Projekte/FH-Vertibot/src/STM32F30x_StdPeriph_Driver/src/stm32f30x_gpio.c ****   *         (0..15) for GPIOA, GPIOB, GPIOC, GPIOD or GPIOE;
 293:/home/user/Desktop/STM32-Projekte/FH-Vertibot/src/STM32F30x_StdPeriph_Driver/src/stm32f30x_gpio.c ****   *         (0..2, 4, 6, 9..10) for GPIOF.
 294:/home/user/Desktop/STM32-Projekte/FH-Vertibot/src/STM32F30x_StdPeriph_Driver/src/stm32f30x_gpio.c ****   * @retval The input port pin value.
 295:/home/user/Desktop/STM32-Projekte/FH-Vertibot/src/STM32F30x_StdPeriph_Driver/src/stm32f30x_gpio.c ****   */
 296:/home/user/Desktop/STM32-Projekte/FH-Vertibot/src/STM32F30x_StdPeriph_Driver/src/stm32f30x_gpio.c **** uint8_t GPIO_ReadInputDataBit(GPIO_TypeDef* GPIOx, uint16_t GPIO_Pin)
 297:/home/user/Desktop/STM32-Projekte/FH-Vertibot/src/STM32F30x_StdPeriph_Driver/src/stm32f30x_gpio.c **** {
 320              		.loc 1 297 0
 321              		.cfi_startproc
 322              		@ args = 0, pretend = 0, frame = 0
 323              		@ frame_needed = 0, uses_anonymous_args = 0
 324              		@ link register save eliminated.
 325              	.LVL30:
 298:/home/user/Desktop/STM32-Projekte/FH-Vertibot/src/STM32F30x_StdPeriph_Driver/src/stm32f30x_gpio.c ****   uint8_t bitstatus = 0x00;
 299:/home/user/Desktop/STM32-Projekte/FH-Vertibot/src/STM32F30x_StdPeriph_Driver/src/stm32f30x_gpio.c ****   
 300:/home/user/Desktop/STM32-Projekte/FH-Vertibot/src/STM32F30x_StdPeriph_Driver/src/stm32f30x_gpio.c ****   /* Check the parameters */
 301:/home/user/Desktop/STM32-Projekte/FH-Vertibot/src/STM32F30x_StdPeriph_Driver/src/stm32f30x_gpio.c ****   assert_param(IS_GPIO_ALL_PERIPH(GPIOx));
 302:/home/user/Desktop/STM32-Projekte/FH-Vertibot/src/STM32F30x_StdPeriph_Driver/src/stm32f30x_gpio.c ****   assert_param(IS_GET_GPIO_PIN(GPIO_Pin));
 303:/home/user/Desktop/STM32-Projekte/FH-Vertibot/src/STM32F30x_StdPeriph_Driver/src/stm32f30x_gpio.c **** 
 304:/home/user/Desktop/STM32-Projekte/FH-Vertibot/src/STM32F30x_StdPeriph_Driver/src/stm32f30x_gpio.c ****   if ((GPIOx->IDR & GPIO_Pin) != (uint32_t)Bit_RESET)
 326              		.loc 1 304 0
 327 0170 038A     		ldrh	r3, [r0, #16]
 328              	.LVL31:
 329 0172 1942     		tst	r1, r3
 305:/home/user/Desktop/STM32-Projekte/FH-Vertibot/src/STM32F30x_StdPeriph_Driver/src/stm32f30x_gpio.c ****   {
 306:/home/user/Desktop/STM32-Projekte/FH-Vertibot/src/STM32F30x_StdPeriph_Driver/src/stm32f30x_gpio.c ****     bitstatus = (uint8_t)Bit_SET;
 307:/home/user/Desktop/STM32-Projekte/FH-Vertibot/src/STM32F30x_StdPeriph_Driver/src/stm32f30x_gpio.c ****   }
 308:/home/user/Desktop/STM32-Projekte/FH-Vertibot/src/STM32F30x_StdPeriph_Driver/src/stm32f30x_gpio.c ****   else
 309:/home/user/Desktop/STM32-Projekte/FH-Vertibot/src/STM32F30x_StdPeriph_Driver/src/stm32f30x_gpio.c ****   {
 310:/home/user/Desktop/STM32-Projekte/FH-Vertibot/src/STM32F30x_StdPeriph_Driver/src/stm32f30x_gpio.c ****     bitstatus = (uint8_t)Bit_RESET;
 311:/home/user/Desktop/STM32-Projekte/FH-Vertibot/src/STM32F30x_StdPeriph_Driver/src/stm32f30x_gpio.c ****   }
 312:/home/user/Desktop/STM32-Projekte/FH-Vertibot/src/STM32F30x_StdPeriph_Driver/src/stm32f30x_gpio.c ****   return bitstatus;
 313:/home/user/Desktop/STM32-Projekte/FH-Vertibot/src/STM32F30x_StdPeriph_Driver/src/stm32f30x_gpio.c **** }
 330              		.loc 1 313 0
 331 0174 0CBF     		ite	eq
 332 0176 0020     		moveq	r0, #0
 333 0178 0120     		movne	r0, #1
 334              	.LVL32:
 335 017a 7047     		bx	lr
 336              		.cfi_endproc
 337              	.LFE115:
 339              		.align	1
 340              		.global	GPIO_ReadInputData
 341              		.thumb
 342              		.thumb_func
 344              	GPIO_ReadInputData:
 345              	.LFB116:
 314:/home/user/Desktop/STM32-Projekte/FH-Vertibot/src/STM32F30x_StdPeriph_Driver/src/stm32f30x_gpio.c **** 
 315:/home/user/Desktop/STM32-Projekte/FH-Vertibot/src/STM32F30x_StdPeriph_Driver/src/stm32f30x_gpio.c **** /**
 316:/home/user/Desktop/STM32-Projekte/FH-Vertibot/src/STM32F30x_StdPeriph_Driver/src/stm32f30x_gpio.c ****   * @brief  Reads the specified input port pin.
 317:/home/user/Desktop/STM32-Projekte/FH-Vertibot/src/STM32F30x_StdPeriph_Driver/src/stm32f30x_gpio.c ****   * @param  GPIOx: where x can be (A, B, C, D, E or F) to select the GPIO peripheral.
 318:/home/user/Desktop/STM32-Projekte/FH-Vertibot/src/STM32F30x_StdPeriph_Driver/src/stm32f30x_gpio.c ****   * @retval The input port pin value.
 319:/home/user/Desktop/STM32-Projekte/FH-Vertibot/src/STM32F30x_StdPeriph_Driver/src/stm32f30x_gpio.c ****   */
 320:/home/user/Desktop/STM32-Projekte/FH-Vertibot/src/STM32F30x_StdPeriph_Driver/src/stm32f30x_gpio.c **** uint16_t GPIO_ReadInputData(GPIO_TypeDef* GPIOx)
 321:/home/user/Desktop/STM32-Projekte/FH-Vertibot/src/STM32F30x_StdPeriph_Driver/src/stm32f30x_gpio.c **** {
 346              		.loc 1 321 0
 347              		.cfi_startproc
 348              		@ args = 0, pretend = 0, frame = 0
 349              		@ frame_needed = 0, uses_anonymous_args = 0
 350              		@ link register save eliminated.
 351              	.LVL33:
 322:/home/user/Desktop/STM32-Projekte/FH-Vertibot/src/STM32F30x_StdPeriph_Driver/src/stm32f30x_gpio.c ****   /* Check the parameters */
 323:/home/user/Desktop/STM32-Projekte/FH-Vertibot/src/STM32F30x_StdPeriph_Driver/src/stm32f30x_gpio.c ****   assert_param(IS_GPIO_ALL_PERIPH(GPIOx));
 324:/home/user/Desktop/STM32-Projekte/FH-Vertibot/src/STM32F30x_StdPeriph_Driver/src/stm32f30x_gpio.c **** 
 325:/home/user/Desktop/STM32-Projekte/FH-Vertibot/src/STM32F30x_StdPeriph_Driver/src/stm32f30x_gpio.c ****   return ((uint16_t)GPIOx->IDR);
 352              		.loc 1 325 0
 353 017c 008A     		ldrh	r0, [r0, #16]
 354              	.LVL34:
 326:/home/user/Desktop/STM32-Projekte/FH-Vertibot/src/STM32F30x_StdPeriph_Driver/src/stm32f30x_gpio.c **** }
 355              		.loc 1 326 0
 356 017e 80B2     		uxth	r0, r0
 357 0180 7047     		bx	lr
 358              		.cfi_endproc
 359              	.LFE116:
 361              		.align	1
 362              		.global	GPIO_ReadOutputDataBit
 363              		.thumb
 364              		.thumb_func
 366              	GPIO_ReadOutputDataBit:
 367              	.LFB117:
 327:/home/user/Desktop/STM32-Projekte/FH-Vertibot/src/STM32F30x_StdPeriph_Driver/src/stm32f30x_gpio.c **** 
 328:/home/user/Desktop/STM32-Projekte/FH-Vertibot/src/STM32F30x_StdPeriph_Driver/src/stm32f30x_gpio.c **** /**
 329:/home/user/Desktop/STM32-Projekte/FH-Vertibot/src/STM32F30x_StdPeriph_Driver/src/stm32f30x_gpio.c ****   * @brief  Reads the specified output data port bit.
 330:/home/user/Desktop/STM32-Projekte/FH-Vertibot/src/STM32F30x_StdPeriph_Driver/src/stm32f30x_gpio.c ****   * @param  GPIOx: where x can be (A, B, C, D, E or F) to select the GPIO peripheral.
 331:/home/user/Desktop/STM32-Projekte/FH-Vertibot/src/STM32F30x_StdPeriph_Driver/src/stm32f30x_gpio.c ****   * @param  GPIO_Pin: Specifies the port bit to read.
 332:/home/user/Desktop/STM32-Projekte/FH-Vertibot/src/STM32F30x_StdPeriph_Driver/src/stm32f30x_gpio.c ****   * @note   This parameter can be GPIO_Pin_x where x can be :
 333:/home/user/Desktop/STM32-Projekte/FH-Vertibot/src/STM32F30x_StdPeriph_Driver/src/stm32f30x_gpio.c ****   *         (0..15) for GPIOA, GPIOB, GPIOC, GPIOD or GPIOE;
 334:/home/user/Desktop/STM32-Projekte/FH-Vertibot/src/STM32F30x_StdPeriph_Driver/src/stm32f30x_gpio.c ****   *         (0..2, 4, 6, 9..10) for GPIOF.
 335:/home/user/Desktop/STM32-Projekte/FH-Vertibot/src/STM32F30x_StdPeriph_Driver/src/stm32f30x_gpio.c ****   * @retval The output port pin value.
 336:/home/user/Desktop/STM32-Projekte/FH-Vertibot/src/STM32F30x_StdPeriph_Driver/src/stm32f30x_gpio.c ****   */
 337:/home/user/Desktop/STM32-Projekte/FH-Vertibot/src/STM32F30x_StdPeriph_Driver/src/stm32f30x_gpio.c **** uint8_t GPIO_ReadOutputDataBit(GPIO_TypeDef* GPIOx, uint16_t GPIO_Pin)
 338:/home/user/Desktop/STM32-Projekte/FH-Vertibot/src/STM32F30x_StdPeriph_Driver/src/stm32f30x_gpio.c **** {
 368              		.loc 1 338 0
 369              		.cfi_startproc
 370              		@ args = 0, pretend = 0, frame = 0
 371              		@ frame_needed = 0, uses_anonymous_args = 0
 372              		@ link register save eliminated.
 373              	.LVL35:
 339:/home/user/Desktop/STM32-Projekte/FH-Vertibot/src/STM32F30x_StdPeriph_Driver/src/stm32f30x_gpio.c ****   uint8_t bitstatus = 0x00;
 340:/home/user/Desktop/STM32-Projekte/FH-Vertibot/src/STM32F30x_StdPeriph_Driver/src/stm32f30x_gpio.c **** 
 341:/home/user/Desktop/STM32-Projekte/FH-Vertibot/src/STM32F30x_StdPeriph_Driver/src/stm32f30x_gpio.c ****   /* Check the parameters */
 342:/home/user/Desktop/STM32-Projekte/FH-Vertibot/src/STM32F30x_StdPeriph_Driver/src/stm32f30x_gpio.c ****   assert_param(IS_GPIO_ALL_PERIPH(GPIOx));
 343:/home/user/Desktop/STM32-Projekte/FH-Vertibot/src/STM32F30x_StdPeriph_Driver/src/stm32f30x_gpio.c ****   assert_param(IS_GET_GPIO_PIN(GPIO_Pin));
 344:/home/user/Desktop/STM32-Projekte/FH-Vertibot/src/STM32F30x_StdPeriph_Driver/src/stm32f30x_gpio.c ****   
 345:/home/user/Desktop/STM32-Projekte/FH-Vertibot/src/STM32F30x_StdPeriph_Driver/src/stm32f30x_gpio.c ****   if ((GPIOx->ODR & GPIO_Pin) != (uint32_t)Bit_RESET)
 374              		.loc 1 345 0
 375 0182 838A     		ldrh	r3, [r0, #20]
 376              	.LVL36:
 377 0184 1942     		tst	r1, r3
 346:/home/user/Desktop/STM32-Projekte/FH-Vertibot/src/STM32F30x_StdPeriph_Driver/src/stm32f30x_gpio.c ****   {
 347:/home/user/Desktop/STM32-Projekte/FH-Vertibot/src/STM32F30x_StdPeriph_Driver/src/stm32f30x_gpio.c ****     bitstatus = (uint8_t)Bit_SET;
 348:/home/user/Desktop/STM32-Projekte/FH-Vertibot/src/STM32F30x_StdPeriph_Driver/src/stm32f30x_gpio.c ****   }
 349:/home/user/Desktop/STM32-Projekte/FH-Vertibot/src/STM32F30x_StdPeriph_Driver/src/stm32f30x_gpio.c ****   else
 350:/home/user/Desktop/STM32-Projekte/FH-Vertibot/src/STM32F30x_StdPeriph_Driver/src/stm32f30x_gpio.c ****   {
 351:/home/user/Desktop/STM32-Projekte/FH-Vertibot/src/STM32F30x_StdPeriph_Driver/src/stm32f30x_gpio.c ****     bitstatus = (uint8_t)Bit_RESET;
 352:/home/user/Desktop/STM32-Projekte/FH-Vertibot/src/STM32F30x_StdPeriph_Driver/src/stm32f30x_gpio.c ****   }
 353:/home/user/Desktop/STM32-Projekte/FH-Vertibot/src/STM32F30x_StdPeriph_Driver/src/stm32f30x_gpio.c ****   return bitstatus;
 354:/home/user/Desktop/STM32-Projekte/FH-Vertibot/src/STM32F30x_StdPeriph_Driver/src/stm32f30x_gpio.c **** }
 378              		.loc 1 354 0
 379 0186 0CBF     		ite	eq
 380 0188 0020     		moveq	r0, #0
 381 018a 0120     		movne	r0, #1
 382              	.LVL37:
 383 018c 7047     		bx	lr
 384              		.cfi_endproc
 385              	.LFE117:
 387              		.align	1
 388              		.global	GPIO_ReadOutputData
 389              		.thumb
 390              		.thumb_func
 392              	GPIO_ReadOutputData:
 393              	.LFB118:
 355:/home/user/Desktop/STM32-Projekte/FH-Vertibot/src/STM32F30x_StdPeriph_Driver/src/stm32f30x_gpio.c **** 
 356:/home/user/Desktop/STM32-Projekte/FH-Vertibot/src/STM32F30x_StdPeriph_Driver/src/stm32f30x_gpio.c **** /**
 357:/home/user/Desktop/STM32-Projekte/FH-Vertibot/src/STM32F30x_StdPeriph_Driver/src/stm32f30x_gpio.c ****   * @brief  Reads the specified GPIO output data port.
 358:/home/user/Desktop/STM32-Projekte/FH-Vertibot/src/STM32F30x_StdPeriph_Driver/src/stm32f30x_gpio.c ****   * @param  GPIOx: where x can be (A, B, C, D, E or F) to select the GPIO peripheral.
 359:/home/user/Desktop/STM32-Projekte/FH-Vertibot/src/STM32F30x_StdPeriph_Driver/src/stm32f30x_gpio.c ****   * @retval GPIO output data port value.
 360:/home/user/Desktop/STM32-Projekte/FH-Vertibot/src/STM32F30x_StdPeriph_Driver/src/stm32f30x_gpio.c ****   */
 361:/home/user/Desktop/STM32-Projekte/FH-Vertibot/src/STM32F30x_StdPeriph_Driver/src/stm32f30x_gpio.c **** uint16_t GPIO_ReadOutputData(GPIO_TypeDef* GPIOx)
 362:/home/user/Desktop/STM32-Projekte/FH-Vertibot/src/STM32F30x_StdPeriph_Driver/src/stm32f30x_gpio.c **** {
 394              		.loc 1 362 0
 395              		.cfi_startproc
 396              		@ args = 0, pretend = 0, frame = 0
 397              		@ frame_needed = 0, uses_anonymous_args = 0
 398              		@ link register save eliminated.
 399              	.LVL38:
 363:/home/user/Desktop/STM32-Projekte/FH-Vertibot/src/STM32F30x_StdPeriph_Driver/src/stm32f30x_gpio.c ****   /* Check the parameters */
 364:/home/user/Desktop/STM32-Projekte/FH-Vertibot/src/STM32F30x_StdPeriph_Driver/src/stm32f30x_gpio.c ****   assert_param(IS_GPIO_ALL_PERIPH(GPIOx));
 365:/home/user/Desktop/STM32-Projekte/FH-Vertibot/src/STM32F30x_StdPeriph_Driver/src/stm32f30x_gpio.c ****   
 366:/home/user/Desktop/STM32-Projekte/FH-Vertibot/src/STM32F30x_StdPeriph_Driver/src/stm32f30x_gpio.c ****   return ((uint16_t)GPIOx->ODR);
 400              		.loc 1 366 0
 401 018e 808A     		ldrh	r0, [r0, #20]
 402              	.LVL39:
 367:/home/user/Desktop/STM32-Projekte/FH-Vertibot/src/STM32F30x_StdPeriph_Driver/src/stm32f30x_gpio.c **** }
 403              		.loc 1 367 0
 404 0190 80B2     		uxth	r0, r0
 405 0192 7047     		bx	lr
 406              		.cfi_endproc
 407              	.LFE118:
 409              		.align	1
 410              		.global	GPIO_SetBits
 411              		.thumb
 412              		.thumb_func
 414              	GPIO_SetBits:
 415              	.LFB119:
 368:/home/user/Desktop/STM32-Projekte/FH-Vertibot/src/STM32F30x_StdPeriph_Driver/src/stm32f30x_gpio.c **** 
 369:/home/user/Desktop/STM32-Projekte/FH-Vertibot/src/STM32F30x_StdPeriph_Driver/src/stm32f30x_gpio.c **** /**
 370:/home/user/Desktop/STM32-Projekte/FH-Vertibot/src/STM32F30x_StdPeriph_Driver/src/stm32f30x_gpio.c ****   * @brief  Sets the selected data port bits.
 371:/home/user/Desktop/STM32-Projekte/FH-Vertibot/src/STM32F30x_StdPeriph_Driver/src/stm32f30x_gpio.c ****   * @param  GPIOx: where x can be (A, B, C, D, E or F) to select the GPIO peripheral.
 372:/home/user/Desktop/STM32-Projekte/FH-Vertibot/src/STM32F30x_StdPeriph_Driver/src/stm32f30x_gpio.c ****   * @param  GPIO_Pin: specifies the port bits to be written.
 373:/home/user/Desktop/STM32-Projekte/FH-Vertibot/src/STM32F30x_StdPeriph_Driver/src/stm32f30x_gpio.c ****   * @note   This parameter can be GPIO_Pin_x where x can be :
 374:/home/user/Desktop/STM32-Projekte/FH-Vertibot/src/STM32F30x_StdPeriph_Driver/src/stm32f30x_gpio.c ****   *         (0..15) for GPIOA, GPIOB, GPIOC, GPIOD or GPIOE;
 375:/home/user/Desktop/STM32-Projekte/FH-Vertibot/src/STM32F30x_StdPeriph_Driver/src/stm32f30x_gpio.c ****   *         (0..2, 4, 6, 9..10) for GPIOF.
 376:/home/user/Desktop/STM32-Projekte/FH-Vertibot/src/STM32F30x_StdPeriph_Driver/src/stm32f30x_gpio.c ****   * @retval None
 377:/home/user/Desktop/STM32-Projekte/FH-Vertibot/src/STM32F30x_StdPeriph_Driver/src/stm32f30x_gpio.c ****   */
 378:/home/user/Desktop/STM32-Projekte/FH-Vertibot/src/STM32F30x_StdPeriph_Driver/src/stm32f30x_gpio.c **** void GPIO_SetBits(GPIO_TypeDef* GPIOx, uint16_t GPIO_Pin)
 379:/home/user/Desktop/STM32-Projekte/FH-Vertibot/src/STM32F30x_StdPeriph_Driver/src/stm32f30x_gpio.c **** {
 416              		.loc 1 379 0
 417              		.cfi_startproc
 418              		@ args = 0, pretend = 0, frame = 0
 419              		@ frame_needed = 0, uses_anonymous_args = 0
 420              		@ link register save eliminated.
 421              	.LVL40:
 380:/home/user/Desktop/STM32-Projekte/FH-Vertibot/src/STM32F30x_StdPeriph_Driver/src/stm32f30x_gpio.c ****   /* Check the parameters */
 381:/home/user/Desktop/STM32-Projekte/FH-Vertibot/src/STM32F30x_StdPeriph_Driver/src/stm32f30x_gpio.c ****   assert_param(IS_GPIO_ALL_PERIPH(GPIOx));
 382:/home/user/Desktop/STM32-Projekte/FH-Vertibot/src/STM32F30x_StdPeriph_Driver/src/stm32f30x_gpio.c ****   assert_param(IS_GPIO_PIN(GPIO_Pin));
 383:/home/user/Desktop/STM32-Projekte/FH-Vertibot/src/STM32F30x_StdPeriph_Driver/src/stm32f30x_gpio.c ****   
 384:/home/user/Desktop/STM32-Projekte/FH-Vertibot/src/STM32F30x_StdPeriph_Driver/src/stm32f30x_gpio.c ****   GPIOx->BSRR = GPIO_Pin;
 422              		.loc 1 384 0
 423 0194 8161     		str	r1, [r0, #24]
 424 0196 7047     		bx	lr
 425              		.cfi_endproc
 426              	.LFE119:
 428              		.align	1
 429              		.global	GPIO_ResetBits
 430              		.thumb
 431              		.thumb_func
 433              	GPIO_ResetBits:
 434              	.LFB120:
 385:/home/user/Desktop/STM32-Projekte/FH-Vertibot/src/STM32F30x_StdPeriph_Driver/src/stm32f30x_gpio.c **** }
 386:/home/user/Desktop/STM32-Projekte/FH-Vertibot/src/STM32F30x_StdPeriph_Driver/src/stm32f30x_gpio.c **** 
 387:/home/user/Desktop/STM32-Projekte/FH-Vertibot/src/STM32F30x_StdPeriph_Driver/src/stm32f30x_gpio.c **** /**
 388:/home/user/Desktop/STM32-Projekte/FH-Vertibot/src/STM32F30x_StdPeriph_Driver/src/stm32f30x_gpio.c ****   * @brief  Clears the selected data port bits.
 389:/home/user/Desktop/STM32-Projekte/FH-Vertibot/src/STM32F30x_StdPeriph_Driver/src/stm32f30x_gpio.c ****   * @param  GPIOx: where x can be (A, B, C, D, E or F) to select the GPIO peripheral.
 390:/home/user/Desktop/STM32-Projekte/FH-Vertibot/src/STM32F30x_StdPeriph_Driver/src/stm32f30x_gpio.c ****   * @param  GPIO_Pin: specifies the port bits to be written.
 391:/home/user/Desktop/STM32-Projekte/FH-Vertibot/src/STM32F30x_StdPeriph_Driver/src/stm32f30x_gpio.c ****   * @note   This parameter can be GPIO_Pin_x where x can be :
 392:/home/user/Desktop/STM32-Projekte/FH-Vertibot/src/STM32F30x_StdPeriph_Driver/src/stm32f30x_gpio.c ****   *         (0..15) for GPIOA, GPIOB, GPIOC, GPIOD or GPIOE;
 393:/home/user/Desktop/STM32-Projekte/FH-Vertibot/src/STM32F30x_StdPeriph_Driver/src/stm32f30x_gpio.c ****   *         (0..2, 4, 6, 9..10) for GPIOF.
 394:/home/user/Desktop/STM32-Projekte/FH-Vertibot/src/STM32F30x_StdPeriph_Driver/src/stm32f30x_gpio.c ****   * @retval None
 395:/home/user/Desktop/STM32-Projekte/FH-Vertibot/src/STM32F30x_StdPeriph_Driver/src/stm32f30x_gpio.c ****   */
 396:/home/user/Desktop/STM32-Projekte/FH-Vertibot/src/STM32F30x_StdPeriph_Driver/src/stm32f30x_gpio.c **** void GPIO_ResetBits(GPIO_TypeDef* GPIOx, uint16_t GPIO_Pin)
 397:/home/user/Desktop/STM32-Projekte/FH-Vertibot/src/STM32F30x_StdPeriph_Driver/src/stm32f30x_gpio.c **** {
 435              		.loc 1 397 0
 436              		.cfi_startproc
 437              		@ args = 0, pretend = 0, frame = 0
 438              		@ frame_needed = 0, uses_anonymous_args = 0
 439              		@ link register save eliminated.
 440              	.LVL41:
 398:/home/user/Desktop/STM32-Projekte/FH-Vertibot/src/STM32F30x_StdPeriph_Driver/src/stm32f30x_gpio.c ****   /* Check the parameters */
 399:/home/user/Desktop/STM32-Projekte/FH-Vertibot/src/STM32F30x_StdPeriph_Driver/src/stm32f30x_gpio.c ****   assert_param(IS_GPIO_ALL_PERIPH(GPIOx));
 400:/home/user/Desktop/STM32-Projekte/FH-Vertibot/src/STM32F30x_StdPeriph_Driver/src/stm32f30x_gpio.c ****   assert_param(IS_GPIO_PIN(GPIO_Pin));
 401:/home/user/Desktop/STM32-Projekte/FH-Vertibot/src/STM32F30x_StdPeriph_Driver/src/stm32f30x_gpio.c ****   
 402:/home/user/Desktop/STM32-Projekte/FH-Vertibot/src/STM32F30x_StdPeriph_Driver/src/stm32f30x_gpio.c ****   GPIOx->BRR = GPIO_Pin;
 441              		.loc 1 402 0
 442 0198 0185     		strh	r1, [r0, #40]	@ movhi
 443 019a 7047     		bx	lr
 444              		.cfi_endproc
 445              	.LFE120:
 447              		.align	1
 448              		.global	GPIO_WriteBit
 449              		.thumb
 450              		.thumb_func
 452              	GPIO_WriteBit:
 453              	.LFB121:
 403:/home/user/Desktop/STM32-Projekte/FH-Vertibot/src/STM32F30x_StdPeriph_Driver/src/stm32f30x_gpio.c **** }
 404:/home/user/Desktop/STM32-Projekte/FH-Vertibot/src/STM32F30x_StdPeriph_Driver/src/stm32f30x_gpio.c **** 
 405:/home/user/Desktop/STM32-Projekte/FH-Vertibot/src/STM32F30x_StdPeriph_Driver/src/stm32f30x_gpio.c **** /**
 406:/home/user/Desktop/STM32-Projekte/FH-Vertibot/src/STM32F30x_StdPeriph_Driver/src/stm32f30x_gpio.c ****   * @brief  Sets or clears the selected data port bit.
 407:/home/user/Desktop/STM32-Projekte/FH-Vertibot/src/STM32F30x_StdPeriph_Driver/src/stm32f30x_gpio.c ****   * @param  GPIOx: where x can be (A, B, C, D, E or F) to select the GPIO peripheral.
 408:/home/user/Desktop/STM32-Projekte/FH-Vertibot/src/STM32F30x_StdPeriph_Driver/src/stm32f30x_gpio.c ****   * @param  GPIO_Pin: specifies the port bit to be written.
 409:/home/user/Desktop/STM32-Projekte/FH-Vertibot/src/STM32F30x_StdPeriph_Driver/src/stm32f30x_gpio.c ****   * @note   This parameter can be GPIO_Pin_x where x can be :
 410:/home/user/Desktop/STM32-Projekte/FH-Vertibot/src/STM32F30x_StdPeriph_Driver/src/stm32f30x_gpio.c ****   *         (0..15) for GPIOA, GPIOB, GPIOC, GPIOD or GPIOE;
 411:/home/user/Desktop/STM32-Projekte/FH-Vertibot/src/STM32F30x_StdPeriph_Driver/src/stm32f30x_gpio.c ****   *         (0..2, 4, 6, 9..10) for GPIOF.
 412:/home/user/Desktop/STM32-Projekte/FH-Vertibot/src/STM32F30x_StdPeriph_Driver/src/stm32f30x_gpio.c ****   * @param  BitVal: specifies the value to be written to the selected bit.
 413:/home/user/Desktop/STM32-Projekte/FH-Vertibot/src/STM32F30x_StdPeriph_Driver/src/stm32f30x_gpio.c ****   *   This parameter can be one of the BitAction enumeration values:
 414:/home/user/Desktop/STM32-Projekte/FH-Vertibot/src/STM32F30x_StdPeriph_Driver/src/stm32f30x_gpio.c ****   *     @arg Bit_RESET: to clear the port pin
 415:/home/user/Desktop/STM32-Projekte/FH-Vertibot/src/STM32F30x_StdPeriph_Driver/src/stm32f30x_gpio.c ****   *     @arg Bit_SET: to set the port pin
 416:/home/user/Desktop/STM32-Projekte/FH-Vertibot/src/STM32F30x_StdPeriph_Driver/src/stm32f30x_gpio.c ****   * @retval None
 417:/home/user/Desktop/STM32-Projekte/FH-Vertibot/src/STM32F30x_StdPeriph_Driver/src/stm32f30x_gpio.c ****   */
 418:/home/user/Desktop/STM32-Projekte/FH-Vertibot/src/STM32F30x_StdPeriph_Driver/src/stm32f30x_gpio.c **** void GPIO_WriteBit(GPIO_TypeDef* GPIOx, uint16_t GPIO_Pin, BitAction BitVal)
 419:/home/user/Desktop/STM32-Projekte/FH-Vertibot/src/STM32F30x_StdPeriph_Driver/src/stm32f30x_gpio.c **** {
 454              		.loc 1 419 0
 455              		.cfi_startproc
 456              		@ args = 0, pretend = 0, frame = 0
 457              		@ frame_needed = 0, uses_anonymous_args = 0
 458              		@ link register save eliminated.
 459              	.LVL42:
 420:/home/user/Desktop/STM32-Projekte/FH-Vertibot/src/STM32F30x_StdPeriph_Driver/src/stm32f30x_gpio.c ****   /* Check the parameters */
 421:/home/user/Desktop/STM32-Projekte/FH-Vertibot/src/STM32F30x_StdPeriph_Driver/src/stm32f30x_gpio.c ****   assert_param(IS_GPIO_ALL_PERIPH(GPIOx));
 422:/home/user/Desktop/STM32-Projekte/FH-Vertibot/src/STM32F30x_StdPeriph_Driver/src/stm32f30x_gpio.c ****   assert_param(IS_GET_GPIO_PIN(GPIO_Pin));
 423:/home/user/Desktop/STM32-Projekte/FH-Vertibot/src/STM32F30x_StdPeriph_Driver/src/stm32f30x_gpio.c ****   assert_param(IS_GPIO_BIT_ACTION(BitVal));
 424:/home/user/Desktop/STM32-Projekte/FH-Vertibot/src/STM32F30x_StdPeriph_Driver/src/stm32f30x_gpio.c ****   
 425:/home/user/Desktop/STM32-Projekte/FH-Vertibot/src/STM32F30x_StdPeriph_Driver/src/stm32f30x_gpio.c ****   if (BitVal != Bit_RESET)
 460              		.loc 1 425 0
 461 019c 0AB1     		cbz	r2, .L25
 426:/home/user/Desktop/STM32-Projekte/FH-Vertibot/src/STM32F30x_StdPeriph_Driver/src/stm32f30x_gpio.c ****   {
 427:/home/user/Desktop/STM32-Projekte/FH-Vertibot/src/STM32F30x_StdPeriph_Driver/src/stm32f30x_gpio.c ****     GPIOx->BSRR = GPIO_Pin;
 462              		.loc 1 427 0
 463 019e 8161     		str	r1, [r0, #24]
 464 01a0 7047     		bx	lr
 465              	.L25:
 428:/home/user/Desktop/STM32-Projekte/FH-Vertibot/src/STM32F30x_StdPeriph_Driver/src/stm32f30x_gpio.c ****   }
 429:/home/user/Desktop/STM32-Projekte/FH-Vertibot/src/STM32F30x_StdPeriph_Driver/src/stm32f30x_gpio.c ****   else
 430:/home/user/Desktop/STM32-Projekte/FH-Vertibot/src/STM32F30x_StdPeriph_Driver/src/stm32f30x_gpio.c ****   {
 431:/home/user/Desktop/STM32-Projekte/FH-Vertibot/src/STM32F30x_StdPeriph_Driver/src/stm32f30x_gpio.c ****     GPIOx->BRR = GPIO_Pin ;
 466              		.loc 1 431 0
 467 01a2 0185     		strh	r1, [r0, #40]	@ movhi
 468 01a4 7047     		bx	lr
 469              		.cfi_endproc
 470              	.LFE121:
 472              		.align	1
 473              		.global	GPIO_Write
 474              		.thumb
 475              		.thumb_func
 477              	GPIO_Write:
 478              	.LFB122:
 432:/home/user/Desktop/STM32-Projekte/FH-Vertibot/src/STM32F30x_StdPeriph_Driver/src/stm32f30x_gpio.c ****   }
 433:/home/user/Desktop/STM32-Projekte/FH-Vertibot/src/STM32F30x_StdPeriph_Driver/src/stm32f30x_gpio.c **** }
 434:/home/user/Desktop/STM32-Projekte/FH-Vertibot/src/STM32F30x_StdPeriph_Driver/src/stm32f30x_gpio.c **** 
 435:/home/user/Desktop/STM32-Projekte/FH-Vertibot/src/STM32F30x_StdPeriph_Driver/src/stm32f30x_gpio.c **** /**
 436:/home/user/Desktop/STM32-Projekte/FH-Vertibot/src/STM32F30x_StdPeriph_Driver/src/stm32f30x_gpio.c ****   * @brief  Writes data to the specified GPIO data port.
 437:/home/user/Desktop/STM32-Projekte/FH-Vertibot/src/STM32F30x_StdPeriph_Driver/src/stm32f30x_gpio.c ****   * @param  GPIOx: where x can be (A, B, C, D, E or F) to select the GPIO peripheral.
 438:/home/user/Desktop/STM32-Projekte/FH-Vertibot/src/STM32F30x_StdPeriph_Driver/src/stm32f30x_gpio.c ****   * @param  PortVal: specifies the value to be written to the port output data 
 439:/home/user/Desktop/STM32-Projekte/FH-Vertibot/src/STM32F30x_StdPeriph_Driver/src/stm32f30x_gpio.c ****   *                  register.
 440:/home/user/Desktop/STM32-Projekte/FH-Vertibot/src/STM32F30x_StdPeriph_Driver/src/stm32f30x_gpio.c ****   * @retval None
 441:/home/user/Desktop/STM32-Projekte/FH-Vertibot/src/STM32F30x_StdPeriph_Driver/src/stm32f30x_gpio.c ****   */
 442:/home/user/Desktop/STM32-Projekte/FH-Vertibot/src/STM32F30x_StdPeriph_Driver/src/stm32f30x_gpio.c **** void GPIO_Write(GPIO_TypeDef* GPIOx, uint16_t PortVal)
 443:/home/user/Desktop/STM32-Projekte/FH-Vertibot/src/STM32F30x_StdPeriph_Driver/src/stm32f30x_gpio.c **** {
 479              		.loc 1 443 0
 480              		.cfi_startproc
 481              		@ args = 0, pretend = 0, frame = 0
 482              		@ frame_needed = 0, uses_anonymous_args = 0
 483              		@ link register save eliminated.
 484              	.LVL43:
 444:/home/user/Desktop/STM32-Projekte/FH-Vertibot/src/STM32F30x_StdPeriph_Driver/src/stm32f30x_gpio.c ****   /* Check the parameters */
 445:/home/user/Desktop/STM32-Projekte/FH-Vertibot/src/STM32F30x_StdPeriph_Driver/src/stm32f30x_gpio.c ****   assert_param(IS_GPIO_ALL_PERIPH(GPIOx));
 446:/home/user/Desktop/STM32-Projekte/FH-Vertibot/src/STM32F30x_StdPeriph_Driver/src/stm32f30x_gpio.c ****   
 447:/home/user/Desktop/STM32-Projekte/FH-Vertibot/src/STM32F30x_StdPeriph_Driver/src/stm32f30x_gpio.c ****   GPIOx->ODR = PortVal;
 485              		.loc 1 447 0
 486 01a6 8182     		strh	r1, [r0, #20]	@ movhi
 487 01a8 7047     		bx	lr
 488              		.cfi_endproc
 489              	.LFE122:
 491              		.align	1
 492              		.global	GPIO_PinAFConfig
 493              		.thumb
 494              		.thumb_func
 496              	GPIO_PinAFConfig:
 497              	.LFB123:
 448:/home/user/Desktop/STM32-Projekte/FH-Vertibot/src/STM32F30x_StdPeriph_Driver/src/stm32f30x_gpio.c **** }
 449:/home/user/Desktop/STM32-Projekte/FH-Vertibot/src/STM32F30x_StdPeriph_Driver/src/stm32f30x_gpio.c **** 
 450:/home/user/Desktop/STM32-Projekte/FH-Vertibot/src/STM32F30x_StdPeriph_Driver/src/stm32f30x_gpio.c **** /**
 451:/home/user/Desktop/STM32-Projekte/FH-Vertibot/src/STM32F30x_StdPeriph_Driver/src/stm32f30x_gpio.c ****   * @}
 452:/home/user/Desktop/STM32-Projekte/FH-Vertibot/src/STM32F30x_StdPeriph_Driver/src/stm32f30x_gpio.c ****   */
 453:/home/user/Desktop/STM32-Projekte/FH-Vertibot/src/STM32F30x_StdPeriph_Driver/src/stm32f30x_gpio.c **** 
 454:/home/user/Desktop/STM32-Projekte/FH-Vertibot/src/STM32F30x_StdPeriph_Driver/src/stm32f30x_gpio.c **** /** @defgroup GPIO_Group3 GPIO Alternate functions configuration functions
 455:/home/user/Desktop/STM32-Projekte/FH-Vertibot/src/STM32F30x_StdPeriph_Driver/src/stm32f30x_gpio.c ****  *  @brief   GPIO Alternate functions configuration functions
 456:/home/user/Desktop/STM32-Projekte/FH-Vertibot/src/STM32F30x_StdPeriph_Driver/src/stm32f30x_gpio.c ****  *
 457:/home/user/Desktop/STM32-Projekte/FH-Vertibot/src/STM32F30x_StdPeriph_Driver/src/stm32f30x_gpio.c **** @verbatim
 458:/home/user/Desktop/STM32-Projekte/FH-Vertibot/src/STM32F30x_StdPeriph_Driver/src/stm32f30x_gpio.c ****  ===============================================================================
 459:/home/user/Desktop/STM32-Projekte/FH-Vertibot/src/STM32F30x_StdPeriph_Driver/src/stm32f30x_gpio.c ****           ##### GPIO Alternate functions configuration functions #####
 460:/home/user/Desktop/STM32-Projekte/FH-Vertibot/src/STM32F30x_StdPeriph_Driver/src/stm32f30x_gpio.c ****  ===============================================================================
 461:/home/user/Desktop/STM32-Projekte/FH-Vertibot/src/STM32F30x_StdPeriph_Driver/src/stm32f30x_gpio.c **** 
 462:/home/user/Desktop/STM32-Projekte/FH-Vertibot/src/STM32F30x_StdPeriph_Driver/src/stm32f30x_gpio.c **** @endverbatim
 463:/home/user/Desktop/STM32-Projekte/FH-Vertibot/src/STM32F30x_StdPeriph_Driver/src/stm32f30x_gpio.c ****   * @{
 464:/home/user/Desktop/STM32-Projekte/FH-Vertibot/src/STM32F30x_StdPeriph_Driver/src/stm32f30x_gpio.c ****   */
 465:/home/user/Desktop/STM32-Projekte/FH-Vertibot/src/STM32F30x_StdPeriph_Driver/src/stm32f30x_gpio.c **** 
 466:/home/user/Desktop/STM32-Projekte/FH-Vertibot/src/STM32F30x_StdPeriph_Driver/src/stm32f30x_gpio.c **** /**
 467:/home/user/Desktop/STM32-Projekte/FH-Vertibot/src/STM32F30x_StdPeriph_Driver/src/stm32f30x_gpio.c ****   * @brief  Writes data to the specified GPIO data port.
 468:/home/user/Desktop/STM32-Projekte/FH-Vertibot/src/STM32F30x_StdPeriph_Driver/src/stm32f30x_gpio.c ****   * @param  GPIOx: where x can be (A, B, C, D, E or F) to select the GPIO peripheral.
 469:/home/user/Desktop/STM32-Projekte/FH-Vertibot/src/STM32F30x_StdPeriph_Driver/src/stm32f30x_gpio.c ****   * @param  GPIO_PinSource: specifies the pin for the Alternate function.
 470:/home/user/Desktop/STM32-Projekte/FH-Vertibot/src/STM32F30x_StdPeriph_Driver/src/stm32f30x_gpio.c ****   *   This parameter can be GPIO_PinSourcex where x can be (0..15).
 471:/home/user/Desktop/STM32-Projekte/FH-Vertibot/src/STM32F30x_StdPeriph_Driver/src/stm32f30x_gpio.c ****   * @param  GPIO_AF: selects the pin to be used as Alternate function.  
 472:/home/user/Desktop/STM32-Projekte/FH-Vertibot/src/STM32F30x_StdPeriph_Driver/src/stm32f30x_gpio.c ****   *   This parameter can be one of the following value:
 473:/home/user/Desktop/STM32-Projekte/FH-Vertibot/src/STM32F30x_StdPeriph_Driver/src/stm32f30x_gpio.c ****   *     @arg GPIO_AF_0:  JTCK-SWCLK, JTDI, JTDO/TRACESW0, JTMS-SWDAT, MCO, NJTRST, 
 474:/home/user/Desktop/STM32-Projekte/FH-Vertibot/src/STM32F30x_StdPeriph_Driver/src/stm32f30x_gpio.c ****   *                      TRACED, TRACECK.
 475:/home/user/Desktop/STM32-Projekte/FH-Vertibot/src/STM32F30x_StdPeriph_Driver/src/stm32f30x_gpio.c ****   *     @arg GPIO_AF_1:  OUT, TIM2, TIM15, TIM16, TIM17.
 476:/home/user/Desktop/STM32-Projekte/FH-Vertibot/src/STM32F30x_StdPeriph_Driver/src/stm32f30x_gpio.c ****   *     @arg GPIO_AF_2:  COMP1_OUT, TIM1, TIM2, TIM3, TIM4, TIM8, TIM15.
 477:/home/user/Desktop/STM32-Projekte/FH-Vertibot/src/STM32F30x_StdPeriph_Driver/src/stm32f30x_gpio.c ****   *     @arg GPIO_AF_3:  COMP7_OUT, TIM8, TIM15, Touch.
 478:/home/user/Desktop/STM32-Projekte/FH-Vertibot/src/STM32F30x_StdPeriph_Driver/src/stm32f30x_gpio.c ****   *     @arg GPIO_AF_4:  I2C1, I2C2, TIM1, TIM8, TIM16, TIM17.
 479:/home/user/Desktop/STM32-Projekte/FH-Vertibot/src/STM32F30x_StdPeriph_Driver/src/stm32f30x_gpio.c ****   *     @arg GPIO_AF_5:  IR_OUT, I2S2, I2S3, SPI1, SPI2, TIM8, USART4, USART5
 480:/home/user/Desktop/STM32-Projekte/FH-Vertibot/src/STM32F30x_StdPeriph_Driver/src/stm32f30x_gpio.c ****   *     @arg GPIO_AF_6:  IR_OUT, I2S2, I2S3, SPI2, SPI3, TIM1, TIM8
 481:/home/user/Desktop/STM32-Projekte/FH-Vertibot/src/STM32F30x_StdPeriph_Driver/src/stm32f30x_gpio.c ****   *     @arg GPIO_AF_7:  AOP2_OUT, CAN, COMP3_OUT, COMP5_OUT, COMP6_OUT, USART1, 
 482:/home/user/Desktop/STM32-Projekte/FH-Vertibot/src/STM32F30x_StdPeriph_Driver/src/stm32f30x_gpio.c ****   *                      USART2, USART3.
 483:/home/user/Desktop/STM32-Projekte/FH-Vertibot/src/STM32F30x_StdPeriph_Driver/src/stm32f30x_gpio.c ****   *     @arg GPIO_AF_8:  COMP1_OUT, COMP2_OUT, COMP3_OUT, COMP4_OUT, COMP5_OUT, 
 484:/home/user/Desktop/STM32-Projekte/FH-Vertibot/src/STM32F30x_StdPeriph_Driver/src/stm32f30x_gpio.c ****   *                      COMP6_OUT.
 485:/home/user/Desktop/STM32-Projekte/FH-Vertibot/src/STM32F30x_StdPeriph_Driver/src/stm32f30x_gpio.c ****   *     @arg GPIO_AF_9:  AOP4_OUT, CAN, TIM1, TIM8, TIM15.
 486:/home/user/Desktop/STM32-Projekte/FH-Vertibot/src/STM32F30x_StdPeriph_Driver/src/stm32f30x_gpio.c ****   *     @arg GPIO_AF_10: AOP1_OUT, AOP3_OUT, TIM2, TIM3, TIM4, TIM8, TIM17. 
 487:/home/user/Desktop/STM32-Projekte/FH-Vertibot/src/STM32F30x_StdPeriph_Driver/src/stm32f30x_gpio.c ****   *     @arg GPIO_AF_11: TIM1, TIM8.
 488:/home/user/Desktop/STM32-Projekte/FH-Vertibot/src/STM32F30x_StdPeriph_Driver/src/stm32f30x_gpio.c ****   *     @arg GPIO_AF_12: TIM1.
 489:/home/user/Desktop/STM32-Projekte/FH-Vertibot/src/STM32F30x_StdPeriph_Driver/src/stm32f30x_gpio.c ****   *     @arg GPIO_AF_14: USBDM, USBDP.
 490:/home/user/Desktop/STM32-Projekte/FH-Vertibot/src/STM32F30x_StdPeriph_Driver/src/stm32f30x_gpio.c ****   *     @arg GPIO_AF_15: OUT.             
 491:/home/user/Desktop/STM32-Projekte/FH-Vertibot/src/STM32F30x_StdPeriph_Driver/src/stm32f30x_gpio.c ****   * @note  The pin should already been configured in Alternate Function mode(AF)
 492:/home/user/Desktop/STM32-Projekte/FH-Vertibot/src/STM32F30x_StdPeriph_Driver/src/stm32f30x_gpio.c ****   *        using GPIO_InitStruct->GPIO_Mode = GPIO_Mode_AF
 493:/home/user/Desktop/STM32-Projekte/FH-Vertibot/src/STM32F30x_StdPeriph_Driver/src/stm32f30x_gpio.c ****   * @note  Refer to the Alternate function mapping table in the device datasheet 
 494:/home/user/Desktop/STM32-Projekte/FH-Vertibot/src/STM32F30x_StdPeriph_Driver/src/stm32f30x_gpio.c ****   *        for the detailed mapping of the system and peripherals alternate 
 495:/home/user/Desktop/STM32-Projekte/FH-Vertibot/src/STM32F30x_StdPeriph_Driver/src/stm32f30x_gpio.c ****   *        function I/O pins.
 496:/home/user/Desktop/STM32-Projekte/FH-Vertibot/src/STM32F30x_StdPeriph_Driver/src/stm32f30x_gpio.c ****   * @retval None
 497:/home/user/Desktop/STM32-Projekte/FH-Vertibot/src/STM32F30x_StdPeriph_Driver/src/stm32f30x_gpio.c ****   */
 498:/home/user/Desktop/STM32-Projekte/FH-Vertibot/src/STM32F30x_StdPeriph_Driver/src/stm32f30x_gpio.c **** void GPIO_PinAFConfig(GPIO_TypeDef* GPIOx, uint16_t GPIO_PinSource, uint8_t GPIO_AF)
 499:/home/user/Desktop/STM32-Projekte/FH-Vertibot/src/STM32F30x_StdPeriph_Driver/src/stm32f30x_gpio.c **** {
 498              		.loc 1 499 0
 499              		.cfi_startproc
 500              		@ args = 0, pretend = 0, frame = 0
 501              		@ frame_needed = 0, uses_anonymous_args = 0
 502              	.LVL44:
 500:/home/user/Desktop/STM32-Projekte/FH-Vertibot/src/STM32F30x_StdPeriph_Driver/src/stm32f30x_gpio.c ****   uint32_t temp = 0x00;
 501:/home/user/Desktop/STM32-Projekte/FH-Vertibot/src/STM32F30x_StdPeriph_Driver/src/stm32f30x_gpio.c ****   uint32_t temp_2 = 0x00;
 502:/home/user/Desktop/STM32-Projekte/FH-Vertibot/src/STM32F30x_StdPeriph_Driver/src/stm32f30x_gpio.c ****   
 503:/home/user/Desktop/STM32-Projekte/FH-Vertibot/src/STM32F30x_StdPeriph_Driver/src/stm32f30x_gpio.c ****   /* Check the parameters */
 504:/home/user/Desktop/STM32-Projekte/FH-Vertibot/src/STM32F30x_StdPeriph_Driver/src/stm32f30x_gpio.c ****   assert_param(IS_GPIO_ALL_PERIPH(GPIOx));
 505:/home/user/Desktop/STM32-Projekte/FH-Vertibot/src/STM32F30x_StdPeriph_Driver/src/stm32f30x_gpio.c ****   assert_param(IS_GPIO_PIN_SOURCE(GPIO_PinSource));
 506:/home/user/Desktop/STM32-Projekte/FH-Vertibot/src/STM32F30x_StdPeriph_Driver/src/stm32f30x_gpio.c ****   assert_param(IS_GPIO_AF(GPIO_AF));
 507:/home/user/Desktop/STM32-Projekte/FH-Vertibot/src/STM32F30x_StdPeriph_Driver/src/stm32f30x_gpio.c ****   
 508:/home/user/Desktop/STM32-Projekte/FH-Vertibot/src/STM32F30x_StdPeriph_Driver/src/stm32f30x_gpio.c ****   temp = ((uint32_t)(GPIO_AF) << ((uint32_t)((uint32_t)GPIO_PinSource & (uint32_t)0x07) * 4));
 503              		.loc 1 508 0
 504 01aa 01F00703 		and	r3, r1, #7
 509:/home/user/Desktop/STM32-Projekte/FH-Vertibot/src/STM32F30x_StdPeriph_Driver/src/stm32f30x_gpio.c ****   GPIOx->AFR[GPIO_PinSource >> 0x03] &= ~((uint32_t)0xF << ((uint32_t)((uint32_t)GPIO_PinSource & (
 505              		.loc 1 509 0
 506 01ae C908     		lsrs	r1, r1, #3
 507              	.LVL45:
 508 01b0 0831     		adds	r1, r1, #8
 499:/home/user/Desktop/STM32-Projekte/FH-Vertibot/src/STM32F30x_StdPeriph_Driver/src/stm32f30x_gpio.c **** {
 509              		.loc 1 499 0
 510 01b2 30B5     		push	{r4, r5, lr}
 511              	.LCFI2:
 512              		.cfi_def_cfa_offset 12
 513              		.cfi_offset 4, -12
 514              		.cfi_offset 5, -8
 515              		.cfi_offset 14, -4
 508:/home/user/Desktop/STM32-Projekte/FH-Vertibot/src/STM32F30x_StdPeriph_Driver/src/stm32f30x_gpio.c ****   temp = ((uint32_t)(GPIO_AF) << ((uint32_t)((uint32_t)GPIO_PinSource & (uint32_t)0x07) * 4));
 516              		.loc 1 508 0
 517 01b4 9B00     		lsls	r3, r3, #2
 518              	.LVL46:
 519              		.loc 1 509 0
 520 01b6 50F82150 		ldr	r5, [r0, r1, lsl #2]
 521 01ba 0F24     		movs	r4, #15
 522 01bc 04FA03F4 		lsl	r4, r4, r3
 523 01c0 25EA0404 		bic	r4, r5, r4
 524 01c4 40F82140 		str	r4, [r0, r1, lsl #2]
 510:/home/user/Desktop/STM32-Projekte/FH-Vertibot/src/STM32F30x_StdPeriph_Driver/src/stm32f30x_gpio.c ****   temp_2 = GPIOx->AFR[GPIO_PinSource >> 0x03] | temp;
 525              		.loc 1 510 0
 526 01c8 50F82140 		ldr	r4, [r0, r1, lsl #2]
 508:/home/user/Desktop/STM32-Projekte/FH-Vertibot/src/STM32F30x_StdPeriph_Driver/src/stm32f30x_gpio.c ****   temp = ((uint32_t)(GPIO_AF) << ((uint32_t)((uint32_t)GPIO_PinSource & (uint32_t)0x07) * 4));
 527              		.loc 1 508 0
 528 01cc 02FA03F2 		lsl	r2, r2, r3
 529              	.LVL47:
 530              		.loc 1 510 0
 531 01d0 1443     		orrs	r4, r4, r2
 532              	.LVL48:
 511:/home/user/Desktop/STM32-Projekte/FH-Vertibot/src/STM32F30x_StdPeriph_Driver/src/stm32f30x_gpio.c ****   GPIOx->AFR[GPIO_PinSource >> 0x03] = temp_2;
 533              		.loc 1 511 0
 534 01d2 40F82140 		str	r4, [r0, r1, lsl #2]
 535 01d6 30BD     		pop	{r4, r5, pc}
 536              		.cfi_endproc
 537              	.LFE123:
 539              	.Letext0:
 540              		.file 2 "/opt/CodeSourcery/Sourcery_CodeBench_Lite_for_ARM_EABI/bin/../lib/gcc/arm-none-eabi/4.7.2
 541              		.file 3 "/home/user/Desktop/STM32-Projekte/FH-Vertibot/src/CMSIS/Device/ST/STM32F30x/Include/stm32
 542              		.file 4 "/home/user/Desktop/STM32-Projekte/FH-Vertibot/src/STM32F30x_StdPeriph_Driver/inc/stm32f30
 543              		.file 5 "/home/user/Desktop/STM32-Projekte/FH-Vertibot/src/CMSIS/Include/core_cm4.h"
 544              		.file 6 "/home/user/Desktop/STM32-Projekte/FH-Vertibot/src/STM32F30x_StdPeriph_Driver/inc/stm32f30