   1              		.syntax unified
   2              		.cpu cortex-m4
   3              		.eabi_attribute 27, 3
   4              		.eabi_attribute 28, 1
   5              		.fpu fpv4-sp-d16
   6              		.eabi_attribute 20, 1
   7              		.eabi_attribute 21, 1
   8              		.eabi_attribute 23, 3
   9              		.eabi_attribute 24, 1
  10              		.eabi_attribute 25, 1
  11              		.eabi_attribute 26, 1
  12              		.eabi_attribute 30, 4
  13              		.eabi_attribute 34, 1
  14              		.eabi_attribute 18, 4
  15              		.thumb
  16              		.file	"stm32f30x_dac.c"
  17              		.text
  18              	.Ltext0:
  19              		.cfi_sections	.debug_frame
  20              		.align	1
  21              		.global	DAC_DeInit
  22              		.thumb
  23              		.thumb_func
  25              	DAC_DeInit:
  26              	.LFB111:
  27              		.file 1 "/home/user/Desktop/STM32-Projekte/FH-Vertibot/src/STM32F30x_StdPeriph_Driver/src/stm32f30
   1:/home/user/Desktop/STM32-Projekte/FH-Vertibot/src/STM32F30x_StdPeriph_Driver/src/stm32f30x_dac.c **** /**
   2:/home/user/Desktop/STM32-Projekte/FH-Vertibot/src/STM32F30x_StdPeriph_Driver/src/stm32f30x_dac.c ****   ******************************************************************************
   3:/home/user/Desktop/STM32-Projekte/FH-Vertibot/src/STM32F30x_StdPeriph_Driver/src/stm32f30x_dac.c ****   * @file    stm32f30x_dac.c
   4:/home/user/Desktop/STM32-Projekte/FH-Vertibot/src/STM32F30x_StdPeriph_Driver/src/stm32f30x_dac.c ****   * @author  MCD Application Team
   5:/home/user/Desktop/STM32-Projekte/FH-Vertibot/src/STM32F30x_StdPeriph_Driver/src/stm32f30x_dac.c ****   * @version V1.0.1
   6:/home/user/Desktop/STM32-Projekte/FH-Vertibot/src/STM32F30x_StdPeriph_Driver/src/stm32f30x_dac.c ****   * @date    23-October-2012
   7:/home/user/Desktop/STM32-Projekte/FH-Vertibot/src/STM32F30x_StdPeriph_Driver/src/stm32f30x_dac.c ****   * @brief   This file provides firmware functions to manage the following 
   8:/home/user/Desktop/STM32-Projekte/FH-Vertibot/src/STM32F30x_StdPeriph_Driver/src/stm32f30x_dac.c ****   *          functionalities of the Digital-to-Analog Converter (DAC) peripheral: 
   9:/home/user/Desktop/STM32-Projekte/FH-Vertibot/src/STM32F30x_StdPeriph_Driver/src/stm32f30x_dac.c ****   *           + DAC channels configuration: trigger, output buffer, data format
  10:/home/user/Desktop/STM32-Projekte/FH-Vertibot/src/STM32F30x_StdPeriph_Driver/src/stm32f30x_dac.c ****   *           + DMA management      
  11:/home/user/Desktop/STM32-Projekte/FH-Vertibot/src/STM32F30x_StdPeriph_Driver/src/stm32f30x_dac.c ****   *           + Interrupts and flags management
  12:/home/user/Desktop/STM32-Projekte/FH-Vertibot/src/STM32F30x_StdPeriph_Driver/src/stm32f30x_dac.c ****   *
  13:/home/user/Desktop/STM32-Projekte/FH-Vertibot/src/STM32F30x_StdPeriph_Driver/src/stm32f30x_dac.c ****   @verbatim
  14:/home/user/Desktop/STM32-Projekte/FH-Vertibot/src/STM32F30x_StdPeriph_Driver/src/stm32f30x_dac.c ****     
  15:/home/user/Desktop/STM32-Projekte/FH-Vertibot/src/STM32F30x_StdPeriph_Driver/src/stm32f30x_dac.c ****  ===============================================================================
  16:/home/user/Desktop/STM32-Projekte/FH-Vertibot/src/STM32F30x_StdPeriph_Driver/src/stm32f30x_dac.c ****                       ##### DAC Peripheral features #####
  17:/home/user/Desktop/STM32-Projekte/FH-Vertibot/src/STM32F30x_StdPeriph_Driver/src/stm32f30x_dac.c ****  ===============================================================================
  18:/home/user/Desktop/STM32-Projekte/FH-Vertibot/src/STM32F30x_StdPeriph_Driver/src/stm32f30x_dac.c ****     [..] The device integrates two 12-bit Digital Analog Converters that can 
  19:/home/user/Desktop/STM32-Projekte/FH-Vertibot/src/STM32F30x_StdPeriph_Driver/src/stm32f30x_dac.c ****          be used independently or simultaneously (dual mode):
  20:/home/user/Desktop/STM32-Projekte/FH-Vertibot/src/STM32F30x_StdPeriph_Driver/src/stm32f30x_dac.c ****          (#) DAC channel1 with DAC_OUT1 as output
  21:/home/user/Desktop/STM32-Projekte/FH-Vertibot/src/STM32F30x_StdPeriph_Driver/src/stm32f30x_dac.c ****          (#) DAC channel2 with DAC_OUT2 as output
  22:/home/user/Desktop/STM32-Projekte/FH-Vertibot/src/STM32F30x_StdPeriph_Driver/src/stm32f30x_dac.c ****     [..] Digital to Analog conversion can be non-triggered using DAC_Trigger_None
  23:/home/user/Desktop/STM32-Projekte/FH-Vertibot/src/STM32F30x_StdPeriph_Driver/src/stm32f30x_dac.c ****          and DAC_OUT1/DAC_OUT2 is available once writing to DHRx register using 
  24:/home/user/Desktop/STM32-Projekte/FH-Vertibot/src/STM32F30x_StdPeriph_Driver/src/stm32f30x_dac.c ****          DAC_SetChannel1Data()/DAC_SetChannel2Data.
  25:/home/user/Desktop/STM32-Projekte/FH-Vertibot/src/STM32F30x_StdPeriph_Driver/src/stm32f30x_dac.c ****     [..] Digital to Analog conversion can be triggered by:
  26:/home/user/Desktop/STM32-Projekte/FH-Vertibot/src/STM32F30x_StdPeriph_Driver/src/stm32f30x_dac.c ****          (#) External event: EXTI Line 9 (any GPIOx_Pin9) using DAC_Trigger_Ext_IT9.
  27:/home/user/Desktop/STM32-Projekte/FH-Vertibot/src/STM32F30x_StdPeriph_Driver/src/stm32f30x_dac.c ****              The used pin (GPIOx_Pin9) must be configured in input mode.
  28:/home/user/Desktop/STM32-Projekte/FH-Vertibot/src/STM32F30x_StdPeriph_Driver/src/stm32f30x_dac.c ****          (#) Timers TRGO: TIM2, TIM8/TIM3, TIM4, TIM6, TIM7, and TIM15 
  29:/home/user/Desktop/STM32-Projekte/FH-Vertibot/src/STM32F30x_StdPeriph_Driver/src/stm32f30x_dac.c ****              (DAC_Trigger_T2_TRGO, DAC_Trigger_T4_TRGO...)
  30:/home/user/Desktop/STM32-Projekte/FH-Vertibot/src/STM32F30x_StdPeriph_Driver/src/stm32f30x_dac.c ****              The timer TRGO event should be selected using TIM_SelectOutputTrigger()
  31:/home/user/Desktop/STM32-Projekte/FH-Vertibot/src/STM32F30x_StdPeriph_Driver/src/stm32f30x_dac.c ****              (++) To trigger DAC conversions by TIM3 instead of TIM8 follow
  32:/home/user/Desktop/STM32-Projekte/FH-Vertibot/src/STM32F30x_StdPeriph_Driver/src/stm32f30x_dac.c ****                  this sequence:
  33:/home/user/Desktop/STM32-Projekte/FH-Vertibot/src/STM32F30x_StdPeriph_Driver/src/stm32f30x_dac.c ****                  (+++) Enable SYSCFG APB clock by calling
  34:/home/user/Desktop/STM32-Projekte/FH-Vertibot/src/STM32F30x_StdPeriph_Driver/src/stm32f30x_dac.c ****                        RCC_APB2PeriphClockCmd(RCC_APB2Periph_SYSCFG, ENABLE);
  35:/home/user/Desktop/STM32-Projekte/FH-Vertibot/src/STM32F30x_StdPeriph_Driver/src/stm32f30x_dac.c ****                  (+++) Select DAC_Trigger_T3_TRGO when calling DAC_Init()
  36:/home/user/Desktop/STM32-Projekte/FH-Vertibot/src/STM32F30x_StdPeriph_Driver/src/stm32f30x_dac.c ****                  (+++) Remap the DAC trigger from TIM8 to TIM3 by calling
  37:/home/user/Desktop/STM32-Projekte/FH-Vertibot/src/STM32F30x_StdPeriph_Driver/src/stm32f30x_dac.c ****                        SYSCFG_TriggerRemapConfig(SYSCFG_TriggerRemap_DACTIM3, ENABLE)
  38:/home/user/Desktop/STM32-Projekte/FH-Vertibot/src/STM32F30x_StdPeriph_Driver/src/stm32f30x_dac.c ****          (#) Software using DAC_Trigger_Software
  39:/home/user/Desktop/STM32-Projekte/FH-Vertibot/src/STM32F30x_StdPeriph_Driver/src/stm32f30x_dac.c ****     [..] Each DAC channel integrates an output buffer that can be used to 
  40:/home/user/Desktop/STM32-Projekte/FH-Vertibot/src/STM32F30x_StdPeriph_Driver/src/stm32f30x_dac.c ****          reduce the output impedance, and to drive external loads directly
  41:/home/user/Desktop/STM32-Projekte/FH-Vertibot/src/STM32F30x_StdPeriph_Driver/src/stm32f30x_dac.c ****          without having to add an external operational amplifier.
  42:/home/user/Desktop/STM32-Projekte/FH-Vertibot/src/STM32F30x_StdPeriph_Driver/src/stm32f30x_dac.c ****          To enable, the output buffer use  
  43:/home/user/Desktop/STM32-Projekte/FH-Vertibot/src/STM32F30x_StdPeriph_Driver/src/stm32f30x_dac.c ****          DAC_InitStructure.DAC_OutputBuffer = DAC_OutputBuffer_Enable;
  44:/home/user/Desktop/STM32-Projekte/FH-Vertibot/src/STM32F30x_StdPeriph_Driver/src/stm32f30x_dac.c ****     [..] Refer to the device datasheet for more details about output impedance
  45:/home/user/Desktop/STM32-Projekte/FH-Vertibot/src/STM32F30x_StdPeriph_Driver/src/stm32f30x_dac.c ****          value with and without output buffer.
  46:/home/user/Desktop/STM32-Projekte/FH-Vertibot/src/STM32F30x_StdPeriph_Driver/src/stm32f30x_dac.c ****     [..] Both DAC channels can be used to generate:
  47:/home/user/Desktop/STM32-Projekte/FH-Vertibot/src/STM32F30x_StdPeriph_Driver/src/stm32f30x_dac.c ****          (+) Noise wave using DAC_WaveGeneration_Noise
  48:/home/user/Desktop/STM32-Projekte/FH-Vertibot/src/STM32F30x_StdPeriph_Driver/src/stm32f30x_dac.c ****          (+) Triangle wave using DAC_WaveGeneration_Triangle
  49:/home/user/Desktop/STM32-Projekte/FH-Vertibot/src/STM32F30x_StdPeriph_Driver/src/stm32f30x_dac.c ****     [..] Wave generation can be disabled using DAC_WaveGeneration_None
  50:/home/user/Desktop/STM32-Projekte/FH-Vertibot/src/STM32F30x_StdPeriph_Driver/src/stm32f30x_dac.c ****     [..] The DAC data format can be:
  51:/home/user/Desktop/STM32-Projekte/FH-Vertibot/src/STM32F30x_StdPeriph_Driver/src/stm32f30x_dac.c ****          (+) 8-bit right alignment using DAC_Align_8b_R
  52:/home/user/Desktop/STM32-Projekte/FH-Vertibot/src/STM32F30x_StdPeriph_Driver/src/stm32f30x_dac.c ****          (+) 12-bit left alignment using DAC_Align_12b_L
  53:/home/user/Desktop/STM32-Projekte/FH-Vertibot/src/STM32F30x_StdPeriph_Driver/src/stm32f30x_dac.c ****          (+) 12-bit right alignment using DAC_Align_12b_R
  54:/home/user/Desktop/STM32-Projekte/FH-Vertibot/src/STM32F30x_StdPeriph_Driver/src/stm32f30x_dac.c ****     [..] The analog output voltage on each DAC channel pin is determined
  55:/home/user/Desktop/STM32-Projekte/FH-Vertibot/src/STM32F30x_StdPeriph_Driver/src/stm32f30x_dac.c ****          by the following equation: 
  56:/home/user/Desktop/STM32-Projekte/FH-Vertibot/src/STM32F30x_StdPeriph_Driver/src/stm32f30x_dac.c ****          (+) DAC_OUTx = VREF+ * DOR / 4095 with DOR is the Data Output Register. 
  57:/home/user/Desktop/STM32-Projekte/FH-Vertibot/src/STM32F30x_StdPeriph_Driver/src/stm32f30x_dac.c ****          VREF+ is the input voltage reference (refer to the device datasheet)
  58:/home/user/Desktop/STM32-Projekte/FH-Vertibot/src/STM32F30x_StdPeriph_Driver/src/stm32f30x_dac.c ****          e.g. To set DAC_OUT1 to 0.7V, use DAC_SetChannel1Data(DAC_Align_12b_R, 868);
  59:/home/user/Desktop/STM32-Projekte/FH-Vertibot/src/STM32F30x_StdPeriph_Driver/src/stm32f30x_dac.c ****          Assuming that VREF+ = 3.3, DAC_OUT1 = (3.3 * 868) / 4095 = 0.7V
  60:/home/user/Desktop/STM32-Projekte/FH-Vertibot/src/STM32F30x_StdPeriph_Driver/src/stm32f30x_dac.c ****     [..] A DMA request can be generated when an external trigger (but not
  61:/home/user/Desktop/STM32-Projekte/FH-Vertibot/src/STM32F30x_StdPeriph_Driver/src/stm32f30x_dac.c ****          a software trigger) occurs if DMA2 requests are enabled using
  62:/home/user/Desktop/STM32-Projekte/FH-Vertibot/src/STM32F30x_StdPeriph_Driver/src/stm32f30x_dac.c ****          DAC_DMACmd();
  63:/home/user/Desktop/STM32-Projekte/FH-Vertibot/src/STM32F30x_StdPeriph_Driver/src/stm32f30x_dac.c ****          DMA requests are mapped as following:
  64:/home/user/Desktop/STM32-Projekte/FH-Vertibot/src/STM32F30x_StdPeriph_Driver/src/stm32f30x_dac.c ****          (+) DAC channel1 is mapped on DMA2 channel3 which must be already 
  65:/home/user/Desktop/STM32-Projekte/FH-Vertibot/src/STM32F30x_StdPeriph_Driver/src/stm32f30x_dac.c ****              configured.
  66:/home/user/Desktop/STM32-Projekte/FH-Vertibot/src/STM32F30x_StdPeriph_Driver/src/stm32f30x_dac.c ****          (+) DAC channel2 is mapped on DMA2 channel4 which must be already 
  67:/home/user/Desktop/STM32-Projekte/FH-Vertibot/src/STM32F30x_StdPeriph_Driver/src/stm32f30x_dac.c ****              configured.
  68:/home/user/Desktop/STM32-Projekte/FH-Vertibot/src/STM32F30x_StdPeriph_Driver/src/stm32f30x_dac.c ****  
  69:/home/user/Desktop/STM32-Projekte/FH-Vertibot/src/STM32F30x_StdPeriph_Driver/src/stm32f30x_dac.c ****                     ##### How to use this driver #####
  70:/home/user/Desktop/STM32-Projekte/FH-Vertibot/src/STM32F30x_StdPeriph_Driver/src/stm32f30x_dac.c ****  ===============================================================================          
  71:/home/user/Desktop/STM32-Projekte/FH-Vertibot/src/STM32F30x_StdPeriph_Driver/src/stm32f30x_dac.c ****     [..]
  72:/home/user/Desktop/STM32-Projekte/FH-Vertibot/src/STM32F30x_StdPeriph_Driver/src/stm32f30x_dac.c ****     (+) DAC APB clock must be enabled to get write access to DAC
  73:/home/user/Desktop/STM32-Projekte/FH-Vertibot/src/STM32F30x_StdPeriph_Driver/src/stm32f30x_dac.c ****         registers using RCC_APB1PeriphClockCmd(RCC_APB1Periph_DAC, ENABLE);
  74:/home/user/Desktop/STM32-Projekte/FH-Vertibot/src/STM32F30x_StdPeriph_Driver/src/stm32f30x_dac.c ****     (+) Configure DAC_OUTx (DAC_OUT1: PA4, DAC_OUT2: PA5) in analog mode.
  75:/home/user/Desktop/STM32-Projekte/FH-Vertibot/src/STM32F30x_StdPeriph_Driver/src/stm32f30x_dac.c ****     (+) Configure the DAC channel using DAC_Init();
  76:/home/user/Desktop/STM32-Projekte/FH-Vertibot/src/STM32F30x_StdPeriph_Driver/src/stm32f30x_dac.c ****     (+) Enable the DAC channel using DAC_Cmd();
  77:/home/user/Desktop/STM32-Projekte/FH-Vertibot/src/STM32F30x_StdPeriph_Driver/src/stm32f30x_dac.c ****  
  78:/home/user/Desktop/STM32-Projekte/FH-Vertibot/src/STM32F30x_StdPeriph_Driver/src/stm32f30x_dac.c ****   @endverbatim
  79:/home/user/Desktop/STM32-Projekte/FH-Vertibot/src/STM32F30x_StdPeriph_Driver/src/stm32f30x_dac.c ****     
  80:/home/user/Desktop/STM32-Projekte/FH-Vertibot/src/STM32F30x_StdPeriph_Driver/src/stm32f30x_dac.c ****   ******************************************************************************
  81:/home/user/Desktop/STM32-Projekte/FH-Vertibot/src/STM32F30x_StdPeriph_Driver/src/stm32f30x_dac.c ****   * @attention
  82:/home/user/Desktop/STM32-Projekte/FH-Vertibot/src/STM32F30x_StdPeriph_Driver/src/stm32f30x_dac.c ****   *
  83:/home/user/Desktop/STM32-Projekte/FH-Vertibot/src/STM32F30x_StdPeriph_Driver/src/stm32f30x_dac.c ****   * <h2><center>&copy; COPYRIGHT 2012 STMicroelectronics</center></h2>
  84:/home/user/Desktop/STM32-Projekte/FH-Vertibot/src/STM32F30x_StdPeriph_Driver/src/stm32f30x_dac.c ****   *
  85:/home/user/Desktop/STM32-Projekte/FH-Vertibot/src/STM32F30x_StdPeriph_Driver/src/stm32f30x_dac.c ****   * Licensed under MCD-ST Liberty SW License Agreement V2, (the "License");
  86:/home/user/Desktop/STM32-Projekte/FH-Vertibot/src/STM32F30x_StdPeriph_Driver/src/stm32f30x_dac.c ****   * You may not use this file except in compliance with the License.
  87:/home/user/Desktop/STM32-Projekte/FH-Vertibot/src/STM32F30x_StdPeriph_Driver/src/stm32f30x_dac.c ****   * You may obtain a copy of the License at:
  88:/home/user/Desktop/STM32-Projekte/FH-Vertibot/src/STM32F30x_StdPeriph_Driver/src/stm32f30x_dac.c ****   *
  89:/home/user/Desktop/STM32-Projekte/FH-Vertibot/src/STM32F30x_StdPeriph_Driver/src/stm32f30x_dac.c ****   *        http://www.st.com/software_license_agreement_liberty_v2
  90:/home/user/Desktop/STM32-Projekte/FH-Vertibot/src/STM32F30x_StdPeriph_Driver/src/stm32f30x_dac.c ****   *
  91:/home/user/Desktop/STM32-Projekte/FH-Vertibot/src/STM32F30x_StdPeriph_Driver/src/stm32f30x_dac.c ****   * Unless required by applicable law or agreed to in writing, software 
  92:/home/user/Desktop/STM32-Projekte/FH-Vertibot/src/STM32F30x_StdPeriph_Driver/src/stm32f30x_dac.c ****   * distributed under the License is distributed on an "AS IS" BASIS, 
  93:/home/user/Desktop/STM32-Projekte/FH-Vertibot/src/STM32F30x_StdPeriph_Driver/src/stm32f30x_dac.c ****   * WITHOUT WARRANTIES OR CONDITIONS OF ANY KIND, either express or implied.
  94:/home/user/Desktop/STM32-Projekte/FH-Vertibot/src/STM32F30x_StdPeriph_Driver/src/stm32f30x_dac.c ****   * See the License for the specific language governing permissions and
  95:/home/user/Desktop/STM32-Projekte/FH-Vertibot/src/STM32F30x_StdPeriph_Driver/src/stm32f30x_dac.c ****   * limitations under the License.
  96:/home/user/Desktop/STM32-Projekte/FH-Vertibot/src/STM32F30x_StdPeriph_Driver/src/stm32f30x_dac.c ****   *
  97:/home/user/Desktop/STM32-Projekte/FH-Vertibot/src/STM32F30x_StdPeriph_Driver/src/stm32f30x_dac.c ****   ******************************************************************************
  98:/home/user/Desktop/STM32-Projekte/FH-Vertibot/src/STM32F30x_StdPeriph_Driver/src/stm32f30x_dac.c ****   */
  99:/home/user/Desktop/STM32-Projekte/FH-Vertibot/src/STM32F30x_StdPeriph_Driver/src/stm32f30x_dac.c **** 
 100:/home/user/Desktop/STM32-Projekte/FH-Vertibot/src/STM32F30x_StdPeriph_Driver/src/stm32f30x_dac.c **** 
 101:/home/user/Desktop/STM32-Projekte/FH-Vertibot/src/STM32F30x_StdPeriph_Driver/src/stm32f30x_dac.c **** /* Includes ------------------------------------------------------------------*/
 102:/home/user/Desktop/STM32-Projekte/FH-Vertibot/src/STM32F30x_StdPeriph_Driver/src/stm32f30x_dac.c **** #include "stm32f30x_dac.h"
 103:/home/user/Desktop/STM32-Projekte/FH-Vertibot/src/STM32F30x_StdPeriph_Driver/src/stm32f30x_dac.c **** #include "stm32f30x_rcc.h"
 104:/home/user/Desktop/STM32-Projekte/FH-Vertibot/src/STM32F30x_StdPeriph_Driver/src/stm32f30x_dac.c **** 
 105:/home/user/Desktop/STM32-Projekte/FH-Vertibot/src/STM32F30x_StdPeriph_Driver/src/stm32f30x_dac.c **** /** @addtogroup STM32F30x_StdPeriph_Driver
 106:/home/user/Desktop/STM32-Projekte/FH-Vertibot/src/STM32F30x_StdPeriph_Driver/src/stm32f30x_dac.c ****   * @{
 107:/home/user/Desktop/STM32-Projekte/FH-Vertibot/src/STM32F30x_StdPeriph_Driver/src/stm32f30x_dac.c ****   */
 108:/home/user/Desktop/STM32-Projekte/FH-Vertibot/src/STM32F30x_StdPeriph_Driver/src/stm32f30x_dac.c **** 
 109:/home/user/Desktop/STM32-Projekte/FH-Vertibot/src/STM32F30x_StdPeriph_Driver/src/stm32f30x_dac.c **** /** @defgroup DAC 
 110:/home/user/Desktop/STM32-Projekte/FH-Vertibot/src/STM32F30x_StdPeriph_Driver/src/stm32f30x_dac.c ****   * @brief DAC driver modules
 111:/home/user/Desktop/STM32-Projekte/FH-Vertibot/src/STM32F30x_StdPeriph_Driver/src/stm32f30x_dac.c ****   * @{
 112:/home/user/Desktop/STM32-Projekte/FH-Vertibot/src/STM32F30x_StdPeriph_Driver/src/stm32f30x_dac.c ****   */ 
 113:/home/user/Desktop/STM32-Projekte/FH-Vertibot/src/STM32F30x_StdPeriph_Driver/src/stm32f30x_dac.c **** 
 114:/home/user/Desktop/STM32-Projekte/FH-Vertibot/src/STM32F30x_StdPeriph_Driver/src/stm32f30x_dac.c **** /* Private typedef -----------------------------------------------------------*/
 115:/home/user/Desktop/STM32-Projekte/FH-Vertibot/src/STM32F30x_StdPeriph_Driver/src/stm32f30x_dac.c **** /* Private define ------------------------------------------------------------*/
 116:/home/user/Desktop/STM32-Projekte/FH-Vertibot/src/STM32F30x_StdPeriph_Driver/src/stm32f30x_dac.c **** 
 117:/home/user/Desktop/STM32-Projekte/FH-Vertibot/src/STM32F30x_StdPeriph_Driver/src/stm32f30x_dac.c **** /* CR register Mask */
 118:/home/user/Desktop/STM32-Projekte/FH-Vertibot/src/STM32F30x_StdPeriph_Driver/src/stm32f30x_dac.c **** #define CR_CLEAR_MASK              ((uint32_t)0x00000FFE)
 119:/home/user/Desktop/STM32-Projekte/FH-Vertibot/src/STM32F30x_StdPeriph_Driver/src/stm32f30x_dac.c **** 
 120:/home/user/Desktop/STM32-Projekte/FH-Vertibot/src/STM32F30x_StdPeriph_Driver/src/stm32f30x_dac.c **** /* DAC Dual Channels SWTRIG masks */
 121:/home/user/Desktop/STM32-Projekte/FH-Vertibot/src/STM32F30x_StdPeriph_Driver/src/stm32f30x_dac.c **** #define DUAL_SWTRIG_SET            ((uint32_t)0x00000003)
 122:/home/user/Desktop/STM32-Projekte/FH-Vertibot/src/STM32F30x_StdPeriph_Driver/src/stm32f30x_dac.c **** #define DUAL_SWTRIG_RESET          ((uint32_t)0xFFFFFFFC)
 123:/home/user/Desktop/STM32-Projekte/FH-Vertibot/src/STM32F30x_StdPeriph_Driver/src/stm32f30x_dac.c **** 
 124:/home/user/Desktop/STM32-Projekte/FH-Vertibot/src/STM32F30x_StdPeriph_Driver/src/stm32f30x_dac.c **** /* DHR registers offsets */
 125:/home/user/Desktop/STM32-Projekte/FH-Vertibot/src/STM32F30x_StdPeriph_Driver/src/stm32f30x_dac.c **** #define DHR12R1_OFFSET             ((uint32_t)0x00000008)
 126:/home/user/Desktop/STM32-Projekte/FH-Vertibot/src/STM32F30x_StdPeriph_Driver/src/stm32f30x_dac.c **** #define DHR12R2_OFFSET             ((uint32_t)0x00000014)
 127:/home/user/Desktop/STM32-Projekte/FH-Vertibot/src/STM32F30x_StdPeriph_Driver/src/stm32f30x_dac.c **** #define DHR12RD_OFFSET             ((uint32_t)0x00000020)
 128:/home/user/Desktop/STM32-Projekte/FH-Vertibot/src/STM32F30x_StdPeriph_Driver/src/stm32f30x_dac.c **** 
 129:/home/user/Desktop/STM32-Projekte/FH-Vertibot/src/STM32F30x_StdPeriph_Driver/src/stm32f30x_dac.c **** /* DOR register offset */
 130:/home/user/Desktop/STM32-Projekte/FH-Vertibot/src/STM32F30x_StdPeriph_Driver/src/stm32f30x_dac.c **** #define DOR_OFFSET                 ((uint32_t)0x0000002C)
 131:/home/user/Desktop/STM32-Projekte/FH-Vertibot/src/STM32F30x_StdPeriph_Driver/src/stm32f30x_dac.c **** 
 132:/home/user/Desktop/STM32-Projekte/FH-Vertibot/src/STM32F30x_StdPeriph_Driver/src/stm32f30x_dac.c **** /* Private macro -------------------------------------------------------------*/
 133:/home/user/Desktop/STM32-Projekte/FH-Vertibot/src/STM32F30x_StdPeriph_Driver/src/stm32f30x_dac.c **** /* Private variables ---------------------------------------------------------*/
 134:/home/user/Desktop/STM32-Projekte/FH-Vertibot/src/STM32F30x_StdPeriph_Driver/src/stm32f30x_dac.c **** /* Private function prototypes -----------------------------------------------*/
 135:/home/user/Desktop/STM32-Projekte/FH-Vertibot/src/STM32F30x_StdPeriph_Driver/src/stm32f30x_dac.c **** /* Private functions ---------------------------------------------------------*/
 136:/home/user/Desktop/STM32-Projekte/FH-Vertibot/src/STM32F30x_StdPeriph_Driver/src/stm32f30x_dac.c **** 
 137:/home/user/Desktop/STM32-Projekte/FH-Vertibot/src/STM32F30x_StdPeriph_Driver/src/stm32f30x_dac.c **** /** @defgroup DAC_Private_Functions
 138:/home/user/Desktop/STM32-Projekte/FH-Vertibot/src/STM32F30x_StdPeriph_Driver/src/stm32f30x_dac.c ****   * @{
 139:/home/user/Desktop/STM32-Projekte/FH-Vertibot/src/STM32F30x_StdPeriph_Driver/src/stm32f30x_dac.c ****   */
 140:/home/user/Desktop/STM32-Projekte/FH-Vertibot/src/STM32F30x_StdPeriph_Driver/src/stm32f30x_dac.c **** 
 141:/home/user/Desktop/STM32-Projekte/FH-Vertibot/src/STM32F30x_StdPeriph_Driver/src/stm32f30x_dac.c **** /** @defgroup DAC_Group1 DAC channels configuration
 142:/home/user/Desktop/STM32-Projekte/FH-Vertibot/src/STM32F30x_StdPeriph_Driver/src/stm32f30x_dac.c ****  *  @brief   DAC channels configuration: trigger, output buffer, data format 
 143:/home/user/Desktop/STM32-Projekte/FH-Vertibot/src/STM32F30x_StdPeriph_Driver/src/stm32f30x_dac.c ****  *
 144:/home/user/Desktop/STM32-Projekte/FH-Vertibot/src/STM32F30x_StdPeriph_Driver/src/stm32f30x_dac.c **** @verbatim   
 145:/home/user/Desktop/STM32-Projekte/FH-Vertibot/src/STM32F30x_StdPeriph_Driver/src/stm32f30x_dac.c ****  ===============================================================================
 146:/home/user/Desktop/STM32-Projekte/FH-Vertibot/src/STM32F30x_StdPeriph_Driver/src/stm32f30x_dac.c ****     ##### DAC channels configuration: trigger, output buffer, data format #####
 147:/home/user/Desktop/STM32-Projekte/FH-Vertibot/src/STM32F30x_StdPeriph_Driver/src/stm32f30x_dac.c ****  ===============================================================================  
 148:/home/user/Desktop/STM32-Projekte/FH-Vertibot/src/STM32F30x_StdPeriph_Driver/src/stm32f30x_dac.c **** 
 149:/home/user/Desktop/STM32-Projekte/FH-Vertibot/src/STM32F30x_StdPeriph_Driver/src/stm32f30x_dac.c **** @endverbatim
 150:/home/user/Desktop/STM32-Projekte/FH-Vertibot/src/STM32F30x_StdPeriph_Driver/src/stm32f30x_dac.c ****   * @{
 151:/home/user/Desktop/STM32-Projekte/FH-Vertibot/src/STM32F30x_StdPeriph_Driver/src/stm32f30x_dac.c ****   */
 152:/home/user/Desktop/STM32-Projekte/FH-Vertibot/src/STM32F30x_StdPeriph_Driver/src/stm32f30x_dac.c **** 
 153:/home/user/Desktop/STM32-Projekte/FH-Vertibot/src/STM32F30x_StdPeriph_Driver/src/stm32f30x_dac.c **** /**
 154:/home/user/Desktop/STM32-Projekte/FH-Vertibot/src/STM32F30x_StdPeriph_Driver/src/stm32f30x_dac.c ****   * @brief  Deinitializes the DAC peripheral registers to their default reset values.
 155:/home/user/Desktop/STM32-Projekte/FH-Vertibot/src/STM32F30x_StdPeriph_Driver/src/stm32f30x_dac.c ****   * @param  None
 156:/home/user/Desktop/STM32-Projekte/FH-Vertibot/src/STM32F30x_StdPeriph_Driver/src/stm32f30x_dac.c ****   * @retval None
 157:/home/user/Desktop/STM32-Projekte/FH-Vertibot/src/STM32F30x_StdPeriph_Driver/src/stm32f30x_dac.c ****   */
 158:/home/user/Desktop/STM32-Projekte/FH-Vertibot/src/STM32F30x_StdPeriph_Driver/src/stm32f30x_dac.c **** void DAC_DeInit(void)
 159:/home/user/Desktop/STM32-Projekte/FH-Vertibot/src/STM32F30x_StdPeriph_Driver/src/stm32f30x_dac.c **** {
  28              		.loc 1 159 0
  29              		.cfi_startproc
  30              		@ args = 0, pretend = 0, frame = 0
  31              		@ frame_needed = 0, uses_anonymous_args = 0
  32 0000 08B5     		push	{r3, lr}
  33              	.LCFI0:
  34              		.cfi_def_cfa_offset 8
  35              		.cfi_offset 3, -8
  36              		.cfi_offset 14, -4
 160:/home/user/Desktop/STM32-Projekte/FH-Vertibot/src/STM32F30x_StdPeriph_Driver/src/stm32f30x_dac.c ****   /* Enable DAC reset state */
 161:/home/user/Desktop/STM32-Projekte/FH-Vertibot/src/STM32F30x_StdPeriph_Driver/src/stm32f30x_dac.c ****   RCC_APB1PeriphResetCmd(RCC_APB1Periph_DAC, ENABLE);
  37              		.loc 1 161 0
  38 0002 0121     		movs	r1, #1
  39 0004 4FF00050 		mov	r0, #536870912
  40 0008 FFF7FEFF 		bl	RCC_APB1PeriphResetCmd
  41              	.LVL0:
 162:/home/user/Desktop/STM32-Projekte/FH-Vertibot/src/STM32F30x_StdPeriph_Driver/src/stm32f30x_dac.c ****   /* Release DAC from reset state */
 163:/home/user/Desktop/STM32-Projekte/FH-Vertibot/src/STM32F30x_StdPeriph_Driver/src/stm32f30x_dac.c ****   RCC_APB1PeriphResetCmd(RCC_APB1Periph_DAC, DISABLE);
  42              		.loc 1 163 0
  43 000c 4FF00050 		mov	r0, #536870912
  44 0010 0021     		movs	r1, #0
 164:/home/user/Desktop/STM32-Projekte/FH-Vertibot/src/STM32F30x_StdPeriph_Driver/src/stm32f30x_dac.c **** }
  45              		.loc 1 164 0
  46 0012 BDE80840 		pop	{r3, lr}
 163:/home/user/Desktop/STM32-Projekte/FH-Vertibot/src/STM32F30x_StdPeriph_Driver/src/stm32f30x_dac.c ****   RCC_APB1PeriphResetCmd(RCC_APB1Periph_DAC, DISABLE);
  47              		.loc 1 163 0
  48 0016 FFF7FEBF 		b	RCC_APB1PeriphResetCmd
  49              	.LVL1:
  50              		.cfi_endproc
  51              	.LFE111:
  53              		.align	1
  54              		.global	DAC_Init
  55              		.thumb
  56              		.thumb_func
  58              	DAC_Init:
  59              	.LFB112:
 165:/home/user/Desktop/STM32-Projekte/FH-Vertibot/src/STM32F30x_StdPeriph_Driver/src/stm32f30x_dac.c **** 
 166:/home/user/Desktop/STM32-Projekte/FH-Vertibot/src/STM32F30x_StdPeriph_Driver/src/stm32f30x_dac.c **** /**
 167:/home/user/Desktop/STM32-Projekte/FH-Vertibot/src/STM32F30x_StdPeriph_Driver/src/stm32f30x_dac.c ****   * @brief  Initializes the DAC peripheral according to the specified parameters
 168:/home/user/Desktop/STM32-Projekte/FH-Vertibot/src/STM32F30x_StdPeriph_Driver/src/stm32f30x_dac.c ****   *         in the DAC_InitStruct.
 169:/home/user/Desktop/STM32-Projekte/FH-Vertibot/src/STM32F30x_StdPeriph_Driver/src/stm32f30x_dac.c ****   * @param  DAC_Channel: the selected DAC channel. 
 170:/home/user/Desktop/STM32-Projekte/FH-Vertibot/src/STM32F30x_StdPeriph_Driver/src/stm32f30x_dac.c ****   *          This parameter can be:
 171:/home/user/Desktop/STM32-Projekte/FH-Vertibot/src/STM32F30x_StdPeriph_Driver/src/stm32f30x_dac.c ****   *            @arg DAC_Channel_1: DAC Channel1 selected
 172:/home/user/Desktop/STM32-Projekte/FH-Vertibot/src/STM32F30x_StdPeriph_Driver/src/stm32f30x_dac.c ****   *            @arg DAC_Channel_2: DAC Channel2 selected
 173:/home/user/Desktop/STM32-Projekte/FH-Vertibot/src/STM32F30x_StdPeriph_Driver/src/stm32f30x_dac.c ****   * @param  DAC_InitStruct: pointer to a DAC_InitTypeDef structure that contains
 174:/home/user/Desktop/STM32-Projekte/FH-Vertibot/src/STM32F30x_StdPeriph_Driver/src/stm32f30x_dac.c ****   *         the configuration information for the  specified DAC channel.
 175:/home/user/Desktop/STM32-Projekte/FH-Vertibot/src/STM32F30x_StdPeriph_Driver/src/stm32f30x_dac.c ****   * @retval None
 176:/home/user/Desktop/STM32-Projekte/FH-Vertibot/src/STM32F30x_StdPeriph_Driver/src/stm32f30x_dac.c ****   */
 177:/home/user/Desktop/STM32-Projekte/FH-Vertibot/src/STM32F30x_StdPeriph_Driver/src/stm32f30x_dac.c **** void DAC_Init(uint32_t DAC_Channel, DAC_InitTypeDef* DAC_InitStruct)
 178:/home/user/Desktop/STM32-Projekte/FH-Vertibot/src/STM32F30x_StdPeriph_Driver/src/stm32f30x_dac.c **** {
  60              		.loc 1 178 0
  61              		.cfi_startproc
  62              		@ args = 0, pretend = 0, frame = 0
  63              		@ frame_needed = 0, uses_anonymous_args = 0
  64              	.LVL2:
 179:/home/user/Desktop/STM32-Projekte/FH-Vertibot/src/STM32F30x_StdPeriph_Driver/src/stm32f30x_dac.c ****   uint32_t tmpreg1 = 0, tmpreg2 = 0;
 180:/home/user/Desktop/STM32-Projekte/FH-Vertibot/src/STM32F30x_StdPeriph_Driver/src/stm32f30x_dac.c **** 
 181:/home/user/Desktop/STM32-Projekte/FH-Vertibot/src/STM32F30x_StdPeriph_Driver/src/stm32f30x_dac.c ****   /* Check the DAC parameters */
 182:/home/user/Desktop/STM32-Projekte/FH-Vertibot/src/STM32F30x_StdPeriph_Driver/src/stm32f30x_dac.c ****   assert_param(IS_DAC_TRIGGER(DAC_InitStruct->DAC_Trigger));
 183:/home/user/Desktop/STM32-Projekte/FH-Vertibot/src/STM32F30x_StdPeriph_Driver/src/stm32f30x_dac.c ****   assert_param(IS_DAC_GENERATE_WAVE(DAC_InitStruct->DAC_WaveGeneration));
 184:/home/user/Desktop/STM32-Projekte/FH-Vertibot/src/STM32F30x_StdPeriph_Driver/src/stm32f30x_dac.c ****   assert_param(IS_DAC_LFSR_UNMASK_TRIANGLE_AMPLITUDE(DAC_InitStruct->DAC_LFSRUnmask_TriangleAmplitu
 185:/home/user/Desktop/STM32-Projekte/FH-Vertibot/src/STM32F30x_StdPeriph_Driver/src/stm32f30x_dac.c ****   assert_param(IS_DAC_OUTPUT_BUFFER_STATE(DAC_InitStruct->DAC_OutputBuffer));
 186:/home/user/Desktop/STM32-Projekte/FH-Vertibot/src/STM32F30x_StdPeriph_Driver/src/stm32f30x_dac.c **** 
 187:/home/user/Desktop/STM32-Projekte/FH-Vertibot/src/STM32F30x_StdPeriph_Driver/src/stm32f30x_dac.c **** /*---------------------------- DAC CR Configuration --------------------------*/
 188:/home/user/Desktop/STM32-Projekte/FH-Vertibot/src/STM32F30x_StdPeriph_Driver/src/stm32f30x_dac.c ****   /* Get the DAC CR value */
 189:/home/user/Desktop/STM32-Projekte/FH-Vertibot/src/STM32F30x_StdPeriph_Driver/src/stm32f30x_dac.c ****   tmpreg1 = DAC->CR;
  65              		.loc 1 189 0
  66 001a 0A4B     		ldr	r3, .L3
 178:/home/user/Desktop/STM32-Projekte/FH-Vertibot/src/STM32F30x_StdPeriph_Driver/src/stm32f30x_dac.c **** {
  67              		.loc 1 178 0
  68 001c 30B5     		push	{r4, r5, lr}
  69              	.LCFI1:
  70              		.cfi_def_cfa_offset 12
  71              		.cfi_offset 4, -12
  72              		.cfi_offset 5, -8
  73              		.cfi_offset 14, -4
  74              		.loc 1 189 0
  75 001e 1A68     		ldr	r2, [r3, #0]
  76              	.LVL3:
 190:/home/user/Desktop/STM32-Projekte/FH-Vertibot/src/STM32F30x_StdPeriph_Driver/src/stm32f30x_dac.c ****   /* Clear BOFFx, TENx, TSELx, WAVEx and MAMPx bits */
 191:/home/user/Desktop/STM32-Projekte/FH-Vertibot/src/STM32F30x_StdPeriph_Driver/src/stm32f30x_dac.c ****   tmpreg1 &= ~(CR_CLEAR_MASK << DAC_Channel);
  77              		.loc 1 191 0
  78 0020 40F6FE75 		movw	r5, #4094
  79 0024 05FA00F5 		lsl	r5, r5, r0
  80 0028 22EA0505 		bic	r5, r2, r5
  81              	.LVL4:
 192:/home/user/Desktop/STM32-Projekte/FH-Vertibot/src/STM32F30x_StdPeriph_Driver/src/stm32f30x_dac.c ****   /* Configure for the selected DAC channel: buffer output, trigger, 
 193:/home/user/Desktop/STM32-Projekte/FH-Vertibot/src/STM32F30x_StdPeriph_Driver/src/stm32f30x_dac.c ****      wave generation, mask/amplitude for wave generation */
 194:/home/user/Desktop/STM32-Projekte/FH-Vertibot/src/STM32F30x_StdPeriph_Driver/src/stm32f30x_dac.c ****   /* Set TSELx and TENx bits according to DAC_Trigger value */
 195:/home/user/Desktop/STM32-Projekte/FH-Vertibot/src/STM32F30x_StdPeriph_Driver/src/stm32f30x_dac.c ****   /* Set WAVEx bits according to DAC_WaveGeneration value */
 196:/home/user/Desktop/STM32-Projekte/FH-Vertibot/src/STM32F30x_StdPeriph_Driver/src/stm32f30x_dac.c ****   /* Set MAMPx bits according to DAC_LFSRUnmask_TriangleAmplitude value */ 
 197:/home/user/Desktop/STM32-Projekte/FH-Vertibot/src/STM32F30x_StdPeriph_Driver/src/stm32f30x_dac.c ****   /* Set BOFFx bit according to DAC_OutputBuffer value */   
 198:/home/user/Desktop/STM32-Projekte/FH-Vertibot/src/STM32F30x_StdPeriph_Driver/src/stm32f30x_dac.c ****   tmpreg2 = (DAC_InitStruct->DAC_Trigger | DAC_InitStruct->DAC_WaveGeneration |
  82              		.loc 1 198 0
  83 002c 91E81400 		ldmia	r1, {r2, r4}
  84 0030 1443     		orrs	r4, r4, r2
  85 0032 8A68     		ldr	r2, [r1, #8]
  86 0034 C968     		ldr	r1, [r1, #12]
  87              	.LVL5:
  88 0036 2243     		orrs	r2, r2, r4
  89              	.LVL6:
  90 0038 0A43     		orrs	r2, r2, r1
  91              	.LVL7:
 199:/home/user/Desktop/STM32-Projekte/FH-Vertibot/src/STM32F30x_StdPeriph_Driver/src/stm32f30x_dac.c ****              DAC_InitStruct->DAC_LFSRUnmask_TriangleAmplitude | \
 200:/home/user/Desktop/STM32-Projekte/FH-Vertibot/src/STM32F30x_StdPeriph_Driver/src/stm32f30x_dac.c ****              DAC_InitStruct->DAC_OutputBuffer);
 201:/home/user/Desktop/STM32-Projekte/FH-Vertibot/src/STM32F30x_StdPeriph_Driver/src/stm32f30x_dac.c ****   /* Calculate CR register value depending on DAC_Channel */
 202:/home/user/Desktop/STM32-Projekte/FH-Vertibot/src/STM32F30x_StdPeriph_Driver/src/stm32f30x_dac.c ****   tmpreg1 |= tmpreg2 << DAC_Channel;
  92              		.loc 1 202 0
  93 003a 02FA00F0 		lsl	r0, r2, r0
  94              	.LVL8:
  95 003e 2843     		orrs	r0, r0, r5
  96              	.LVL9:
 203:/home/user/Desktop/STM32-Projekte/FH-Vertibot/src/STM32F30x_StdPeriph_Driver/src/stm32f30x_dac.c ****   /* Write to DAC CR */
 204:/home/user/Desktop/STM32-Projekte/FH-Vertibot/src/STM32F30x_StdPeriph_Driver/src/stm32f30x_dac.c ****   DAC->CR = tmpreg1;
  97              		.loc 1 204 0
  98 0040 1860     		str	r0, [r3, #0]
  99 0042 30BD     		pop	{r4, r5, pc}
 100              	.L4:
 101              		.align	2
 102              	.L3:
 103 0044 00740040 		.word	1073771520
 104              		.cfi_endproc
 105              	.LFE112:
 107              		.align	1
 108              		.global	DAC_StructInit
 109              		.thumb
 110              		.thumb_func
 112              	DAC_StructInit:
 113              	.LFB113:
 205:/home/user/Desktop/STM32-Projekte/FH-Vertibot/src/STM32F30x_StdPeriph_Driver/src/stm32f30x_dac.c **** }
 206:/home/user/Desktop/STM32-Projekte/FH-Vertibot/src/STM32F30x_StdPeriph_Driver/src/stm32f30x_dac.c **** 
 207:/home/user/Desktop/STM32-Projekte/FH-Vertibot/src/STM32F30x_StdPeriph_Driver/src/stm32f30x_dac.c **** /**
 208:/home/user/Desktop/STM32-Projekte/FH-Vertibot/src/STM32F30x_StdPeriph_Driver/src/stm32f30x_dac.c ****   * @brief  Fills each DAC_InitStruct member with its default value.
 209:/home/user/Desktop/STM32-Projekte/FH-Vertibot/src/STM32F30x_StdPeriph_Driver/src/stm32f30x_dac.c ****   * @param  DAC_InitStruct: pointer to a DAC_InitTypeDef structure which will 
 210:/home/user/Desktop/STM32-Projekte/FH-Vertibot/src/STM32F30x_StdPeriph_Driver/src/stm32f30x_dac.c ****   *         be initialized.
 211:/home/user/Desktop/STM32-Projekte/FH-Vertibot/src/STM32F30x_StdPeriph_Driver/src/stm32f30x_dac.c ****   * @retval None
 212:/home/user/Desktop/STM32-Projekte/FH-Vertibot/src/STM32F30x_StdPeriph_Driver/src/stm32f30x_dac.c ****   */
 213:/home/user/Desktop/STM32-Projekte/FH-Vertibot/src/STM32F30x_StdPeriph_Driver/src/stm32f30x_dac.c **** void DAC_StructInit(DAC_InitTypeDef* DAC_InitStruct)
 214:/home/user/Desktop/STM32-Projekte/FH-Vertibot/src/STM32F30x_StdPeriph_Driver/src/stm32f30x_dac.c **** {
 114              		.loc 1 214 0
 115              		.cfi_startproc
 116              		@ args = 0, pretend = 0, frame = 0
 117              		@ frame_needed = 0, uses_anonymous_args = 0
 118              		@ link register save eliminated.
 119              	.LVL10:
 215:/home/user/Desktop/STM32-Projekte/FH-Vertibot/src/STM32F30x_StdPeriph_Driver/src/stm32f30x_dac.c **** /*--------------- Reset DAC init structure parameters values -----------------*/
 216:/home/user/Desktop/STM32-Projekte/FH-Vertibot/src/STM32F30x_StdPeriph_Driver/src/stm32f30x_dac.c ****   /* Initialize the DAC_Trigger member */
 217:/home/user/Desktop/STM32-Projekte/FH-Vertibot/src/STM32F30x_StdPeriph_Driver/src/stm32f30x_dac.c ****   DAC_InitStruct->DAC_Trigger = DAC_Trigger_None;
 120              		.loc 1 217 0
 121 0048 0023     		movs	r3, #0
 122 004a 0360     		str	r3, [r0, #0]
 218:/home/user/Desktop/STM32-Projekte/FH-Vertibot/src/STM32F30x_StdPeriph_Driver/src/stm32f30x_dac.c ****   /* Initialize the DAC_WaveGeneration member */
 219:/home/user/Desktop/STM32-Projekte/FH-Vertibot/src/STM32F30x_StdPeriph_Driver/src/stm32f30x_dac.c ****   DAC_InitStruct->DAC_WaveGeneration = DAC_WaveGeneration_None;
 123              		.loc 1 219 0
 124 004c 4360     		str	r3, [r0, #4]
 220:/home/user/Desktop/STM32-Projekte/FH-Vertibot/src/STM32F30x_StdPeriph_Driver/src/stm32f30x_dac.c ****   /* Initialize the DAC_LFSRUnmask_TriangleAmplitude member */
 221:/home/user/Desktop/STM32-Projekte/FH-Vertibot/src/STM32F30x_StdPeriph_Driver/src/stm32f30x_dac.c ****   DAC_InitStruct->DAC_LFSRUnmask_TriangleAmplitude = DAC_LFSRUnmask_Bit0;
 125              		.loc 1 221 0
 126 004e 8360     		str	r3, [r0, #8]
 222:/home/user/Desktop/STM32-Projekte/FH-Vertibot/src/STM32F30x_StdPeriph_Driver/src/stm32f30x_dac.c ****   /* Initialize the DAC_OutputBuffer member */
 223:/home/user/Desktop/STM32-Projekte/FH-Vertibot/src/STM32F30x_StdPeriph_Driver/src/stm32f30x_dac.c ****   DAC_InitStruct->DAC_OutputBuffer = DAC_OutputBuffer_Enable;
 127              		.loc 1 223 0
 128 0050 C360     		str	r3, [r0, #12]
 129 0052 7047     		bx	lr
 130              		.cfi_endproc
 131              	.LFE113:
 133              		.align	1
 134              		.global	DAC_Cmd
 135              		.thumb
 136              		.thumb_func
 138              	DAC_Cmd:
 139              	.LFB114:
 224:/home/user/Desktop/STM32-Projekte/FH-Vertibot/src/STM32F30x_StdPeriph_Driver/src/stm32f30x_dac.c **** }
 225:/home/user/Desktop/STM32-Projekte/FH-Vertibot/src/STM32F30x_StdPeriph_Driver/src/stm32f30x_dac.c **** 
 226:/home/user/Desktop/STM32-Projekte/FH-Vertibot/src/STM32F30x_StdPeriph_Driver/src/stm32f30x_dac.c **** /**
 227:/home/user/Desktop/STM32-Projekte/FH-Vertibot/src/STM32F30x_StdPeriph_Driver/src/stm32f30x_dac.c ****   * @brief  Enables or disables the specified DAC channel.
 228:/home/user/Desktop/STM32-Projekte/FH-Vertibot/src/STM32F30x_StdPeriph_Driver/src/stm32f30x_dac.c ****   * @param  DAC_Channel: The selected DAC channel. 
 229:/home/user/Desktop/STM32-Projekte/FH-Vertibot/src/STM32F30x_StdPeriph_Driver/src/stm32f30x_dac.c ****   *          This parameter can be:
 230:/home/user/Desktop/STM32-Projekte/FH-Vertibot/src/STM32F30x_StdPeriph_Driver/src/stm32f30x_dac.c ****   *            @arg DAC_Channel_1: DAC Channel1 selected
 231:/home/user/Desktop/STM32-Projekte/FH-Vertibot/src/STM32F30x_StdPeriph_Driver/src/stm32f30x_dac.c ****   *            @arg DAC_Channel_2: DAC Channel2 selected
 232:/home/user/Desktop/STM32-Projekte/FH-Vertibot/src/STM32F30x_StdPeriph_Driver/src/stm32f30x_dac.c ****   * @param  NewState: new state of the DAC channel. 
 233:/home/user/Desktop/STM32-Projekte/FH-Vertibot/src/STM32F30x_StdPeriph_Driver/src/stm32f30x_dac.c ****   *          This parameter can be: ENABLE or DISABLE.
 234:/home/user/Desktop/STM32-Projekte/FH-Vertibot/src/STM32F30x_StdPeriph_Driver/src/stm32f30x_dac.c ****   * @note   When the DAC channel is enabled the trigger source can no more be modified.
 235:/home/user/Desktop/STM32-Projekte/FH-Vertibot/src/STM32F30x_StdPeriph_Driver/src/stm32f30x_dac.c ****   * @retval None
 236:/home/user/Desktop/STM32-Projekte/FH-Vertibot/src/STM32F30x_StdPeriph_Driver/src/stm32f30x_dac.c ****   */
 237:/home/user/Desktop/STM32-Projekte/FH-Vertibot/src/STM32F30x_StdPeriph_Driver/src/stm32f30x_dac.c **** void DAC_Cmd(uint32_t DAC_Channel, FunctionalState NewState)
 238:/home/user/Desktop/STM32-Projekte/FH-Vertibot/src/STM32F30x_StdPeriph_Driver/src/stm32f30x_dac.c **** {
 140              		.loc 1 238 0
 141              		.cfi_startproc
 142              		@ args = 0, pretend = 0, frame = 0
 143              		@ frame_needed = 0, uses_anonymous_args = 0
 144              		@ link register save eliminated.
 145              	.LVL11:
 146 0054 074B     		ldr	r3, .L10
 147 0056 0122     		movs	r2, #1
 239:/home/user/Desktop/STM32-Projekte/FH-Vertibot/src/STM32F30x_StdPeriph_Driver/src/stm32f30x_dac.c ****   /* Check the parameters */
 240:/home/user/Desktop/STM32-Projekte/FH-Vertibot/src/STM32F30x_StdPeriph_Driver/src/stm32f30x_dac.c ****   assert_param(IS_DAC_CHANNEL(DAC_Channel));
 241:/home/user/Desktop/STM32-Projekte/FH-Vertibot/src/STM32F30x_StdPeriph_Driver/src/stm32f30x_dac.c ****   assert_param(IS_FUNCTIONAL_STATE(NewState));
 242:/home/user/Desktop/STM32-Projekte/FH-Vertibot/src/STM32F30x_StdPeriph_Driver/src/stm32f30x_dac.c **** 
 243:/home/user/Desktop/STM32-Projekte/FH-Vertibot/src/STM32F30x_StdPeriph_Driver/src/stm32f30x_dac.c ****   if (NewState != DISABLE)
 148              		.loc 1 243 0
 149 0058 21B1     		cbz	r1, .L7
 244:/home/user/Desktop/STM32-Projekte/FH-Vertibot/src/STM32F30x_StdPeriph_Driver/src/stm32f30x_dac.c ****   {
 245:/home/user/Desktop/STM32-Projekte/FH-Vertibot/src/STM32F30x_StdPeriph_Driver/src/stm32f30x_dac.c ****     /* Enable the selected DAC channel */
 246:/home/user/Desktop/STM32-Projekte/FH-Vertibot/src/STM32F30x_StdPeriph_Driver/src/stm32f30x_dac.c ****     DAC->CR |= (DAC_CR_EN1 << DAC_Channel);
 150              		.loc 1 246 0
 151 005a 1968     		ldr	r1, [r3, #0]
 152              	.LVL12:
 153 005c 02FA00F2 		lsl	r2, r2, r0
 154 0060 0A43     		orrs	r2, r2, r1
 155 0062 04E0     		b	.L9
 156              	.LVL13:
 157              	.L7:
 247:/home/user/Desktop/STM32-Projekte/FH-Vertibot/src/STM32F30x_StdPeriph_Driver/src/stm32f30x_dac.c ****   }
 248:/home/user/Desktop/STM32-Projekte/FH-Vertibot/src/STM32F30x_StdPeriph_Driver/src/stm32f30x_dac.c ****   else
 249:/home/user/Desktop/STM32-Projekte/FH-Vertibot/src/STM32F30x_StdPeriph_Driver/src/stm32f30x_dac.c ****   {
 250:/home/user/Desktop/STM32-Projekte/FH-Vertibot/src/STM32F30x_StdPeriph_Driver/src/stm32f30x_dac.c ****     /* Disable the selected DAC channel */
 251:/home/user/Desktop/STM32-Projekte/FH-Vertibot/src/STM32F30x_StdPeriph_Driver/src/stm32f30x_dac.c ****     DAC->CR &= (~(DAC_CR_EN1 << DAC_Channel));
 158              		.loc 1 251 0
 159 0064 1968     		ldr	r1, [r3, #0]
 160              	.LVL14:
 161 0066 02FA00F2 		lsl	r2, r2, r0
 162 006a 21EA0202 		bic	r2, r1, r2
 163              	.L9:
 164 006e 1A60     		str	r2, [r3, #0]
 165 0070 7047     		bx	lr
 166              	.L11:
 167 0072 00BF     		.align	2
 168              	.L10:
 169 0074 00740040 		.word	1073771520
 170              		.cfi_endproc
 171              	.LFE114:
 173              		.align	1
 174              		.global	DAC_SoftwareTriggerCmd
 175              		.thumb
 176              		.thumb_func
 178              	DAC_SoftwareTriggerCmd:
 179              	.LFB115:
 252:/home/user/Desktop/STM32-Projekte/FH-Vertibot/src/STM32F30x_StdPeriph_Driver/src/stm32f30x_dac.c ****   }
 253:/home/user/Desktop/STM32-Projekte/FH-Vertibot/src/STM32F30x_StdPeriph_Driver/src/stm32f30x_dac.c **** }
 254:/home/user/Desktop/STM32-Projekte/FH-Vertibot/src/STM32F30x_StdPeriph_Driver/src/stm32f30x_dac.c **** 
 255:/home/user/Desktop/STM32-Projekte/FH-Vertibot/src/STM32F30x_StdPeriph_Driver/src/stm32f30x_dac.c **** /**
 256:/home/user/Desktop/STM32-Projekte/FH-Vertibot/src/STM32F30x_StdPeriph_Driver/src/stm32f30x_dac.c ****   * @brief  Enables or disables the selected DAC channel software trigger.
 257:/home/user/Desktop/STM32-Projekte/FH-Vertibot/src/STM32F30x_StdPeriph_Driver/src/stm32f30x_dac.c ****   * @param  DAC_Channel: The selected DAC channel. 
 258:/home/user/Desktop/STM32-Projekte/FH-Vertibot/src/STM32F30x_StdPeriph_Driver/src/stm32f30x_dac.c ****   *          This parameter can be:
 259:/home/user/Desktop/STM32-Projekte/FH-Vertibot/src/STM32F30x_StdPeriph_Driver/src/stm32f30x_dac.c ****   *            @arg DAC_Channel_1: DAC Channel1 selected
 260:/home/user/Desktop/STM32-Projekte/FH-Vertibot/src/STM32F30x_StdPeriph_Driver/src/stm32f30x_dac.c ****   *            @arg DAC_Channel_2: DAC Channel2 selected
 261:/home/user/Desktop/STM32-Projekte/FH-Vertibot/src/STM32F30x_StdPeriph_Driver/src/stm32f30x_dac.c ****   * @param  NewState: new state of the selected DAC channel software trigger.
 262:/home/user/Desktop/STM32-Projekte/FH-Vertibot/src/STM32F30x_StdPeriph_Driver/src/stm32f30x_dac.c ****   *          This parameter can be: ENABLE or DISABLE.
 263:/home/user/Desktop/STM32-Projekte/FH-Vertibot/src/STM32F30x_StdPeriph_Driver/src/stm32f30x_dac.c ****   * @retval None
 264:/home/user/Desktop/STM32-Projekte/FH-Vertibot/src/STM32F30x_StdPeriph_Driver/src/stm32f30x_dac.c ****   */
 265:/home/user/Desktop/STM32-Projekte/FH-Vertibot/src/STM32F30x_StdPeriph_Driver/src/stm32f30x_dac.c **** void DAC_SoftwareTriggerCmd(uint32_t DAC_Channel, FunctionalState NewState)
 266:/home/user/Desktop/STM32-Projekte/FH-Vertibot/src/STM32F30x_StdPeriph_Driver/src/stm32f30x_dac.c **** {
 180              		.loc 1 266 0
 181              		.cfi_startproc
 182              		@ args = 0, pretend = 0, frame = 0
 183              		@ frame_needed = 0, uses_anonymous_args = 0
 184              		@ link register save eliminated.
 185              	.LVL15:
 186 0078 074B     		ldr	r3, .L16
 187 007a 0009     		lsrs	r0, r0, #4
 188              	.LVL16:
 189 007c 0122     		movs	r2, #1
 267:/home/user/Desktop/STM32-Projekte/FH-Vertibot/src/STM32F30x_StdPeriph_Driver/src/stm32f30x_dac.c ****   /* Check the parameters */
 268:/home/user/Desktop/STM32-Projekte/FH-Vertibot/src/STM32F30x_StdPeriph_Driver/src/stm32f30x_dac.c ****   assert_param(IS_DAC_CHANNEL(DAC_Channel));
 269:/home/user/Desktop/STM32-Projekte/FH-Vertibot/src/STM32F30x_StdPeriph_Driver/src/stm32f30x_dac.c ****   assert_param(IS_FUNCTIONAL_STATE(NewState));
 270:/home/user/Desktop/STM32-Projekte/FH-Vertibot/src/STM32F30x_StdPeriph_Driver/src/stm32f30x_dac.c **** 
 271:/home/user/Desktop/STM32-Projekte/FH-Vertibot/src/STM32F30x_StdPeriph_Driver/src/stm32f30x_dac.c ****   if (NewState != DISABLE)
 190              		.loc 1 271 0
 191 007e 21B1     		cbz	r1, .L13
 272:/home/user/Desktop/STM32-Projekte/FH-Vertibot/src/STM32F30x_StdPeriph_Driver/src/stm32f30x_dac.c ****   {
 273:/home/user/Desktop/STM32-Projekte/FH-Vertibot/src/STM32F30x_StdPeriph_Driver/src/stm32f30x_dac.c ****     /* Enable software trigger for the selected DAC channel */
 274:/home/user/Desktop/STM32-Projekte/FH-Vertibot/src/STM32F30x_StdPeriph_Driver/src/stm32f30x_dac.c ****     DAC->SWTRIGR |= (uint32_t)DAC_SWTRIGR_SWTRIG1 << (DAC_Channel >> 4);
 192              		.loc 1 274 0
 193 0080 5968     		ldr	r1, [r3, #4]
 194              	.LVL17:
 195 0082 02FA00F2 		lsl	r2, r2, r0
 196 0086 0A43     		orrs	r2, r2, r1
 197 0088 04E0     		b	.L15
 198              	.LVL18:
 199              	.L13:
 275:/home/user/Desktop/STM32-Projekte/FH-Vertibot/src/STM32F30x_StdPeriph_Driver/src/stm32f30x_dac.c ****   }
 276:/home/user/Desktop/STM32-Projekte/FH-Vertibot/src/STM32F30x_StdPeriph_Driver/src/stm32f30x_dac.c ****   else
 277:/home/user/Desktop/STM32-Projekte/FH-Vertibot/src/STM32F30x_StdPeriph_Driver/src/stm32f30x_dac.c ****   {
 278:/home/user/Desktop/STM32-Projekte/FH-Vertibot/src/STM32F30x_StdPeriph_Driver/src/stm32f30x_dac.c ****     /* Disable software trigger for the selected DAC channel */
 279:/home/user/Desktop/STM32-Projekte/FH-Vertibot/src/STM32F30x_StdPeriph_Driver/src/stm32f30x_dac.c ****     DAC->SWTRIGR &= ~((uint32_t)DAC_SWTRIGR_SWTRIG1 << (DAC_Channel >> 4));
 200              		.loc 1 279 0
 201 008a 5968     		ldr	r1, [r3, #4]
 202              	.LVL19:
 203 008c 02FA00F2 		lsl	r2, r2, r0
 204 0090 21EA0202 		bic	r2, r1, r2
 205              	.L15:
 206 0094 5A60     		str	r2, [r3, #4]
 207 0096 7047     		bx	lr
 208              	.L17:
 209              		.align	2
 210              	.L16:
 211 0098 00740040 		.word	1073771520
 212              		.cfi_endproc
 213              	.LFE115:
 215              		.align	1
 216              		.global	DAC_DualSoftwareTriggerCmd
 217              		.thumb
 218              		.thumb_func
 220              	DAC_DualSoftwareTriggerCmd:
 221              	.LFB116:
 280:/home/user/Desktop/STM32-Projekte/FH-Vertibot/src/STM32F30x_StdPeriph_Driver/src/stm32f30x_dac.c ****   }
 281:/home/user/Desktop/STM32-Projekte/FH-Vertibot/src/STM32F30x_StdPeriph_Driver/src/stm32f30x_dac.c **** }
 282:/home/user/Desktop/STM32-Projekte/FH-Vertibot/src/STM32F30x_StdPeriph_Driver/src/stm32f30x_dac.c **** 
 283:/home/user/Desktop/STM32-Projekte/FH-Vertibot/src/STM32F30x_StdPeriph_Driver/src/stm32f30x_dac.c **** /**
 284:/home/user/Desktop/STM32-Projekte/FH-Vertibot/src/STM32F30x_StdPeriph_Driver/src/stm32f30x_dac.c ****   * @brief  Enables or disables simultaneously the two DAC channels software triggers.
 285:/home/user/Desktop/STM32-Projekte/FH-Vertibot/src/STM32F30x_StdPeriph_Driver/src/stm32f30x_dac.c ****   * @param  NewState: new state of the DAC channels software triggers.
 286:/home/user/Desktop/STM32-Projekte/FH-Vertibot/src/STM32F30x_StdPeriph_Driver/src/stm32f30x_dac.c ****   *          This parameter can be: ENABLE or DISABLE.
 287:/home/user/Desktop/STM32-Projekte/FH-Vertibot/src/STM32F30x_StdPeriph_Driver/src/stm32f30x_dac.c ****   * @retval None
 288:/home/user/Desktop/STM32-Projekte/FH-Vertibot/src/STM32F30x_StdPeriph_Driver/src/stm32f30x_dac.c ****   */
 289:/home/user/Desktop/STM32-Projekte/FH-Vertibot/src/STM32F30x_StdPeriph_Driver/src/stm32f30x_dac.c **** void DAC_DualSoftwareTriggerCmd(FunctionalState NewState)
 290:/home/user/Desktop/STM32-Projekte/FH-Vertibot/src/STM32F30x_StdPeriph_Driver/src/stm32f30x_dac.c **** {
 222              		.loc 1 290 0
 223              		.cfi_startproc
 224              		@ args = 0, pretend = 0, frame = 0
 225              		@ frame_needed = 0, uses_anonymous_args = 0
 226              		@ link register save eliminated.
 227              	.LVL20:
 228 009c 044B     		ldr	r3, .L22
 291:/home/user/Desktop/STM32-Projekte/FH-Vertibot/src/STM32F30x_StdPeriph_Driver/src/stm32f30x_dac.c ****   /* Check the parameters */
 292:/home/user/Desktop/STM32-Projekte/FH-Vertibot/src/STM32F30x_StdPeriph_Driver/src/stm32f30x_dac.c ****   assert_param(IS_FUNCTIONAL_STATE(NewState));
 293:/home/user/Desktop/STM32-Projekte/FH-Vertibot/src/STM32F30x_StdPeriph_Driver/src/stm32f30x_dac.c **** 
 294:/home/user/Desktop/STM32-Projekte/FH-Vertibot/src/STM32F30x_StdPeriph_Driver/src/stm32f30x_dac.c ****   if (NewState != DISABLE)
 295:/home/user/Desktop/STM32-Projekte/FH-Vertibot/src/STM32F30x_StdPeriph_Driver/src/stm32f30x_dac.c ****   {
 296:/home/user/Desktop/STM32-Projekte/FH-Vertibot/src/STM32F30x_StdPeriph_Driver/src/stm32f30x_dac.c ****     /* Enable software trigger for both DAC channels */
 297:/home/user/Desktop/STM32-Projekte/FH-Vertibot/src/STM32F30x_StdPeriph_Driver/src/stm32f30x_dac.c ****     DAC->SWTRIGR |= DUAL_SWTRIG_SET;
 229              		.loc 1 297 0
 230 009e 5A68     		ldr	r2, [r3, #4]
 294:/home/user/Desktop/STM32-Projekte/FH-Vertibot/src/STM32F30x_StdPeriph_Driver/src/stm32f30x_dac.c ****   if (NewState != DISABLE)
 231              		.loc 1 294 0
 232 00a0 10B1     		cbz	r0, .L19
 233              		.loc 1 297 0
 234 00a2 42F00302 		orr	r2, r2, #3
 235 00a6 01E0     		b	.L21
 236              	.L19:
 298:/home/user/Desktop/STM32-Projekte/FH-Vertibot/src/STM32F30x_StdPeriph_Driver/src/stm32f30x_dac.c ****   }
 299:/home/user/Desktop/STM32-Projekte/FH-Vertibot/src/STM32F30x_StdPeriph_Driver/src/stm32f30x_dac.c ****   else
 300:/home/user/Desktop/STM32-Projekte/FH-Vertibot/src/STM32F30x_StdPeriph_Driver/src/stm32f30x_dac.c ****   {
 301:/home/user/Desktop/STM32-Projekte/FH-Vertibot/src/STM32F30x_StdPeriph_Driver/src/stm32f30x_dac.c ****     /* Disable software trigger for both DAC channels */
 302:/home/user/Desktop/STM32-Projekte/FH-Vertibot/src/STM32F30x_StdPeriph_Driver/src/stm32f30x_dac.c ****     DAC->SWTRIGR &= DUAL_SWTRIG_RESET;
 237              		.loc 1 302 0
 238 00a8 22F00302 		bic	r2, r2, #3
 239              	.L21:
 240 00ac 5A60     		str	r2, [r3, #4]
 241 00ae 7047     		bx	lr
 242              	.L23:
 243              		.align	2
 244              	.L22:
 245 00b0 00740040 		.word	1073771520
 246              		.cfi_endproc
 247              	.LFE116:
 249              		.align	1
 250              		.global	DAC_WaveGenerationCmd
 251              		.thumb
 252              		.thumb_func
 254              	DAC_WaveGenerationCmd:
 255              	.LFB117:
 303:/home/user/Desktop/STM32-Projekte/FH-Vertibot/src/STM32F30x_StdPeriph_Driver/src/stm32f30x_dac.c ****   }
 304:/home/user/Desktop/STM32-Projekte/FH-Vertibot/src/STM32F30x_StdPeriph_Driver/src/stm32f30x_dac.c **** }
 305:/home/user/Desktop/STM32-Projekte/FH-Vertibot/src/STM32F30x_StdPeriph_Driver/src/stm32f30x_dac.c **** 
 306:/home/user/Desktop/STM32-Projekte/FH-Vertibot/src/STM32F30x_StdPeriph_Driver/src/stm32f30x_dac.c **** /**
 307:/home/user/Desktop/STM32-Projekte/FH-Vertibot/src/STM32F30x_StdPeriph_Driver/src/stm32f30x_dac.c ****   * @brief  Enables or disables the selected DAC channel wave generation.
 308:/home/user/Desktop/STM32-Projekte/FH-Vertibot/src/STM32F30x_StdPeriph_Driver/src/stm32f30x_dac.c ****   * @param  DAC_Channel: The selected DAC channel. 
 309:/home/user/Desktop/STM32-Projekte/FH-Vertibot/src/STM32F30x_StdPeriph_Driver/src/stm32f30x_dac.c ****   *          This parameter can be:
 310:/home/user/Desktop/STM32-Projekte/FH-Vertibot/src/STM32F30x_StdPeriph_Driver/src/stm32f30x_dac.c ****   *            @arg DAC_Channel_1: DAC Channel1 selected
 311:/home/user/Desktop/STM32-Projekte/FH-Vertibot/src/STM32F30x_StdPeriph_Driver/src/stm32f30x_dac.c ****   *            @arg DAC_Channel_2: DAC Channel2 selected
 312:/home/user/Desktop/STM32-Projekte/FH-Vertibot/src/STM32F30x_StdPeriph_Driver/src/stm32f30x_dac.c ****   * @param  DAC_Wave: specifies the wave type to enable or disable.
 313:/home/user/Desktop/STM32-Projekte/FH-Vertibot/src/STM32F30x_StdPeriph_Driver/src/stm32f30x_dac.c ****   *          This parameter can be:
 314:/home/user/Desktop/STM32-Projekte/FH-Vertibot/src/STM32F30x_StdPeriph_Driver/src/stm32f30x_dac.c ****   *            @arg DAC_Wave_Noise: noise wave generation
 315:/home/user/Desktop/STM32-Projekte/FH-Vertibot/src/STM32F30x_StdPeriph_Driver/src/stm32f30x_dac.c ****   *            @arg DAC_Wave_Triangle: triangle wave generation
 316:/home/user/Desktop/STM32-Projekte/FH-Vertibot/src/STM32F30x_StdPeriph_Driver/src/stm32f30x_dac.c ****   * @param  NewState: new state of the selected DAC channel wave generation.
 317:/home/user/Desktop/STM32-Projekte/FH-Vertibot/src/STM32F30x_StdPeriph_Driver/src/stm32f30x_dac.c ****   *          This parameter can be: ENABLE or DISABLE.  
 318:/home/user/Desktop/STM32-Projekte/FH-Vertibot/src/STM32F30x_StdPeriph_Driver/src/stm32f30x_dac.c ****   * @retval None
 319:/home/user/Desktop/STM32-Projekte/FH-Vertibot/src/STM32F30x_StdPeriph_Driver/src/stm32f30x_dac.c ****   */
 320:/home/user/Desktop/STM32-Projekte/FH-Vertibot/src/STM32F30x_StdPeriph_Driver/src/stm32f30x_dac.c **** void DAC_WaveGenerationCmd(uint32_t DAC_Channel, uint32_t DAC_Wave, FunctionalState NewState)
 321:/home/user/Desktop/STM32-Projekte/FH-Vertibot/src/STM32F30x_StdPeriph_Driver/src/stm32f30x_dac.c **** {
 256              		.loc 1 321 0
 257              		.cfi_startproc
 258              		@ args = 0, pretend = 0, frame = 0
 259              		@ frame_needed = 0, uses_anonymous_args = 0
 260              		@ link register save eliminated.
 261              	.LVL21:
 262 00b4 054B     		ldr	r3, .L28
 263 00b6 01FA00F1 		lsl	r1, r1, r0
 264              	.LVL22:
 322:/home/user/Desktop/STM32-Projekte/FH-Vertibot/src/STM32F30x_StdPeriph_Driver/src/stm32f30x_dac.c ****   /* Check the parameters */
 323:/home/user/Desktop/STM32-Projekte/FH-Vertibot/src/STM32F30x_StdPeriph_Driver/src/stm32f30x_dac.c ****   assert_param(IS_DAC_CHANNEL(DAC_Channel));
 324:/home/user/Desktop/STM32-Projekte/FH-Vertibot/src/STM32F30x_StdPeriph_Driver/src/stm32f30x_dac.c ****   assert_param(IS_DAC_WAVE(DAC_Wave)); 
 325:/home/user/Desktop/STM32-Projekte/FH-Vertibot/src/STM32F30x_StdPeriph_Driver/src/stm32f30x_dac.c ****   assert_param(IS_FUNCTIONAL_STATE(NewState));
 326:/home/user/Desktop/STM32-Projekte/FH-Vertibot/src/STM32F30x_StdPeriph_Driver/src/stm32f30x_dac.c **** 
 327:/home/user/Desktop/STM32-Projekte/FH-Vertibot/src/STM32F30x_StdPeriph_Driver/src/stm32f30x_dac.c ****   if (NewState != DISABLE)
 265              		.loc 1 327 0
 266 00ba 12B1     		cbz	r2, .L25
 328:/home/user/Desktop/STM32-Projekte/FH-Vertibot/src/STM32F30x_StdPeriph_Driver/src/stm32f30x_dac.c ****   {
 329:/home/user/Desktop/STM32-Projekte/FH-Vertibot/src/STM32F30x_StdPeriph_Driver/src/stm32f30x_dac.c ****     /* Enable the selected wave generation for the selected DAC channel */
 330:/home/user/Desktop/STM32-Projekte/FH-Vertibot/src/STM32F30x_StdPeriph_Driver/src/stm32f30x_dac.c ****     DAC->CR |= DAC_Wave << DAC_Channel;
 267              		.loc 1 330 0
 268 00bc 1A68     		ldr	r2, [r3, #0]
 269              	.LVL23:
 270 00be 1143     		orrs	r1, r1, r2
 271 00c0 02E0     		b	.L27
 272              	.LVL24:
 273              	.L25:
 331:/home/user/Desktop/STM32-Projekte/FH-Vertibot/src/STM32F30x_StdPeriph_Driver/src/stm32f30x_dac.c ****   }
 332:/home/user/Desktop/STM32-Projekte/FH-Vertibot/src/STM32F30x_StdPeriph_Driver/src/stm32f30x_dac.c ****   else
 333:/home/user/Desktop/STM32-Projekte/FH-Vertibot/src/STM32F30x_StdPeriph_Driver/src/stm32f30x_dac.c ****   {
 334:/home/user/Desktop/STM32-Projekte/FH-Vertibot/src/STM32F30x_StdPeriph_Driver/src/stm32f30x_dac.c ****     /* Disable the selected wave generation for the selected DAC channel */
 335:/home/user/Desktop/STM32-Projekte/FH-Vertibot/src/STM32F30x_StdPeriph_Driver/src/stm32f30x_dac.c ****     DAC->CR &= ~(DAC_Wave << DAC_Channel);
 274              		.loc 1 335 0
 275 00c2 1A68     		ldr	r2, [r3, #0]
 276              	.LVL25:
 277 00c4 22EA0101 		bic	r1, r2, r1
 278              	.L27:
 279 00c8 1960     		str	r1, [r3, #0]
 280 00ca 7047     		bx	lr
 281              	.L29:
 282              		.align	2
 283              	.L28:
 284 00cc 00740040 		.word	1073771520
 285              		.cfi_endproc
 286              	.LFE117:
 288              		.align	1
 289              		.global	DAC_SetChannel1Data
 290              		.thumb
 291              		.thumb_func
 293              	DAC_SetChannel1Data:
 294              	.LFB118:
 336:/home/user/Desktop/STM32-Projekte/FH-Vertibot/src/STM32F30x_StdPeriph_Driver/src/stm32f30x_dac.c ****   }
 337:/home/user/Desktop/STM32-Projekte/FH-Vertibot/src/STM32F30x_StdPeriph_Driver/src/stm32f30x_dac.c **** }
 338:/home/user/Desktop/STM32-Projekte/FH-Vertibot/src/STM32F30x_StdPeriph_Driver/src/stm32f30x_dac.c **** 
 339:/home/user/Desktop/STM32-Projekte/FH-Vertibot/src/STM32F30x_StdPeriph_Driver/src/stm32f30x_dac.c **** /**
 340:/home/user/Desktop/STM32-Projekte/FH-Vertibot/src/STM32F30x_StdPeriph_Driver/src/stm32f30x_dac.c ****   * @brief  Sets the specified data holding register value for DAC channel1.
 341:/home/user/Desktop/STM32-Projekte/FH-Vertibot/src/STM32F30x_StdPeriph_Driver/src/stm32f30x_dac.c ****   * @param  DAC_Align: Specifies the data alignment for DAC channel1.
 342:/home/user/Desktop/STM32-Projekte/FH-Vertibot/src/STM32F30x_StdPeriph_Driver/src/stm32f30x_dac.c ****   *          This parameter can be:
 343:/home/user/Desktop/STM32-Projekte/FH-Vertibot/src/STM32F30x_StdPeriph_Driver/src/stm32f30x_dac.c ****   *            @arg DAC_Align_8b_R: 8bit right data alignment selected
 344:/home/user/Desktop/STM32-Projekte/FH-Vertibot/src/STM32F30x_StdPeriph_Driver/src/stm32f30x_dac.c ****   *            @arg DAC_Align_12b_L: 12bit left data alignment selected
 345:/home/user/Desktop/STM32-Projekte/FH-Vertibot/src/STM32F30x_StdPeriph_Driver/src/stm32f30x_dac.c ****   *            @arg DAC_Align_12b_R: 12bit right data alignment selected
 346:/home/user/Desktop/STM32-Projekte/FH-Vertibot/src/STM32F30x_StdPeriph_Driver/src/stm32f30x_dac.c ****   * @param  Data: Data to be loaded in the selected data holding register.
 347:/home/user/Desktop/STM32-Projekte/FH-Vertibot/src/STM32F30x_StdPeriph_Driver/src/stm32f30x_dac.c ****   * @retval None
 348:/home/user/Desktop/STM32-Projekte/FH-Vertibot/src/STM32F30x_StdPeriph_Driver/src/stm32f30x_dac.c ****   */
 349:/home/user/Desktop/STM32-Projekte/FH-Vertibot/src/STM32F30x_StdPeriph_Driver/src/stm32f30x_dac.c **** void DAC_SetChannel1Data(uint32_t DAC_Align, uint16_t Data)
 350:/home/user/Desktop/STM32-Projekte/FH-Vertibot/src/STM32F30x_StdPeriph_Driver/src/stm32f30x_dac.c **** {  
 295              		.loc 1 350 0
 296              		.cfi_startproc
 297              		@ args = 0, pretend = 0, frame = 8
 298              		@ frame_needed = 0, uses_anonymous_args = 0
 299              		@ link register save eliminated.
 300              	.LVL26:
 301 00d0 82B0     		sub	sp, sp, #8
 302              	.LCFI2:
 303              		.cfi_def_cfa_offset 8
 351:/home/user/Desktop/STM32-Projekte/FH-Vertibot/src/STM32F30x_StdPeriph_Driver/src/stm32f30x_dac.c ****   __IO uint32_t tmp = 0;
 304              		.loc 1 351 0
 305 00d2 0023     		movs	r3, #0
 306 00d4 0193     		str	r3, [sp, #4]
 307              	.LVL27:
 352:/home/user/Desktop/STM32-Projekte/FH-Vertibot/src/STM32F30x_StdPeriph_Driver/src/stm32f30x_dac.c ****   
 353:/home/user/Desktop/STM32-Projekte/FH-Vertibot/src/STM32F30x_StdPeriph_Driver/src/stm32f30x_dac.c ****   /* Check the parameters */
 354:/home/user/Desktop/STM32-Projekte/FH-Vertibot/src/STM32F30x_StdPeriph_Driver/src/stm32f30x_dac.c ****   assert_param(IS_DAC_ALIGN(DAC_Align));
 355:/home/user/Desktop/STM32-Projekte/FH-Vertibot/src/STM32F30x_StdPeriph_Driver/src/stm32f30x_dac.c ****   assert_param(IS_DAC_DATA(Data));
 356:/home/user/Desktop/STM32-Projekte/FH-Vertibot/src/STM32F30x_StdPeriph_Driver/src/stm32f30x_dac.c ****   
 357:/home/user/Desktop/STM32-Projekte/FH-Vertibot/src/STM32F30x_StdPeriph_Driver/src/stm32f30x_dac.c ****   tmp = (uint32_t)DAC_BASE; 
 308              		.loc 1 357 0
 309 00d6 054B     		ldr	r3, .L31
 310 00d8 0193     		str	r3, [sp, #4]
 358:/home/user/Desktop/STM32-Projekte/FH-Vertibot/src/STM32F30x_StdPeriph_Driver/src/stm32f30x_dac.c ****   tmp += DHR12R1_OFFSET + DAC_Align;
 311              		.loc 1 358 0
 312 00da 019B     		ldr	r3, [sp, #4]
 313 00dc 0833     		adds	r3, r3, #8
 314 00de 1818     		adds	r0, r3, r0
 315              	.LVL28:
 316 00e0 0190     		str	r0, [sp, #4]
 317              	.LVL29:
 359:/home/user/Desktop/STM32-Projekte/FH-Vertibot/src/STM32F30x_StdPeriph_Driver/src/stm32f30x_dac.c **** 
 360:/home/user/Desktop/STM32-Projekte/FH-Vertibot/src/STM32F30x_StdPeriph_Driver/src/stm32f30x_dac.c ****   /* Set the DAC channel1 selected data holding register */
 361:/home/user/Desktop/STM32-Projekte/FH-Vertibot/src/STM32F30x_StdPeriph_Driver/src/stm32f30x_dac.c ****   *(__IO uint32_t *) tmp = Data;
 318              		.loc 1 361 0
 319 00e2 019B     		ldr	r3, [sp, #4]
 320 00e4 1960     		str	r1, [r3, #0]
 362:/home/user/Desktop/STM32-Projekte/FH-Vertibot/src/STM32F30x_StdPeriph_Driver/src/stm32f30x_dac.c **** }
 321              		.loc 1 362 0
 322 00e6 02B0     		add	sp, sp, #8
 323 00e8 7047     		bx	lr
 324              	.L32:
 325 00ea 00BF     		.align	2
 326              	.L31:
 327 00ec 00740040 		.word	1073771520
 328              		.cfi_endproc
 329              	.LFE118:
 331              		.align	1
 332              		.global	DAC_SetChannel2Data
 333              		.thumb
 334              		.thumb_func
 336              	DAC_SetChannel2Data:
 337              	.LFB119:
 363:/home/user/Desktop/STM32-Projekte/FH-Vertibot/src/STM32F30x_StdPeriph_Driver/src/stm32f30x_dac.c **** 
 364:/home/user/Desktop/STM32-Projekte/FH-Vertibot/src/STM32F30x_StdPeriph_Driver/src/stm32f30x_dac.c **** /**
 365:/home/user/Desktop/STM32-Projekte/FH-Vertibot/src/STM32F30x_StdPeriph_Driver/src/stm32f30x_dac.c ****   * @brief  Sets the specified data holding register value for DAC channel2.
 366:/home/user/Desktop/STM32-Projekte/FH-Vertibot/src/STM32F30x_StdPeriph_Driver/src/stm32f30x_dac.c ****   * @param  DAC_Align: Specifies the data alignment for DAC channel2.
 367:/home/user/Desktop/STM32-Projekte/FH-Vertibot/src/STM32F30x_StdPeriph_Driver/src/stm32f30x_dac.c ****   *          This parameter can be:
 368:/home/user/Desktop/STM32-Projekte/FH-Vertibot/src/STM32F30x_StdPeriph_Driver/src/stm32f30x_dac.c ****   *            @arg DAC_Align_8b_R: 8bit right data alignment selected
 369:/home/user/Desktop/STM32-Projekte/FH-Vertibot/src/STM32F30x_StdPeriph_Driver/src/stm32f30x_dac.c ****   *            @arg DAC_Align_12b_L: 12bit left data alignment selected
 370:/home/user/Desktop/STM32-Projekte/FH-Vertibot/src/STM32F30x_StdPeriph_Driver/src/stm32f30x_dac.c ****   *            @arg DAC_Align_12b_R: 12bit right data alignment selected
 371:/home/user/Desktop/STM32-Projekte/FH-Vertibot/src/STM32F30x_StdPeriph_Driver/src/stm32f30x_dac.c ****   * @param  Data: Data to be loaded in the selected data holding register.
 372:/home/user/Desktop/STM32-Projekte/FH-Vertibot/src/STM32F30x_StdPeriph_Driver/src/stm32f30x_dac.c ****   * @retval None
 373:/home/user/Desktop/STM32-Projekte/FH-Vertibot/src/STM32F30x_StdPeriph_Driver/src/stm32f30x_dac.c ****   */
 374:/home/user/Desktop/STM32-Projekte/FH-Vertibot/src/STM32F30x_StdPeriph_Driver/src/stm32f30x_dac.c **** void DAC_SetChannel2Data(uint32_t DAC_Align, uint16_t Data)
 375:/home/user/Desktop/STM32-Projekte/FH-Vertibot/src/STM32F30x_StdPeriph_Driver/src/stm32f30x_dac.c **** {
 338              		.loc 1 375 0
 339              		.cfi_startproc
 340              		@ args = 0, pretend = 0, frame = 8
 341              		@ frame_needed = 0, uses_anonymous_args = 0
 342              		@ link register save eliminated.
 343              	.LVL30:
 344 00f0 82B0     		sub	sp, sp, #8
 345              	.LCFI3:
 346              		.cfi_def_cfa_offset 8
 376:/home/user/Desktop/STM32-Projekte/FH-Vertibot/src/STM32F30x_StdPeriph_Driver/src/stm32f30x_dac.c ****   __IO uint32_t tmp = 0;
 347              		.loc 1 376 0
 348 00f2 0023     		movs	r3, #0
 349 00f4 0193     		str	r3, [sp, #4]
 350              	.LVL31:
 377:/home/user/Desktop/STM32-Projekte/FH-Vertibot/src/STM32F30x_StdPeriph_Driver/src/stm32f30x_dac.c **** 
 378:/home/user/Desktop/STM32-Projekte/FH-Vertibot/src/STM32F30x_StdPeriph_Driver/src/stm32f30x_dac.c ****   /* Check the parameters */
 379:/home/user/Desktop/STM32-Projekte/FH-Vertibot/src/STM32F30x_StdPeriph_Driver/src/stm32f30x_dac.c ****   assert_param(IS_DAC_ALIGN(DAC_Align));
 380:/home/user/Desktop/STM32-Projekte/FH-Vertibot/src/STM32F30x_StdPeriph_Driver/src/stm32f30x_dac.c ****   assert_param(IS_DAC_DATA(Data));
 381:/home/user/Desktop/STM32-Projekte/FH-Vertibot/src/STM32F30x_StdPeriph_Driver/src/stm32f30x_dac.c ****   
 382:/home/user/Desktop/STM32-Projekte/FH-Vertibot/src/STM32F30x_StdPeriph_Driver/src/stm32f30x_dac.c ****   tmp = (uint32_t)DAC_BASE;
 351              		.loc 1 382 0
 352 00f6 054B     		ldr	r3, .L34
 353 00f8 0193     		str	r3, [sp, #4]
 383:/home/user/Desktop/STM32-Projekte/FH-Vertibot/src/STM32F30x_StdPeriph_Driver/src/stm32f30x_dac.c ****   tmp += DHR12R2_OFFSET + DAC_Align;
 354              		.loc 1 383 0
 355 00fa 019B     		ldr	r3, [sp, #4]
 356 00fc 1433     		adds	r3, r3, #20
 357 00fe 1818     		adds	r0, r3, r0
 358              	.LVL32:
 359 0100 0190     		str	r0, [sp, #4]
 360              	.LVL33:
 384:/home/user/Desktop/STM32-Projekte/FH-Vertibot/src/STM32F30x_StdPeriph_Driver/src/stm32f30x_dac.c **** 
 385:/home/user/Desktop/STM32-Projekte/FH-Vertibot/src/STM32F30x_StdPeriph_Driver/src/stm32f30x_dac.c ****   /* Set the DAC channel2 selected data holding register */
 386:/home/user/Desktop/STM32-Projekte/FH-Vertibot/src/STM32F30x_StdPeriph_Driver/src/stm32f30x_dac.c ****   *(__IO uint32_t *)tmp = Data;
 361              		.loc 1 386 0
 362 0102 019B     		ldr	r3, [sp, #4]
 363 0104 1960     		str	r1, [r3, #0]
 387:/home/user/Desktop/STM32-Projekte/FH-Vertibot/src/STM32F30x_StdPeriph_Driver/src/stm32f30x_dac.c **** }
 364              		.loc 1 387 0
 365 0106 02B0     		add	sp, sp, #8
 366 0108 7047     		bx	lr
 367              	.L35:
 368 010a 00BF     		.align	2
 369              	.L34:
 370 010c 00740040 		.word	1073771520
 371              		.cfi_endproc
 372              	.LFE119:
 374              		.align	1
 375              		.global	DAC_SetDualChannelData
 376              		.thumb
 377              		.thumb_func
 379              	DAC_SetDualChannelData:
 380              	.LFB120:
 388:/home/user/Desktop/STM32-Projekte/FH-Vertibot/src/STM32F30x_StdPeriph_Driver/src/stm32f30x_dac.c **** 
 389:/home/user/Desktop/STM32-Projekte/FH-Vertibot/src/STM32F30x_StdPeriph_Driver/src/stm32f30x_dac.c **** /**
 390:/home/user/Desktop/STM32-Projekte/FH-Vertibot/src/STM32F30x_StdPeriph_Driver/src/stm32f30x_dac.c ****   * @brief  Sets the specified data holding register value for dual channel DAC.
 391:/home/user/Desktop/STM32-Projekte/FH-Vertibot/src/STM32F30x_StdPeriph_Driver/src/stm32f30x_dac.c ****   * @param  DAC_Align: Specifies the data alignment for dual channel DAC.
 392:/home/user/Desktop/STM32-Projekte/FH-Vertibot/src/STM32F30x_StdPeriph_Driver/src/stm32f30x_dac.c ****   *          This parameter can be:
 393:/home/user/Desktop/STM32-Projekte/FH-Vertibot/src/STM32F30x_StdPeriph_Driver/src/stm32f30x_dac.c ****   *            @arg DAC_Align_8b_R: 8bit right data alignment selected
 394:/home/user/Desktop/STM32-Projekte/FH-Vertibot/src/STM32F30x_StdPeriph_Driver/src/stm32f30x_dac.c ****   *            @arg DAC_Align_12b_L: 12bit left data alignment selected
 395:/home/user/Desktop/STM32-Projekte/FH-Vertibot/src/STM32F30x_StdPeriph_Driver/src/stm32f30x_dac.c ****   *            @arg DAC_Align_12b_R: 12bit right data alignment selected
 396:/home/user/Desktop/STM32-Projekte/FH-Vertibot/src/STM32F30x_StdPeriph_Driver/src/stm32f30x_dac.c ****   * @param  Data2: Data for DAC Channel2 to be loaded in the selected data holding register.
 397:/home/user/Desktop/STM32-Projekte/FH-Vertibot/src/STM32F30x_StdPeriph_Driver/src/stm32f30x_dac.c ****   * @param  Data1: Data for DAC Channel1 to be loaded in the selected data  holding register.
 398:/home/user/Desktop/STM32-Projekte/FH-Vertibot/src/STM32F30x_StdPeriph_Driver/src/stm32f30x_dac.c ****   * @note   In dual mode, a unique register access is required to write in both
 399:/home/user/Desktop/STM32-Projekte/FH-Vertibot/src/STM32F30x_StdPeriph_Driver/src/stm32f30x_dac.c ****   *          DAC channels at the same time.
 400:/home/user/Desktop/STM32-Projekte/FH-Vertibot/src/STM32F30x_StdPeriph_Driver/src/stm32f30x_dac.c ****   * @retval None
 401:/home/user/Desktop/STM32-Projekte/FH-Vertibot/src/STM32F30x_StdPeriph_Driver/src/stm32f30x_dac.c ****   */
 402:/home/user/Desktop/STM32-Projekte/FH-Vertibot/src/STM32F30x_StdPeriph_Driver/src/stm32f30x_dac.c **** void DAC_SetDualChannelData(uint32_t DAC_Align, uint16_t Data2, uint16_t Data1)
 403:/home/user/Desktop/STM32-Projekte/FH-Vertibot/src/STM32F30x_StdPeriph_Driver/src/stm32f30x_dac.c **** {
 381              		.loc 1 403 0
 382              		.cfi_startproc
 383              		@ args = 0, pretend = 0, frame = 0
 384              		@ frame_needed = 0, uses_anonymous_args = 0
 385              		@ link register save eliminated.
 386              	.LVL34:
 404:/home/user/Desktop/STM32-Projekte/FH-Vertibot/src/STM32F30x_StdPeriph_Driver/src/stm32f30x_dac.c ****   uint32_t data = 0, tmp = 0;
 405:/home/user/Desktop/STM32-Projekte/FH-Vertibot/src/STM32F30x_StdPeriph_Driver/src/stm32f30x_dac.c ****   
 406:/home/user/Desktop/STM32-Projekte/FH-Vertibot/src/STM32F30x_StdPeriph_Driver/src/stm32f30x_dac.c ****   /* Check the parameters */
 407:/home/user/Desktop/STM32-Projekte/FH-Vertibot/src/STM32F30x_StdPeriph_Driver/src/stm32f30x_dac.c ****   assert_param(IS_DAC_ALIGN(DAC_Align));
 408:/home/user/Desktop/STM32-Projekte/FH-Vertibot/src/STM32F30x_StdPeriph_Driver/src/stm32f30x_dac.c ****   assert_param(IS_DAC_DATA(Data1));
 409:/home/user/Desktop/STM32-Projekte/FH-Vertibot/src/STM32F30x_StdPeriph_Driver/src/stm32f30x_dac.c ****   assert_param(IS_DAC_DATA(Data2));
 410:/home/user/Desktop/STM32-Projekte/FH-Vertibot/src/STM32F30x_StdPeriph_Driver/src/stm32f30x_dac.c ****   
 411:/home/user/Desktop/STM32-Projekte/FH-Vertibot/src/STM32F30x_StdPeriph_Driver/src/stm32f30x_dac.c ****   /* Calculate and set dual DAC data holding register value */
 412:/home/user/Desktop/STM32-Projekte/FH-Vertibot/src/STM32F30x_StdPeriph_Driver/src/stm32f30x_dac.c ****   if (DAC_Align == DAC_Align_8b_R)
 387              		.loc 1 412 0
 388 0110 0828     		cmp	r0, #8
 413:/home/user/Desktop/STM32-Projekte/FH-Vertibot/src/STM32F30x_StdPeriph_Driver/src/stm32f30x_dac.c ****   {
 414:/home/user/Desktop/STM32-Projekte/FH-Vertibot/src/STM32F30x_StdPeriph_Driver/src/stm32f30x_dac.c ****     data = ((uint32_t)Data2 << 8) | Data1; 
 415:/home/user/Desktop/STM32-Projekte/FH-Vertibot/src/STM32F30x_StdPeriph_Driver/src/stm32f30x_dac.c ****   }
 416:/home/user/Desktop/STM32-Projekte/FH-Vertibot/src/STM32F30x_StdPeriph_Driver/src/stm32f30x_dac.c ****   else
 417:/home/user/Desktop/STM32-Projekte/FH-Vertibot/src/STM32F30x_StdPeriph_Driver/src/stm32f30x_dac.c ****   {
 418:/home/user/Desktop/STM32-Projekte/FH-Vertibot/src/STM32F30x_StdPeriph_Driver/src/stm32f30x_dac.c ****     data = ((uint32_t)Data2 << 16) | Data1;
 419:/home/user/Desktop/STM32-Projekte/FH-Vertibot/src/STM32F30x_StdPeriph_Driver/src/stm32f30x_dac.c ****   }
 420:/home/user/Desktop/STM32-Projekte/FH-Vertibot/src/STM32F30x_StdPeriph_Driver/src/stm32f30x_dac.c ****   
 421:/home/user/Desktop/STM32-Projekte/FH-Vertibot/src/STM32F30x_StdPeriph_Driver/src/stm32f30x_dac.c ****   tmp = (uint32_t)DAC_BASE;
 422:/home/user/Desktop/STM32-Projekte/FH-Vertibot/src/STM32F30x_StdPeriph_Driver/src/stm32f30x_dac.c ****   tmp += DHR12RD_OFFSET + DAC_Align;
 389              		.loc 1 422 0
 390 0112 044B     		ldr	r3, .L39
 414:/home/user/Desktop/STM32-Projekte/FH-Vertibot/src/STM32F30x_StdPeriph_Driver/src/stm32f30x_dac.c ****     data = ((uint32_t)Data2 << 8) | Data1; 
 391              		.loc 1 414 0
 392 0114 0CBF     		ite	eq
 393 0116 42EA0121 		orreq	r1, r2, r1, lsl #8
 394              	.LVL35:
 418:/home/user/Desktop/STM32-Projekte/FH-Vertibot/src/STM32F30x_StdPeriph_Driver/src/stm32f30x_dac.c ****     data = ((uint32_t)Data2 << 16) | Data1;
 395              		.loc 1 418 0
 396 011a 42EA0141 		orrne	r1, r2, r1, lsl #16
 397              	.LVL36:
 423:/home/user/Desktop/STM32-Projekte/FH-Vertibot/src/STM32F30x_StdPeriph_Driver/src/stm32f30x_dac.c **** 
 424:/home/user/Desktop/STM32-Projekte/FH-Vertibot/src/STM32F30x_StdPeriph_Driver/src/stm32f30x_dac.c ****   /* Set the dual DAC selected data holding register */
 425:/home/user/Desktop/STM32-Projekte/FH-Vertibot/src/STM32F30x_StdPeriph_Driver/src/stm32f30x_dac.c ****   *(__IO uint32_t *)tmp = data;
 398              		.loc 1 425 0
 399 011e C150     		str	r1, [r0, r3]
 400 0120 7047     		bx	lr
 401              	.L40:
 402 0122 00BF     		.align	2
 403              	.L39:
 404 0124 20740040 		.word	1073771552
 405              		.cfi_endproc
 406              	.LFE120:
 408              		.align	1
 409              		.global	DAC_GetDataOutputValue
 410              		.thumb
 411              		.thumb_func
 413              	DAC_GetDataOutputValue:
 414              	.LFB121:
 426:/home/user/Desktop/STM32-Projekte/FH-Vertibot/src/STM32F30x_StdPeriph_Driver/src/stm32f30x_dac.c **** }
 427:/home/user/Desktop/STM32-Projekte/FH-Vertibot/src/STM32F30x_StdPeriph_Driver/src/stm32f30x_dac.c **** 
 428:/home/user/Desktop/STM32-Projekte/FH-Vertibot/src/STM32F30x_StdPeriph_Driver/src/stm32f30x_dac.c **** /**
 429:/home/user/Desktop/STM32-Projekte/FH-Vertibot/src/STM32F30x_StdPeriph_Driver/src/stm32f30x_dac.c ****   * @brief  Returns the last data output value of the selected DAC channel.
 430:/home/user/Desktop/STM32-Projekte/FH-Vertibot/src/STM32F30x_StdPeriph_Driver/src/stm32f30x_dac.c ****   * @param  DAC_Channel: The selected DAC channel. 
 431:/home/user/Desktop/STM32-Projekte/FH-Vertibot/src/STM32F30x_StdPeriph_Driver/src/stm32f30x_dac.c ****   *          This parameter can be:
 432:/home/user/Desktop/STM32-Projekte/FH-Vertibot/src/STM32F30x_StdPeriph_Driver/src/stm32f30x_dac.c ****   *            @arg DAC_Channel_1: DAC Channel1 selected
 433:/home/user/Desktop/STM32-Projekte/FH-Vertibot/src/STM32F30x_StdPeriph_Driver/src/stm32f30x_dac.c ****   *            @arg DAC_Channel_2: DAC Channel2 selected
 434:/home/user/Desktop/STM32-Projekte/FH-Vertibot/src/STM32F30x_StdPeriph_Driver/src/stm32f30x_dac.c ****   * @retval The selected DAC channel data output value.
 435:/home/user/Desktop/STM32-Projekte/FH-Vertibot/src/STM32F30x_StdPeriph_Driver/src/stm32f30x_dac.c ****   */
 436:/home/user/Desktop/STM32-Projekte/FH-Vertibot/src/STM32F30x_StdPeriph_Driver/src/stm32f30x_dac.c **** uint16_t DAC_GetDataOutputValue(uint32_t DAC_Channel)
 437:/home/user/Desktop/STM32-Projekte/FH-Vertibot/src/STM32F30x_StdPeriph_Driver/src/stm32f30x_dac.c **** {
 415              		.loc 1 437 0
 416              		.cfi_startproc
 417              		@ args = 0, pretend = 0, frame = 8
 418              		@ frame_needed = 0, uses_anonymous_args = 0
 419              		@ link register save eliminated.
 420              	.LVL37:
 421 0128 82B0     		sub	sp, sp, #8
 422              	.LCFI4:
 423              		.cfi_def_cfa_offset 8
 438:/home/user/Desktop/STM32-Projekte/FH-Vertibot/src/STM32F30x_StdPeriph_Driver/src/stm32f30x_dac.c ****   __IO uint32_t tmp = 0;
 424              		.loc 1 438 0
 425 012a 0023     		movs	r3, #0
 426 012c 0193     		str	r3, [sp, #4]
 427              	.LVL38:
 439:/home/user/Desktop/STM32-Projekte/FH-Vertibot/src/STM32F30x_StdPeriph_Driver/src/stm32f30x_dac.c ****   
 440:/home/user/Desktop/STM32-Projekte/FH-Vertibot/src/STM32F30x_StdPeriph_Driver/src/stm32f30x_dac.c ****   /* Check the parameters */
 441:/home/user/Desktop/STM32-Projekte/FH-Vertibot/src/STM32F30x_StdPeriph_Driver/src/stm32f30x_dac.c ****   assert_param(IS_DAC_CHANNEL(DAC_Channel));
 442:/home/user/Desktop/STM32-Projekte/FH-Vertibot/src/STM32F30x_StdPeriph_Driver/src/stm32f30x_dac.c ****   
 443:/home/user/Desktop/STM32-Projekte/FH-Vertibot/src/STM32F30x_StdPeriph_Driver/src/stm32f30x_dac.c ****   tmp = (uint32_t) DAC_BASE ;
 428              		.loc 1 443 0
 429 012e 064B     		ldr	r3, .L42
 430 0130 0193     		str	r3, [sp, #4]
 444:/home/user/Desktop/STM32-Projekte/FH-Vertibot/src/STM32F30x_StdPeriph_Driver/src/stm32f30x_dac.c ****   tmp += DOR_OFFSET + ((uint32_t)DAC_Channel >> 2);
 431              		.loc 1 444 0
 432 0132 019B     		ldr	r3, [sp, #4]
 433 0134 2C33     		adds	r3, r3, #44
 434 0136 03EB9000 		add	r0, r3, r0, lsr #2
 435              	.LVL39:
 436 013a 0190     		str	r0, [sp, #4]
 437              	.LVL40:
 445:/home/user/Desktop/STM32-Projekte/FH-Vertibot/src/STM32F30x_StdPeriph_Driver/src/stm32f30x_dac.c ****   
 446:/home/user/Desktop/STM32-Projekte/FH-Vertibot/src/STM32F30x_StdPeriph_Driver/src/stm32f30x_dac.c ****   /* Returns the DAC channel data output register value */
 447:/home/user/Desktop/STM32-Projekte/FH-Vertibot/src/STM32F30x_StdPeriph_Driver/src/stm32f30x_dac.c ****   return (uint16_t) (*(__IO uint32_t*) tmp);
 438              		.loc 1 447 0
 439 013c 019B     		ldr	r3, [sp, #4]
 440 013e 1868     		ldr	r0, [r3, #0]
 441              	.LVL41:
 448:/home/user/Desktop/STM32-Projekte/FH-Vertibot/src/STM32F30x_StdPeriph_Driver/src/stm32f30x_dac.c **** }
 442              		.loc 1 448 0
 443 0140 80B2     		uxth	r0, r0
 444 0142 02B0     		add	sp, sp, #8
 445 0144 7047     		bx	lr
 446              	.L43:
 447 0146 00BF     		.align	2
 448              	.L42:
 449 0148 00740040 		.word	1073771520
 450              		.cfi_endproc
 451              	.LFE121:
 453              		.align	1
 454              		.global	DAC_DMACmd
 455              		.thumb
 456              		.thumb_func
 458              	DAC_DMACmd:
 459              	.LFB122:
 449:/home/user/Desktop/STM32-Projekte/FH-Vertibot/src/STM32F30x_StdPeriph_Driver/src/stm32f30x_dac.c **** /**
 450:/home/user/Desktop/STM32-Projekte/FH-Vertibot/src/STM32F30x_StdPeriph_Driver/src/stm32f30x_dac.c ****   * @}
 451:/home/user/Desktop/STM32-Projekte/FH-Vertibot/src/STM32F30x_StdPeriph_Driver/src/stm32f30x_dac.c ****   */
 452:/home/user/Desktop/STM32-Projekte/FH-Vertibot/src/STM32F30x_StdPeriph_Driver/src/stm32f30x_dac.c **** 
 453:/home/user/Desktop/STM32-Projekte/FH-Vertibot/src/STM32F30x_StdPeriph_Driver/src/stm32f30x_dac.c **** /** @defgroup DAC_Group2 DMA management functions
 454:/home/user/Desktop/STM32-Projekte/FH-Vertibot/src/STM32F30x_StdPeriph_Driver/src/stm32f30x_dac.c ****  *  @brief   DMA management functions
 455:/home/user/Desktop/STM32-Projekte/FH-Vertibot/src/STM32F30x_StdPeriph_Driver/src/stm32f30x_dac.c ****  *
 456:/home/user/Desktop/STM32-Projekte/FH-Vertibot/src/STM32F30x_StdPeriph_Driver/src/stm32f30x_dac.c **** @verbatim   
 457:/home/user/Desktop/STM32-Projekte/FH-Vertibot/src/STM32F30x_StdPeriph_Driver/src/stm32f30x_dac.c ****  ===============================================================================
 458:/home/user/Desktop/STM32-Projekte/FH-Vertibot/src/STM32F30x_StdPeriph_Driver/src/stm32f30x_dac.c ****                     ##### DMA management functions #####
 459:/home/user/Desktop/STM32-Projekte/FH-Vertibot/src/STM32F30x_StdPeriph_Driver/src/stm32f30x_dac.c ****  ===============================================================================  
 460:/home/user/Desktop/STM32-Projekte/FH-Vertibot/src/STM32F30x_StdPeriph_Driver/src/stm32f30x_dac.c **** 
 461:/home/user/Desktop/STM32-Projekte/FH-Vertibot/src/STM32F30x_StdPeriph_Driver/src/stm32f30x_dac.c **** @endverbatim
 462:/home/user/Desktop/STM32-Projekte/FH-Vertibot/src/STM32F30x_StdPeriph_Driver/src/stm32f30x_dac.c ****   * @{
 463:/home/user/Desktop/STM32-Projekte/FH-Vertibot/src/STM32F30x_StdPeriph_Driver/src/stm32f30x_dac.c ****   */
 464:/home/user/Desktop/STM32-Projekte/FH-Vertibot/src/STM32F30x_StdPeriph_Driver/src/stm32f30x_dac.c **** 
 465:/home/user/Desktop/STM32-Projekte/FH-Vertibot/src/STM32F30x_StdPeriph_Driver/src/stm32f30x_dac.c **** /**
 466:/home/user/Desktop/STM32-Projekte/FH-Vertibot/src/STM32F30x_StdPeriph_Driver/src/stm32f30x_dac.c ****   * @brief  Enables or disables the specified DAC channel DMA request.
 467:/home/user/Desktop/STM32-Projekte/FH-Vertibot/src/STM32F30x_StdPeriph_Driver/src/stm32f30x_dac.c ****   * @note   When enabled DMA1 is generated when an external trigger (EXTI Line9,
 468:/home/user/Desktop/STM32-Projekte/FH-Vertibot/src/STM32F30x_StdPeriph_Driver/src/stm32f30x_dac.c ****   *         TIM2, TIM4, TIM5, TIM6, TIM7 or TIM8  but not a software trigger) occurs.
 469:/home/user/Desktop/STM32-Projekte/FH-Vertibot/src/STM32F30x_StdPeriph_Driver/src/stm32f30x_dac.c ****   * @param  DAC_Channel: The selected DAC channel. 
 470:/home/user/Desktop/STM32-Projekte/FH-Vertibot/src/STM32F30x_StdPeriph_Driver/src/stm32f30x_dac.c ****   *          This parameter can be:
 471:/home/user/Desktop/STM32-Projekte/FH-Vertibot/src/STM32F30x_StdPeriph_Driver/src/stm32f30x_dac.c ****   *            @arg DAC_Channel_1: DAC Channel1 selected
 472:/home/user/Desktop/STM32-Projekte/FH-Vertibot/src/STM32F30x_StdPeriph_Driver/src/stm32f30x_dac.c ****   *            @arg DAC_Channel_2: DAC Channel2 selected
 473:/home/user/Desktop/STM32-Projekte/FH-Vertibot/src/STM32F30x_StdPeriph_Driver/src/stm32f30x_dac.c ****   * @param  NewState: new state of the selected DAC channel DMA request.
 474:/home/user/Desktop/STM32-Projekte/FH-Vertibot/src/STM32F30x_StdPeriph_Driver/src/stm32f30x_dac.c ****   *          This parameter can be: ENABLE or DISABLE.
 475:/home/user/Desktop/STM32-Projekte/FH-Vertibot/src/STM32F30x_StdPeriph_Driver/src/stm32f30x_dac.c ****   * @note   The DAC channel1 is mapped on DMA1 channel3 which must be
 476:/home/user/Desktop/STM32-Projekte/FH-Vertibot/src/STM32F30x_StdPeriph_Driver/src/stm32f30x_dac.c ****   *          already configured.
 477:/home/user/Desktop/STM32-Projekte/FH-Vertibot/src/STM32F30x_StdPeriph_Driver/src/stm32f30x_dac.c ****   * @note   The DAC channel2 is mapped on DMA1 channel4 which must be
 478:/home/user/Desktop/STM32-Projekte/FH-Vertibot/src/STM32F30x_StdPeriph_Driver/src/stm32f30x_dac.c ****   *          already configured.    
 479:/home/user/Desktop/STM32-Projekte/FH-Vertibot/src/STM32F30x_StdPeriph_Driver/src/stm32f30x_dac.c ****   * @retval None
 480:/home/user/Desktop/STM32-Projekte/FH-Vertibot/src/STM32F30x_StdPeriph_Driver/src/stm32f30x_dac.c ****   */
 481:/home/user/Desktop/STM32-Projekte/FH-Vertibot/src/STM32F30x_StdPeriph_Driver/src/stm32f30x_dac.c **** void DAC_DMACmd(uint32_t DAC_Channel, FunctionalState NewState)
 482:/home/user/Desktop/STM32-Projekte/FH-Vertibot/src/STM32F30x_StdPeriph_Driver/src/stm32f30x_dac.c **** {
 460              		.loc 1 482 0
 461              		.cfi_startproc
 462              		@ args = 0, pretend = 0, frame = 0
 463              		@ frame_needed = 0, uses_anonymous_args = 0
 464              		@ link register save eliminated.
 465              	.LVL42:
 466 014c 074B     		ldr	r3, .L48
 467 014e 4FF48052 		mov	r2, #4096
 483:/home/user/Desktop/STM32-Projekte/FH-Vertibot/src/STM32F30x_StdPeriph_Driver/src/stm32f30x_dac.c ****   /* Check the parameters */
 484:/home/user/Desktop/STM32-Projekte/FH-Vertibot/src/STM32F30x_StdPeriph_Driver/src/stm32f30x_dac.c ****   assert_param(IS_DAC_CHANNEL(DAC_Channel));
 485:/home/user/Desktop/STM32-Projekte/FH-Vertibot/src/STM32F30x_StdPeriph_Driver/src/stm32f30x_dac.c ****   assert_param(IS_FUNCTIONAL_STATE(NewState));
 486:/home/user/Desktop/STM32-Projekte/FH-Vertibot/src/STM32F30x_StdPeriph_Driver/src/stm32f30x_dac.c **** 
 487:/home/user/Desktop/STM32-Projekte/FH-Vertibot/src/STM32F30x_StdPeriph_Driver/src/stm32f30x_dac.c ****   if (NewState != DISABLE)
 468              		.loc 1 487 0
 469 0152 21B1     		cbz	r1, .L45
 488:/home/user/Desktop/STM32-Projekte/FH-Vertibot/src/STM32F30x_StdPeriph_Driver/src/stm32f30x_dac.c ****   {
 489:/home/user/Desktop/STM32-Projekte/FH-Vertibot/src/STM32F30x_StdPeriph_Driver/src/stm32f30x_dac.c ****     /* Enable the selected DAC channel DMA request */
 490:/home/user/Desktop/STM32-Projekte/FH-Vertibot/src/STM32F30x_StdPeriph_Driver/src/stm32f30x_dac.c ****     DAC->CR |= (DAC_CR_DMAEN1 << DAC_Channel);
 470              		.loc 1 490 0
 471 0154 1968     		ldr	r1, [r3, #0]
 472              	.LVL43:
 473 0156 02FA00F2 		lsl	r2, r2, r0
 474 015a 0A43     		orrs	r2, r2, r1
 475 015c 04E0     		b	.L47
 476              	.LVL44:
 477              	.L45:
 491:/home/user/Desktop/STM32-Projekte/FH-Vertibot/src/STM32F30x_StdPeriph_Driver/src/stm32f30x_dac.c ****   }
 492:/home/user/Desktop/STM32-Projekte/FH-Vertibot/src/STM32F30x_StdPeriph_Driver/src/stm32f30x_dac.c ****   else
 493:/home/user/Desktop/STM32-Projekte/FH-Vertibot/src/STM32F30x_StdPeriph_Driver/src/stm32f30x_dac.c ****   {
 494:/home/user/Desktop/STM32-Projekte/FH-Vertibot/src/STM32F30x_StdPeriph_Driver/src/stm32f30x_dac.c ****     /* Disable the selected DAC channel DMA request */
 495:/home/user/Desktop/STM32-Projekte/FH-Vertibot/src/STM32F30x_StdPeriph_Driver/src/stm32f30x_dac.c ****     DAC->CR &= (~(DAC_CR_DMAEN1 << DAC_Channel));
 478              		.loc 1 495 0
 479 015e 1968     		ldr	r1, [r3, #0]
 480              	.LVL45:
 481 0160 02FA00F2 		lsl	r2, r2, r0
 482 0164 21EA0202 		bic	r2, r1, r2
 483              	.L47:
 484 0168 1A60     		str	r2, [r3, #0]
 485 016a 7047     		bx	lr
 486              	.L49:
 487              		.align	2
 488              	.L48:
 489 016c 00740040 		.word	1073771520
 490              		.cfi_endproc
 491              	.LFE122:
 493              		.align	1
 494              		.global	DAC_ITConfig
 495              		.thumb
 496              		.thumb_func
 498              	DAC_ITConfig:
 499              	.LFB123:
 496:/home/user/Desktop/STM32-Projekte/FH-Vertibot/src/STM32F30x_StdPeriph_Driver/src/stm32f30x_dac.c ****   }
 497:/home/user/Desktop/STM32-Projekte/FH-Vertibot/src/STM32F30x_StdPeriph_Driver/src/stm32f30x_dac.c **** }
 498:/home/user/Desktop/STM32-Projekte/FH-Vertibot/src/STM32F30x_StdPeriph_Driver/src/stm32f30x_dac.c **** /**
 499:/home/user/Desktop/STM32-Projekte/FH-Vertibot/src/STM32F30x_StdPeriph_Driver/src/stm32f30x_dac.c ****   * @}
 500:/home/user/Desktop/STM32-Projekte/FH-Vertibot/src/STM32F30x_StdPeriph_Driver/src/stm32f30x_dac.c ****   */
 501:/home/user/Desktop/STM32-Projekte/FH-Vertibot/src/STM32F30x_StdPeriph_Driver/src/stm32f30x_dac.c **** 
 502:/home/user/Desktop/STM32-Projekte/FH-Vertibot/src/STM32F30x_StdPeriph_Driver/src/stm32f30x_dac.c **** /** @defgroup DAC_Group3 Interrupts and flags management functions
 503:/home/user/Desktop/STM32-Projekte/FH-Vertibot/src/STM32F30x_StdPeriph_Driver/src/stm32f30x_dac.c ****  *  @brief   Interrupts and flags management functions
 504:/home/user/Desktop/STM32-Projekte/FH-Vertibot/src/STM32F30x_StdPeriph_Driver/src/stm32f30x_dac.c ****  *
 505:/home/user/Desktop/STM32-Projekte/FH-Vertibot/src/STM32F30x_StdPeriph_Driver/src/stm32f30x_dac.c **** @verbatim   
 506:/home/user/Desktop/STM32-Projekte/FH-Vertibot/src/STM32F30x_StdPeriph_Driver/src/stm32f30x_dac.c ****  ===============================================================================
 507:/home/user/Desktop/STM32-Projekte/FH-Vertibot/src/STM32F30x_StdPeriph_Driver/src/stm32f30x_dac.c ****               ##### Interrupts and flags management functions #####
 508:/home/user/Desktop/STM32-Projekte/FH-Vertibot/src/STM32F30x_StdPeriph_Driver/src/stm32f30x_dac.c ****  ===============================================================================  
 509:/home/user/Desktop/STM32-Projekte/FH-Vertibot/src/STM32F30x_StdPeriph_Driver/src/stm32f30x_dac.c **** 
 510:/home/user/Desktop/STM32-Projekte/FH-Vertibot/src/STM32F30x_StdPeriph_Driver/src/stm32f30x_dac.c **** @endverbatim
 511:/home/user/Desktop/STM32-Projekte/FH-Vertibot/src/STM32F30x_StdPeriph_Driver/src/stm32f30x_dac.c ****   * @{
 512:/home/user/Desktop/STM32-Projekte/FH-Vertibot/src/STM32F30x_StdPeriph_Driver/src/stm32f30x_dac.c ****   */
 513:/home/user/Desktop/STM32-Projekte/FH-Vertibot/src/STM32F30x_StdPeriph_Driver/src/stm32f30x_dac.c **** 
 514:/home/user/Desktop/STM32-Projekte/FH-Vertibot/src/STM32F30x_StdPeriph_Driver/src/stm32f30x_dac.c **** /**
 515:/home/user/Desktop/STM32-Projekte/FH-Vertibot/src/STM32F30x_StdPeriph_Driver/src/stm32f30x_dac.c ****   * @brief  Enables or disables the specified DAC interrupts.
 516:/home/user/Desktop/STM32-Projekte/FH-Vertibot/src/STM32F30x_StdPeriph_Driver/src/stm32f30x_dac.c ****   * @param  DAC_Channel: The selected DAC channel. 
 517:/home/user/Desktop/STM32-Projekte/FH-Vertibot/src/STM32F30x_StdPeriph_Driver/src/stm32f30x_dac.c ****   *          This parameter can be:
 518:/home/user/Desktop/STM32-Projekte/FH-Vertibot/src/STM32F30x_StdPeriph_Driver/src/stm32f30x_dac.c ****   *            @arg DAC_Channel_1: DAC Channel1 selected
 519:/home/user/Desktop/STM32-Projekte/FH-Vertibot/src/STM32F30x_StdPeriph_Driver/src/stm32f30x_dac.c ****   *            @arg DAC_Channel_2: DAC Channel2 selected
 520:/home/user/Desktop/STM32-Projekte/FH-Vertibot/src/STM32F30x_StdPeriph_Driver/src/stm32f30x_dac.c ****   * @param  DAC_IT: specifies the DAC interrupt sources to be enabled or disabled. 
 521:/home/user/Desktop/STM32-Projekte/FH-Vertibot/src/STM32F30x_StdPeriph_Driver/src/stm32f30x_dac.c ****   *          This parameter can be the following values:
 522:/home/user/Desktop/STM32-Projekte/FH-Vertibot/src/STM32F30x_StdPeriph_Driver/src/stm32f30x_dac.c ****   *            @arg DAC_IT_DMAUDR: DMA underrun interrupt mask
 523:/home/user/Desktop/STM32-Projekte/FH-Vertibot/src/STM32F30x_StdPeriph_Driver/src/stm32f30x_dac.c ****   * @note   The DMA underrun occurs when a second external trigger arrives before the 
 524:/home/user/Desktop/STM32-Projekte/FH-Vertibot/src/STM32F30x_StdPeriph_Driver/src/stm32f30x_dac.c ****   *         acknowledgement for the first external trigger is received (first request).
 525:/home/user/Desktop/STM32-Projekte/FH-Vertibot/src/STM32F30x_StdPeriph_Driver/src/stm32f30x_dac.c ****   * @param  NewState: new state of the specified DAC interrupts.
 526:/home/user/Desktop/STM32-Projekte/FH-Vertibot/src/STM32F30x_StdPeriph_Driver/src/stm32f30x_dac.c ****   *          This parameter can be: ENABLE or DISABLE.
 527:/home/user/Desktop/STM32-Projekte/FH-Vertibot/src/STM32F30x_StdPeriph_Driver/src/stm32f30x_dac.c ****   * @retval None
 528:/home/user/Desktop/STM32-Projekte/FH-Vertibot/src/STM32F30x_StdPeriph_Driver/src/stm32f30x_dac.c ****   */ 
 529:/home/user/Desktop/STM32-Projekte/FH-Vertibot/src/STM32F30x_StdPeriph_Driver/src/stm32f30x_dac.c **** void DAC_ITConfig(uint32_t DAC_Channel, uint32_t DAC_IT, FunctionalState NewState)  
 530:/home/user/Desktop/STM32-Projekte/FH-Vertibot/src/STM32F30x_StdPeriph_Driver/src/stm32f30x_dac.c **** {
 500              		.loc 1 530 0
 501              		.cfi_startproc
 502              		@ args = 0, pretend = 0, frame = 0
 503              		@ frame_needed = 0, uses_anonymous_args = 0
 504              		@ link register save eliminated.
 505              	.LVL46:
 506 0170 054B     		ldr	r3, .L54
 507 0172 01FA00F1 		lsl	r1, r1, r0
 508              	.LVL47:
 531:/home/user/Desktop/STM32-Projekte/FH-Vertibot/src/STM32F30x_StdPeriph_Driver/src/stm32f30x_dac.c ****   /* Check the parameters */
 532:/home/user/Desktop/STM32-Projekte/FH-Vertibot/src/STM32F30x_StdPeriph_Driver/src/stm32f30x_dac.c ****   assert_param(IS_DAC_CHANNEL(DAC_Channel));
 533:/home/user/Desktop/STM32-Projekte/FH-Vertibot/src/STM32F30x_StdPeriph_Driver/src/stm32f30x_dac.c ****   assert_param(IS_FUNCTIONAL_STATE(NewState));
 534:/home/user/Desktop/STM32-Projekte/FH-Vertibot/src/STM32F30x_StdPeriph_Driver/src/stm32f30x_dac.c ****   assert_param(IS_DAC_IT(DAC_IT)); 
 535:/home/user/Desktop/STM32-Projekte/FH-Vertibot/src/STM32F30x_StdPeriph_Driver/src/stm32f30x_dac.c **** 
 536:/home/user/Desktop/STM32-Projekte/FH-Vertibot/src/STM32F30x_StdPeriph_Driver/src/stm32f30x_dac.c ****   if (NewState != DISABLE)
 509              		.loc 1 536 0
 510 0176 12B1     		cbz	r2, .L51
 537:/home/user/Desktop/STM32-Projekte/FH-Vertibot/src/STM32F30x_StdPeriph_Driver/src/stm32f30x_dac.c ****   {
 538:/home/user/Desktop/STM32-Projekte/FH-Vertibot/src/STM32F30x_StdPeriph_Driver/src/stm32f30x_dac.c ****     /* Enable the selected DAC interrupts */
 539:/home/user/Desktop/STM32-Projekte/FH-Vertibot/src/STM32F30x_StdPeriph_Driver/src/stm32f30x_dac.c ****     DAC->CR |=  (DAC_IT << DAC_Channel);
 511              		.loc 1 539 0
 512 0178 1A68     		ldr	r2, [r3, #0]
 513              	.LVL48:
 514 017a 1143     		orrs	r1, r1, r2
 515 017c 02E0     		b	.L53
 516              	.LVL49:
 517              	.L51:
 540:/home/user/Desktop/STM32-Projekte/FH-Vertibot/src/STM32F30x_StdPeriph_Driver/src/stm32f30x_dac.c ****   }
 541:/home/user/Desktop/STM32-Projekte/FH-Vertibot/src/STM32F30x_StdPeriph_Driver/src/stm32f30x_dac.c ****   else
 542:/home/user/Desktop/STM32-Projekte/FH-Vertibot/src/STM32F30x_StdPeriph_Driver/src/stm32f30x_dac.c ****   {
 543:/home/user/Desktop/STM32-Projekte/FH-Vertibot/src/STM32F30x_StdPeriph_Driver/src/stm32f30x_dac.c ****     /* Disable the selected DAC interrupts */
 544:/home/user/Desktop/STM32-Projekte/FH-Vertibot/src/STM32F30x_StdPeriph_Driver/src/stm32f30x_dac.c ****     DAC->CR &= (~(uint32_t)(DAC_IT << DAC_Channel));
 518              		.loc 1 544 0
 519 017e 1A68     		ldr	r2, [r3, #0]
 520              	.LVL50:
 521 0180 22EA0101 		bic	r1, r2, r1
 522              	.L53:
 523 0184 1960     		str	r1, [r3, #0]
 524 0186 7047     		bx	lr
 525              	.L55:
 526              		.align	2
 527              	.L54:
 528 0188 00740040 		.word	1073771520
 529              		.cfi_endproc
 530              	.LFE123:
 532              		.align	1
 533              		.global	DAC_GetFlagStatus
 534              		.thumb
 535              		.thumb_func
 537              	DAC_GetFlagStatus:
 538              	.LFB124:
 545:/home/user/Desktop/STM32-Projekte/FH-Vertibot/src/STM32F30x_StdPeriph_Driver/src/stm32f30x_dac.c ****   }
 546:/home/user/Desktop/STM32-Projekte/FH-Vertibot/src/STM32F30x_StdPeriph_Driver/src/stm32f30x_dac.c **** }
 547:/home/user/Desktop/STM32-Projekte/FH-Vertibot/src/STM32F30x_StdPeriph_Driver/src/stm32f30x_dac.c **** 
 548:/home/user/Desktop/STM32-Projekte/FH-Vertibot/src/STM32F30x_StdPeriph_Driver/src/stm32f30x_dac.c **** /**
 549:/home/user/Desktop/STM32-Projekte/FH-Vertibot/src/STM32F30x_StdPeriph_Driver/src/stm32f30x_dac.c ****   * @brief  Checks whether the specified DAC flag is set or not.
 550:/home/user/Desktop/STM32-Projekte/FH-Vertibot/src/STM32F30x_StdPeriph_Driver/src/stm32f30x_dac.c ****   * @param  DAC_Channel: The selected DAC channel. 
 551:/home/user/Desktop/STM32-Projekte/FH-Vertibot/src/STM32F30x_StdPeriph_Driver/src/stm32f30x_dac.c ****   *          This parameter can be:
 552:/home/user/Desktop/STM32-Projekte/FH-Vertibot/src/STM32F30x_StdPeriph_Driver/src/stm32f30x_dac.c ****   *            @arg DAC_Channel_1: DAC Channel1 selected
 553:/home/user/Desktop/STM32-Projekte/FH-Vertibot/src/STM32F30x_StdPeriph_Driver/src/stm32f30x_dac.c ****   *            @arg DAC_Channel_2: DAC Channel2 selected
 554:/home/user/Desktop/STM32-Projekte/FH-Vertibot/src/STM32F30x_StdPeriph_Driver/src/stm32f30x_dac.c ****   * @param  DAC_FLAG: specifies the flag to check. 
 555:/home/user/Desktop/STM32-Projekte/FH-Vertibot/src/STM32F30x_StdPeriph_Driver/src/stm32f30x_dac.c ****   *          This parameter can be only of the following value:
 556:/home/user/Desktop/STM32-Projekte/FH-Vertibot/src/STM32F30x_StdPeriph_Driver/src/stm32f30x_dac.c ****   *            @arg DAC_FLAG_DMAUDR: DMA underrun flag
 557:/home/user/Desktop/STM32-Projekte/FH-Vertibot/src/STM32F30x_StdPeriph_Driver/src/stm32f30x_dac.c ****   * @note   The DMA underrun occurs when a second external trigger arrives before the 
 558:/home/user/Desktop/STM32-Projekte/FH-Vertibot/src/STM32F30x_StdPeriph_Driver/src/stm32f30x_dac.c ****   *         acknowledgement for the first external trigger is received (first request).
 559:/home/user/Desktop/STM32-Projekte/FH-Vertibot/src/STM32F30x_StdPeriph_Driver/src/stm32f30x_dac.c ****   * @retval The new state of DAC_FLAG (SET or RESET).
 560:/home/user/Desktop/STM32-Projekte/FH-Vertibot/src/STM32F30x_StdPeriph_Driver/src/stm32f30x_dac.c ****   */
 561:/home/user/Desktop/STM32-Projekte/FH-Vertibot/src/STM32F30x_StdPeriph_Driver/src/stm32f30x_dac.c **** FlagStatus DAC_GetFlagStatus(uint32_t DAC_Channel, uint32_t DAC_FLAG)
 562:/home/user/Desktop/STM32-Projekte/FH-Vertibot/src/STM32F30x_StdPeriph_Driver/src/stm32f30x_dac.c **** {
 539              		.loc 1 562 0
 540              		.cfi_startproc
 541              		@ args = 0, pretend = 0, frame = 0
 542              		@ frame_needed = 0, uses_anonymous_args = 0
 543              		@ link register save eliminated.
 544              	.LVL51:
 563:/home/user/Desktop/STM32-Projekte/FH-Vertibot/src/STM32F30x_StdPeriph_Driver/src/stm32f30x_dac.c ****   FlagStatus bitstatus = RESET;
 564:/home/user/Desktop/STM32-Projekte/FH-Vertibot/src/STM32F30x_StdPeriph_Driver/src/stm32f30x_dac.c ****   /* Check the parameters */
 565:/home/user/Desktop/STM32-Projekte/FH-Vertibot/src/STM32F30x_StdPeriph_Driver/src/stm32f30x_dac.c ****   assert_param(IS_DAC_CHANNEL(DAC_Channel));
 566:/home/user/Desktop/STM32-Projekte/FH-Vertibot/src/STM32F30x_StdPeriph_Driver/src/stm32f30x_dac.c ****   assert_param(IS_DAC_FLAG(DAC_FLAG));
 567:/home/user/Desktop/STM32-Projekte/FH-Vertibot/src/STM32F30x_StdPeriph_Driver/src/stm32f30x_dac.c **** 
 568:/home/user/Desktop/STM32-Projekte/FH-Vertibot/src/STM32F30x_StdPeriph_Driver/src/stm32f30x_dac.c ****   /* Check the status of the specified DAC flag */
 569:/home/user/Desktop/STM32-Projekte/FH-Vertibot/src/STM32F30x_StdPeriph_Driver/src/stm32f30x_dac.c ****   if ((DAC->SR & (DAC_FLAG << DAC_Channel)) != (uint8_t)RESET)
 545              		.loc 1 569 0
 546 018c 044B     		ldr	r3, .L57
 547 018e 5B6B     		ldr	r3, [r3, #52]
 548              	.LVL52:
 549 0190 01FA00F1 		lsl	r1, r1, r0
 550              	.LVL53:
 551 0194 1942     		tst	r1, r3
 570:/home/user/Desktop/STM32-Projekte/FH-Vertibot/src/STM32F30x_StdPeriph_Driver/src/stm32f30x_dac.c ****   {
 571:/home/user/Desktop/STM32-Projekte/FH-Vertibot/src/STM32F30x_StdPeriph_Driver/src/stm32f30x_dac.c ****     /* DAC_FLAG is set */
 572:/home/user/Desktop/STM32-Projekte/FH-Vertibot/src/STM32F30x_StdPeriph_Driver/src/stm32f30x_dac.c ****     bitstatus = SET;
 573:/home/user/Desktop/STM32-Projekte/FH-Vertibot/src/STM32F30x_StdPeriph_Driver/src/stm32f30x_dac.c ****   }
 574:/home/user/Desktop/STM32-Projekte/FH-Vertibot/src/STM32F30x_StdPeriph_Driver/src/stm32f30x_dac.c ****   else
 575:/home/user/Desktop/STM32-Projekte/FH-Vertibot/src/STM32F30x_StdPeriph_Driver/src/stm32f30x_dac.c ****   {
 576:/home/user/Desktop/STM32-Projekte/FH-Vertibot/src/STM32F30x_StdPeriph_Driver/src/stm32f30x_dac.c ****     /* DAC_FLAG is reset */
 577:/home/user/Desktop/STM32-Projekte/FH-Vertibot/src/STM32F30x_StdPeriph_Driver/src/stm32f30x_dac.c ****     bitstatus = RESET;
 578:/home/user/Desktop/STM32-Projekte/FH-Vertibot/src/STM32F30x_StdPeriph_Driver/src/stm32f30x_dac.c ****   }
 579:/home/user/Desktop/STM32-Projekte/FH-Vertibot/src/STM32F30x_StdPeriph_Driver/src/stm32f30x_dac.c ****   /* Return the DAC_FLAG status */
 580:/home/user/Desktop/STM32-Projekte/FH-Vertibot/src/STM32F30x_StdPeriph_Driver/src/stm32f30x_dac.c ****   return  bitstatus;
 581:/home/user/Desktop/STM32-Projekte/FH-Vertibot/src/STM32F30x_StdPeriph_Driver/src/stm32f30x_dac.c **** }
 552              		.loc 1 581 0
 553 0196 0CBF     		ite	eq
 554 0198 0020     		moveq	r0, #0
 555 019a 0120     		movne	r0, #1
 556              	.LVL54:
 557 019c 7047     		bx	lr
 558              	.L58:
 559 019e 00BF     		.align	2
 560              	.L57:
 561 01a0 00740040 		.word	1073771520
 562              		.cfi_endproc
 563              	.LFE124:
 565              		.align	1
 566              		.global	DAC_ClearFlag
 567              		.thumb
 568              		.thumb_func
 570              	DAC_ClearFlag:
 571              	.LFB125:
 582:/home/user/Desktop/STM32-Projekte/FH-Vertibot/src/STM32F30x_StdPeriph_Driver/src/stm32f30x_dac.c **** 
 583:/home/user/Desktop/STM32-Projekte/FH-Vertibot/src/STM32F30x_StdPeriph_Driver/src/stm32f30x_dac.c **** /**
 584:/home/user/Desktop/STM32-Projekte/FH-Vertibot/src/STM32F30x_StdPeriph_Driver/src/stm32f30x_dac.c ****   * @brief  Clears the DAC channel's pending flags.
 585:/home/user/Desktop/STM32-Projekte/FH-Vertibot/src/STM32F30x_StdPeriph_Driver/src/stm32f30x_dac.c ****   * @param  DAC_Channel: The selected DAC channel. 
 586:/home/user/Desktop/STM32-Projekte/FH-Vertibot/src/STM32F30x_StdPeriph_Driver/src/stm32f30x_dac.c ****   *          This parameter can be:
 587:/home/user/Desktop/STM32-Projekte/FH-Vertibot/src/STM32F30x_StdPeriph_Driver/src/stm32f30x_dac.c ****   *            @arg DAC_Channel_1: DAC Channel1 selected
 588:/home/user/Desktop/STM32-Projekte/FH-Vertibot/src/STM32F30x_StdPeriph_Driver/src/stm32f30x_dac.c ****   *            @arg DAC_Channel_2: DAC Channel2 selected
 589:/home/user/Desktop/STM32-Projekte/FH-Vertibot/src/STM32F30x_StdPeriph_Driver/src/stm32f30x_dac.c ****   * @param  DAC_FLAG: specifies the flag to clear. 
 590:/home/user/Desktop/STM32-Projekte/FH-Vertibot/src/STM32F30x_StdPeriph_Driver/src/stm32f30x_dac.c ****   *          This parameter can be of the following value:
 591:/home/user/Desktop/STM32-Projekte/FH-Vertibot/src/STM32F30x_StdPeriph_Driver/src/stm32f30x_dac.c ****   *            @arg DAC_FLAG_DMAUDR: DMA underrun flag                           
 592:/home/user/Desktop/STM32-Projekte/FH-Vertibot/src/STM32F30x_StdPeriph_Driver/src/stm32f30x_dac.c ****   * @retval None
 593:/home/user/Desktop/STM32-Projekte/FH-Vertibot/src/STM32F30x_StdPeriph_Driver/src/stm32f30x_dac.c ****   */
 594:/home/user/Desktop/STM32-Projekte/FH-Vertibot/src/STM32F30x_StdPeriph_Driver/src/stm32f30x_dac.c **** void DAC_ClearFlag(uint32_t DAC_Channel, uint32_t DAC_FLAG)
 595:/home/user/Desktop/STM32-Projekte/FH-Vertibot/src/STM32F30x_StdPeriph_Driver/src/stm32f30x_dac.c **** {
 572              		.loc 1 595 0
 573              		.cfi_startproc
 574              		@ args = 0, pretend = 0, frame = 0
 575              		@ frame_needed = 0, uses_anonymous_args = 0
 576              		@ link register save eliminated.
 577              	.LVL55:
 596:/home/user/Desktop/STM32-Projekte/FH-Vertibot/src/STM32F30x_StdPeriph_Driver/src/stm32f30x_dac.c ****   /* Check the parameters */
 597:/home/user/Desktop/STM32-Projekte/FH-Vertibot/src/STM32F30x_StdPeriph_Driver/src/stm32f30x_dac.c ****   assert_param(IS_DAC_CHANNEL(DAC_Channel));
 598:/home/user/Desktop/STM32-Projekte/FH-Vertibot/src/STM32F30x_StdPeriph_Driver/src/stm32f30x_dac.c ****   assert_param(IS_DAC_FLAG(DAC_FLAG));
 599:/home/user/Desktop/STM32-Projekte/FH-Vertibot/src/STM32F30x_StdPeriph_Driver/src/stm32f30x_dac.c **** 
 600:/home/user/Desktop/STM32-Projekte/FH-Vertibot/src/STM32F30x_StdPeriph_Driver/src/stm32f30x_dac.c ****   /* Clear the selected DAC flags */
 601:/home/user/Desktop/STM32-Projekte/FH-Vertibot/src/STM32F30x_StdPeriph_Driver/src/stm32f30x_dac.c ****   DAC->SR = (DAC_FLAG << DAC_Channel);
 578              		.loc 1 601 0
 579 01a4 024B     		ldr	r3, .L60
 580 01a6 01FA00F1 		lsl	r1, r1, r0
 581              	.LVL56:
 582 01aa 5963     		str	r1, [r3, #52]
 583 01ac 7047     		bx	lr
 584              	.L61:
 585 01ae 00BF     		.align	2
 586              	.L60:
 587 01b0 00740040 		.word	1073771520
 588              		.cfi_endproc
 589              	.LFE125:
 591              		.align	1
 592              		.global	DAC_GetITStatus
 593              		.thumb
 594              		.thumb_func
 596              	DAC_GetITStatus:
 597              	.LFB126:
 602:/home/user/Desktop/STM32-Projekte/FH-Vertibot/src/STM32F30x_StdPeriph_Driver/src/stm32f30x_dac.c **** }
 603:/home/user/Desktop/STM32-Projekte/FH-Vertibot/src/STM32F30x_StdPeriph_Driver/src/stm32f30x_dac.c **** 
 604:/home/user/Desktop/STM32-Projekte/FH-Vertibot/src/STM32F30x_StdPeriph_Driver/src/stm32f30x_dac.c **** /**
 605:/home/user/Desktop/STM32-Projekte/FH-Vertibot/src/STM32F30x_StdPeriph_Driver/src/stm32f30x_dac.c ****   * @brief  Checks whether the specified DAC interrupt has occurred or not.
 606:/home/user/Desktop/STM32-Projekte/FH-Vertibot/src/STM32F30x_StdPeriph_Driver/src/stm32f30x_dac.c ****   * @param  DAC_Channel: The selected DAC channel. 
 607:/home/user/Desktop/STM32-Projekte/FH-Vertibot/src/STM32F30x_StdPeriph_Driver/src/stm32f30x_dac.c ****   *          This parameter can be:
 608:/home/user/Desktop/STM32-Projekte/FH-Vertibot/src/STM32F30x_StdPeriph_Driver/src/stm32f30x_dac.c ****   *            @arg DAC_Channel_1: DAC Channel1 selected
 609:/home/user/Desktop/STM32-Projekte/FH-Vertibot/src/STM32F30x_StdPeriph_Driver/src/stm32f30x_dac.c ****   *            @arg DAC_Channel_2: DAC Channel2 selected
 610:/home/user/Desktop/STM32-Projekte/FH-Vertibot/src/STM32F30x_StdPeriph_Driver/src/stm32f30x_dac.c ****   * @param  DAC_IT: specifies the DAC interrupt source to check. 
 611:/home/user/Desktop/STM32-Projekte/FH-Vertibot/src/STM32F30x_StdPeriph_Driver/src/stm32f30x_dac.c ****   *          This parameter can be the following values:
 612:/home/user/Desktop/STM32-Projekte/FH-Vertibot/src/STM32F30x_StdPeriph_Driver/src/stm32f30x_dac.c ****   *            @arg DAC_IT_DMAUDR: DMA underrun interrupt mask
 613:/home/user/Desktop/STM32-Projekte/FH-Vertibot/src/STM32F30x_StdPeriph_Driver/src/stm32f30x_dac.c ****   * @note   The DMA underrun occurs when a second external trigger arrives before the 
 614:/home/user/Desktop/STM32-Projekte/FH-Vertibot/src/STM32F30x_StdPeriph_Driver/src/stm32f30x_dac.c ****   *         acknowledgement for the first external trigger is received (first request).
 615:/home/user/Desktop/STM32-Projekte/FH-Vertibot/src/STM32F30x_StdPeriph_Driver/src/stm32f30x_dac.c ****   * @retval The new state of DAC_IT (SET or RESET).
 616:/home/user/Desktop/STM32-Projekte/FH-Vertibot/src/STM32F30x_StdPeriph_Driver/src/stm32f30x_dac.c ****   */
 617:/home/user/Desktop/STM32-Projekte/FH-Vertibot/src/STM32F30x_StdPeriph_Driver/src/stm32f30x_dac.c **** ITStatus DAC_GetITStatus(uint32_t DAC_Channel, uint32_t DAC_IT)
 618:/home/user/Desktop/STM32-Projekte/FH-Vertibot/src/STM32F30x_StdPeriph_Driver/src/stm32f30x_dac.c **** {
 598              		.loc 1 618 0
 599              		.cfi_startproc
 600              		@ args = 0, pretend = 0, frame = 0
 601              		@ frame_needed = 0, uses_anonymous_args = 0
 602              		@ link register save eliminated.
 603              	.LVL57:
 619:/home/user/Desktop/STM32-Projekte/FH-Vertibot/src/STM32F30x_StdPeriph_Driver/src/stm32f30x_dac.c ****   ITStatus bitstatus = RESET;
 620:/home/user/Desktop/STM32-Projekte/FH-Vertibot/src/STM32F30x_StdPeriph_Driver/src/stm32f30x_dac.c ****   uint32_t enablestatus = 0;
 621:/home/user/Desktop/STM32-Projekte/FH-Vertibot/src/STM32F30x_StdPeriph_Driver/src/stm32f30x_dac.c ****   
 622:/home/user/Desktop/STM32-Projekte/FH-Vertibot/src/STM32F30x_StdPeriph_Driver/src/stm32f30x_dac.c ****   /* Check the parameters */
 623:/home/user/Desktop/STM32-Projekte/FH-Vertibot/src/STM32F30x_StdPeriph_Driver/src/stm32f30x_dac.c ****   assert_param(IS_DAC_CHANNEL(DAC_Channel));
 624:/home/user/Desktop/STM32-Projekte/FH-Vertibot/src/STM32F30x_StdPeriph_Driver/src/stm32f30x_dac.c ****   assert_param(IS_DAC_IT(DAC_IT));
 625:/home/user/Desktop/STM32-Projekte/FH-Vertibot/src/STM32F30x_StdPeriph_Driver/src/stm32f30x_dac.c **** 
 626:/home/user/Desktop/STM32-Projekte/FH-Vertibot/src/STM32F30x_StdPeriph_Driver/src/stm32f30x_dac.c ****   /* Get the DAC_IT enable bit status */
 627:/home/user/Desktop/STM32-Projekte/FH-Vertibot/src/STM32F30x_StdPeriph_Driver/src/stm32f30x_dac.c ****   enablestatus = (DAC->CR & (DAC_IT << DAC_Channel)) ;
 604              		.loc 1 627 0
 605 01b4 054B     		ldr	r3, .L65
 606 01b6 01FA00F1 		lsl	r1, r1, r0
 607              	.LVL58:
 608 01ba 1A68     		ldr	r2, [r3, #0]
 609              	.LVL59:
 628:/home/user/Desktop/STM32-Projekte/FH-Vertibot/src/STM32F30x_StdPeriph_Driver/src/stm32f30x_dac.c ****   
 629:/home/user/Desktop/STM32-Projekte/FH-Vertibot/src/STM32F30x_StdPeriph_Driver/src/stm32f30x_dac.c ****   /* Check the status of the specified DAC interrupt */
 630:/home/user/Desktop/STM32-Projekte/FH-Vertibot/src/STM32F30x_StdPeriph_Driver/src/stm32f30x_dac.c ****   if (((DAC->SR & (DAC_IT << DAC_Channel)) != (uint32_t)RESET) && enablestatus)
 610              		.loc 1 630 0
 611 01bc 586B     		ldr	r0, [r3, #52]
 612              	.LVL60:
 613 01be 0840     		ands	r0, r1, r0
 614 01c0 03D0     		beq	.L63
 615              		.loc 1 630 0 is_stmt 0 discriminator 1
 616 01c2 1142     		tst	r1, r2
 631:/home/user/Desktop/STM32-Projekte/FH-Vertibot/src/STM32F30x_StdPeriph_Driver/src/stm32f30x_dac.c ****   {
 632:/home/user/Desktop/STM32-Projekte/FH-Vertibot/src/STM32F30x_StdPeriph_Driver/src/stm32f30x_dac.c ****     /* DAC_IT is set */
 633:/home/user/Desktop/STM32-Projekte/FH-Vertibot/src/STM32F30x_StdPeriph_Driver/src/stm32f30x_dac.c ****     bitstatus = SET;
 617              		.loc 1 633 0 is_stmt 1 discriminator 1
 618 01c4 0CBF     		ite	eq
 619 01c6 0020     		moveq	r0, #0
 620 01c8 0120     		movne	r0, #1
 621              	.L63:
 622              	.LVL61:
 634:/home/user/Desktop/STM32-Projekte/FH-Vertibot/src/STM32F30x_StdPeriph_Driver/src/stm32f30x_dac.c ****   }
 635:/home/user/Desktop/STM32-Projekte/FH-Vertibot/src/STM32F30x_StdPeriph_Driver/src/stm32f30x_dac.c ****   else
 636:/home/user/Desktop/STM32-Projekte/FH-Vertibot/src/STM32F30x_StdPeriph_Driver/src/stm32f30x_dac.c ****   {
 637:/home/user/Desktop/STM32-Projekte/FH-Vertibot/src/STM32F30x_StdPeriph_Driver/src/stm32f30x_dac.c ****     /* DAC_IT is reset */
 638:/home/user/Desktop/STM32-Projekte/FH-Vertibot/src/STM32F30x_StdPeriph_Driver/src/stm32f30x_dac.c ****     bitstatus = RESET;
 639:/home/user/Desktop/STM32-Projekte/FH-Vertibot/src/STM32F30x_StdPeriph_Driver/src/stm32f30x_dac.c ****   }
 640:/home/user/Desktop/STM32-Projekte/FH-Vertibot/src/STM32F30x_StdPeriph_Driver/src/stm32f30x_dac.c ****   /* Return the DAC_IT status */
 641:/home/user/Desktop/STM32-Projekte/FH-Vertibot/src/STM32F30x_StdPeriph_Driver/src/stm32f30x_dac.c ****   return  bitstatus;
 642:/home/user/Desktop/STM32-Projekte/FH-Vertibot/src/STM32F30x_StdPeriph_Driver/src/stm32f30x_dac.c **** }
 623              		.loc 1 642 0
 624 01ca 7047     		bx	lr
 625              	.L66:
 626              		.align	2
 627              	.L65:
 628 01cc 00740040 		.word	1073771520
 629              		.cfi_endproc
 630              	.LFE126:
 632              		.align	1
 633              		.global	DAC_ClearITPendingBit
 634              		.thumb
 635              		.thumb_func
 637              	DAC_ClearITPendingBit:
 638              	.LFB127:
 643:/home/user/Desktop/STM32-Projekte/FH-Vertibot/src/STM32F30x_StdPeriph_Driver/src/stm32f30x_dac.c **** 
 644:/home/user/Desktop/STM32-Projekte/FH-Vertibot/src/STM32F30x_StdPeriph_Driver/src/stm32f30x_dac.c **** /**
 645:/home/user/Desktop/STM32-Projekte/FH-Vertibot/src/STM32F30x_StdPeriph_Driver/src/stm32f30x_dac.c ****   * @brief  Clears the DAC channel's interrupt pending bits.
 646:/home/user/Desktop/STM32-Projekte/FH-Vertibot/src/STM32F30x_StdPeriph_Driver/src/stm32f30x_dac.c ****   * @param  DAC_Channel: The selected DAC channel. 
 647:/home/user/Desktop/STM32-Projekte/FH-Vertibot/src/STM32F30x_StdPeriph_Driver/src/stm32f30x_dac.c ****   *          This parameter can be:
 648:/home/user/Desktop/STM32-Projekte/FH-Vertibot/src/STM32F30x_StdPeriph_Driver/src/stm32f30x_dac.c ****   *            @arg DAC_Channel_1: DAC Channel1 selected
 649:/home/user/Desktop/STM32-Projekte/FH-Vertibot/src/STM32F30x_StdPeriph_Driver/src/stm32f30x_dac.c ****   *            @arg DAC_Channel_2: DAC Channel2 selected
 650:/home/user/Desktop/STM32-Projekte/FH-Vertibot/src/STM32F30x_StdPeriph_Driver/src/stm32f30x_dac.c ****   * @param  DAC_IT: specifies the DAC interrupt pending bit to clear.
 651:/home/user/Desktop/STM32-Projekte/FH-Vertibot/src/STM32F30x_StdPeriph_Driver/src/stm32f30x_dac.c ****   *          This parameter can be the following values:
 652:/home/user/Desktop/STM32-Projekte/FH-Vertibot/src/STM32F30x_StdPeriph_Driver/src/stm32f30x_dac.c ****   *            @arg DAC_IT_DMAUDR: DMA underrun interrupt mask                                     
 653:/home/user/Desktop/STM32-Projekte/FH-Vertibot/src/STM32F30x_StdPeriph_Driver/src/stm32f30x_dac.c ****   * @retval None
 654:/home/user/Desktop/STM32-Projekte/FH-Vertibot/src/STM32F30x_StdPeriph_Driver/src/stm32f30x_dac.c ****   */
 655:/home/user/Desktop/STM32-Projekte/FH-Vertibot/src/STM32F30x_StdPeriph_Driver/src/stm32f30x_dac.c **** void DAC_ClearITPendingBit(uint32_t DAC_Channel, uint32_t DAC_IT)
 656:/home/user/Desktop/STM32-Projekte/FH-Vertibot/src/STM32F30x_StdPeriph_Driver/src/stm32f30x_dac.c **** {
 639              		.loc 1 656 0
 640              		.cfi_startproc
 641              		@ args = 0, pretend = 0, frame = 0
 642              		@ frame_needed = 0, uses_anonymous_args = 0
 643              		@ link register save eliminated.
 644              	.LVL62:
 657:/home/user/Desktop/STM32-Projekte/FH-Vertibot/src/STM32F30x_StdPeriph_Driver/src/stm32f30x_dac.c ****   /* Check the parameters */
 658:/home/user/Desktop/STM32-Projekte/FH-Vertibot/src/STM32F30x_StdPeriph_Driver/src/stm32f30x_dac.c ****   assert_param(IS_DAC_CHANNEL(DAC_Channel));
 659:/home/user/Desktop/STM32-Projekte/FH-Vertibot/src/STM32F30x_StdPeriph_Driver/src/stm32f30x_dac.c ****   assert_param(IS_DAC_IT(DAC_IT)); 
 660:/home/user/Desktop/STM32-Projekte/FH-Vertibot/src/STM32F30x_StdPeriph_Driver/src/stm32f30x_dac.c **** 
 661:/home/user/Desktop/STM32-Projekte/FH-Vertibot/src/STM32F30x_StdPeriph_Driver/src/stm32f30x_dac.c ****   /* Clear the selected DAC interrupt pending bits */
 662:/home/user/Desktop/STM32-Projekte/FH-Vertibot/src/STM32F30x_StdPeriph_Driver/src/stm32f30x_dac.c ****   DAC->SR = (DAC_IT << DAC_Channel);
 645              		.loc 1 662 0
 646 01d0 024B     		ldr	r3, .L68
 647 01d2 01FA00F1 		lsl	r1, r1, r0
 648              	.LVL63:
 649 01d6 5963     		str	r1, [r3, #52]
 650 01d8 7047     		bx	lr
 651              	.L69:
 652 01da 00BF     		.align	2
 653              	.L68:
 654 01dc 00740040 		.word	1073771520
 655              		.cfi_endproc
 656              	.LFE127:
 658              	.Letext0:
 659              		.file 2 "/opt/CodeSourcery/Sourcery_CodeBench_Lite_for_ARM_EABI/bin/../lib/gcc/arm-none-eabi/4.7.2
 660              		.file 3 "/home/user/Desktop/STM32-Projekte/FH-Vertibot/src/CMSIS/Device/ST/STM32F30x/Include/stm32
 661              		.file 4 "/home/user/Desktop/STM32-Projekte/FH-Vertibot/src/STM32F30x_StdPeriph_Driver/inc/stm32f30
 662              		.file 5 "/home/user/Desktop/STM32-Projekte/FH-Vertibot/src/CMSIS/Include/core_cm4.h"
 663              		.file 6 "/home/user/Desktop/STM32-Projekte/FH-Vertibot/src/STM32F30x_StdPeriph_Driver/inc/stm32f30