   1              		.syntax unified
   2              		.cpu cortex-m4
   3              		.eabi_attribute 27, 3
   4              		.eabi_attribute 28, 1
   5              		.fpu fpv4-sp-d16
   6              		.eabi_attribute 20, 1
   7              		.eabi_attribute 21, 1
   8              		.eabi_attribute 23, 3
   9              		.eabi_attribute 24, 1
  10              		.eabi_attribute 25, 1
  11              		.eabi_attribute 26, 1
  12              		.eabi_attribute 30, 4
  13              		.eabi_attribute 34, 1
  14              		.eabi_attribute 18, 4
  15              		.thumb
  16              		.file	"stm32f30x_exti.c"
  17              		.text
  18              	.Ltext0:
  19              		.cfi_sections	.debug_frame
  20              		.align	1
  21              		.global	EXTI_DeInit
  22              		.thumb
  23              		.thumb_func
  25              	EXTI_DeInit:
  26              	.LFB111:
  27              		.file 1 "/home/user/Desktop/STM32-Projekte/FH-Vertibot/src/STM32F30x_StdPeriph_Driver/src/stm32f30
   1:/home/user/Desktop/STM32-Projekte/FH-Vertibot/src/STM32F30x_StdPeriph_Driver/src/stm32f30x_exti.c **** /**
   2:/home/user/Desktop/STM32-Projekte/FH-Vertibot/src/STM32F30x_StdPeriph_Driver/src/stm32f30x_exti.c ****   ******************************************************************************
   3:/home/user/Desktop/STM32-Projekte/FH-Vertibot/src/STM32F30x_StdPeriph_Driver/src/stm32f30x_exti.c ****   * @file    stm32f30x_exti.c
   4:/home/user/Desktop/STM32-Projekte/FH-Vertibot/src/STM32F30x_StdPeriph_Driver/src/stm32f30x_exti.c ****   * @author  MCD Application Team
   5:/home/user/Desktop/STM32-Projekte/FH-Vertibot/src/STM32F30x_StdPeriph_Driver/src/stm32f30x_exti.c ****   * @version V1.0.1
   6:/home/user/Desktop/STM32-Projekte/FH-Vertibot/src/STM32F30x_StdPeriph_Driver/src/stm32f30x_exti.c ****   * @date    23-October-2012
   7:/home/user/Desktop/STM32-Projekte/FH-Vertibot/src/STM32F30x_StdPeriph_Driver/src/stm32f30x_exti.c ****   * @brief   This file provides firmware functions to manage the following 
   8:/home/user/Desktop/STM32-Projekte/FH-Vertibot/src/STM32F30x_StdPeriph_Driver/src/stm32f30x_exti.c ****   *          functionalities of the EXTI peripheral:
   9:/home/user/Desktop/STM32-Projekte/FH-Vertibot/src/STM32F30x_StdPeriph_Driver/src/stm32f30x_exti.c ****   *           + Initialization and Configuration 
  10:/home/user/Desktop/STM32-Projekte/FH-Vertibot/src/STM32F30x_StdPeriph_Driver/src/stm32f30x_exti.c ****   *           + Interrupts and flags management 
  11:/home/user/Desktop/STM32-Projekte/FH-Vertibot/src/STM32F30x_StdPeriph_Driver/src/stm32f30x_exti.c ****   *
  12:/home/user/Desktop/STM32-Projekte/FH-Vertibot/src/STM32F30x_StdPeriph_Driver/src/stm32f30x_exti.c ****   @verbatim
  13:/home/user/Desktop/STM32-Projekte/FH-Vertibot/src/STM32F30x_StdPeriph_Driver/src/stm32f30x_exti.c ****  ===============================================================================
  14:/home/user/Desktop/STM32-Projekte/FH-Vertibot/src/STM32F30x_StdPeriph_Driver/src/stm32f30x_exti.c ****                           ##### EXTI features #####
  15:/home/user/Desktop/STM32-Projekte/FH-Vertibot/src/STM32F30x_StdPeriph_Driver/src/stm32f30x_exti.c ****  ===============================================================================
  16:/home/user/Desktop/STM32-Projekte/FH-Vertibot/src/STM32F30x_StdPeriph_Driver/src/stm32f30x_exti.c ****     [..] External interrupt/event lines are mapped as following:
  17:/home/user/Desktop/STM32-Projekte/FH-Vertibot/src/STM32F30x_StdPeriph_Driver/src/stm32f30x_exti.c ****          (#) All available GPIO pins are connected to the 16 external 
  18:/home/user/Desktop/STM32-Projekte/FH-Vertibot/src/STM32F30x_StdPeriph_Driver/src/stm32f30x_exti.c ****              interrupt/event lines from EXTI0 to EXTI15.
  19:/home/user/Desktop/STM32-Projekte/FH-Vertibot/src/STM32F30x_StdPeriph_Driver/src/stm32f30x_exti.c ****          (#) EXTI line 16 is connected to the PVD output
  20:/home/user/Desktop/STM32-Projekte/FH-Vertibot/src/STM32F30x_StdPeriph_Driver/src/stm32f30x_exti.c ****          (#) EXTI line 17 is connected to the RTC Alarm event
  21:/home/user/Desktop/STM32-Projekte/FH-Vertibot/src/STM32F30x_StdPeriph_Driver/src/stm32f30x_exti.c ****          (#) EXTI line 18 is connected to USB Device wakeup event  
  22:/home/user/Desktop/STM32-Projekte/FH-Vertibot/src/STM32F30x_StdPeriph_Driver/src/stm32f30x_exti.c ****          (#) EXTI line 19 is connected to the RTC Tamper and TimeStamp events
  23:/home/user/Desktop/STM32-Projekte/FH-Vertibot/src/STM32F30x_StdPeriph_Driver/src/stm32f30x_exti.c ****          (#) EXTI line 20 is connected to the RTC wakeup event  
  24:/home/user/Desktop/STM32-Projekte/FH-Vertibot/src/STM32F30x_StdPeriph_Driver/src/stm32f30x_exti.c ****          (#) EXTI line 21 is connected to the Comparator 1 wakeup event 
  25:/home/user/Desktop/STM32-Projekte/FH-Vertibot/src/STM32F30x_StdPeriph_Driver/src/stm32f30x_exti.c ****          (#) EXTI line 22 is connected to the Comparator 2 wakeup event
  26:/home/user/Desktop/STM32-Projekte/FH-Vertibot/src/STM32F30x_StdPeriph_Driver/src/stm32f30x_exti.c ****          (#) EXTI line 23 is connected to the I2C1 wakeup event
  27:/home/user/Desktop/STM32-Projekte/FH-Vertibot/src/STM32F30x_StdPeriph_Driver/src/stm32f30x_exti.c ****          (#) EXTI line 24 is connected to the I2C2 wakeup event  
  28:/home/user/Desktop/STM32-Projekte/FH-Vertibot/src/STM32F30x_StdPeriph_Driver/src/stm32f30x_exti.c ****          (#) EXTI line 25 is connected to the USART1 wakeup event
  29:/home/user/Desktop/STM32-Projekte/FH-Vertibot/src/STM32F30x_StdPeriph_Driver/src/stm32f30x_exti.c ****          (#) EXTI line 26 is connected to the USART2 wakeup event  
  30:/home/user/Desktop/STM32-Projekte/FH-Vertibot/src/STM32F30x_StdPeriph_Driver/src/stm32f30x_exti.c ****          (#) EXTI line 27 is reserved
  31:/home/user/Desktop/STM32-Projekte/FH-Vertibot/src/STM32F30x_StdPeriph_Driver/src/stm32f30x_exti.c ****          (#) EXTI line 28 is connected to the USART3 wakeup event
  32:/home/user/Desktop/STM32-Projekte/FH-Vertibot/src/STM32F30x_StdPeriph_Driver/src/stm32f30x_exti.c ****          (#) EXTI line 29 is connected to the Comparator 3 event
  33:/home/user/Desktop/STM32-Projekte/FH-Vertibot/src/STM32F30x_StdPeriph_Driver/src/stm32f30x_exti.c ****          (#) EXTI line 30 is connected to the Comparator 4 event
  34:/home/user/Desktop/STM32-Projekte/FH-Vertibot/src/STM32F30x_StdPeriph_Driver/src/stm32f30x_exti.c ****          (#) EXTI line 31 is connected to the Comparator 5 event
  35:/home/user/Desktop/STM32-Projekte/FH-Vertibot/src/STM32F30x_StdPeriph_Driver/src/stm32f30x_exti.c ****          (#) EXTI line 32 is connected to the Comparator 6 event
  36:/home/user/Desktop/STM32-Projekte/FH-Vertibot/src/STM32F30x_StdPeriph_Driver/src/stm32f30x_exti.c ****          (#) EXTI line 33 is connected to the Comparator 7 event
  37:/home/user/Desktop/STM32-Projekte/FH-Vertibot/src/STM32F30x_StdPeriph_Driver/src/stm32f30x_exti.c ****          (#) EXTI line 34 is connected for thr UART4 wakeup event
  38:/home/user/Desktop/STM32-Projekte/FH-Vertibot/src/STM32F30x_StdPeriph_Driver/src/stm32f30x_exti.c ****          (#) EXTI line 35 is connected for the UART5 wakeup event               
  39:/home/user/Desktop/STM32-Projekte/FH-Vertibot/src/STM32F30x_StdPeriph_Driver/src/stm32f30x_exti.c **** 
  40:/home/user/Desktop/STM32-Projekte/FH-Vertibot/src/STM32F30x_StdPeriph_Driver/src/stm32f30x_exti.c ****                        ##### How to use this driver #####
  41:/home/user/Desktop/STM32-Projekte/FH-Vertibot/src/STM32F30x_StdPeriph_Driver/src/stm32f30x_exti.c ****  ===============================================================================
  42:/home/user/Desktop/STM32-Projekte/FH-Vertibot/src/STM32F30x_StdPeriph_Driver/src/stm32f30x_exti.c ****     [..] In order to use an I/O pin as an external interrupt source, 
  43:/home/user/Desktop/STM32-Projekte/FH-Vertibot/src/STM32F30x_StdPeriph_Driver/src/stm32f30x_exti.c ****          follow steps below:
  44:/home/user/Desktop/STM32-Projekte/FH-Vertibot/src/STM32F30x_StdPeriph_Driver/src/stm32f30x_exti.c ****          (#) Configure the I/O in input mode using GPIO_Init().
  45:/home/user/Desktop/STM32-Projekte/FH-Vertibot/src/STM32F30x_StdPeriph_Driver/src/stm32f30x_exti.c ****          (#) Select the input source pin for the EXTI line using
  46:/home/user/Desktop/STM32-Projekte/FH-Vertibot/src/STM32F30x_StdPeriph_Driver/src/stm32f30x_exti.c ****              SYSCFG_EXTILineConfig().
  47:/home/user/Desktop/STM32-Projekte/FH-Vertibot/src/STM32F30x_StdPeriph_Driver/src/stm32f30x_exti.c ****          (#) Select the mode(interrupt, event) and configure the trigger 
  48:/home/user/Desktop/STM32-Projekte/FH-Vertibot/src/STM32F30x_StdPeriph_Driver/src/stm32f30x_exti.c ****              selection (Rising, falling or both) using EXTI_Init(). For the 
  49:/home/user/Desktop/STM32-Projekte/FH-Vertibot/src/STM32F30x_StdPeriph_Driver/src/stm32f30x_exti.c ****              internal interrupt, the trigger selection is not needed 
  50:/home/user/Desktop/STM32-Projekte/FH-Vertibot/src/STM32F30x_StdPeriph_Driver/src/stm32f30x_exti.c ****              (the active edge is always the rising one).
  51:/home/user/Desktop/STM32-Projekte/FH-Vertibot/src/STM32F30x_StdPeriph_Driver/src/stm32f30x_exti.c ****          (#) Configure NVIC IRQ channel mapped to the EXTI line using NVIC_Init().
  52:/home/user/Desktop/STM32-Projekte/FH-Vertibot/src/STM32F30x_StdPeriph_Driver/src/stm32f30x_exti.c ****          (#) Optionally, you can generate a software interrupt using the function 
  53:/home/user/Desktop/STM32-Projekte/FH-Vertibot/src/STM32F30x_StdPeriph_Driver/src/stm32f30x_exti.c ****              EXTI_GenerateSWInterrupt().
  54:/home/user/Desktop/STM32-Projekte/FH-Vertibot/src/STM32F30x_StdPeriph_Driver/src/stm32f30x_exti.c ****     [..]
  55:/home/user/Desktop/STM32-Projekte/FH-Vertibot/src/STM32F30x_StdPeriph_Driver/src/stm32f30x_exti.c ****     (@) SYSCFG APB clock must be enabled to get write access to SYSCFG_EXTICRx
  56:/home/user/Desktop/STM32-Projekte/FH-Vertibot/src/STM32F30x_StdPeriph_Driver/src/stm32f30x_exti.c ****       registers using RCC_APB2PeriphClockCmd(RCC_APB2Periph_SYSCFG, ENABLE);
  57:/home/user/Desktop/STM32-Projekte/FH-Vertibot/src/STM32F30x_StdPeriph_Driver/src/stm32f30x_exti.c ****                 
  58:/home/user/Desktop/STM32-Projekte/FH-Vertibot/src/STM32F30x_StdPeriph_Driver/src/stm32f30x_exti.c ****   @endverbatim
  59:/home/user/Desktop/STM32-Projekte/FH-Vertibot/src/STM32F30x_StdPeriph_Driver/src/stm32f30x_exti.c **** 
  60:/home/user/Desktop/STM32-Projekte/FH-Vertibot/src/STM32F30x_StdPeriph_Driver/src/stm32f30x_exti.c ****   ******************************************************************************
  61:/home/user/Desktop/STM32-Projekte/FH-Vertibot/src/STM32F30x_StdPeriph_Driver/src/stm32f30x_exti.c ****   * @attention
  62:/home/user/Desktop/STM32-Projekte/FH-Vertibot/src/STM32F30x_StdPeriph_Driver/src/stm32f30x_exti.c ****   *
  63:/home/user/Desktop/STM32-Projekte/FH-Vertibot/src/STM32F30x_StdPeriph_Driver/src/stm32f30x_exti.c ****   * <h2><center>&copy; COPYRIGHT 2012 STMicroelectronics</center></h2>
  64:/home/user/Desktop/STM32-Projekte/FH-Vertibot/src/STM32F30x_StdPeriph_Driver/src/stm32f30x_exti.c ****   *
  65:/home/user/Desktop/STM32-Projekte/FH-Vertibot/src/STM32F30x_StdPeriph_Driver/src/stm32f30x_exti.c ****   * Licensed under MCD-ST Liberty SW License Agreement V2, (the "License");
  66:/home/user/Desktop/STM32-Projekte/FH-Vertibot/src/STM32F30x_StdPeriph_Driver/src/stm32f30x_exti.c ****   * You may not use this file except in compliance with the License.
  67:/home/user/Desktop/STM32-Projekte/FH-Vertibot/src/STM32F30x_StdPeriph_Driver/src/stm32f30x_exti.c ****   * You may obtain a copy of the License at:
  68:/home/user/Desktop/STM32-Projekte/FH-Vertibot/src/STM32F30x_StdPeriph_Driver/src/stm32f30x_exti.c ****   *
  69:/home/user/Desktop/STM32-Projekte/FH-Vertibot/src/STM32F30x_StdPeriph_Driver/src/stm32f30x_exti.c ****   *        http://www.st.com/software_license_agreement_liberty_v2
  70:/home/user/Desktop/STM32-Projekte/FH-Vertibot/src/STM32F30x_StdPeriph_Driver/src/stm32f30x_exti.c ****   *
  71:/home/user/Desktop/STM32-Projekte/FH-Vertibot/src/STM32F30x_StdPeriph_Driver/src/stm32f30x_exti.c ****   * Unless required by applicable law or agreed to in writing, software 
  72:/home/user/Desktop/STM32-Projekte/FH-Vertibot/src/STM32F30x_StdPeriph_Driver/src/stm32f30x_exti.c ****   * distributed under the License is distributed on an "AS IS" BASIS, 
  73:/home/user/Desktop/STM32-Projekte/FH-Vertibot/src/STM32F30x_StdPeriph_Driver/src/stm32f30x_exti.c ****   * WITHOUT WARRANTIES OR CONDITIONS OF ANY KIND, either express or implied.
  74:/home/user/Desktop/STM32-Projekte/FH-Vertibot/src/STM32F30x_StdPeriph_Driver/src/stm32f30x_exti.c ****   * See the License for the specific language governing permissions and
  75:/home/user/Desktop/STM32-Projekte/FH-Vertibot/src/STM32F30x_StdPeriph_Driver/src/stm32f30x_exti.c ****   * limitations under the License.
  76:/home/user/Desktop/STM32-Projekte/FH-Vertibot/src/STM32F30x_StdPeriph_Driver/src/stm32f30x_exti.c ****   *
  77:/home/user/Desktop/STM32-Projekte/FH-Vertibot/src/STM32F30x_StdPeriph_Driver/src/stm32f30x_exti.c ****   ******************************************************************************
  78:/home/user/Desktop/STM32-Projekte/FH-Vertibot/src/STM32F30x_StdPeriph_Driver/src/stm32f30x_exti.c ****   */
  79:/home/user/Desktop/STM32-Projekte/FH-Vertibot/src/STM32F30x_StdPeriph_Driver/src/stm32f30x_exti.c **** 
  80:/home/user/Desktop/STM32-Projekte/FH-Vertibot/src/STM32F30x_StdPeriph_Driver/src/stm32f30x_exti.c **** /* Includes ------------------------------------------------------------------*/
  81:/home/user/Desktop/STM32-Projekte/FH-Vertibot/src/STM32F30x_StdPeriph_Driver/src/stm32f30x_exti.c **** #include "stm32f30x_exti.h"
  82:/home/user/Desktop/STM32-Projekte/FH-Vertibot/src/STM32F30x_StdPeriph_Driver/src/stm32f30x_exti.c **** 
  83:/home/user/Desktop/STM32-Projekte/FH-Vertibot/src/STM32F30x_StdPeriph_Driver/src/stm32f30x_exti.c **** /** @addtogroup STM32F30x_StdPeriph_Driver
  84:/home/user/Desktop/STM32-Projekte/FH-Vertibot/src/STM32F30x_StdPeriph_Driver/src/stm32f30x_exti.c ****   * @{
  85:/home/user/Desktop/STM32-Projekte/FH-Vertibot/src/STM32F30x_StdPeriph_Driver/src/stm32f30x_exti.c ****   */
  86:/home/user/Desktop/STM32-Projekte/FH-Vertibot/src/STM32F30x_StdPeriph_Driver/src/stm32f30x_exti.c **** 
  87:/home/user/Desktop/STM32-Projekte/FH-Vertibot/src/STM32F30x_StdPeriph_Driver/src/stm32f30x_exti.c **** /** @defgroup EXTI 
  88:/home/user/Desktop/STM32-Projekte/FH-Vertibot/src/STM32F30x_StdPeriph_Driver/src/stm32f30x_exti.c ****   * @brief EXTI driver modules
  89:/home/user/Desktop/STM32-Projekte/FH-Vertibot/src/STM32F30x_StdPeriph_Driver/src/stm32f30x_exti.c ****   * @{
  90:/home/user/Desktop/STM32-Projekte/FH-Vertibot/src/STM32F30x_StdPeriph_Driver/src/stm32f30x_exti.c ****   */
  91:/home/user/Desktop/STM32-Projekte/FH-Vertibot/src/STM32F30x_StdPeriph_Driver/src/stm32f30x_exti.c **** 
  92:/home/user/Desktop/STM32-Projekte/FH-Vertibot/src/STM32F30x_StdPeriph_Driver/src/stm32f30x_exti.c **** 
  93:/home/user/Desktop/STM32-Projekte/FH-Vertibot/src/STM32F30x_StdPeriph_Driver/src/stm32f30x_exti.c **** /* Private typedef -----------------------------------------------------------*/
  94:/home/user/Desktop/STM32-Projekte/FH-Vertibot/src/STM32F30x_StdPeriph_Driver/src/stm32f30x_exti.c **** /* Private define ------------------------------------------------------------*/
  95:/home/user/Desktop/STM32-Projekte/FH-Vertibot/src/STM32F30x_StdPeriph_Driver/src/stm32f30x_exti.c **** #define EXTI_LINENONE     ((uint32_t)0x00000)        /* No interrupt selected */
  96:/home/user/Desktop/STM32-Projekte/FH-Vertibot/src/STM32F30x_StdPeriph_Driver/src/stm32f30x_exti.c **** 
  97:/home/user/Desktop/STM32-Projekte/FH-Vertibot/src/STM32F30x_StdPeriph_Driver/src/stm32f30x_exti.c **** /* Private macro -------------------------------------------------------------*/
  98:/home/user/Desktop/STM32-Projekte/FH-Vertibot/src/STM32F30x_StdPeriph_Driver/src/stm32f30x_exti.c **** /* Private variables ---------------------------------------------------------*/
  99:/home/user/Desktop/STM32-Projekte/FH-Vertibot/src/STM32F30x_StdPeriph_Driver/src/stm32f30x_exti.c **** /* Private function prototypes -----------------------------------------------*/
 100:/home/user/Desktop/STM32-Projekte/FH-Vertibot/src/STM32F30x_StdPeriph_Driver/src/stm32f30x_exti.c **** /* Private functions ---------------------------------------------------------*/
 101:/home/user/Desktop/STM32-Projekte/FH-Vertibot/src/STM32F30x_StdPeriph_Driver/src/stm32f30x_exti.c **** 
 102:/home/user/Desktop/STM32-Projekte/FH-Vertibot/src/STM32F30x_StdPeriph_Driver/src/stm32f30x_exti.c **** /** @defgroup EXTI_Private_Functions 
 103:/home/user/Desktop/STM32-Projekte/FH-Vertibot/src/STM32F30x_StdPeriph_Driver/src/stm32f30x_exti.c ****   * @{
 104:/home/user/Desktop/STM32-Projekte/FH-Vertibot/src/STM32F30x_StdPeriph_Driver/src/stm32f30x_exti.c ****   */
 105:/home/user/Desktop/STM32-Projekte/FH-Vertibot/src/STM32F30x_StdPeriph_Driver/src/stm32f30x_exti.c **** 
 106:/home/user/Desktop/STM32-Projekte/FH-Vertibot/src/STM32F30x_StdPeriph_Driver/src/stm32f30x_exti.c **** /** @defgroup EXTI_Group1 Initialization and Configuration functions
 107:/home/user/Desktop/STM32-Projekte/FH-Vertibot/src/STM32F30x_StdPeriph_Driver/src/stm32f30x_exti.c ****  *  @brief   Initialization and Configuration functions
 108:/home/user/Desktop/STM32-Projekte/FH-Vertibot/src/STM32F30x_StdPeriph_Driver/src/stm32f30x_exti.c ****  *
 109:/home/user/Desktop/STM32-Projekte/FH-Vertibot/src/STM32F30x_StdPeriph_Driver/src/stm32f30x_exti.c **** @verbatim
 110:/home/user/Desktop/STM32-Projekte/FH-Vertibot/src/STM32F30x_StdPeriph_Driver/src/stm32f30x_exti.c ****  ===============================================================================
 111:/home/user/Desktop/STM32-Projekte/FH-Vertibot/src/STM32F30x_StdPeriph_Driver/src/stm32f30x_exti.c ****               ##### Initialization and Configuration functions #####
 112:/home/user/Desktop/STM32-Projekte/FH-Vertibot/src/STM32F30x_StdPeriph_Driver/src/stm32f30x_exti.c ****  ===============================================================================
 113:/home/user/Desktop/STM32-Projekte/FH-Vertibot/src/STM32F30x_StdPeriph_Driver/src/stm32f30x_exti.c **** 
 114:/home/user/Desktop/STM32-Projekte/FH-Vertibot/src/STM32F30x_StdPeriph_Driver/src/stm32f30x_exti.c **** @endverbatim
 115:/home/user/Desktop/STM32-Projekte/FH-Vertibot/src/STM32F30x_StdPeriph_Driver/src/stm32f30x_exti.c ****   * @{
 116:/home/user/Desktop/STM32-Projekte/FH-Vertibot/src/STM32F30x_StdPeriph_Driver/src/stm32f30x_exti.c ****   */
 117:/home/user/Desktop/STM32-Projekte/FH-Vertibot/src/STM32F30x_StdPeriph_Driver/src/stm32f30x_exti.c ****     
 118:/home/user/Desktop/STM32-Projekte/FH-Vertibot/src/STM32F30x_StdPeriph_Driver/src/stm32f30x_exti.c **** /**
 119:/home/user/Desktop/STM32-Projekte/FH-Vertibot/src/STM32F30x_StdPeriph_Driver/src/stm32f30x_exti.c ****   * @brief  Deinitializes the EXTI peripheral registers to their default reset 
 120:/home/user/Desktop/STM32-Projekte/FH-Vertibot/src/STM32F30x_StdPeriph_Driver/src/stm32f30x_exti.c ****   *         values.
 121:/home/user/Desktop/STM32-Projekte/FH-Vertibot/src/STM32F30x_StdPeriph_Driver/src/stm32f30x_exti.c ****   * @param  None
 122:/home/user/Desktop/STM32-Projekte/FH-Vertibot/src/STM32F30x_StdPeriph_Driver/src/stm32f30x_exti.c ****   * @retval None
 123:/home/user/Desktop/STM32-Projekte/FH-Vertibot/src/STM32F30x_StdPeriph_Driver/src/stm32f30x_exti.c ****   */
 124:/home/user/Desktop/STM32-Projekte/FH-Vertibot/src/STM32F30x_StdPeriph_Driver/src/stm32f30x_exti.c **** void EXTI_DeInit(void)
 125:/home/user/Desktop/STM32-Projekte/FH-Vertibot/src/STM32F30x_StdPeriph_Driver/src/stm32f30x_exti.c **** {
  28              		.loc 1 125 0
  29              		.cfi_startproc
  30              		@ args = 0, pretend = 0, frame = 0
  31              		@ frame_needed = 0, uses_anonymous_args = 0
  32              		@ link register save eliminated.
 126:/home/user/Desktop/STM32-Projekte/FH-Vertibot/src/STM32F30x_StdPeriph_Driver/src/stm32f30x_exti.c ****   EXTI->IMR    = 0x1F800000;
  33              		.loc 1 126 0
  34 0000 0A4B     		ldr	r3, .L2
  35 0002 4FF0FC52 		mov	r2, #528482304
  36 0006 1A60     		str	r2, [r3, #0]
 127:/home/user/Desktop/STM32-Projekte/FH-Vertibot/src/STM32F30x_StdPeriph_Driver/src/stm32f30x_exti.c ****   EXTI->EMR    = 0x00000000;
 128:/home/user/Desktop/STM32-Projekte/FH-Vertibot/src/STM32F30x_StdPeriph_Driver/src/stm32f30x_exti.c ****   EXTI->RTSR   = 0x00000000;
 129:/home/user/Desktop/STM32-Projekte/FH-Vertibot/src/STM32F30x_StdPeriph_Driver/src/stm32f30x_exti.c ****   EXTI->FTSR   = 0x00000000;
 130:/home/user/Desktop/STM32-Projekte/FH-Vertibot/src/STM32F30x_StdPeriph_Driver/src/stm32f30x_exti.c ****   EXTI->SWIER  = 0x00000000;
 131:/home/user/Desktop/STM32-Projekte/FH-Vertibot/src/STM32F30x_StdPeriph_Driver/src/stm32f30x_exti.c ****   EXTI->PR     = 0xE07FFFFF;
  37              		.loc 1 131 0
  38 0008 6FF0FC51 		mvn	r1, #528482304
 127:/home/user/Desktop/STM32-Projekte/FH-Vertibot/src/STM32F30x_StdPeriph_Driver/src/stm32f30x_exti.c ****   EXTI->EMR    = 0x00000000;
  39              		.loc 1 127 0
  40 000c 0022     		movs	r2, #0
  41 000e 5A60     		str	r2, [r3, #4]
 128:/home/user/Desktop/STM32-Projekte/FH-Vertibot/src/STM32F30x_StdPeriph_Driver/src/stm32f30x_exti.c ****   EXTI->RTSR   = 0x00000000;
  42              		.loc 1 128 0
  43 0010 9A60     		str	r2, [r3, #8]
 129:/home/user/Desktop/STM32-Projekte/FH-Vertibot/src/STM32F30x_StdPeriph_Driver/src/stm32f30x_exti.c ****   EXTI->FTSR   = 0x00000000;
  44              		.loc 1 129 0
  45 0012 DA60     		str	r2, [r3, #12]
 130:/home/user/Desktop/STM32-Projekte/FH-Vertibot/src/STM32F30x_StdPeriph_Driver/src/stm32f30x_exti.c ****   EXTI->SWIER  = 0x00000000;
  46              		.loc 1 130 0
  47 0014 1A61     		str	r2, [r3, #16]
  48              		.loc 1 131 0
  49 0016 5961     		str	r1, [r3, #20]
 132:/home/user/Desktop/STM32-Projekte/FH-Vertibot/src/STM32F30x_StdPeriph_Driver/src/stm32f30x_exti.c ****   EXTI->IMR2   = 0x0000000C;
  50              		.loc 1 132 0
  51 0018 0C21     		movs	r1, #12
  52 001a 1962     		str	r1, [r3, #32]
 133:/home/user/Desktop/STM32-Projekte/FH-Vertibot/src/STM32F30x_StdPeriph_Driver/src/stm32f30x_exti.c ****   EXTI->EMR2   = 0x00000000;
  53              		.loc 1 133 0
  54 001c 5A62     		str	r2, [r3, #36]
 134:/home/user/Desktop/STM32-Projekte/FH-Vertibot/src/STM32F30x_StdPeriph_Driver/src/stm32f30x_exti.c ****   EXTI->RTSR2  = 0x00000000;
  55              		.loc 1 134 0
  56 001e 9A62     		str	r2, [r3, #40]
 135:/home/user/Desktop/STM32-Projekte/FH-Vertibot/src/STM32F30x_StdPeriph_Driver/src/stm32f30x_exti.c ****   EXTI->FTSR2  = 0x00000000;
  57              		.loc 1 135 0
  58 0020 DA62     		str	r2, [r3, #44]
 136:/home/user/Desktop/STM32-Projekte/FH-Vertibot/src/STM32F30x_StdPeriph_Driver/src/stm32f30x_exti.c ****   EXTI->SWIER2 = 0x00000000;
  59              		.loc 1 136 0
  60 0022 1A63     		str	r2, [r3, #48]
 137:/home/user/Desktop/STM32-Projekte/FH-Vertibot/src/STM32F30x_StdPeriph_Driver/src/stm32f30x_exti.c ****   EXTI->PR2    = 0x00000003;
  61              		.loc 1 137 0
  62 0024 0322     		movs	r2, #3
  63 0026 5A63     		str	r2, [r3, #52]
  64 0028 7047     		bx	lr
  65              	.L3:
  66 002a 00BF     		.align	2
  67              	.L2:
  68 002c 00040140 		.word	1073808384
  69              		.cfi_endproc
  70              	.LFE111:
  72              		.align	1
  73              		.global	EXTI_Init
  74              		.thumb
  75              		.thumb_func
  77              	EXTI_Init:
  78              	.LFB112:
 138:/home/user/Desktop/STM32-Projekte/FH-Vertibot/src/STM32F30x_StdPeriph_Driver/src/stm32f30x_exti.c **** }
 139:/home/user/Desktop/STM32-Projekte/FH-Vertibot/src/STM32F30x_StdPeriph_Driver/src/stm32f30x_exti.c **** 
 140:/home/user/Desktop/STM32-Projekte/FH-Vertibot/src/STM32F30x_StdPeriph_Driver/src/stm32f30x_exti.c **** /**
 141:/home/user/Desktop/STM32-Projekte/FH-Vertibot/src/STM32F30x_StdPeriph_Driver/src/stm32f30x_exti.c ****   * @brief  Initializes the EXTI peripheral according to the specified
 142:/home/user/Desktop/STM32-Projekte/FH-Vertibot/src/STM32F30x_StdPeriph_Driver/src/stm32f30x_exti.c ****   *         parameters in the EXTI_InitStruct.
 143:/home/user/Desktop/STM32-Projekte/FH-Vertibot/src/STM32F30x_StdPeriph_Driver/src/stm32f30x_exti.c ****   *    EXTI_Line specifies the EXTI line (EXTI0....EXTI35).
 144:/home/user/Desktop/STM32-Projekte/FH-Vertibot/src/STM32F30x_StdPeriph_Driver/src/stm32f30x_exti.c ****   *    EXTI_Mode specifies which EXTI line is used as interrupt or an event.
 145:/home/user/Desktop/STM32-Projekte/FH-Vertibot/src/STM32F30x_StdPeriph_Driver/src/stm32f30x_exti.c ****   *    EXTI_Trigger selects the trigger. When the trigger occurs, interrupt
 146:/home/user/Desktop/STM32-Projekte/FH-Vertibot/src/STM32F30x_StdPeriph_Driver/src/stm32f30x_exti.c ****   *                 pending bit will be set.
 147:/home/user/Desktop/STM32-Projekte/FH-Vertibot/src/STM32F30x_StdPeriph_Driver/src/stm32f30x_exti.c ****   *    EXTI_LineCmd controls (Enable/Disable) the EXTI line.
 148:/home/user/Desktop/STM32-Projekte/FH-Vertibot/src/STM32F30x_StdPeriph_Driver/src/stm32f30x_exti.c ****   * @param  EXTI_InitStruct: pointer to a EXTI_InitTypeDef structure that 
 149:/home/user/Desktop/STM32-Projekte/FH-Vertibot/src/STM32F30x_StdPeriph_Driver/src/stm32f30x_exti.c ****   *         contains the configuration information for the EXTI peripheral.
 150:/home/user/Desktop/STM32-Projekte/FH-Vertibot/src/STM32F30x_StdPeriph_Driver/src/stm32f30x_exti.c ****   * @retval None
 151:/home/user/Desktop/STM32-Projekte/FH-Vertibot/src/STM32F30x_StdPeriph_Driver/src/stm32f30x_exti.c ****   */
 152:/home/user/Desktop/STM32-Projekte/FH-Vertibot/src/STM32F30x_StdPeriph_Driver/src/stm32f30x_exti.c ****   
 153:/home/user/Desktop/STM32-Projekte/FH-Vertibot/src/STM32F30x_StdPeriph_Driver/src/stm32f30x_exti.c **** 
 154:/home/user/Desktop/STM32-Projekte/FH-Vertibot/src/STM32F30x_StdPeriph_Driver/src/stm32f30x_exti.c **** void EXTI_Init(EXTI_InitTypeDef* EXTI_InitStruct)
 155:/home/user/Desktop/STM32-Projekte/FH-Vertibot/src/STM32F30x_StdPeriph_Driver/src/stm32f30x_exti.c **** {
  79              		.loc 1 155 0
  80              		.cfi_startproc
  81              		@ args = 0, pretend = 0, frame = 0
  82              		@ frame_needed = 0, uses_anonymous_args = 0
  83              	.LVL0:
 156:/home/user/Desktop/STM32-Projekte/FH-Vertibot/src/STM32F30x_StdPeriph_Driver/src/stm32f30x_exti.c ****   uint32_t tmp = 0;
 157:/home/user/Desktop/STM32-Projekte/FH-Vertibot/src/STM32F30x_StdPeriph_Driver/src/stm32f30x_exti.c **** 
 158:/home/user/Desktop/STM32-Projekte/FH-Vertibot/src/STM32F30x_StdPeriph_Driver/src/stm32f30x_exti.c ****   /* Check the parameters */
 159:/home/user/Desktop/STM32-Projekte/FH-Vertibot/src/STM32F30x_StdPeriph_Driver/src/stm32f30x_exti.c ****   assert_param(IS_EXTI_MODE(EXTI_InitStruct->EXTI_Mode));
 160:/home/user/Desktop/STM32-Projekte/FH-Vertibot/src/STM32F30x_StdPeriph_Driver/src/stm32f30x_exti.c ****   assert_param(IS_EXTI_TRIGGER(EXTI_InitStruct->EXTI_Trigger));
 161:/home/user/Desktop/STM32-Projekte/FH-Vertibot/src/STM32F30x_StdPeriph_Driver/src/stm32f30x_exti.c ****   assert_param(IS_EXTI_LINE_ALL(EXTI_InitStruct->EXTI_Line));
 162:/home/user/Desktop/STM32-Projekte/FH-Vertibot/src/STM32F30x_StdPeriph_Driver/src/stm32f30x_exti.c ****   assert_param(IS_FUNCTIONAL_STATE(EXTI_InitStruct->EXTI_LineCmd));
 163:/home/user/Desktop/STM32-Projekte/FH-Vertibot/src/STM32F30x_StdPeriph_Driver/src/stm32f30x_exti.c **** 
 164:/home/user/Desktop/STM32-Projekte/FH-Vertibot/src/STM32F30x_StdPeriph_Driver/src/stm32f30x_exti.c ****   tmp = (uint32_t)EXTI_BASE;
 165:/home/user/Desktop/STM32-Projekte/FH-Vertibot/src/STM32F30x_StdPeriph_Driver/src/stm32f30x_exti.c ****       
 166:/home/user/Desktop/STM32-Projekte/FH-Vertibot/src/STM32F30x_StdPeriph_Driver/src/stm32f30x_exti.c ****   if (EXTI_InitStruct->EXTI_LineCmd != DISABLE)
  84              		.loc 1 166 0
  85 0030 8279     		ldrb	r2, [r0, #6]	@ zero_extendqisi2
  86 0032 0368     		ldr	r3, [r0, #0]
 155:/home/user/Desktop/STM32-Projekte/FH-Vertibot/src/STM32F30x_StdPeriph_Driver/src/stm32f30x_exti.c **** {
  87              		.loc 1 155 0
  88 0034 70B5     		push	{r4, r5, r6, lr}
  89              	.LCFI0:
  90              		.cfi_def_cfa_offset 16
  91              		.cfi_offset 4, -16
  92              		.cfi_offset 5, -12
  93              		.cfi_offset 6, -8
  94              		.cfi_offset 14, -4
  95              		.loc 1 166 0
  96 0036 002A     		cmp	r2, #0
  97 0038 66D0     		beq	.L5
 167:/home/user/Desktop/STM32-Projekte/FH-Vertibot/src/STM32F30x_StdPeriph_Driver/src/stm32f30x_exti.c ****   {
 168:/home/user/Desktop/STM32-Projekte/FH-Vertibot/src/STM32F30x_StdPeriph_Driver/src/stm32f30x_exti.c ****     /* Clear EXTI line configuration */   
 169:/home/user/Desktop/STM32-Projekte/FH-Vertibot/src/STM32F30x_StdPeriph_Driver/src/stm32f30x_exti.c ****     *(__IO uint32_t *) (((uint32_t) &(EXTI->IMR)) + ((EXTI_InitStruct->EXTI_Line) >> 5 ) * 0x20) &=
  98              		.loc 1 169 0
  99 003a 23F01F02 		bic	r2, r3, #31
 100 003e 02F18042 		add	r2, r2, #1073741824
 101 0042 02F58232 		add	r2, r2, #66560
 102 0046 03F01F01 		and	r1, r3, #31
 103 004a 1468     		ldr	r4, [r2, #0]
 104 004c 0123     		movs	r3, #1
 105 004e 03FA01F1 		lsl	r1, r3, r1
 106 0052 24EA0101 		bic	r1, r4, r1
 107 0056 1160     		str	r1, [r2, #0]
 170:/home/user/Desktop/STM32-Projekte/FH-Vertibot/src/STM32F30x_StdPeriph_Driver/src/stm32f30x_exti.c ****     *(__IO uint32_t *) (((uint32_t) &(EXTI->EMR)) + ((EXTI_InitStruct->EXTI_Line) >> 5 ) * 0x20) &=
 108              		.loc 1 170 0
 109 0058 0468     		ldr	r4, [r0, #0]
 110 005a 344A     		ldr	r2, .L9
 111 005c 24F01F01 		bic	r1, r4, #31
 112 0060 04F01F04 		and	r4, r4, #31
 113 0064 8D58     		ldr	r5, [r1, r2]
 114 0066 03FA04F4 		lsl	r4, r3, r4
 115 006a 25EA0404 		bic	r4, r5, r4
 116 006e 8C50     		str	r4, [r1, r2]
 171:/home/user/Desktop/STM32-Projekte/FH-Vertibot/src/STM32F30x_StdPeriph_Driver/src/stm32f30x_exti.c ****      
 172:/home/user/Desktop/STM32-Projekte/FH-Vertibot/src/STM32F30x_StdPeriph_Driver/src/stm32f30x_exti.c ****     tmp += EXTI_InitStruct->EXTI_Mode + (((EXTI_InitStruct->EXTI_Line) >> 5 ) * 0x20);
 117              		.loc 1 172 0
 118 0070 0179     		ldrb	r1, [r0, #4]	@ zero_extendqisi2
 119 0072 0468     		ldr	r4, [r0, #0]
 120              	.LVL1:
 121 0074 01F18041 		add	r1, r1, #1073741824
 122 0078 24F01F02 		bic	r2, r4, #31
 123 007c 01F58231 		add	r1, r1, #66560
 173:/home/user/Desktop/STM32-Projekte/FH-Vertibot/src/STM32F30x_StdPeriph_Driver/src/stm32f30x_exti.c **** 
 174:/home/user/Desktop/STM32-Projekte/FH-Vertibot/src/STM32F30x_StdPeriph_Driver/src/stm32f30x_exti.c ****     *(__IO uint32_t *) tmp |= (uint32_t)(1 << (EXTI_InitStruct->EXTI_Line & 0x1F));
 124              		.loc 1 174 0
 125 0080 04F01F04 		and	r4, r4, #31
 126              	.LVL2:
 127 0084 8D58     		ldr	r5, [r1, r2]
 128 0086 03FA04F4 		lsl	r4, r3, r4
 129 008a 2C43     		orrs	r4, r4, r5
 130 008c 8C50     		str	r4, [r1, r2]
 131              	.LVL3:
 175:/home/user/Desktop/STM32-Projekte/FH-Vertibot/src/STM32F30x_StdPeriph_Driver/src/stm32f30x_exti.c ****     
 176:/home/user/Desktop/STM32-Projekte/FH-Vertibot/src/STM32F30x_StdPeriph_Driver/src/stm32f30x_exti.c ****     tmp = (uint32_t)EXTI_BASE;
 177:/home/user/Desktop/STM32-Projekte/FH-Vertibot/src/STM32F30x_StdPeriph_Driver/src/stm32f30x_exti.c **** 
 178:/home/user/Desktop/STM32-Projekte/FH-Vertibot/src/STM32F30x_StdPeriph_Driver/src/stm32f30x_exti.c ****     /* Clear Rising Falling edge configuration */
 179:/home/user/Desktop/STM32-Projekte/FH-Vertibot/src/STM32F30x_StdPeriph_Driver/src/stm32f30x_exti.c ****     *(__IO uint32_t *) (((uint32_t) &(EXTI->RTSR)) + ((EXTI_InitStruct->EXTI_Line) >> 5 ) * 0x20) &
 132              		.loc 1 179 0
 133 008e 0168     		ldr	r1, [r0, #0]
 134 0090 274C     		ldr	r4, .L9+4
 135 0092 21F01F02 		bic	r2, r1, #31
 136 0096 01F01F01 		and	r1, r1, #31
 137 009a 1559     		ldr	r5, [r2, r4]
 138 009c 03FA01F1 		lsl	r1, r3, r1
 139 00a0 25EA0101 		bic	r1, r5, r1
 140 00a4 1151     		str	r1, [r2, r4]
 180:/home/user/Desktop/STM32-Projekte/FH-Vertibot/src/STM32F30x_StdPeriph_Driver/src/stm32f30x_exti.c ****     *(__IO uint32_t *) (((uint32_t) &(EXTI->FTSR)) + ((EXTI_InitStruct->EXTI_Line) >> 5 ) * 0x20) &
 141              		.loc 1 180 0
 142 00a6 0568     		ldr	r5, [r0, #0]
 143 00a8 2249     		ldr	r1, .L9+8
 144 00aa 25F01F02 		bic	r2, r5, #31
 145 00ae 05F01F05 		and	r5, r5, #31
 146 00b2 5658     		ldr	r6, [r2, r1]
 147 00b4 03FA05F5 		lsl	r5, r3, r5
 148 00b8 26EA0505 		bic	r5, r6, r5
 149 00bc 5550     		str	r5, [r2, r1]
 181:/home/user/Desktop/STM32-Projekte/FH-Vertibot/src/STM32F30x_StdPeriph_Driver/src/stm32f30x_exti.c ****     
 182:/home/user/Desktop/STM32-Projekte/FH-Vertibot/src/STM32F30x_StdPeriph_Driver/src/stm32f30x_exti.c ****       /* Select the trigger for the selected interrupts */
 183:/home/user/Desktop/STM32-Projekte/FH-Vertibot/src/STM32F30x_StdPeriph_Driver/src/stm32f30x_exti.c ****     if (EXTI_InitStruct->EXTI_Trigger == EXTI_Trigger_Rising_Falling)
 150              		.loc 1 183 0
 151 00be 4579     		ldrb	r5, [r0, #5]	@ zero_extendqisi2
 152 00c0 0268     		ldr	r2, [r0, #0]
 153 00c2 102D     		cmp	r5, #16
 154 00c4 12D1     		bne	.L6
 184:/home/user/Desktop/STM32-Projekte/FH-Vertibot/src/STM32F30x_StdPeriph_Driver/src/stm32f30x_exti.c ****     {
 185:/home/user/Desktop/STM32-Projekte/FH-Vertibot/src/STM32F30x_StdPeriph_Driver/src/stm32f30x_exti.c ****       /* Rising Falling edge */
 186:/home/user/Desktop/STM32-Projekte/FH-Vertibot/src/STM32F30x_StdPeriph_Driver/src/stm32f30x_exti.c ****     *(__IO uint32_t *) (((uint32_t) &(EXTI->RTSR)) + ((EXTI_InitStruct->EXTI_Line) >> 5 ) * 0x20) |
 155              		.loc 1 186 0
 156 00c6 22F01F05 		bic	r5, r2, #31
 157 00ca 02F01F02 		and	r2, r2, #31
 158 00ce 2E59     		ldr	r6, [r5, r4]
 159 00d0 03FA02F2 		lsl	r2, r3, r2
 160 00d4 3243     		orrs	r2, r2, r6
 161 00d6 2A51     		str	r2, [r5, r4]
 187:/home/user/Desktop/STM32-Projekte/FH-Vertibot/src/STM32F30x_StdPeriph_Driver/src/stm32f30x_exti.c ****     *(__IO uint32_t *) (((uint32_t) &(EXTI->FTSR)) + ((EXTI_InitStruct->EXTI_Line) >> 5 ) * 0x20) |
 162              		.loc 1 187 0
 163 00d8 0068     		ldr	r0, [r0, #0]
 164              	.LVL4:
 165 00da 20F01F02 		bic	r2, r0, #31
 166 00de 00F01F00 		and	r0, r0, #31
 167 00e2 5458     		ldr	r4, [r2, r1]
 168 00e4 03FA00F3 		lsl	r3, r3, r0
 169 00e8 2343     		orrs	r3, r3, r4
 170 00ea 1CE0     		b	.L8
 171              	.LVL5:
 172              	.L6:
 188:/home/user/Desktop/STM32-Projekte/FH-Vertibot/src/STM32F30x_StdPeriph_Driver/src/stm32f30x_exti.c ****     }
 189:/home/user/Desktop/STM32-Projekte/FH-Vertibot/src/STM32F30x_StdPeriph_Driver/src/stm32f30x_exti.c ****     else
 190:/home/user/Desktop/STM32-Projekte/FH-Vertibot/src/STM32F30x_StdPeriph_Driver/src/stm32f30x_exti.c ****     {
 191:/home/user/Desktop/STM32-Projekte/FH-Vertibot/src/STM32F30x_StdPeriph_Driver/src/stm32f30x_exti.c ****       tmp += EXTI_InitStruct->EXTI_Trigger + (((EXTI_InitStruct->EXTI_Line) >> 5 ) * 0x20);
 173              		.loc 1 191 0
 174 00ec 05F18040 		add	r0, r5, #1073741824
 175              	.LVL6:
 176 00f0 22F01F01 		bic	r1, r2, #31
 177 00f4 00F58230 		add	r0, r0, #66560
 192:/home/user/Desktop/STM32-Projekte/FH-Vertibot/src/STM32F30x_StdPeriph_Driver/src/stm32f30x_exti.c **** 
 193:/home/user/Desktop/STM32-Projekte/FH-Vertibot/src/STM32F30x_StdPeriph_Driver/src/stm32f30x_exti.c ****       *(__IO uint32_t *) tmp |= (uint32_t)(1 << (EXTI_InitStruct->EXTI_Line & 0x1F));
 178              		.loc 1 193 0
 179 00f8 02F01F02 		and	r2, r2, #31
 180              	.LVL7:
 181 00fc 4458     		ldr	r4, [r0, r1]
 182 00fe 03FA02F3 		lsl	r3, r3, r2
 183 0102 2343     		orrs	r3, r3, r4
 184 0104 4350     		str	r3, [r0, r1]
 185 0106 70BD     		pop	{r4, r5, r6, pc}
 186              	.LVL8:
 187              	.L5:
 194:/home/user/Desktop/STM32-Projekte/FH-Vertibot/src/STM32F30x_StdPeriph_Driver/src/stm32f30x_exti.c ****     }
 195:/home/user/Desktop/STM32-Projekte/FH-Vertibot/src/STM32F30x_StdPeriph_Driver/src/stm32f30x_exti.c ****   }
 196:/home/user/Desktop/STM32-Projekte/FH-Vertibot/src/STM32F30x_StdPeriph_Driver/src/stm32f30x_exti.c ****       
 197:/home/user/Desktop/STM32-Projekte/FH-Vertibot/src/STM32F30x_StdPeriph_Driver/src/stm32f30x_exti.c ****   else
 198:/home/user/Desktop/STM32-Projekte/FH-Vertibot/src/STM32F30x_StdPeriph_Driver/src/stm32f30x_exti.c ****   {
 199:/home/user/Desktop/STM32-Projekte/FH-Vertibot/src/STM32F30x_StdPeriph_Driver/src/stm32f30x_exti.c ****     tmp += EXTI_InitStruct->EXTI_Mode + (((EXTI_InitStruct->EXTI_Line) >> 5 ) * 0x20);
 188              		.loc 1 199 0
 189 0108 0179     		ldrb	r1, [r0, #4]	@ zero_extendqisi2
 190 010a 01F18041 		add	r1, r1, #1073741824
 191 010e 23F01F02 		bic	r2, r3, #31
 192 0112 01F58231 		add	r1, r1, #66560
 200:/home/user/Desktop/STM32-Projekte/FH-Vertibot/src/STM32F30x_StdPeriph_Driver/src/stm32f30x_exti.c **** 
 201:/home/user/Desktop/STM32-Projekte/FH-Vertibot/src/STM32F30x_StdPeriph_Driver/src/stm32f30x_exti.c ****     /* Disable the selected external lines */
 202:/home/user/Desktop/STM32-Projekte/FH-Vertibot/src/STM32F30x_StdPeriph_Driver/src/stm32f30x_exti.c ****     *(__IO uint32_t *) tmp &= ~(uint32_t)(1 << (EXTI_InitStruct->EXTI_Line & 0x1F));
 193              		.loc 1 202 0
 194 0116 03F01F03 		and	r3, r3, #31
 195              	.LVL9:
 196 011a 8858     		ldr	r0, [r1, r2]
 197              	.LVL10:
 198 011c 0124     		movs	r4, #1
 199 011e 04FA03F3 		lsl	r3, r4, r3
 200 0122 20EA0303 		bic	r3, r0, r3
 201              	.LVL11:
 202              	.L8:
 203 0126 8B50     		str	r3, [r1, r2]
 204 0128 70BD     		pop	{r4, r5, r6, pc}
 205              	.L10:
 206 012a 00BF     		.align	2
 207              	.L9:
 208 012c 04040140 		.word	1073808388
 209 0130 08040140 		.word	1073808392
 210 0134 0C040140 		.word	1073808396
 211              		.cfi_endproc
 212              	.LFE112:
 214              		.align	1
 215              		.global	EXTI_StructInit
 216              		.thumb
 217              		.thumb_func
 219              	EXTI_StructInit:
 220              	.LFB113:
 203:/home/user/Desktop/STM32-Projekte/FH-Vertibot/src/STM32F30x_StdPeriph_Driver/src/stm32f30x_exti.c ****   }
 204:/home/user/Desktop/STM32-Projekte/FH-Vertibot/src/STM32F30x_StdPeriph_Driver/src/stm32f30x_exti.c ****          
 205:/home/user/Desktop/STM32-Projekte/FH-Vertibot/src/STM32F30x_StdPeriph_Driver/src/stm32f30x_exti.c **** }
 206:/home/user/Desktop/STM32-Projekte/FH-Vertibot/src/STM32F30x_StdPeriph_Driver/src/stm32f30x_exti.c **** 
 207:/home/user/Desktop/STM32-Projekte/FH-Vertibot/src/STM32F30x_StdPeriph_Driver/src/stm32f30x_exti.c **** /**
 208:/home/user/Desktop/STM32-Projekte/FH-Vertibot/src/STM32F30x_StdPeriph_Driver/src/stm32f30x_exti.c ****   * @brief  Fills each EXTI_InitStruct member with its reset value.
 209:/home/user/Desktop/STM32-Projekte/FH-Vertibot/src/STM32F30x_StdPeriph_Driver/src/stm32f30x_exti.c ****   * @param  EXTI_InitStruct: pointer to a EXTI_InitTypeDef structure which will
 210:/home/user/Desktop/STM32-Projekte/FH-Vertibot/src/STM32F30x_StdPeriph_Driver/src/stm32f30x_exti.c ****   *         be initialized.
 211:/home/user/Desktop/STM32-Projekte/FH-Vertibot/src/STM32F30x_StdPeriph_Driver/src/stm32f30x_exti.c ****   * @retval None
 212:/home/user/Desktop/STM32-Projekte/FH-Vertibot/src/STM32F30x_StdPeriph_Driver/src/stm32f30x_exti.c ****   */
 213:/home/user/Desktop/STM32-Projekte/FH-Vertibot/src/STM32F30x_StdPeriph_Driver/src/stm32f30x_exti.c **** void EXTI_StructInit(EXTI_InitTypeDef* EXTI_InitStruct)
 214:/home/user/Desktop/STM32-Projekte/FH-Vertibot/src/STM32F30x_StdPeriph_Driver/src/stm32f30x_exti.c **** {
 221              		.loc 1 214 0
 222              		.cfi_startproc
 223              		@ args = 0, pretend = 0, frame = 0
 224              		@ frame_needed = 0, uses_anonymous_args = 0
 225              		@ link register save eliminated.
 226              	.LVL12:
 215:/home/user/Desktop/STM32-Projekte/FH-Vertibot/src/STM32F30x_StdPeriph_Driver/src/stm32f30x_exti.c ****   EXTI_InitStruct->EXTI_Line = EXTI_LINENONE;
 227              		.loc 1 215 0
 228 0138 0023     		movs	r3, #0
 216:/home/user/Desktop/STM32-Projekte/FH-Vertibot/src/STM32F30x_StdPeriph_Driver/src/stm32f30x_exti.c ****   EXTI_InitStruct->EXTI_Mode = EXTI_Mode_Interrupt;
 217:/home/user/Desktop/STM32-Projekte/FH-Vertibot/src/STM32F30x_StdPeriph_Driver/src/stm32f30x_exti.c ****   EXTI_InitStruct->EXTI_Trigger = EXTI_Trigger_Rising_Falling;
 229              		.loc 1 217 0
 230 013a 1022     		movs	r2, #16
 215:/home/user/Desktop/STM32-Projekte/FH-Vertibot/src/STM32F30x_StdPeriph_Driver/src/stm32f30x_exti.c ****   EXTI_InitStruct->EXTI_Line = EXTI_LINENONE;
 231              		.loc 1 215 0
 232 013c 0360     		str	r3, [r0, #0]
 216:/home/user/Desktop/STM32-Projekte/FH-Vertibot/src/STM32F30x_StdPeriph_Driver/src/stm32f30x_exti.c ****   EXTI_InitStruct->EXTI_Mode = EXTI_Mode_Interrupt;
 233              		.loc 1 216 0
 234 013e 0371     		strb	r3, [r0, #4]
 235              		.loc 1 217 0
 236 0140 4271     		strb	r2, [r0, #5]
 218:/home/user/Desktop/STM32-Projekte/FH-Vertibot/src/STM32F30x_StdPeriph_Driver/src/stm32f30x_exti.c ****   EXTI_InitStruct->EXTI_LineCmd = DISABLE;
 237              		.loc 1 218 0
 238 0142 8371     		strb	r3, [r0, #6]
 239 0144 7047     		bx	lr
 240              		.cfi_endproc
 241              	.LFE113:
 243              		.align	1
 244              		.global	EXTI_GenerateSWInterrupt
 245              		.thumb
 246              		.thumb_func
 248              	EXTI_GenerateSWInterrupt:
 249              	.LFB114:
 219:/home/user/Desktop/STM32-Projekte/FH-Vertibot/src/STM32F30x_StdPeriph_Driver/src/stm32f30x_exti.c **** }
 220:/home/user/Desktop/STM32-Projekte/FH-Vertibot/src/STM32F30x_StdPeriph_Driver/src/stm32f30x_exti.c **** 
 221:/home/user/Desktop/STM32-Projekte/FH-Vertibot/src/STM32F30x_StdPeriph_Driver/src/stm32f30x_exti.c **** /**
 222:/home/user/Desktop/STM32-Projekte/FH-Vertibot/src/STM32F30x_StdPeriph_Driver/src/stm32f30x_exti.c ****   * @brief  Generates a Software interrupt on selected EXTI line.
 223:/home/user/Desktop/STM32-Projekte/FH-Vertibot/src/STM32F30x_StdPeriph_Driver/src/stm32f30x_exti.c ****   * @param  EXTI_Line: specifies the EXTI line on which the software interrupt
 224:/home/user/Desktop/STM32-Projekte/FH-Vertibot/src/STM32F30x_StdPeriph_Driver/src/stm32f30x_exti.c ****   *         will be generated.
 225:/home/user/Desktop/STM32-Projekte/FH-Vertibot/src/STM32F30x_StdPeriph_Driver/src/stm32f30x_exti.c ****   *   This parameter can be any combination of EXTI_Linex where x can be (0..20).
 226:/home/user/Desktop/STM32-Projekte/FH-Vertibot/src/STM32F30x_StdPeriph_Driver/src/stm32f30x_exti.c ****   * @retval None
 227:/home/user/Desktop/STM32-Projekte/FH-Vertibot/src/STM32F30x_StdPeriph_Driver/src/stm32f30x_exti.c ****   */
 228:/home/user/Desktop/STM32-Projekte/FH-Vertibot/src/STM32F30x_StdPeriph_Driver/src/stm32f30x_exti.c **** void EXTI_GenerateSWInterrupt(uint32_t EXTI_Line)
 229:/home/user/Desktop/STM32-Projekte/FH-Vertibot/src/STM32F30x_StdPeriph_Driver/src/stm32f30x_exti.c **** {
 250              		.loc 1 229 0
 251              		.cfi_startproc
 252              		@ args = 0, pretend = 0, frame = 0
 253              		@ frame_needed = 0, uses_anonymous_args = 0
 254              	.LVL13:
 230:/home/user/Desktop/STM32-Projekte/FH-Vertibot/src/STM32F30x_StdPeriph_Driver/src/stm32f30x_exti.c ****   /* Check the parameters */
 231:/home/user/Desktop/STM32-Projekte/FH-Vertibot/src/STM32F30x_StdPeriph_Driver/src/stm32f30x_exti.c ****   assert_param(IS_EXTI_LINE_EXT(EXTI_Line));
 232:/home/user/Desktop/STM32-Projekte/FH-Vertibot/src/STM32F30x_StdPeriph_Driver/src/stm32f30x_exti.c **** 
 233:/home/user/Desktop/STM32-Projekte/FH-Vertibot/src/STM32F30x_StdPeriph_Driver/src/stm32f30x_exti.c ****   *(__IO uint32_t *) (((uint32_t) &(EXTI->SWIER)) + ((EXTI_Line) >> 5 ) * 0x20) |= (uint32_t)(1 << 
 255              		.loc 1 233 0
 256 0146 20F01F02 		bic	r2, r0, #31
 257 014a 054B     		ldr	r3, .L13
 229:/home/user/Desktop/STM32-Projekte/FH-Vertibot/src/STM32F30x_StdPeriph_Driver/src/stm32f30x_exti.c **** {
 258              		.loc 1 229 0
 259 014c 10B5     		push	{r4, lr}
 260              	.LCFI1:
 261              		.cfi_def_cfa_offset 8
 262              		.cfi_offset 4, -8
 263              		.cfi_offset 14, -4
 264              		.loc 1 233 0
 265 014e D158     		ldr	r1, [r2, r3]
 266 0150 00F01F00 		and	r0, r0, #31
 267              	.LVL14:
 268 0154 0124     		movs	r4, #1
 269 0156 04FA00F0 		lsl	r0, r4, r0
 270 015a 0843     		orrs	r0, r0, r1
 271 015c D050     		str	r0, [r2, r3]
 272 015e 10BD     		pop	{r4, pc}
 273              	.L14:
 274              		.align	2
 275              	.L13:
 276 0160 10040140 		.word	1073808400
 277              		.cfi_endproc
 278              	.LFE114:
 280              		.align	1
 281              		.global	EXTI_GetFlagStatus
 282              		.thumb
 283              		.thumb_func
 285              	EXTI_GetFlagStatus:
 286              	.LFB115:
 234:/home/user/Desktop/STM32-Projekte/FH-Vertibot/src/STM32F30x_StdPeriph_Driver/src/stm32f30x_exti.c **** 
 235:/home/user/Desktop/STM32-Projekte/FH-Vertibot/src/STM32F30x_StdPeriph_Driver/src/stm32f30x_exti.c **** }
 236:/home/user/Desktop/STM32-Projekte/FH-Vertibot/src/STM32F30x_StdPeriph_Driver/src/stm32f30x_exti.c **** 
 237:/home/user/Desktop/STM32-Projekte/FH-Vertibot/src/STM32F30x_StdPeriph_Driver/src/stm32f30x_exti.c **** /**
 238:/home/user/Desktop/STM32-Projekte/FH-Vertibot/src/STM32F30x_StdPeriph_Driver/src/stm32f30x_exti.c ****   * @}
 239:/home/user/Desktop/STM32-Projekte/FH-Vertibot/src/STM32F30x_StdPeriph_Driver/src/stm32f30x_exti.c ****   */
 240:/home/user/Desktop/STM32-Projekte/FH-Vertibot/src/STM32F30x_StdPeriph_Driver/src/stm32f30x_exti.c ****   
 241:/home/user/Desktop/STM32-Projekte/FH-Vertibot/src/STM32F30x_StdPeriph_Driver/src/stm32f30x_exti.c **** /** @defgroup EXTI_Group2 Interrupts and flags management functions
 242:/home/user/Desktop/STM32-Projekte/FH-Vertibot/src/STM32F30x_StdPeriph_Driver/src/stm32f30x_exti.c ****  *  @brief    EXTI Interrupts and flags management functions
 243:/home/user/Desktop/STM32-Projekte/FH-Vertibot/src/STM32F30x_StdPeriph_Driver/src/stm32f30x_exti.c ****  *
 244:/home/user/Desktop/STM32-Projekte/FH-Vertibot/src/STM32F30x_StdPeriph_Driver/src/stm32f30x_exti.c **** @verbatim  
 245:/home/user/Desktop/STM32-Projekte/FH-Vertibot/src/STM32F30x_StdPeriph_Driver/src/stm32f30x_exti.c ****  ===============================================================================
 246:/home/user/Desktop/STM32-Projekte/FH-Vertibot/src/STM32F30x_StdPeriph_Driver/src/stm32f30x_exti.c ****               ##### Interrupts and flags management functions #####
 247:/home/user/Desktop/STM32-Projekte/FH-Vertibot/src/STM32F30x_StdPeriph_Driver/src/stm32f30x_exti.c ****  ===============================================================================
 248:/home/user/Desktop/STM32-Projekte/FH-Vertibot/src/STM32F30x_StdPeriph_Driver/src/stm32f30x_exti.c ****     [..]
 249:/home/user/Desktop/STM32-Projekte/FH-Vertibot/src/STM32F30x_StdPeriph_Driver/src/stm32f30x_exti.c ****     This section provides functions allowing to configure the EXTI Interrupts 
 250:/home/user/Desktop/STM32-Projekte/FH-Vertibot/src/STM32F30x_StdPeriph_Driver/src/stm32f30x_exti.c ****     sources and check or clear the flags or pending bits status.
 251:/home/user/Desktop/STM32-Projekte/FH-Vertibot/src/STM32F30x_StdPeriph_Driver/src/stm32f30x_exti.c ****     
 252:/home/user/Desktop/STM32-Projekte/FH-Vertibot/src/STM32F30x_StdPeriph_Driver/src/stm32f30x_exti.c **** @endverbatim
 253:/home/user/Desktop/STM32-Projekte/FH-Vertibot/src/STM32F30x_StdPeriph_Driver/src/stm32f30x_exti.c ****   * @{
 254:/home/user/Desktop/STM32-Projekte/FH-Vertibot/src/STM32F30x_StdPeriph_Driver/src/stm32f30x_exti.c ****   */
 255:/home/user/Desktop/STM32-Projekte/FH-Vertibot/src/STM32F30x_StdPeriph_Driver/src/stm32f30x_exti.c **** 
 256:/home/user/Desktop/STM32-Projekte/FH-Vertibot/src/STM32F30x_StdPeriph_Driver/src/stm32f30x_exti.c **** /**
 257:/home/user/Desktop/STM32-Projekte/FH-Vertibot/src/STM32F30x_StdPeriph_Driver/src/stm32f30x_exti.c ****   * @brief  Checks whether the specified EXTI line flag is set or not.
 258:/home/user/Desktop/STM32-Projekte/FH-Vertibot/src/STM32F30x_StdPeriph_Driver/src/stm32f30x_exti.c ****   * @param  EXTI_Line: specifies the EXTI line flag to check.
 259:/home/user/Desktop/STM32-Projekte/FH-Vertibot/src/STM32F30x_StdPeriph_Driver/src/stm32f30x_exti.c ****   *   This parameter can be any combination of EXTI_Linex where x can be (0..20).
 260:/home/user/Desktop/STM32-Projekte/FH-Vertibot/src/STM32F30x_StdPeriph_Driver/src/stm32f30x_exti.c ****   * @retval The new state of EXTI_Line (SET or RESET).                  
 261:/home/user/Desktop/STM32-Projekte/FH-Vertibot/src/STM32F30x_StdPeriph_Driver/src/stm32f30x_exti.c ****   */
 262:/home/user/Desktop/STM32-Projekte/FH-Vertibot/src/STM32F30x_StdPeriph_Driver/src/stm32f30x_exti.c **** FlagStatus EXTI_GetFlagStatus(uint32_t EXTI_Line)
 263:/home/user/Desktop/STM32-Projekte/FH-Vertibot/src/STM32F30x_StdPeriph_Driver/src/stm32f30x_exti.c **** {
 287              		.loc 1 263 0
 288              		.cfi_startproc
 289              		@ args = 0, pretend = 0, frame = 0
 290              		@ frame_needed = 0, uses_anonymous_args = 0
 291              		@ link register save eliminated.
 292              	.LVL15:
 264:/home/user/Desktop/STM32-Projekte/FH-Vertibot/src/STM32F30x_StdPeriph_Driver/src/stm32f30x_exti.c ****   FlagStatus bitstatus = RESET;
 265:/home/user/Desktop/STM32-Projekte/FH-Vertibot/src/STM32F30x_StdPeriph_Driver/src/stm32f30x_exti.c ****   
 266:/home/user/Desktop/STM32-Projekte/FH-Vertibot/src/STM32F30x_StdPeriph_Driver/src/stm32f30x_exti.c ****   /* Check the parameters */
 267:/home/user/Desktop/STM32-Projekte/FH-Vertibot/src/STM32F30x_StdPeriph_Driver/src/stm32f30x_exti.c ****   assert_param(IS_GET_EXTI_LINE(EXTI_Line));
 268:/home/user/Desktop/STM32-Projekte/FH-Vertibot/src/STM32F30x_StdPeriph_Driver/src/stm32f30x_exti.c ****    
 269:/home/user/Desktop/STM32-Projekte/FH-Vertibot/src/STM32F30x_StdPeriph_Driver/src/stm32f30x_exti.c ****   if ((*(__IO uint32_t *) (((uint32_t) &(EXTI->PR)) + ((EXTI_Line) >> 5 ) * 0x20)& (uint32_t)(1 << 
 293              		.loc 1 269 0
 294 0164 20F01F02 		bic	r2, r0, #31
 295 0168 054B     		ldr	r3, .L16
 296 016a 00F01F00 		and	r0, r0, #31
 297              	.LVL16:
 298 016e D358     		ldr	r3, [r2, r3]
 299              	.LVL17:
 300 0170 0122     		movs	r2, #1
 301 0172 02FA00F0 		lsl	r0, r2, r0
 302 0176 0342     		tst	r3, r0
 270:/home/user/Desktop/STM32-Projekte/FH-Vertibot/src/STM32F30x_StdPeriph_Driver/src/stm32f30x_exti.c ****   {
 271:/home/user/Desktop/STM32-Projekte/FH-Vertibot/src/STM32F30x_StdPeriph_Driver/src/stm32f30x_exti.c ****     bitstatus = SET;
 272:/home/user/Desktop/STM32-Projekte/FH-Vertibot/src/STM32F30x_StdPeriph_Driver/src/stm32f30x_exti.c ****   }
 273:/home/user/Desktop/STM32-Projekte/FH-Vertibot/src/STM32F30x_StdPeriph_Driver/src/stm32f30x_exti.c ****   else
 274:/home/user/Desktop/STM32-Projekte/FH-Vertibot/src/STM32F30x_StdPeriph_Driver/src/stm32f30x_exti.c ****   {
 275:/home/user/Desktop/STM32-Projekte/FH-Vertibot/src/STM32F30x_StdPeriph_Driver/src/stm32f30x_exti.c ****     bitstatus = RESET;
 276:/home/user/Desktop/STM32-Projekte/FH-Vertibot/src/STM32F30x_StdPeriph_Driver/src/stm32f30x_exti.c ****   }
 277:/home/user/Desktop/STM32-Projekte/FH-Vertibot/src/STM32F30x_StdPeriph_Driver/src/stm32f30x_exti.c ****   return bitstatus;
 278:/home/user/Desktop/STM32-Projekte/FH-Vertibot/src/STM32F30x_StdPeriph_Driver/src/stm32f30x_exti.c **** }
 303              		.loc 1 278 0
 304 0178 0CBF     		ite	eq
 305 017a 0020     		moveq	r0, #0
 306 017c 0120     		movne	r0, #1
 307 017e 7047     		bx	lr
 308              	.L17:
 309              		.align	2
 310              	.L16:
 311 0180 14040140 		.word	1073808404
 312              		.cfi_endproc
 313              	.LFE115:
 315              		.align	1
 316              		.global	EXTI_ClearFlag
 317              		.thumb
 318              		.thumb_func
 320              	EXTI_ClearFlag:
 321              	.LFB116:
 279:/home/user/Desktop/STM32-Projekte/FH-Vertibot/src/STM32F30x_StdPeriph_Driver/src/stm32f30x_exti.c **** 
 280:/home/user/Desktop/STM32-Projekte/FH-Vertibot/src/STM32F30x_StdPeriph_Driver/src/stm32f30x_exti.c **** /**
 281:/home/user/Desktop/STM32-Projekte/FH-Vertibot/src/STM32F30x_StdPeriph_Driver/src/stm32f30x_exti.c ****   * @brief  Clears the EXTI's line pending flags.
 282:/home/user/Desktop/STM32-Projekte/FH-Vertibot/src/STM32F30x_StdPeriph_Driver/src/stm32f30x_exti.c ****   * @param  EXTI_Line: specifies the EXTI lines flags to clear.
 283:/home/user/Desktop/STM32-Projekte/FH-Vertibot/src/STM32F30x_StdPeriph_Driver/src/stm32f30x_exti.c ****   *   This parameter can be any combination of EXTI_Linex where x can be (0..20).
 284:/home/user/Desktop/STM32-Projekte/FH-Vertibot/src/STM32F30x_StdPeriph_Driver/src/stm32f30x_exti.c ****   * @retval None
 285:/home/user/Desktop/STM32-Projekte/FH-Vertibot/src/STM32F30x_StdPeriph_Driver/src/stm32f30x_exti.c ****   */
 286:/home/user/Desktop/STM32-Projekte/FH-Vertibot/src/STM32F30x_StdPeriph_Driver/src/stm32f30x_exti.c **** void EXTI_ClearFlag(uint32_t EXTI_Line)
 287:/home/user/Desktop/STM32-Projekte/FH-Vertibot/src/STM32F30x_StdPeriph_Driver/src/stm32f30x_exti.c **** {
 322              		.loc 1 287 0
 323              		.cfi_startproc
 324              		@ args = 0, pretend = 0, frame = 0
 325              		@ frame_needed = 0, uses_anonymous_args = 0
 326              		@ link register save eliminated.
 327              	.LVL18:
 288:/home/user/Desktop/STM32-Projekte/FH-Vertibot/src/STM32F30x_StdPeriph_Driver/src/stm32f30x_exti.c ****   /* Check the parameters */
 289:/home/user/Desktop/STM32-Projekte/FH-Vertibot/src/STM32F30x_StdPeriph_Driver/src/stm32f30x_exti.c ****   assert_param(IS_EXTI_LINE_EXT(EXTI_Line));
 290:/home/user/Desktop/STM32-Projekte/FH-Vertibot/src/STM32F30x_StdPeriph_Driver/src/stm32f30x_exti.c **** 
 291:/home/user/Desktop/STM32-Projekte/FH-Vertibot/src/STM32F30x_StdPeriph_Driver/src/stm32f30x_exti.c ****   *(__IO uint32_t *) (((uint32_t) &(EXTI->PR)) + ((EXTI_Line) >> 5 ) * 0x20) = (1 << (EXTI_Line & 0
 328              		.loc 1 291 0
 329 0184 20F01F02 		bic	r2, r0, #31
 330 0188 0123     		movs	r3, #1
 331 018a 00F01F00 		and	r0, r0, #31
 332              	.LVL19:
 333 018e 03FA00F0 		lsl	r0, r3, r0
 334 0192 014B     		ldr	r3, .L19
 335 0194 D050     		str	r0, [r2, r3]
 336 0196 7047     		bx	lr
 337              	.L20:
 338              		.align	2
 339              	.L19:
 340 0198 14040140 		.word	1073808404
 341              		.cfi_endproc
 342              	.LFE116:
 344              		.align	1
 345              		.global	EXTI_GetITStatus
 346              		.thumb
 347              		.thumb_func
 349              	EXTI_GetITStatus:
 350              	.LFB117:
 292:/home/user/Desktop/STM32-Projekte/FH-Vertibot/src/STM32F30x_StdPeriph_Driver/src/stm32f30x_exti.c **** }
 293:/home/user/Desktop/STM32-Projekte/FH-Vertibot/src/STM32F30x_StdPeriph_Driver/src/stm32f30x_exti.c **** 
 294:/home/user/Desktop/STM32-Projekte/FH-Vertibot/src/STM32F30x_StdPeriph_Driver/src/stm32f30x_exti.c **** /**
 295:/home/user/Desktop/STM32-Projekte/FH-Vertibot/src/STM32F30x_StdPeriph_Driver/src/stm32f30x_exti.c ****   * @brief  Checks whether the specified EXTI line is asserted or not.
 296:/home/user/Desktop/STM32-Projekte/FH-Vertibot/src/STM32F30x_StdPeriph_Driver/src/stm32f30x_exti.c ****   * @param  EXTI_Line: specifies the EXTI line to check.
 297:/home/user/Desktop/STM32-Projekte/FH-Vertibot/src/STM32F30x_StdPeriph_Driver/src/stm32f30x_exti.c ****   *   This parameter can be any combination of EXTI_Linex where x can be (0..20).
 298:/home/user/Desktop/STM32-Projekte/FH-Vertibot/src/STM32F30x_StdPeriph_Driver/src/stm32f30x_exti.c ****   * @retval The new state of EXTI_Line (SET or RESET).
 299:/home/user/Desktop/STM32-Projekte/FH-Vertibot/src/STM32F30x_StdPeriph_Driver/src/stm32f30x_exti.c ****   */
 300:/home/user/Desktop/STM32-Projekte/FH-Vertibot/src/STM32F30x_StdPeriph_Driver/src/stm32f30x_exti.c **** ITStatus EXTI_GetITStatus(uint32_t EXTI_Line)
 301:/home/user/Desktop/STM32-Projekte/FH-Vertibot/src/STM32F30x_StdPeriph_Driver/src/stm32f30x_exti.c **** {
 351              		.loc 1 301 0
 352              		.cfi_startproc
 353              		@ args = 0, pretend = 0, frame = 0
 354              		@ frame_needed = 0, uses_anonymous_args = 0
 355              		@ link register save eliminated.
 356              	.LVL20:
 302:/home/user/Desktop/STM32-Projekte/FH-Vertibot/src/STM32F30x_StdPeriph_Driver/src/stm32f30x_exti.c ****   ITStatus bitstatus = RESET;
 303:/home/user/Desktop/STM32-Projekte/FH-Vertibot/src/STM32F30x_StdPeriph_Driver/src/stm32f30x_exti.c ****   uint32_t enablestatus = 0;
 304:/home/user/Desktop/STM32-Projekte/FH-Vertibot/src/STM32F30x_StdPeriph_Driver/src/stm32f30x_exti.c ****   
 305:/home/user/Desktop/STM32-Projekte/FH-Vertibot/src/STM32F30x_StdPeriph_Driver/src/stm32f30x_exti.c ****   /* Check the parameters */
 306:/home/user/Desktop/STM32-Projekte/FH-Vertibot/src/STM32F30x_StdPeriph_Driver/src/stm32f30x_exti.c ****   assert_param(IS_GET_EXTI_LINE(EXTI_Line));
 307:/home/user/Desktop/STM32-Projekte/FH-Vertibot/src/STM32F30x_StdPeriph_Driver/src/stm32f30x_exti.c ****   
 308:/home/user/Desktop/STM32-Projekte/FH-Vertibot/src/STM32F30x_StdPeriph_Driver/src/stm32f30x_exti.c ****   enablestatus =  *(__IO uint32_t *) (((uint32_t) &(EXTI->IMR)) + ((EXTI_Line) >> 5 ) * 0x20) & (ui
 357              		.loc 1 308 0
 358 019c 4209     		lsrs	r2, r0, #5
 359 019e 02F10073 		add	r3, r2, #33554432
 360 01a2 03F50263 		add	r3, r3, #2080
 361 01a6 5B01     		lsls	r3, r3, #5
 362 01a8 00F01F00 		and	r0, r0, #31
 363              	.LVL21:
 364 01ac 1968     		ldr	r1, [r3, #0]
 365 01ae 0123     		movs	r3, #1
 366 01b0 03FA00F3 		lsl	r3, r3, r0
 367              	.LVL22:
 309:/home/user/Desktop/STM32-Projekte/FH-Vertibot/src/STM32F30x_StdPeriph_Driver/src/stm32f30x_exti.c ****  
 310:/home/user/Desktop/STM32-Projekte/FH-Vertibot/src/STM32F30x_StdPeriph_Driver/src/stm32f30x_exti.c ****   if ( (((*(__IO uint32_t *) (((uint32_t) &(EXTI->PR)) + (((EXTI_Line) >> 5 ) * 0x20) )) & (uint32_
 368              		.loc 1 310 0
 369 01b4 5201     		lsls	r2, r2, #5
 370 01b6 0448     		ldr	r0, .L24
 371 01b8 1058     		ldr	r0, [r2, r0]
 372 01ba 1840     		ands	r0, r0, r3
 373 01bc 03D0     		beq	.L22
 374              		.loc 1 310 0 is_stmt 0 discriminator 1
 375 01be 1942     		tst	r1, r3
 311:/home/user/Desktop/STM32-Projekte/FH-Vertibot/src/STM32F30x_StdPeriph_Driver/src/stm32f30x_exti.c ****   {
 312:/home/user/Desktop/STM32-Projekte/FH-Vertibot/src/STM32F30x_StdPeriph_Driver/src/stm32f30x_exti.c ****     bitstatus = SET;
 376              		.loc 1 312 0 is_stmt 1 discriminator 1
 377 01c0 0CBF     		ite	eq
 378 01c2 0020     		moveq	r0, #0
 379 01c4 0120     		movne	r0, #1
 380              	.L22:
 381              	.LVL23:
 313:/home/user/Desktop/STM32-Projekte/FH-Vertibot/src/STM32F30x_StdPeriph_Driver/src/stm32f30x_exti.c ****   }
 314:/home/user/Desktop/STM32-Projekte/FH-Vertibot/src/STM32F30x_StdPeriph_Driver/src/stm32f30x_exti.c ****   else
 315:/home/user/Desktop/STM32-Projekte/FH-Vertibot/src/STM32F30x_StdPeriph_Driver/src/stm32f30x_exti.c ****   {
 316:/home/user/Desktop/STM32-Projekte/FH-Vertibot/src/STM32F30x_StdPeriph_Driver/src/stm32f30x_exti.c ****     bitstatus = RESET;
 317:/home/user/Desktop/STM32-Projekte/FH-Vertibot/src/STM32F30x_StdPeriph_Driver/src/stm32f30x_exti.c ****   }
 318:/home/user/Desktop/STM32-Projekte/FH-Vertibot/src/STM32F30x_StdPeriph_Driver/src/stm32f30x_exti.c ****   return bitstatus;
 319:/home/user/Desktop/STM32-Projekte/FH-Vertibot/src/STM32F30x_StdPeriph_Driver/src/stm32f30x_exti.c ****   
 320:/home/user/Desktop/STM32-Projekte/FH-Vertibot/src/STM32F30x_StdPeriph_Driver/src/stm32f30x_exti.c **** }
 382              		.loc 1 320 0
 383 01c6 7047     		bx	lr
 384              	.L25:
 385              		.align	2
 386              	.L24:
 387 01c8 14040140 		.word	1073808404
 388              		.cfi_endproc
 389              	.LFE117:
 391              		.align	1
 392              		.global	EXTI_ClearITPendingBit
 393              		.thumb
 394              		.thumb_func
 396              	EXTI_ClearITPendingBit:
 397              	.LFB118:
 321:/home/user/Desktop/STM32-Projekte/FH-Vertibot/src/STM32F30x_StdPeriph_Driver/src/stm32f30x_exti.c **** 
 322:/home/user/Desktop/STM32-Projekte/FH-Vertibot/src/STM32F30x_StdPeriph_Driver/src/stm32f30x_exti.c **** /**
 323:/home/user/Desktop/STM32-Projekte/FH-Vertibot/src/STM32F30x_StdPeriph_Driver/src/stm32f30x_exti.c ****   * @brief  Clears the EXTI's line pending bits.
 324:/home/user/Desktop/STM32-Projekte/FH-Vertibot/src/STM32F30x_StdPeriph_Driver/src/stm32f30x_exti.c ****   * @param  EXTI_Line: specifies the EXTI lines to clear.
 325:/home/user/Desktop/STM32-Projekte/FH-Vertibot/src/STM32F30x_StdPeriph_Driver/src/stm32f30x_exti.c ****   *   This parameter can be any combination of EXTI_Linex where x can be (0..20).
 326:/home/user/Desktop/STM32-Projekte/FH-Vertibot/src/STM32F30x_StdPeriph_Driver/src/stm32f30x_exti.c ****   * @retval None
 327:/home/user/Desktop/STM32-Projekte/FH-Vertibot/src/STM32F30x_StdPeriph_Driver/src/stm32f30x_exti.c ****   */
 328:/home/user/Desktop/STM32-Projekte/FH-Vertibot/src/STM32F30x_StdPeriph_Driver/src/stm32f30x_exti.c **** void EXTI_ClearITPendingBit(uint32_t EXTI_Line)
 329:/home/user/Desktop/STM32-Projekte/FH-Vertibot/src/STM32F30x_StdPeriph_Driver/src/stm32f30x_exti.c **** {
 398              		.loc 1 329 0
 399              		.cfi_startproc
 400              		@ args = 0, pretend = 0, frame = 0
 401              		@ frame_needed = 0, uses_anonymous_args = 0
 402              		@ link register save eliminated.
 403              	.LVL24:
 330:/home/user/Desktop/STM32-Projekte/FH-Vertibot/src/STM32F30x_StdPeriph_Driver/src/stm32f30x_exti.c ****   /* Check the parameters */
 331:/home/user/Desktop/STM32-Projekte/FH-Vertibot/src/STM32F30x_StdPeriph_Driver/src/stm32f30x_exti.c ****   assert_param(IS_EXTI_LINE_EXT(EXTI_Line));
 332:/home/user/Desktop/STM32-Projekte/FH-Vertibot/src/STM32F30x_StdPeriph_Driver/src/stm32f30x_exti.c ****   
 333:/home/user/Desktop/STM32-Projekte/FH-Vertibot/src/STM32F30x_StdPeriph_Driver/src/stm32f30x_exti.c ****   *(__IO uint32_t *) (((uint32_t) &(EXTI->PR)) + ((EXTI_Line) >> 5 ) * 0x20) = (1 << (EXTI_Line & 0
 404              		.loc 1 333 0
 405 01cc 20F01F02 		bic	r2, r0, #31
 406 01d0 0123     		movs	r3, #1
 407 01d2 00F01F00 		and	r0, r0, #31
 408              	.LVL25:
 409 01d6 03FA00F0 		lsl	r0, r3, r0
 410 01da 014B     		ldr	r3, .L27
 411 01dc D050     		str	r0, [r2, r3]
 412 01de 7047     		bx	lr
 413              	.L28:
 414              		.align	2
 415              	.L27:
 416 01e0 14040140 		.word	1073808404
 417              		.cfi_endproc
 418              	.LFE118:
 420              	.Letext0:
 421              		.file 2 "/opt/CodeSourcery/Sourcery_CodeBench_Lite_for_ARM_EABI/bin/../lib/gcc/arm-none-eabi/4.7.2
 422              		.file 3 "/home/user/Desktop/STM32-Projekte/FH-Vertibot/src/CMSIS/Device/ST/STM32F30x/Include/stm32
 423              		.file 4 "/home/user/Desktop/STM32-Projekte/FH-Vertibot/src/STM32F30x_StdPeriph_Driver/inc/stm32f30
 424              		.file 5 "/home/user/Desktop/STM32-Projekte/FH-Vertibot/src/CMSIS/Include/core_cm4.h"
DEFINED SYMBOLS
                            *ABS*:00000000 stm32f30x_exti.c
     /tmp/ccdHc5de.s:20     .text:00000000 $t
     /tmp/ccdHc5de.s:25     .text:00000000 EXTI_DeInit
     /tmp/ccdHc5de.s:68     .text:0000002c $d
     /tmp/ccdHc5de.s:72     .text:00000030 $t
     /tmp/ccdHc5de.s:77     .text:00000030 EXTI_Init
     /tmp/ccdHc5de.s:208    .text:0000012c $d
     /tmp/ccdHc5de.s:214    .text:00000138 $t
     /tmp/ccdHc5de.s:219    .text:00000138 EXTI_StructInit
     /tmp/ccdHc5de.s:248    .text:00000146 EXTI_GenerateSWInterrupt
     /tmp/ccdHc5de.s:276    .text:00000160 $d
     /tmp/ccdHc5de.s:280    .text:00000164 $t
     /tmp/ccdHc5de.s:285    .text:00000164 EXTI_GetFlagStatus
     /tmp/ccdHc5de.s:311    .text:00000180 $d
     /tmp/ccdHc5de.s:315    .text:00000184 $t
     /tmp/ccdHc5de.s:320    .text:00000184 EXTI_ClearFlag
     /tmp/ccdHc5de.s:340    .text:00000198 $d
     /tmp/ccdHc5de.s:344    .text:0000019c $t
     /tmp/ccdHc5de.s:349    .text:0000019c EXTI_GetITStatus
     /tmp/ccdHc5de.s:387    .text:000001c8 $d
     /tmp/ccdHc5de.s:391    .text:000001cc $t
     /tmp/ccdHc5de.s:396    .text:000001cc EXTI_ClearITPendingBit
     /tmp/ccdHc5de.s:416    .text:000001e0 $d
                     .debug_frame:00000010 $d
                           .group:00000000 wm4.1.d481a9f4eba3ec0ceb0050fd0b2feec2
                           .group:00000000 wm4.stm32f30x.h.54.c7b24f715ee55ef38656f44540ae3be6
                           .group:00000000 wm4.core_cm4.h.32.1434cd257ff5806b1b03cd32ab0641e9
                           .group:00000000 wm4.stdint.h.10.90b695f550ca6cc3fb08fa83baf01e05
                           .group:00000000 wm4.core_cmInstr.h.25.d8165482ef3061013a2fc83e2d85f3d9
                           .group:00000000 wm4.core_cm4_simd.h.29.013e5bcf58dba2d27c60184174208e07
                           .group:00000000 wm4.core_cm4.h.155.cf7c793e178943e1bbf613f1b21cd51a
                           .group:00000000 wm4.stm32f30x.h.292.5f9271075d54fc48f1e25ff79df85cb2
                           .group:00000000 wm4.stm32f30x_adc.h.130.cbebad91f78fb87381fe0860eea6104e
                           .group:00000000 wm4.stm32f30x_comp.h.31.9bbc5f5f1a849069ea9062fbe7b81435
                           .group:00000000 wm4.stm32f30x_dma.h.31.73d173fa6d60026d432f3cf1d2fc4407
                           .group:00000000 wm4.stm32f30x_flash.h.31.bee86dc3079b7049419bdbeec073e2cd
                           .group:00000000 wm4.stm32f30x_gpio.h.31.3745297fee3728b346ad4d2a2467e40f
                           .group:00000000 wm4.stm32f30x_syscfg.h.31.96b023b7dbc3641f358604478433eb5c
                           .group:00000000 wm4.stm32f30x_i2c.h.31.52025acd7f154308042bf46a2835e9d3
                           .group:00000000 wm4.stm32f30x_pwr.h.31.cdef322c6e7f25cfc29954045d24e9b8
                           .group:00000000 wm4.stm32f30x_rcc.h.31.3b94c1144b21d1e4fe780e4d1a02d257
                           .group:00000000 wm4.stm32f30x_spi.h.31.c1ebebab897d23cecc617ec8ad9fd534
                           .group:00000000 wm4.stm32f30x_tim.h.31.336f9cd855fb4e2cd819ac260ded6518
                           .group:00000000 wm4.stm32f30x_usart.h.31.cd85313e29c0a128555b4a7b8ec0f487
                           .group:00000000 wm4.stm32f30x_misc.h.31.f08b0e9f53f0471613b5131bb95f8725
                           .group:00000000 wm4.stm32f30x.h.6173.8b641ba1d9b0040eda9120fe8a414b2d
                           .group:00000000 wm4.stm32f30x_exti.h.60.8ca0809491a21dec6fc69cf7471e2bab

NO UNDEFINED SYMBOLS
