   1              		.syntax unified
   2              		.cpu cortex-m4
   3              		.eabi_attribute 27, 3
   4              		.eabi_attribute 28, 1
   5              		.fpu fpv4-sp-d16
   6              		.eabi_attribute 20, 1
   7              		.eabi_attribute 21, 1
   8              		.eabi_attribute 23, 3
   9              		.eabi_attribute 24, 1
  10              		.eabi_attribute 25, 1
  11              		.eabi_attribute 26, 1
  12              		.eabi_attribute 30, 4
  13              		.eabi_attribute 34, 1
  14              		.eabi_attribute 18, 4
  15              		.thumb
  16              		.file	"stm32f30x_adc.c"
  17              		.text
  18              	.Ltext0:
  19              		.cfi_sections	.debug_frame
  20              		.align	1
  21              		.global	ADC_DeInit
  22              		.thumb
  23              		.thumb_func
  25              	ADC_DeInit:
  26              	.LFB111:
  27              		.file 1 "/home/user/Desktop/STM32-Projekte/FH-Vertibot/src/STM32F30x_StdPeriph_Driver/src/stm32f30
   1:/home/user/Desktop/STM32-Projekte/FH-Vertibot/src/STM32F30x_StdPeriph_Driver/src/stm32f30x_adc.c **** /**
   2:/home/user/Desktop/STM32-Projekte/FH-Vertibot/src/STM32F30x_StdPeriph_Driver/src/stm32f30x_adc.c ****   ******************************************************************************
   3:/home/user/Desktop/STM32-Projekte/FH-Vertibot/src/STM32F30x_StdPeriph_Driver/src/stm32f30x_adc.c ****   * @file    stm32f30x_adc.c
   4:/home/user/Desktop/STM32-Projekte/FH-Vertibot/src/STM32F30x_StdPeriph_Driver/src/stm32f30x_adc.c ****   * @author  MCD Application Team
   5:/home/user/Desktop/STM32-Projekte/FH-Vertibot/src/STM32F30x_StdPeriph_Driver/src/stm32f30x_adc.c ****   * @version V1.0.1
   6:/home/user/Desktop/STM32-Projekte/FH-Vertibot/src/STM32F30x_StdPeriph_Driver/src/stm32f30x_adc.c ****   * @date    23-October-2012
   7:/home/user/Desktop/STM32-Projekte/FH-Vertibot/src/STM32F30x_StdPeriph_Driver/src/stm32f30x_adc.c ****   * @brief   This file provides firmware functions to manage the following 
   8:/home/user/Desktop/STM32-Projekte/FH-Vertibot/src/STM32F30x_StdPeriph_Driver/src/stm32f30x_adc.c ****   *          functionalities of the Analog to Digital Convertor (ADC) peripheral:
   9:/home/user/Desktop/STM32-Projekte/FH-Vertibot/src/STM32F30x_StdPeriph_Driver/src/stm32f30x_adc.c ****   *           + Initialization and Configuration
  10:/home/user/Desktop/STM32-Projekte/FH-Vertibot/src/STM32F30x_StdPeriph_Driver/src/stm32f30x_adc.c ****   *           + Analog Watchdog configuration
  11:/home/user/Desktop/STM32-Projekte/FH-Vertibot/src/STM32F30x_StdPeriph_Driver/src/stm32f30x_adc.c ****   *           + Temperature Sensor, Vbat & Vrefint (Internal Reference Voltage) management 
  12:/home/user/Desktop/STM32-Projekte/FH-Vertibot/src/STM32F30x_StdPeriph_Driver/src/stm32f30x_adc.c ****   *           + Regular Channels Configuration
  13:/home/user/Desktop/STM32-Projekte/FH-Vertibot/src/STM32F30x_StdPeriph_Driver/src/stm32f30x_adc.c ****   *           + Regular Channels DMA Configuration
  14:/home/user/Desktop/STM32-Projekte/FH-Vertibot/src/STM32F30x_StdPeriph_Driver/src/stm32f30x_adc.c ****   *           + Injected channels Configuration
  15:/home/user/Desktop/STM32-Projekte/FH-Vertibot/src/STM32F30x_StdPeriph_Driver/src/stm32f30x_adc.c ****   *           + Interrupts and flags management
  16:/home/user/Desktop/STM32-Projekte/FH-Vertibot/src/STM32F30x_StdPeriph_Driver/src/stm32f30x_adc.c ****   *           + Dual mode configuration  
  17:/home/user/Desktop/STM32-Projekte/FH-Vertibot/src/STM32F30x_StdPeriph_Driver/src/stm32f30x_adc.c ****   *         
  18:/home/user/Desktop/STM32-Projekte/FH-Vertibot/src/STM32F30x_StdPeriph_Driver/src/stm32f30x_adc.c ****   @verbatim
  19:/home/user/Desktop/STM32-Projekte/FH-Vertibot/src/STM32F30x_StdPeriph_Driver/src/stm32f30x_adc.c ****   ==============================================================================
  20:/home/user/Desktop/STM32-Projekte/FH-Vertibot/src/STM32F30x_StdPeriph_Driver/src/stm32f30x_adc.c ****                              ##### How to use this driver #####
  21:/home/user/Desktop/STM32-Projekte/FH-Vertibot/src/STM32F30x_StdPeriph_Driver/src/stm32f30x_adc.c ****   ==============================================================================
  22:/home/user/Desktop/STM32-Projekte/FH-Vertibot/src/STM32F30x_StdPeriph_Driver/src/stm32f30x_adc.c ****     [..]
  23:/home/user/Desktop/STM32-Projekte/FH-Vertibot/src/STM32F30x_StdPeriph_Driver/src/stm32f30x_adc.c ****     (#) select the ADC clock using the function RCC_ADCCLKConfig()
  24:/home/user/Desktop/STM32-Projekte/FH-Vertibot/src/STM32F30x_StdPeriph_Driver/src/stm32f30x_adc.c ****     (#) Enable the ADC interface clock using RCC_AHBPeriphClockCmd();
  25:/home/user/Desktop/STM32-Projekte/FH-Vertibot/src/STM32F30x_StdPeriph_Driver/src/stm32f30x_adc.c ****     (#) ADC pins configuration
  26:/home/user/Desktop/STM32-Projekte/FH-Vertibot/src/STM32F30x_StdPeriph_Driver/src/stm32f30x_adc.c ****         (++) Enable the clock for the ADC GPIOs using the following function:
  27:/home/user/Desktop/STM32-Projekte/FH-Vertibot/src/STM32F30x_StdPeriph_Driver/src/stm32f30x_adc.c ****              RCC_AHBPeriphClockCmd(RCC_AHBPeriph_GPIOx, ENABLE);
  28:/home/user/Desktop/STM32-Projekte/FH-Vertibot/src/STM32F30x_StdPeriph_Driver/src/stm32f30x_adc.c ****         (++) Configure these ADC pins in analog mode using GPIO_Init();
  29:/home/user/Desktop/STM32-Projekte/FH-Vertibot/src/STM32F30x_StdPeriph_Driver/src/stm32f30x_adc.c ****     (#) Configure the ADC conversion resolution, data alignment, external
  30:/home/user/Desktop/STM32-Projekte/FH-Vertibot/src/STM32F30x_StdPeriph_Driver/src/stm32f30x_adc.c ****         trigger and edge, sequencer lenght and Enable/Disable the continuous mode
  31:/home/user/Desktop/STM32-Projekte/FH-Vertibot/src/STM32F30x_StdPeriph_Driver/src/stm32f30x_adc.c ****         using the ADC_Init() function.
  32:/home/user/Desktop/STM32-Projekte/FH-Vertibot/src/STM32F30x_StdPeriph_Driver/src/stm32f30x_adc.c ****     (#) Activate the ADC peripheral using ADC_Cmd() function.
  33:/home/user/Desktop/STM32-Projekte/FH-Vertibot/src/STM32F30x_StdPeriph_Driver/src/stm32f30x_adc.c **** 
  34:/home/user/Desktop/STM32-Projekte/FH-Vertibot/src/STM32F30x_StdPeriph_Driver/src/stm32f30x_adc.c ****     *** ADC channels group configuration ***
  35:/home/user/Desktop/STM32-Projekte/FH-Vertibot/src/STM32F30x_StdPeriph_Driver/src/stm32f30x_adc.c ****     ========================================    
  36:/home/user/Desktop/STM32-Projekte/FH-Vertibot/src/STM32F30x_StdPeriph_Driver/src/stm32f30x_adc.c ****     [..] 
  37:/home/user/Desktop/STM32-Projekte/FH-Vertibot/src/STM32F30x_StdPeriph_Driver/src/stm32f30x_adc.c ****     (+) To configure the ADC channels features, use ADC_Init(), ADC_InjectedInit()
  38:/home/user/Desktop/STM32-Projekte/FH-Vertibot/src/STM32F30x_StdPeriph_Driver/src/stm32f30x_adc.c ****         and ADC_RegularChannelConfig() functions or/and ADC_InjectedChannelConfig()
  39:/home/user/Desktop/STM32-Projekte/FH-Vertibot/src/STM32F30x_StdPeriph_Driver/src/stm32f30x_adc.c ****     (+) To activate the continuous mode, use the ADC_ContinuousModeCmd()
  40:/home/user/Desktop/STM32-Projekte/FH-Vertibot/src/STM32F30x_StdPeriph_Driver/src/stm32f30x_adc.c ****         function.
  41:/home/user/Desktop/STM32-Projekte/FH-Vertibot/src/STM32F30x_StdPeriph_Driver/src/stm32f30x_adc.c ****     (+) To activate the Discontinuous mode, use the ADC_DiscModeCmd() functions. 
  42:/home/user/Desktop/STM32-Projekte/FH-Vertibot/src/STM32F30x_StdPeriph_Driver/src/stm32f30x_adc.c ****     (+) To activate the overrun mode, use the ADC_OverrunModeCmd() functions.
  43:/home/user/Desktop/STM32-Projekte/FH-Vertibot/src/STM32F30x_StdPeriph_Driver/src/stm32f30x_adc.c ****     (+) To activate the calibration mode, use the ADC_StartCalibration() functions.
  44:/home/user/Desktop/STM32-Projekte/FH-Vertibot/src/STM32F30x_StdPeriph_Driver/src/stm32f30x_adc.c ****     (+) To read the ADC converted values, use the ADC_GetConversionValue()
  45:/home/user/Desktop/STM32-Projekte/FH-Vertibot/src/STM32F30x_StdPeriph_Driver/src/stm32f30x_adc.c ****         function.
  46:/home/user/Desktop/STM32-Projekte/FH-Vertibot/src/STM32F30x_StdPeriph_Driver/src/stm32f30x_adc.c **** 
  47:/home/user/Desktop/STM32-Projekte/FH-Vertibot/src/STM32F30x_StdPeriph_Driver/src/stm32f30x_adc.c ****     *** DMA for ADC channels features configuration ***
  48:/home/user/Desktop/STM32-Projekte/FH-Vertibot/src/STM32F30x_StdPeriph_Driver/src/stm32f30x_adc.c ****     ===================================================     
  49:/home/user/Desktop/STM32-Projekte/FH-Vertibot/src/STM32F30x_StdPeriph_Driver/src/stm32f30x_adc.c ****     [..] 
  50:/home/user/Desktop/STM32-Projekte/FH-Vertibot/src/STM32F30x_StdPeriph_Driver/src/stm32f30x_adc.c ****     (+) To enable the DMA mode for ADC channels group, use the ADC_DMACmd() function.
  51:/home/user/Desktop/STM32-Projekte/FH-Vertibot/src/STM32F30x_StdPeriph_Driver/src/stm32f30x_adc.c ****     (+) To configure the DMA transfer request, use ADC_DMAConfig() function.
  52:/home/user/Desktop/STM32-Projekte/FH-Vertibot/src/STM32F30x_StdPeriph_Driver/src/stm32f30x_adc.c **** 
  53:/home/user/Desktop/STM32-Projekte/FH-Vertibot/src/STM32F30x_StdPeriph_Driver/src/stm32f30x_adc.c ****   @endverbatim
  54:/home/user/Desktop/STM32-Projekte/FH-Vertibot/src/STM32F30x_StdPeriph_Driver/src/stm32f30x_adc.c ****   *
  55:/home/user/Desktop/STM32-Projekte/FH-Vertibot/src/STM32F30x_StdPeriph_Driver/src/stm32f30x_adc.c ****   ******************************************************************************
  56:/home/user/Desktop/STM32-Projekte/FH-Vertibot/src/STM32F30x_StdPeriph_Driver/src/stm32f30x_adc.c ****   * @attention
  57:/home/user/Desktop/STM32-Projekte/FH-Vertibot/src/STM32F30x_StdPeriph_Driver/src/stm32f30x_adc.c ****   *
  58:/home/user/Desktop/STM32-Projekte/FH-Vertibot/src/STM32F30x_StdPeriph_Driver/src/stm32f30x_adc.c ****   * <h2><center>&copy; COPYRIGHT 2012 STMicroelectronics</center></h2>
  59:/home/user/Desktop/STM32-Projekte/FH-Vertibot/src/STM32F30x_StdPeriph_Driver/src/stm32f30x_adc.c ****   *
  60:/home/user/Desktop/STM32-Projekte/FH-Vertibot/src/STM32F30x_StdPeriph_Driver/src/stm32f30x_adc.c ****   * Licensed under MCD-ST Liberty SW License Agreement V2, (the "License");
  61:/home/user/Desktop/STM32-Projekte/FH-Vertibot/src/STM32F30x_StdPeriph_Driver/src/stm32f30x_adc.c ****   * You may not use this file except in compliance with the License.
  62:/home/user/Desktop/STM32-Projekte/FH-Vertibot/src/STM32F30x_StdPeriph_Driver/src/stm32f30x_adc.c ****   * You may obtain a copy of the License at:
  63:/home/user/Desktop/STM32-Projekte/FH-Vertibot/src/STM32F30x_StdPeriph_Driver/src/stm32f30x_adc.c ****   *
  64:/home/user/Desktop/STM32-Projekte/FH-Vertibot/src/STM32F30x_StdPeriph_Driver/src/stm32f30x_adc.c ****   *        http://www.st.com/software_license_agreement_liberty_v2
  65:/home/user/Desktop/STM32-Projekte/FH-Vertibot/src/STM32F30x_StdPeriph_Driver/src/stm32f30x_adc.c ****   *
  66:/home/user/Desktop/STM32-Projekte/FH-Vertibot/src/STM32F30x_StdPeriph_Driver/src/stm32f30x_adc.c ****   * Unless required by applicable law or agreed to in writing, software 
  67:/home/user/Desktop/STM32-Projekte/FH-Vertibot/src/STM32F30x_StdPeriph_Driver/src/stm32f30x_adc.c ****   * distributed under the License is distributed on an "AS IS" BASIS, 
  68:/home/user/Desktop/STM32-Projekte/FH-Vertibot/src/STM32F30x_StdPeriph_Driver/src/stm32f30x_adc.c ****   * WITHOUT WARRANTIES OR CONDITIONS OF ANY KIND, either express or implied.
  69:/home/user/Desktop/STM32-Projekte/FH-Vertibot/src/STM32F30x_StdPeriph_Driver/src/stm32f30x_adc.c ****   * See the License for the specific language governing permissions and
  70:/home/user/Desktop/STM32-Projekte/FH-Vertibot/src/STM32F30x_StdPeriph_Driver/src/stm32f30x_adc.c ****   * limitations under the License.
  71:/home/user/Desktop/STM32-Projekte/FH-Vertibot/src/STM32F30x_StdPeriph_Driver/src/stm32f30x_adc.c ****   *
  72:/home/user/Desktop/STM32-Projekte/FH-Vertibot/src/STM32F30x_StdPeriph_Driver/src/stm32f30x_adc.c ****   ******************************************************************************
  73:/home/user/Desktop/STM32-Projekte/FH-Vertibot/src/STM32F30x_StdPeriph_Driver/src/stm32f30x_adc.c ****   */
  74:/home/user/Desktop/STM32-Projekte/FH-Vertibot/src/STM32F30x_StdPeriph_Driver/src/stm32f30x_adc.c **** 
  75:/home/user/Desktop/STM32-Projekte/FH-Vertibot/src/STM32F30x_StdPeriph_Driver/src/stm32f30x_adc.c **** /* Includes ------------------------------------------------------------------*/
  76:/home/user/Desktop/STM32-Projekte/FH-Vertibot/src/STM32F30x_StdPeriph_Driver/src/stm32f30x_adc.c **** #include "stm32f30x_adc.h"
  77:/home/user/Desktop/STM32-Projekte/FH-Vertibot/src/STM32F30x_StdPeriph_Driver/src/stm32f30x_adc.c **** #include "stm32f30x_rcc.h"
  78:/home/user/Desktop/STM32-Projekte/FH-Vertibot/src/STM32F30x_StdPeriph_Driver/src/stm32f30x_adc.c **** 
  79:/home/user/Desktop/STM32-Projekte/FH-Vertibot/src/STM32F30x_StdPeriph_Driver/src/stm32f30x_adc.c **** /** @addtogroup STM32F30x_StdPeriph_Driver
  80:/home/user/Desktop/STM32-Projekte/FH-Vertibot/src/STM32F30x_StdPeriph_Driver/src/stm32f30x_adc.c ****   * @{
  81:/home/user/Desktop/STM32-Projekte/FH-Vertibot/src/STM32F30x_StdPeriph_Driver/src/stm32f30x_adc.c ****   */
  82:/home/user/Desktop/STM32-Projekte/FH-Vertibot/src/STM32F30x_StdPeriph_Driver/src/stm32f30x_adc.c **** 
  83:/home/user/Desktop/STM32-Projekte/FH-Vertibot/src/STM32F30x_StdPeriph_Driver/src/stm32f30x_adc.c **** /** @defgroup ADC 
  84:/home/user/Desktop/STM32-Projekte/FH-Vertibot/src/STM32F30x_StdPeriph_Driver/src/stm32f30x_adc.c ****   * @brief ADC driver modules
  85:/home/user/Desktop/STM32-Projekte/FH-Vertibot/src/STM32F30x_StdPeriph_Driver/src/stm32f30x_adc.c ****   * @{
  86:/home/user/Desktop/STM32-Projekte/FH-Vertibot/src/STM32F30x_StdPeriph_Driver/src/stm32f30x_adc.c ****   */
  87:/home/user/Desktop/STM32-Projekte/FH-Vertibot/src/STM32F30x_StdPeriph_Driver/src/stm32f30x_adc.c **** 
  88:/home/user/Desktop/STM32-Projekte/FH-Vertibot/src/STM32F30x_StdPeriph_Driver/src/stm32f30x_adc.c **** /* Private typedef -----------------------------------------------------------*/
  89:/home/user/Desktop/STM32-Projekte/FH-Vertibot/src/STM32F30x_StdPeriph_Driver/src/stm32f30x_adc.c **** /* Private define ------------------------------------------------------------*/
  90:/home/user/Desktop/STM32-Projekte/FH-Vertibot/src/STM32F30x_StdPeriph_Driver/src/stm32f30x_adc.c **** 
  91:/home/user/Desktop/STM32-Projekte/FH-Vertibot/src/STM32F30x_StdPeriph_Driver/src/stm32f30x_adc.c **** /* CFGR register Mask */
  92:/home/user/Desktop/STM32-Projekte/FH-Vertibot/src/STM32F30x_StdPeriph_Driver/src/stm32f30x_adc.c **** #define CFGR_CLEAR_Mask             ((uint32_t)0xFDFFC007)
  93:/home/user/Desktop/STM32-Projekte/FH-Vertibot/src/STM32F30x_StdPeriph_Driver/src/stm32f30x_adc.c **** 
  94:/home/user/Desktop/STM32-Projekte/FH-Vertibot/src/STM32F30x_StdPeriph_Driver/src/stm32f30x_adc.c **** /* JSQR register Mask */
  95:/home/user/Desktop/STM32-Projekte/FH-Vertibot/src/STM32F30x_StdPeriph_Driver/src/stm32f30x_adc.c **** #define JSQR_CLEAR_Mask             ((uint32_t)0x00000000)
  96:/home/user/Desktop/STM32-Projekte/FH-Vertibot/src/STM32F30x_StdPeriph_Driver/src/stm32f30x_adc.c **** 
  97:/home/user/Desktop/STM32-Projekte/FH-Vertibot/src/STM32F30x_StdPeriph_Driver/src/stm32f30x_adc.c **** /* ADC ADON mask */
  98:/home/user/Desktop/STM32-Projekte/FH-Vertibot/src/STM32F30x_StdPeriph_Driver/src/stm32f30x_adc.c **** #define CCR_CLEAR_MASK              ((uint32_t)0xFFFC10E0)
  99:/home/user/Desktop/STM32-Projekte/FH-Vertibot/src/STM32F30x_StdPeriph_Driver/src/stm32f30x_adc.c **** 
 100:/home/user/Desktop/STM32-Projekte/FH-Vertibot/src/STM32F30x_StdPeriph_Driver/src/stm32f30x_adc.c **** /* ADC JDRx registers offset */
 101:/home/user/Desktop/STM32-Projekte/FH-Vertibot/src/STM32F30x_StdPeriph_Driver/src/stm32f30x_adc.c **** #define JDR_Offset                  ((uint8_t)0x80)
 102:/home/user/Desktop/STM32-Projekte/FH-Vertibot/src/STM32F30x_StdPeriph_Driver/src/stm32f30x_adc.c **** 
 103:/home/user/Desktop/STM32-Projekte/FH-Vertibot/src/STM32F30x_StdPeriph_Driver/src/stm32f30x_adc.c **** /* Private macro -------------------------------------------------------------*/
 104:/home/user/Desktop/STM32-Projekte/FH-Vertibot/src/STM32F30x_StdPeriph_Driver/src/stm32f30x_adc.c **** /* Private variables ---------------------------------------------------------*/
 105:/home/user/Desktop/STM32-Projekte/FH-Vertibot/src/STM32F30x_StdPeriph_Driver/src/stm32f30x_adc.c **** /* Private function prototypes -----------------------------------------------*/
 106:/home/user/Desktop/STM32-Projekte/FH-Vertibot/src/STM32F30x_StdPeriph_Driver/src/stm32f30x_adc.c **** /* Private functions ---------------------------------------------------------*/
 107:/home/user/Desktop/STM32-Projekte/FH-Vertibot/src/STM32F30x_StdPeriph_Driver/src/stm32f30x_adc.c **** 
 108:/home/user/Desktop/STM32-Projekte/FH-Vertibot/src/STM32F30x_StdPeriph_Driver/src/stm32f30x_adc.c **** /** @defgroup ADC_Private_Functions
 109:/home/user/Desktop/STM32-Projekte/FH-Vertibot/src/STM32F30x_StdPeriph_Driver/src/stm32f30x_adc.c ****   * @{
 110:/home/user/Desktop/STM32-Projekte/FH-Vertibot/src/STM32F30x_StdPeriph_Driver/src/stm32f30x_adc.c ****   */
 111:/home/user/Desktop/STM32-Projekte/FH-Vertibot/src/STM32F30x_StdPeriph_Driver/src/stm32f30x_adc.c **** 
 112:/home/user/Desktop/STM32-Projekte/FH-Vertibot/src/STM32F30x_StdPeriph_Driver/src/stm32f30x_adc.c **** /** @defgroup ADC_Group1 Initialization and Configuration functions
 113:/home/user/Desktop/STM32-Projekte/FH-Vertibot/src/STM32F30x_StdPeriph_Driver/src/stm32f30x_adc.c ****  *  @brief   Initialization and Configuration functions 
 114:/home/user/Desktop/STM32-Projekte/FH-Vertibot/src/STM32F30x_StdPeriph_Driver/src/stm32f30x_adc.c ****  *
 115:/home/user/Desktop/STM32-Projekte/FH-Vertibot/src/STM32F30x_StdPeriph_Driver/src/stm32f30x_adc.c **** @verbatim    
 116:/home/user/Desktop/STM32-Projekte/FH-Vertibot/src/STM32F30x_StdPeriph_Driver/src/stm32f30x_adc.c ****  ===============================================================================
 117:/home/user/Desktop/STM32-Projekte/FH-Vertibot/src/STM32F30x_StdPeriph_Driver/src/stm32f30x_adc.c ****                  ##### Initialization and Configuration functions  #####
 118:/home/user/Desktop/STM32-Projekte/FH-Vertibot/src/STM32F30x_StdPeriph_Driver/src/stm32f30x_adc.c ****  ===============================================================================  
 119:/home/user/Desktop/STM32-Projekte/FH-Vertibot/src/STM32F30x_StdPeriph_Driver/src/stm32f30x_adc.c ****   [..] 
 120:/home/user/Desktop/STM32-Projekte/FH-Vertibot/src/STM32F30x_StdPeriph_Driver/src/stm32f30x_adc.c ****   This section provides functions allowing to:
 121:/home/user/Desktop/STM32-Projekte/FH-Vertibot/src/STM32F30x_StdPeriph_Driver/src/stm32f30x_adc.c ****    (#) Initialize and configure the ADC injected and/or regular channels and dual mode.
 122:/home/user/Desktop/STM32-Projekte/FH-Vertibot/src/STM32F30x_StdPeriph_Driver/src/stm32f30x_adc.c ****    (#) Management of the calibration process
 123:/home/user/Desktop/STM32-Projekte/FH-Vertibot/src/STM32F30x_StdPeriph_Driver/src/stm32f30x_adc.c ****    (#) ADC Power-on Power-off
 124:/home/user/Desktop/STM32-Projekte/FH-Vertibot/src/STM32F30x_StdPeriph_Driver/src/stm32f30x_adc.c ****    (#) Single ended or differential mode 
 125:/home/user/Desktop/STM32-Projekte/FH-Vertibot/src/STM32F30x_StdPeriph_Driver/src/stm32f30x_adc.c ****    (#) Enabling the queue of context and the auto delay mode
 126:/home/user/Desktop/STM32-Projekte/FH-Vertibot/src/STM32F30x_StdPeriph_Driver/src/stm32f30x_adc.c ****    (#) The number of ADC conversions that will be done using the sequencer for regular 
 127:/home/user/Desktop/STM32-Projekte/FH-Vertibot/src/STM32F30x_StdPeriph_Driver/src/stm32f30x_adc.c ****        channel group
 128:/home/user/Desktop/STM32-Projekte/FH-Vertibot/src/STM32F30x_StdPeriph_Driver/src/stm32f30x_adc.c ****    (#) Enable or disable the ADC peripheral
 129:/home/user/Desktop/STM32-Projekte/FH-Vertibot/src/STM32F30x_StdPeriph_Driver/src/stm32f30x_adc.c ****    
 130:/home/user/Desktop/STM32-Projekte/FH-Vertibot/src/STM32F30x_StdPeriph_Driver/src/stm32f30x_adc.c **** @endverbatim
 131:/home/user/Desktop/STM32-Projekte/FH-Vertibot/src/STM32F30x_StdPeriph_Driver/src/stm32f30x_adc.c ****   * @{
 132:/home/user/Desktop/STM32-Projekte/FH-Vertibot/src/STM32F30x_StdPeriph_Driver/src/stm32f30x_adc.c ****   */
 133:/home/user/Desktop/STM32-Projekte/FH-Vertibot/src/STM32F30x_StdPeriph_Driver/src/stm32f30x_adc.c **** 
 134:/home/user/Desktop/STM32-Projekte/FH-Vertibot/src/STM32F30x_StdPeriph_Driver/src/stm32f30x_adc.c **** /**
 135:/home/user/Desktop/STM32-Projekte/FH-Vertibot/src/STM32F30x_StdPeriph_Driver/src/stm32f30x_adc.c ****   * @brief  Deinitializes the ADCx peripheral registers to their default reset values.
 136:/home/user/Desktop/STM32-Projekte/FH-Vertibot/src/STM32F30x_StdPeriph_Driver/src/stm32f30x_adc.c ****   * @param  ADCx: where x can be 1, 2,3 or 4 to select the ADC peripheral.
 137:/home/user/Desktop/STM32-Projekte/FH-Vertibot/src/STM32F30x_StdPeriph_Driver/src/stm32f30x_adc.c ****   * @retval None
 138:/home/user/Desktop/STM32-Projekte/FH-Vertibot/src/STM32F30x_StdPeriph_Driver/src/stm32f30x_adc.c ****   */
 139:/home/user/Desktop/STM32-Projekte/FH-Vertibot/src/STM32F30x_StdPeriph_Driver/src/stm32f30x_adc.c **** void ADC_DeInit(ADC_TypeDef* ADCx)
 140:/home/user/Desktop/STM32-Projekte/FH-Vertibot/src/STM32F30x_StdPeriph_Driver/src/stm32f30x_adc.c **** {
  28              		.loc 1 140 0
  29              		.cfi_startproc
  30              		@ args = 0, pretend = 0, frame = 0
  31              		@ frame_needed = 0, uses_anonymous_args = 0
  32              	.LVL0:
 141:/home/user/Desktop/STM32-Projekte/FH-Vertibot/src/STM32F30x_StdPeriph_Driver/src/stm32f30x_adc.c ****   /* Check the parameters */
 142:/home/user/Desktop/STM32-Projekte/FH-Vertibot/src/STM32F30x_StdPeriph_Driver/src/stm32f30x_adc.c ****   assert_param(IS_ADC_ALL_PERIPH(ADCx));
 143:/home/user/Desktop/STM32-Projekte/FH-Vertibot/src/STM32F30x_StdPeriph_Driver/src/stm32f30x_adc.c **** 
 144:/home/user/Desktop/STM32-Projekte/FH-Vertibot/src/STM32F30x_StdPeriph_Driver/src/stm32f30x_adc.c **** 
 145:/home/user/Desktop/STM32-Projekte/FH-Vertibot/src/STM32F30x_StdPeriph_Driver/src/stm32f30x_adc.c ****   if((ADCx == ADC1) || (ADCx == ADC2))
  33              		.loc 1 145 0
  34 0000 B0F1A04F 		cmp	r0, #1342177280
 140:/home/user/Desktop/STM32-Projekte/FH-Vertibot/src/STM32F30x_StdPeriph_Driver/src/stm32f30x_adc.c **** {
  35              		.loc 1 140 0
  36 0004 08B5     		push	{r3, lr}
  37              	.LCFI0:
  38              		.cfi_def_cfa_offset 8
  39              		.cfi_offset 3, -8
  40              		.cfi_offset 14, -4
  41              		.loc 1 145 0
  42 0006 02D0     		beq	.L2
  43              		.loc 1 145 0 is_stmt 0 discriminator 1
  44 0008 0F4B     		ldr	r3, .L11
  45 000a 9842     		cmp	r0, r3
  46 000c 07D1     		bne	.L3
  47              	.L2:
 146:/home/user/Desktop/STM32-Projekte/FH-Vertibot/src/STM32F30x_StdPeriph_Driver/src/stm32f30x_adc.c ****   {
 147:/home/user/Desktop/STM32-Projekte/FH-Vertibot/src/STM32F30x_StdPeriph_Driver/src/stm32f30x_adc.c ****     /* Enable ADC1/ADC2 reset state */
 148:/home/user/Desktop/STM32-Projekte/FH-Vertibot/src/STM32F30x_StdPeriph_Driver/src/stm32f30x_adc.c ****     RCC_AHBPeriphResetCmd(RCC_AHBPeriph_ADC12, ENABLE);
  48              		.loc 1 148 0 is_stmt 1
  49 000e 4FF08050 		mov	r0, #268435456
  50              	.LVL1:
  51 0012 0121     		movs	r1, #1
  52 0014 FFF7FEFF 		bl	RCC_AHBPeriphResetCmd
  53              	.LVL2:
 149:/home/user/Desktop/STM32-Projekte/FH-Vertibot/src/STM32F30x_StdPeriph_Driver/src/stm32f30x_adc.c ****     /* Release ADC1/ADC2 from reset state */
 150:/home/user/Desktop/STM32-Projekte/FH-Vertibot/src/STM32F30x_StdPeriph_Driver/src/stm32f30x_adc.c ****     RCC_AHBPeriphResetCmd(RCC_AHBPeriph_ADC12, DISABLE);
  54              		.loc 1 150 0
  55 0018 4FF08050 		mov	r0, #268435456
  56 001c 0DE0     		b	.L9
  57              	.LVL3:
  58              	.L3:
 151:/home/user/Desktop/STM32-Projekte/FH-Vertibot/src/STM32F30x_StdPeriph_Driver/src/stm32f30x_adc.c ****   }
 152:/home/user/Desktop/STM32-Projekte/FH-Vertibot/src/STM32F30x_StdPeriph_Driver/src/stm32f30x_adc.c ****   else if((ADCx == ADC3) || (ADCx == ADC4))
  59              		.loc 1 152 0
  60 001e 0B4B     		ldr	r3, .L11+4
  61 0020 9842     		cmp	r0, r3
  62 0022 03D0     		beq	.L4
  63              		.loc 1 152 0 is_stmt 0 discriminator 1
  64 0024 03F58073 		add	r3, r3, #256
  65 0028 9842     		cmp	r0, r3
  66 002a 0BD1     		bne	.L1
  67              	.L4:
 153:/home/user/Desktop/STM32-Projekte/FH-Vertibot/src/STM32F30x_StdPeriph_Driver/src/stm32f30x_adc.c ****   {
 154:/home/user/Desktop/STM32-Projekte/FH-Vertibot/src/STM32F30x_StdPeriph_Driver/src/stm32f30x_adc.c ****     /* Enable ADC3/ADC4 reset state */
 155:/home/user/Desktop/STM32-Projekte/FH-Vertibot/src/STM32F30x_StdPeriph_Driver/src/stm32f30x_adc.c ****     RCC_AHBPeriphResetCmd(RCC_AHBPeriph_ADC34, ENABLE);
  68              		.loc 1 155 0 is_stmt 1
  69 002c 4FF00050 		mov	r0, #536870912
  70              	.LVL4:
  71 0030 0121     		movs	r1, #1
  72 0032 FFF7FEFF 		bl	RCC_AHBPeriphResetCmd
  73              	.LVL5:
 156:/home/user/Desktop/STM32-Projekte/FH-Vertibot/src/STM32F30x_StdPeriph_Driver/src/stm32f30x_adc.c ****     /* Release ADC3/ADC4 from reset state */
 157:/home/user/Desktop/STM32-Projekte/FH-Vertibot/src/STM32F30x_StdPeriph_Driver/src/stm32f30x_adc.c ****     RCC_AHBPeriphResetCmd(RCC_AHBPeriph_ADC34, DISABLE);
  74              		.loc 1 157 0
  75 0036 4FF00050 		mov	r0, #536870912
  76              	.L9:
  77 003a 0021     		movs	r1, #0
 158:/home/user/Desktop/STM32-Projekte/FH-Vertibot/src/STM32F30x_StdPeriph_Driver/src/stm32f30x_adc.c ****   }
 159:/home/user/Desktop/STM32-Projekte/FH-Vertibot/src/STM32F30x_StdPeriph_Driver/src/stm32f30x_adc.c **** }
  78              		.loc 1 159 0
  79 003c BDE80840 		pop	{r3, lr}
 157:/home/user/Desktop/STM32-Projekte/FH-Vertibot/src/STM32F30x_StdPeriph_Driver/src/stm32f30x_adc.c ****     RCC_AHBPeriphResetCmd(RCC_AHBPeriph_ADC34, DISABLE);
  80              		.loc 1 157 0
  81 0040 FFF7FEBF 		b	RCC_AHBPeriphResetCmd
  82              	.LVL6:
  83              	.L1:
  84 0044 08BD     		pop	{r3, pc}
  85              	.L12:
  86 0046 00BF     		.align	2
  87              	.L11:
  88 0048 00010050 		.word	1342177536
  89 004c 00040050 		.word	1342178304
  90              		.cfi_endproc
  91              	.LFE111:
  93              		.align	1
  94              		.global	ADC_Init
  95              		.thumb
  96              		.thumb_func
  98              	ADC_Init:
  99              	.LFB112:
 160:/home/user/Desktop/STM32-Projekte/FH-Vertibot/src/STM32F30x_StdPeriph_Driver/src/stm32f30x_adc.c **** /**
 161:/home/user/Desktop/STM32-Projekte/FH-Vertibot/src/STM32F30x_StdPeriph_Driver/src/stm32f30x_adc.c ****   * @brief  Initializes the ADCx peripheral according to the specified parameters
 162:/home/user/Desktop/STM32-Projekte/FH-Vertibot/src/STM32F30x_StdPeriph_Driver/src/stm32f30x_adc.c ****   *         in the ADC_InitStruct.
 163:/home/user/Desktop/STM32-Projekte/FH-Vertibot/src/STM32F30x_StdPeriph_Driver/src/stm32f30x_adc.c ****   * @param  ADCx: where x can be 1, 2, 3 or 4 to select the ADC peripheral.
 164:/home/user/Desktop/STM32-Projekte/FH-Vertibot/src/STM32F30x_StdPeriph_Driver/src/stm32f30x_adc.c ****   * @param  ADC_InitStruct: pointer to an ADC_InitTypeDef structure that contains
 165:/home/user/Desktop/STM32-Projekte/FH-Vertibot/src/STM32F30x_StdPeriph_Driver/src/stm32f30x_adc.c ****   *         the configuration information for the specified ADC peripheral.
 166:/home/user/Desktop/STM32-Projekte/FH-Vertibot/src/STM32F30x_StdPeriph_Driver/src/stm32f30x_adc.c ****   * @retval None
 167:/home/user/Desktop/STM32-Projekte/FH-Vertibot/src/STM32F30x_StdPeriph_Driver/src/stm32f30x_adc.c ****   */
 168:/home/user/Desktop/STM32-Projekte/FH-Vertibot/src/STM32F30x_StdPeriph_Driver/src/stm32f30x_adc.c **** void ADC_Init(ADC_TypeDef* ADCx, ADC_InitTypeDef* ADC_InitStruct)
 169:/home/user/Desktop/STM32-Projekte/FH-Vertibot/src/STM32F30x_StdPeriph_Driver/src/stm32f30x_adc.c **** {
 100              		.loc 1 169 0
 101              		.cfi_startproc
 102              		@ args = 0, pretend = 0, frame = 0
 103              		@ frame_needed = 0, uses_anonymous_args = 0
 104              	.LVL7:
 170:/home/user/Desktop/STM32-Projekte/FH-Vertibot/src/STM32F30x_StdPeriph_Driver/src/stm32f30x_adc.c ****   uint32_t tmpreg1 = 0;
 171:/home/user/Desktop/STM32-Projekte/FH-Vertibot/src/STM32F30x_StdPeriph_Driver/src/stm32f30x_adc.c ****   /* Check the parameters */
 172:/home/user/Desktop/STM32-Projekte/FH-Vertibot/src/STM32F30x_StdPeriph_Driver/src/stm32f30x_adc.c ****   assert_param(IS_ADC_ALL_PERIPH(ADCx));
 173:/home/user/Desktop/STM32-Projekte/FH-Vertibot/src/STM32F30x_StdPeriph_Driver/src/stm32f30x_adc.c ****   assert_param(IS_ADC_CONVMODE(ADC_InitStruct->ADC_ContinuousConvMode));
 174:/home/user/Desktop/STM32-Projekte/FH-Vertibot/src/STM32F30x_StdPeriph_Driver/src/stm32f30x_adc.c ****   assert_param(IS_ADC_RESOLUTION(ADC_InitStruct->ADC_Resolution));
 175:/home/user/Desktop/STM32-Projekte/FH-Vertibot/src/STM32F30x_StdPeriph_Driver/src/stm32f30x_adc.c ****   assert_param(IS_ADC_EXT_TRIG(ADC_InitStruct->ADC_ExternalTrigConvEvent)); 
 176:/home/user/Desktop/STM32-Projekte/FH-Vertibot/src/STM32F30x_StdPeriph_Driver/src/stm32f30x_adc.c ****   assert_param(IS_EXTERNALTRIG_EDGE(ADC_InitStruct->ADC_ExternalTrigEventEdge));  
 177:/home/user/Desktop/STM32-Projekte/FH-Vertibot/src/STM32F30x_StdPeriph_Driver/src/stm32f30x_adc.c ****   assert_param(IS_ADC_DATA_ALIGN(ADC_InitStruct->ADC_DataAlign)); 
 178:/home/user/Desktop/STM32-Projekte/FH-Vertibot/src/STM32F30x_StdPeriph_Driver/src/stm32f30x_adc.c ****   assert_param(IS_ADC_OVRUNMODE(ADC_InitStruct->ADC_OverrunMode));
 179:/home/user/Desktop/STM32-Projekte/FH-Vertibot/src/STM32F30x_StdPeriph_Driver/src/stm32f30x_adc.c ****   assert_param(IS_ADC_AUTOINJECMODE(ADC_InitStruct->ADC_AutoInjMode));
 180:/home/user/Desktop/STM32-Projekte/FH-Vertibot/src/STM32F30x_StdPeriph_Driver/src/stm32f30x_adc.c ****   assert_param(IS_ADC_REGULAR_LENGTH(ADC_InitStruct->ADC_NbrOfRegChannel));
 181:/home/user/Desktop/STM32-Projekte/FH-Vertibot/src/STM32F30x_StdPeriph_Driver/src/stm32f30x_adc.c **** 
 182:/home/user/Desktop/STM32-Projekte/FH-Vertibot/src/STM32F30x_StdPeriph_Driver/src/stm32f30x_adc.c ****   /*---------------------------- ADCx CFGR Configuration -----------------*/
 183:/home/user/Desktop/STM32-Projekte/FH-Vertibot/src/STM32F30x_StdPeriph_Driver/src/stm32f30x_adc.c ****   /* Get the ADCx CFGR value */
 184:/home/user/Desktop/STM32-Projekte/FH-Vertibot/src/STM32F30x_StdPeriph_Driver/src/stm32f30x_adc.c ****   tmpreg1 = ADCx->CFGR;
 105              		.loc 1 184 0
 106 0050 C268     		ldr	r2, [r0, #12]
 107              	.LVL8:
 185:/home/user/Desktop/STM32-Projekte/FH-Vertibot/src/STM32F30x_StdPeriph_Driver/src/stm32f30x_adc.c ****   /* Clear SCAN bit */
 186:/home/user/Desktop/STM32-Projekte/FH-Vertibot/src/STM32F30x_StdPeriph_Driver/src/stm32f30x_adc.c ****   tmpreg1 &= CFGR_CLEAR_Mask; 
 108              		.loc 1 186 0
 109 0052 0D4B     		ldr	r3, .L14
 169:/home/user/Desktop/STM32-Projekte/FH-Vertibot/src/STM32F30x_StdPeriph_Driver/src/stm32f30x_adc.c **** {
 110              		.loc 1 169 0
 111 0054 10B5     		push	{r4, lr}
 112              	.LCFI1:
 113              		.cfi_def_cfa_offset 8
 114              		.cfi_offset 4, -8
 115              		.cfi_offset 14, -4
 116              		.loc 1 186 0
 117 0056 1340     		ands	r3, r3, r2
 118              	.LVL9:
 187:/home/user/Desktop/STM32-Projekte/FH-Vertibot/src/STM32F30x_StdPeriph_Driver/src/stm32f30x_adc.c ****   /* Configure ADCx: scan conversion mode */
 188:/home/user/Desktop/STM32-Projekte/FH-Vertibot/src/STM32F30x_StdPeriph_Driver/src/stm32f30x_adc.c ****   /* Set SCAN bit according to ADC_ScanConvMode value */
 189:/home/user/Desktop/STM32-Projekte/FH-Vertibot/src/STM32F30x_StdPeriph_Driver/src/stm32f30x_adc.c ****   tmpreg1 |= (uint32_t)ADC_InitStruct->ADC_ContinuousConvMode | 
 119              		.loc 1 189 0
 120 0058 91E81400 		ldmia	r1, {r2, r4}
 121 005c 1443     		orrs	r4, r4, r2
 190:/home/user/Desktop/STM32-Projekte/FH-Vertibot/src/STM32F30x_StdPeriph_Driver/src/stm32f30x_adc.c ****   ADC_InitStruct->ADC_Resolution|                 
 122              		.loc 1 190 0
 123 005e 8A68     		ldr	r2, [r1, #8]
 124 0060 1443     		orrs	r4, r4, r2
 191:/home/user/Desktop/STM32-Projekte/FH-Vertibot/src/STM32F30x_StdPeriph_Driver/src/stm32f30x_adc.c ****   ADC_InitStruct->ADC_ExternalTrigConvEvent|         
 125              		.loc 1 191 0
 126 0062 CA68     		ldr	r2, [r1, #12]
 127 0064 1443     		orrs	r4, r4, r2
 192:/home/user/Desktop/STM32-Projekte/FH-Vertibot/src/STM32F30x_StdPeriph_Driver/src/stm32f30x_adc.c ****   ADC_InitStruct->ADC_ExternalTrigEventEdge|     
 128              		.loc 1 192 0
 129 0066 0A69     		ldr	r2, [r1, #16]
 130 0068 1443     		orrs	r4, r4, r2
 193:/home/user/Desktop/STM32-Projekte/FH-Vertibot/src/STM32F30x_StdPeriph_Driver/src/stm32f30x_adc.c ****   ADC_InitStruct->ADC_DataAlign|                 
 131              		.loc 1 193 0
 132 006a 4A69     		ldr	r2, [r1, #20]
 133 006c 1443     		orrs	r4, r4, r2
 194:/home/user/Desktop/STM32-Projekte/FH-Vertibot/src/STM32F30x_StdPeriph_Driver/src/stm32f30x_adc.c ****   ADC_InitStruct->ADC_OverrunMode|        
 134              		.loc 1 194 0
 135 006e 8A69     		ldr	r2, [r1, #24]
 136 0070 2243     		orrs	r2, r2, r4
 189:/home/user/Desktop/STM32-Projekte/FH-Vertibot/src/STM32F30x_StdPeriph_Driver/src/stm32f30x_adc.c ****   tmpreg1 |= (uint32_t)ADC_InitStruct->ADC_ContinuousConvMode | 
 137              		.loc 1 189 0
 138 0072 1343     		orrs	r3, r3, r2
 139              	.LVL10:
 195:/home/user/Desktop/STM32-Projekte/FH-Vertibot/src/STM32F30x_StdPeriph_Driver/src/stm32f30x_adc.c ****   ADC_InitStruct->ADC_AutoInjMode;
 196:/home/user/Desktop/STM32-Projekte/FH-Vertibot/src/STM32F30x_StdPeriph_Driver/src/stm32f30x_adc.c ****   
 197:/home/user/Desktop/STM32-Projekte/FH-Vertibot/src/STM32F30x_StdPeriph_Driver/src/stm32f30x_adc.c ****   /* Write to ADCx CFGR */
 198:/home/user/Desktop/STM32-Projekte/FH-Vertibot/src/STM32F30x_StdPeriph_Driver/src/stm32f30x_adc.c ****   ADCx->CFGR = tmpreg1;
 140              		.loc 1 198 0
 141 0074 C360     		str	r3, [r0, #12]
 199:/home/user/Desktop/STM32-Projekte/FH-Vertibot/src/STM32F30x_StdPeriph_Driver/src/stm32f30x_adc.c ****   
 200:/home/user/Desktop/STM32-Projekte/FH-Vertibot/src/STM32F30x_StdPeriph_Driver/src/stm32f30x_adc.c ****   /*---------------------------- ADCx SQR1 Configuration -----------------*/
 201:/home/user/Desktop/STM32-Projekte/FH-Vertibot/src/STM32F30x_StdPeriph_Driver/src/stm32f30x_adc.c ****   /* Get the ADCx SQR1 value */
 202:/home/user/Desktop/STM32-Projekte/FH-Vertibot/src/STM32F30x_StdPeriph_Driver/src/stm32f30x_adc.c ****   tmpreg1 = ADCx->SQR1;
 142              		.loc 1 202 0
 143 0076 026B     		ldr	r2, [r0, #48]
 144              	.LVL11:
 203:/home/user/Desktop/STM32-Projekte/FH-Vertibot/src/STM32F30x_StdPeriph_Driver/src/stm32f30x_adc.c ****   /* Clear L bits */
 204:/home/user/Desktop/STM32-Projekte/FH-Vertibot/src/STM32F30x_StdPeriph_Driver/src/stm32f30x_adc.c ****   tmpreg1 &= ~(uint32_t)(ADC_SQR1_L);
 205:/home/user/Desktop/STM32-Projekte/FH-Vertibot/src/STM32F30x_StdPeriph_Driver/src/stm32f30x_adc.c ****   /* Configure ADCx: regular channel sequence length */
 206:/home/user/Desktop/STM32-Projekte/FH-Vertibot/src/STM32F30x_StdPeriph_Driver/src/stm32f30x_adc.c ****   /* Set L bits according to ADC_NbrOfRegChannel value */
 207:/home/user/Desktop/STM32-Projekte/FH-Vertibot/src/STM32F30x_StdPeriph_Driver/src/stm32f30x_adc.c ****   tmpreg1 |= (uint32_t) (ADC_InitStruct->ADC_NbrOfRegChannel - 1);
 145              		.loc 1 207 0
 146 0078 0B7F     		ldrb	r3, [r1, #28]	@ zero_extendqisi2
 204:/home/user/Desktop/STM32-Projekte/FH-Vertibot/src/STM32F30x_StdPeriph_Driver/src/stm32f30x_adc.c ****   tmpreg1 &= ~(uint32_t)(ADC_SQR1_L);
 147              		.loc 1 204 0
 148 007a 22F00F02 		bic	r2, r2, #15
 149              	.LVL12:
 150              		.loc 1 207 0
 151 007e 013B     		subs	r3, r3, #1
 152 0080 1343     		orrs	r3, r3, r2
 153              	.LVL13:
 208:/home/user/Desktop/STM32-Projekte/FH-Vertibot/src/STM32F30x_StdPeriph_Driver/src/stm32f30x_adc.c ****   /* Write to ADCx SQR1 */
 209:/home/user/Desktop/STM32-Projekte/FH-Vertibot/src/STM32F30x_StdPeriph_Driver/src/stm32f30x_adc.c ****   ADCx->SQR1 = tmpreg1; 
 154              		.loc 1 209 0
 155 0082 0363     		str	r3, [r0, #48]
 156 0084 10BD     		pop	{r4, pc}
 157              	.L15:
 158 0086 00BF     		.align	2
 159              	.L14:
 160 0088 07C0FFFD 		.word	-33570809
 161              		.cfi_endproc
 162              	.LFE112:
 164              		.align	1
 165              		.global	ADC_StructInit
 166              		.thumb
 167              		.thumb_func
 169              	ADC_StructInit:
 170              	.LFB113:
 210:/home/user/Desktop/STM32-Projekte/FH-Vertibot/src/STM32F30x_StdPeriph_Driver/src/stm32f30x_adc.c ****    
 211:/home/user/Desktop/STM32-Projekte/FH-Vertibot/src/STM32F30x_StdPeriph_Driver/src/stm32f30x_adc.c **** }  
 212:/home/user/Desktop/STM32-Projekte/FH-Vertibot/src/STM32F30x_StdPeriph_Driver/src/stm32f30x_adc.c **** 
 213:/home/user/Desktop/STM32-Projekte/FH-Vertibot/src/STM32F30x_StdPeriph_Driver/src/stm32f30x_adc.c **** /**
 214:/home/user/Desktop/STM32-Projekte/FH-Vertibot/src/STM32F30x_StdPeriph_Driver/src/stm32f30x_adc.c ****   * @brief  Fills each ADC_InitStruct member with its default value.
 215:/home/user/Desktop/STM32-Projekte/FH-Vertibot/src/STM32F30x_StdPeriph_Driver/src/stm32f30x_adc.c ****   * @param  ADC_InitStruct : pointer to an ADC_InitTypeDef structure which will be initialized.
 216:/home/user/Desktop/STM32-Projekte/FH-Vertibot/src/STM32F30x_StdPeriph_Driver/src/stm32f30x_adc.c ****   * @retval None
 217:/home/user/Desktop/STM32-Projekte/FH-Vertibot/src/STM32F30x_StdPeriph_Driver/src/stm32f30x_adc.c ****   */
 218:/home/user/Desktop/STM32-Projekte/FH-Vertibot/src/STM32F30x_StdPeriph_Driver/src/stm32f30x_adc.c **** void ADC_StructInit(ADC_InitTypeDef* ADC_InitStruct)
 219:/home/user/Desktop/STM32-Projekte/FH-Vertibot/src/STM32F30x_StdPeriph_Driver/src/stm32f30x_adc.c **** {
 171              		.loc 1 219 0
 172              		.cfi_startproc
 173              		@ args = 0, pretend = 0, frame = 0
 174              		@ frame_needed = 0, uses_anonymous_args = 0
 175              		@ link register save eliminated.
 176              	.LVL14:
 220:/home/user/Desktop/STM32-Projekte/FH-Vertibot/src/STM32F30x_StdPeriph_Driver/src/stm32f30x_adc.c ****   /* Reset ADC init structure parameters values */
 221:/home/user/Desktop/STM32-Projekte/FH-Vertibot/src/STM32F30x_StdPeriph_Driver/src/stm32f30x_adc.c ****   ADC_InitStruct->ADC_ContinuousConvMode = DISABLE;
 177              		.loc 1 221 0
 178 008c 0023     		movs	r3, #0
 179 008e 0360     		str	r3, [r0]
 222:/home/user/Desktop/STM32-Projekte/FH-Vertibot/src/STM32F30x_StdPeriph_Driver/src/stm32f30x_adc.c ****   ADC_InitStruct->ADC_Resolution = ADC_Resolution_12b;                 
 180              		.loc 1 222 0
 181 0090 4360     		str	r3, [r0, #4]
 223:/home/user/Desktop/STM32-Projekte/FH-Vertibot/src/STM32F30x_StdPeriph_Driver/src/stm32f30x_adc.c ****   ADC_InitStruct->ADC_ExternalTrigConvEvent = ADC_ExternalTrigConvEvent_0;         
 182              		.loc 1 223 0
 183 0092 8360     		str	r3, [r0, #8]
 224:/home/user/Desktop/STM32-Projekte/FH-Vertibot/src/STM32F30x_StdPeriph_Driver/src/stm32f30x_adc.c ****   ADC_InitStruct->ADC_ExternalTrigEventEdge = ADC_ExternalTrigEventEdge_None;
 184              		.loc 1 224 0
 185 0094 C360     		str	r3, [r0, #12]
 225:/home/user/Desktop/STM32-Projekte/FH-Vertibot/src/STM32F30x_StdPeriph_Driver/src/stm32f30x_adc.c ****   ADC_InitStruct->ADC_DataAlign = ADC_DataAlign_Right;                 
 186              		.loc 1 225 0
 187 0096 0361     		str	r3, [r0, #16]
 226:/home/user/Desktop/STM32-Projekte/FH-Vertibot/src/STM32F30x_StdPeriph_Driver/src/stm32f30x_adc.c ****   ADC_InitStruct->ADC_OverrunMode = DISABLE;   
 188              		.loc 1 226 0
 189 0098 4361     		str	r3, [r0, #20]
 227:/home/user/Desktop/STM32-Projekte/FH-Vertibot/src/STM32F30x_StdPeriph_Driver/src/stm32f30x_adc.c ****   ADC_InitStruct->ADC_AutoInjMode = DISABLE;  
 190              		.loc 1 227 0
 191 009a 8361     		str	r3, [r0, #24]
 228:/home/user/Desktop/STM32-Projekte/FH-Vertibot/src/STM32F30x_StdPeriph_Driver/src/stm32f30x_adc.c ****   ADC_InitStruct->ADC_NbrOfRegChannel = 1; 
 192              		.loc 1 228 0
 193 009c 0123     		movs	r3, #1
 194 009e 0377     		strb	r3, [r0, #28]
 195 00a0 7047     		bx	lr
 196              		.cfi_endproc
 197              	.LFE113:
 199              		.align	1
 200              		.global	ADC_InjectedInit
 201              		.thumb
 202              		.thumb_func
 204              	ADC_InjectedInit:
 205              	.LFB114:
 229:/home/user/Desktop/STM32-Projekte/FH-Vertibot/src/STM32F30x_StdPeriph_Driver/src/stm32f30x_adc.c **** }
 230:/home/user/Desktop/STM32-Projekte/FH-Vertibot/src/STM32F30x_StdPeriph_Driver/src/stm32f30x_adc.c **** 
 231:/home/user/Desktop/STM32-Projekte/FH-Vertibot/src/STM32F30x_StdPeriph_Driver/src/stm32f30x_adc.c **** /**
 232:/home/user/Desktop/STM32-Projekte/FH-Vertibot/src/STM32F30x_StdPeriph_Driver/src/stm32f30x_adc.c ****   * @brief  Initializes the ADCx peripheral according to the specified parameters
 233:/home/user/Desktop/STM32-Projekte/FH-Vertibot/src/STM32F30x_StdPeriph_Driver/src/stm32f30x_adc.c ****   *         in the ADC_InitStruct.
 234:/home/user/Desktop/STM32-Projekte/FH-Vertibot/src/STM32F30x_StdPeriph_Driver/src/stm32f30x_adc.c ****   * @param  ADCx: where x can be 1, 2, 3 or 4 to select the ADC peripheral.
 235:/home/user/Desktop/STM32-Projekte/FH-Vertibot/src/STM32F30x_StdPeriph_Driver/src/stm32f30x_adc.c ****   * @param  ADC_InjectInitStruct: pointer to an ADC_InjecInitTypeDef structure that contains
 236:/home/user/Desktop/STM32-Projekte/FH-Vertibot/src/STM32F30x_StdPeriph_Driver/src/stm32f30x_adc.c ****   *         the configuration information for the specified ADC injected channel.
 237:/home/user/Desktop/STM32-Projekte/FH-Vertibot/src/STM32F30x_StdPeriph_Driver/src/stm32f30x_adc.c ****   * @retval None
 238:/home/user/Desktop/STM32-Projekte/FH-Vertibot/src/STM32F30x_StdPeriph_Driver/src/stm32f30x_adc.c ****   */
 239:/home/user/Desktop/STM32-Projekte/FH-Vertibot/src/STM32F30x_StdPeriph_Driver/src/stm32f30x_adc.c **** void ADC_InjectedInit(ADC_TypeDef* ADCx, ADC_InjectedInitTypeDef* ADC_InjectedInitStruct)
 240:/home/user/Desktop/STM32-Projekte/FH-Vertibot/src/STM32F30x_StdPeriph_Driver/src/stm32f30x_adc.c **** {
 206              		.loc 1 240 0
 207              		.cfi_startproc
 208              		@ args = 0, pretend = 0, frame = 0
 209              		@ frame_needed = 0, uses_anonymous_args = 0
 210              		@ link register save eliminated.
 211              	.LVL15:
 241:/home/user/Desktop/STM32-Projekte/FH-Vertibot/src/STM32F30x_StdPeriph_Driver/src/stm32f30x_adc.c ****   uint32_t tmpreg1 = 0;
 242:/home/user/Desktop/STM32-Projekte/FH-Vertibot/src/STM32F30x_StdPeriph_Driver/src/stm32f30x_adc.c ****   /* Check the parameters */
 243:/home/user/Desktop/STM32-Projekte/FH-Vertibot/src/STM32F30x_StdPeriph_Driver/src/stm32f30x_adc.c ****   assert_param(IS_ADC_ALL_PERIPH(ADCx));
 244:/home/user/Desktop/STM32-Projekte/FH-Vertibot/src/STM32F30x_StdPeriph_Driver/src/stm32f30x_adc.c ****   assert_param(IS_ADC_EXT_INJEC_TRIG(ADC_InjectedInitStruct->ADC_ExternalTrigInjecConvEvent)); 
 245:/home/user/Desktop/STM32-Projekte/FH-Vertibot/src/STM32F30x_StdPeriph_Driver/src/stm32f30x_adc.c ****   assert_param(IS_EXTERNALTRIGINJ_EDGE(ADC_InjectedInitStruct->ADC_ExternalTrigInjecEventEdge));   
 246:/home/user/Desktop/STM32-Projekte/FH-Vertibot/src/STM32F30x_StdPeriph_Driver/src/stm32f30x_adc.c ****   assert_param(IS_ADC_INJECTED_LENGTH(ADC_InjectedInitStruct->ADC_NbrOfInjecChannel));
 247:/home/user/Desktop/STM32-Projekte/FH-Vertibot/src/STM32F30x_StdPeriph_Driver/src/stm32f30x_adc.c ****   assert_param(IS_ADC_INJECTED_CHANNEL(ADC_InjectedInitStruct->ADC_InjecSequence1));
 248:/home/user/Desktop/STM32-Projekte/FH-Vertibot/src/STM32F30x_StdPeriph_Driver/src/stm32f30x_adc.c ****   assert_param(IS_ADC_INJECTED_CHANNEL(ADC_InjectedInitStruct->ADC_InjecSequence2));
 249:/home/user/Desktop/STM32-Projekte/FH-Vertibot/src/STM32F30x_StdPeriph_Driver/src/stm32f30x_adc.c ****   assert_param(IS_ADC_INJECTED_CHANNEL(ADC_InjectedInitStruct->ADC_InjecSequence3));
 250:/home/user/Desktop/STM32-Projekte/FH-Vertibot/src/STM32F30x_StdPeriph_Driver/src/stm32f30x_adc.c ****   assert_param(IS_ADC_INJECTED_CHANNEL(ADC_InjectedInitStruct->ADC_InjecSequence4));
 251:/home/user/Desktop/STM32-Projekte/FH-Vertibot/src/STM32F30x_StdPeriph_Driver/src/stm32f30x_adc.c ****   
 252:/home/user/Desktop/STM32-Projekte/FH-Vertibot/src/STM32F30x_StdPeriph_Driver/src/stm32f30x_adc.c ****   /*---------------------------- ADCx JSQR Configuration -----------------*/
 253:/home/user/Desktop/STM32-Projekte/FH-Vertibot/src/STM32F30x_StdPeriph_Driver/src/stm32f30x_adc.c ****   /* Get the ADCx JSQR value */
 254:/home/user/Desktop/STM32-Projekte/FH-Vertibot/src/STM32F30x_StdPeriph_Driver/src/stm32f30x_adc.c ****   tmpreg1 = ADCx->JSQR;
 212              		.loc 1 254 0
 213 00a2 C36C     		ldr	r3, [r0, #76]
 214              	.LVL16:
 255:/home/user/Desktop/STM32-Projekte/FH-Vertibot/src/STM32F30x_StdPeriph_Driver/src/stm32f30x_adc.c ****   /* Clear L bits */
 256:/home/user/Desktop/STM32-Projekte/FH-Vertibot/src/STM32F30x_StdPeriph_Driver/src/stm32f30x_adc.c ****   tmpreg1 &= JSQR_CLEAR_Mask;
 257:/home/user/Desktop/STM32-Projekte/FH-Vertibot/src/STM32F30x_StdPeriph_Driver/src/stm32f30x_adc.c ****   /* Configure ADCx: Injected channel sequence length, external trigger, 
 258:/home/user/Desktop/STM32-Projekte/FH-Vertibot/src/STM32F30x_StdPeriph_Driver/src/stm32f30x_adc.c ****      external trigger edge and sequences
 259:/home/user/Desktop/STM32-Projekte/FH-Vertibot/src/STM32F30x_StdPeriph_Driver/src/stm32f30x_adc.c ****   */
 260:/home/user/Desktop/STM32-Projekte/FH-Vertibot/src/STM32F30x_StdPeriph_Driver/src/stm32f30x_adc.c ****   tmpreg1 = (uint32_t) ((ADC_InjectedInitStruct->ADC_NbrOfInjecChannel - (uint8_t)1) |
 215              		.loc 1 260 0
 216 00a4 91E80C00 		ldmia	r1, {r2, r3}
 217 00a8 1A43     		orrs	r2, r2, r3
 261:/home/user/Desktop/STM32-Projekte/FH-Vertibot/src/STM32F30x_StdPeriph_Driver/src/stm32f30x_adc.c ****                          ADC_InjectedInitStruct->ADC_ExternalTrigInjecConvEvent |         
 262:/home/user/Desktop/STM32-Projekte/FH-Vertibot/src/STM32F30x_StdPeriph_Driver/src/stm32f30x_adc.c ****                          ADC_InjectedInitStruct->ADC_ExternalTrigInjecEventEdge |
 263:/home/user/Desktop/STM32-Projekte/FH-Vertibot/src/STM32F30x_StdPeriph_Driver/src/stm32f30x_adc.c ****                          (uint32_t)((ADC_InjectedInitStruct->ADC_InjecSequence1) << 8) |
 218              		.loc 1 263 0
 219 00aa CB68     		ldr	r3, [r1, #12]
 261:/home/user/Desktop/STM32-Projekte/FH-Vertibot/src/STM32F30x_StdPeriph_Driver/src/stm32f30x_adc.c ****                          ADC_InjectedInitStruct->ADC_ExternalTrigInjecConvEvent |         
 220              		.loc 1 261 0
 221 00ac 42EA0322 		orr	r2, r2, r3, lsl #8
 264:/home/user/Desktop/STM32-Projekte/FH-Vertibot/src/STM32F30x_StdPeriph_Driver/src/stm32f30x_adc.c ****                          (uint32_t)((ADC_InjectedInitStruct->ADC_InjecSequence2) << 14) |
 222              		.loc 1 264 0
 223 00b0 0B69     		ldr	r3, [r1, #16]
 262:/home/user/Desktop/STM32-Projekte/FH-Vertibot/src/STM32F30x_StdPeriph_Driver/src/stm32f30x_adc.c ****                          ADC_InjectedInitStruct->ADC_ExternalTrigInjecEventEdge |
 224              		.loc 1 262 0
 225 00b2 42EA8332 		orr	r2, r2, r3, lsl #14
 265:/home/user/Desktop/STM32-Projekte/FH-Vertibot/src/STM32F30x_StdPeriph_Driver/src/stm32f30x_adc.c ****                          (uint32_t)((ADC_InjectedInitStruct->ADC_InjecSequence3) << 20) |
 226              		.loc 1 265 0
 227 00b6 4B69     		ldr	r3, [r1, #20]
 263:/home/user/Desktop/STM32-Projekte/FH-Vertibot/src/STM32F30x_StdPeriph_Driver/src/stm32f30x_adc.c ****                          (uint32_t)((ADC_InjectedInitStruct->ADC_InjecSequence1) << 8) |
 228              		.loc 1 263 0
 229 00b8 42EA0352 		orr	r2, r2, r3, lsl #20
 266:/home/user/Desktop/STM32-Projekte/FH-Vertibot/src/STM32F30x_StdPeriph_Driver/src/stm32f30x_adc.c ****                          (uint32_t)((ADC_InjectedInitStruct->ADC_InjecSequence4) << 26));
 230              		.loc 1 266 0
 231 00bc 8B69     		ldr	r3, [r1, #24]
 264:/home/user/Desktop/STM32-Projekte/FH-Vertibot/src/STM32F30x_StdPeriph_Driver/src/stm32f30x_adc.c ****                          (uint32_t)((ADC_InjectedInitStruct->ADC_InjecSequence2) << 14) |
 232              		.loc 1 264 0
 233 00be 42EA8363 		orr	r3, r2, r3, lsl #26
 260:/home/user/Desktop/STM32-Projekte/FH-Vertibot/src/STM32F30x_StdPeriph_Driver/src/stm32f30x_adc.c ****   tmpreg1 = (uint32_t) ((ADC_InjectedInitStruct->ADC_NbrOfInjecChannel - (uint8_t)1) |
 234              		.loc 1 260 0
 235 00c2 0A7A     		ldrb	r2, [r1, #8]	@ zero_extendqisi2
 236 00c4 013A     		subs	r2, r2, #1
 237 00c6 1343     		orrs	r3, r3, r2
 238              	.LVL17:
 267:/home/user/Desktop/STM32-Projekte/FH-Vertibot/src/STM32F30x_StdPeriph_Driver/src/stm32f30x_adc.c ****   /* Write to ADCx SQR1 */
 268:/home/user/Desktop/STM32-Projekte/FH-Vertibot/src/STM32F30x_StdPeriph_Driver/src/stm32f30x_adc.c ****   ADCx->JSQR = tmpreg1;  
 239              		.loc 1 268 0
 240 00c8 C364     		str	r3, [r0, #76]
 241 00ca 7047     		bx	lr
 242              		.cfi_endproc
 243              	.LFE114:
 245              		.align	1
 246              		.global	ADC_InjectedStructInit
 247              		.thumb
 248              		.thumb_func
 250              	ADC_InjectedStructInit:
 251              	.LFB115:
 269:/home/user/Desktop/STM32-Projekte/FH-Vertibot/src/STM32F30x_StdPeriph_Driver/src/stm32f30x_adc.c **** }
 270:/home/user/Desktop/STM32-Projekte/FH-Vertibot/src/STM32F30x_StdPeriph_Driver/src/stm32f30x_adc.c **** 
 271:/home/user/Desktop/STM32-Projekte/FH-Vertibot/src/STM32F30x_StdPeriph_Driver/src/stm32f30x_adc.c **** /**
 272:/home/user/Desktop/STM32-Projekte/FH-Vertibot/src/STM32F30x_StdPeriph_Driver/src/stm32f30x_adc.c ****   * @brief  Fills each ADC_InjectedInitStruct member with its default value.
 273:/home/user/Desktop/STM32-Projekte/FH-Vertibot/src/STM32F30x_StdPeriph_Driver/src/stm32f30x_adc.c ****   * @param  ADC_InjectedInitStruct : pointer to an ADC_InjectedInitTypeDef structure which will be 
 274:/home/user/Desktop/STM32-Projekte/FH-Vertibot/src/STM32F30x_StdPeriph_Driver/src/stm32f30x_adc.c ****   * @retval None
 275:/home/user/Desktop/STM32-Projekte/FH-Vertibot/src/STM32F30x_StdPeriph_Driver/src/stm32f30x_adc.c ****   */
 276:/home/user/Desktop/STM32-Projekte/FH-Vertibot/src/STM32F30x_StdPeriph_Driver/src/stm32f30x_adc.c **** void ADC_InjectedStructInit(ADC_InjectedInitTypeDef* ADC_InjectedInitStruct)
 277:/home/user/Desktop/STM32-Projekte/FH-Vertibot/src/STM32F30x_StdPeriph_Driver/src/stm32f30x_adc.c **** {
 252              		.loc 1 277 0
 253              		.cfi_startproc
 254              		@ args = 0, pretend = 0, frame = 0
 255              		@ frame_needed = 0, uses_anonymous_args = 0
 256              		@ link register save eliminated.
 257              	.LVL18:
 278:/home/user/Desktop/STM32-Projekte/FH-Vertibot/src/STM32F30x_StdPeriph_Driver/src/stm32f30x_adc.c ****   ADC_InjectedInitStruct->ADC_ExternalTrigInjecConvEvent = ADC_ExternalTrigInjecConvEvent_0;    
 258              		.loc 1 278 0
 259 00cc 0023     		movs	r3, #0
 260 00ce 0360     		str	r3, [r0]
 279:/home/user/Desktop/STM32-Projekte/FH-Vertibot/src/STM32F30x_StdPeriph_Driver/src/stm32f30x_adc.c ****   ADC_InjectedInitStruct->ADC_ExternalTrigInjecEventEdge = ADC_ExternalTrigInjecEventEdge_None;    
 261              		.loc 1 279 0
 262 00d0 4360     		str	r3, [r0, #4]
 280:/home/user/Desktop/STM32-Projekte/FH-Vertibot/src/STM32F30x_StdPeriph_Driver/src/stm32f30x_adc.c ****   ADC_InjectedInitStruct->ADC_NbrOfInjecChannel = 1;                                               
 263              		.loc 1 280 0
 264 00d2 0123     		movs	r3, #1
 265 00d4 0372     		strb	r3, [r0, #8]
 281:/home/user/Desktop/STM32-Projekte/FH-Vertibot/src/STM32F30x_StdPeriph_Driver/src/stm32f30x_adc.c ****   ADC_InjectedInitStruct->ADC_InjecSequence1 = ADC_InjectedChannel_1; 
 266              		.loc 1 281 0
 267 00d6 C360     		str	r3, [r0, #12]
 282:/home/user/Desktop/STM32-Projekte/FH-Vertibot/src/STM32F30x_StdPeriph_Driver/src/stm32f30x_adc.c ****   ADC_InjectedInitStruct->ADC_InjecSequence2 = ADC_InjectedChannel_1;
 268              		.loc 1 282 0
 269 00d8 0361     		str	r3, [r0, #16]
 283:/home/user/Desktop/STM32-Projekte/FH-Vertibot/src/STM32F30x_StdPeriph_Driver/src/stm32f30x_adc.c ****   ADC_InjectedInitStruct->ADC_InjecSequence3 = ADC_InjectedChannel_1;
 270              		.loc 1 283 0
 271 00da 4361     		str	r3, [r0, #20]
 284:/home/user/Desktop/STM32-Projekte/FH-Vertibot/src/STM32F30x_StdPeriph_Driver/src/stm32f30x_adc.c ****   ADC_InjectedInitStruct->ADC_InjecSequence4 = ADC_InjectedChannel_1; 
 272              		.loc 1 284 0
 273 00dc 8361     		str	r3, [r0, #24]
 274 00de 7047     		bx	lr
 275              		.cfi_endproc
 276              	.LFE115:
 278              		.align	1
 279              		.global	ADC_CommonInit
 280              		.thumb
 281              		.thumb_func
 283              	ADC_CommonInit:
 284              	.LFB116:
 285:/home/user/Desktop/STM32-Projekte/FH-Vertibot/src/STM32F30x_StdPeriph_Driver/src/stm32f30x_adc.c **** }
 286:/home/user/Desktop/STM32-Projekte/FH-Vertibot/src/STM32F30x_StdPeriph_Driver/src/stm32f30x_adc.c ****     
 287:/home/user/Desktop/STM32-Projekte/FH-Vertibot/src/STM32F30x_StdPeriph_Driver/src/stm32f30x_adc.c **** /**
 288:/home/user/Desktop/STM32-Projekte/FH-Vertibot/src/STM32F30x_StdPeriph_Driver/src/stm32f30x_adc.c ****   * @brief  Initializes the ADCs peripherals according to the specified parameters 
 289:/home/user/Desktop/STM32-Projekte/FH-Vertibot/src/STM32F30x_StdPeriph_Driver/src/stm32f30x_adc.c ****   *         in the ADC_CommonInitStruct.
 290:/home/user/Desktop/STM32-Projekte/FH-Vertibot/src/STM32F30x_StdPeriph_Driver/src/stm32f30x_adc.c ****   * @param  ADCx: where x can be 1 or 4 to select the ADC peripheral.
 291:/home/user/Desktop/STM32-Projekte/FH-Vertibot/src/STM32F30x_StdPeriph_Driver/src/stm32f30x_adc.c ****   * @param  ADC_CommonInitStruct: pointer to an ADC_CommonInitTypeDef structure 
 292:/home/user/Desktop/STM32-Projekte/FH-Vertibot/src/STM32F30x_StdPeriph_Driver/src/stm32f30x_adc.c ****   *         that contains the configuration information for  All ADCs peripherals.
 293:/home/user/Desktop/STM32-Projekte/FH-Vertibot/src/STM32F30x_StdPeriph_Driver/src/stm32f30x_adc.c ****   * @retval None
 294:/home/user/Desktop/STM32-Projekte/FH-Vertibot/src/STM32F30x_StdPeriph_Driver/src/stm32f30x_adc.c ****   */
 295:/home/user/Desktop/STM32-Projekte/FH-Vertibot/src/STM32F30x_StdPeriph_Driver/src/stm32f30x_adc.c **** void ADC_CommonInit(ADC_TypeDef* ADCx, ADC_CommonInitTypeDef* ADC_CommonInitStruct)
 296:/home/user/Desktop/STM32-Projekte/FH-Vertibot/src/STM32F30x_StdPeriph_Driver/src/stm32f30x_adc.c **** {
 285              		.loc 1 296 0
 286              		.cfi_startproc
 287              		@ args = 0, pretend = 0, frame = 0
 288              		@ frame_needed = 0, uses_anonymous_args = 0
 289              	.LVL19:
 297:/home/user/Desktop/STM32-Projekte/FH-Vertibot/src/STM32F30x_StdPeriph_Driver/src/stm32f30x_adc.c ****   uint32_t tmpreg1 = 0;
 298:/home/user/Desktop/STM32-Projekte/FH-Vertibot/src/STM32F30x_StdPeriph_Driver/src/stm32f30x_adc.c ****   /* Check the parameters */
 299:/home/user/Desktop/STM32-Projekte/FH-Vertibot/src/STM32F30x_StdPeriph_Driver/src/stm32f30x_adc.c ****   assert_param(IS_ADC_MODE(ADC_CommonInitStruct->ADC_Mode));
 300:/home/user/Desktop/STM32-Projekte/FH-Vertibot/src/STM32F30x_StdPeriph_Driver/src/stm32f30x_adc.c ****   assert_param(IS_ADC_CLOCKMODE(ADC_CommonInitStruct->ADC_Clock));
 301:/home/user/Desktop/STM32-Projekte/FH-Vertibot/src/STM32F30x_StdPeriph_Driver/src/stm32f30x_adc.c ****   assert_param(IS_ADC_DMA_MODE(ADC_CommonInitStruct->ADC_DMAMode));
 302:/home/user/Desktop/STM32-Projekte/FH-Vertibot/src/STM32F30x_StdPeriph_Driver/src/stm32f30x_adc.c ****   assert_param(IS_ADC_DMA_ACCESS_MODE(ADC_CommonInitStruct->ADC_DMAAccessMode));
 303:/home/user/Desktop/STM32-Projekte/FH-Vertibot/src/STM32F30x_StdPeriph_Driver/src/stm32f30x_adc.c ****   assert_param(IS_ADC_TWOSAMPLING_DELAY(ADC_CommonInitStruct->ADC_TwoSamplingDelay));
 304:/home/user/Desktop/STM32-Projekte/FH-Vertibot/src/STM32F30x_StdPeriph_Driver/src/stm32f30x_adc.c **** 
 305:/home/user/Desktop/STM32-Projekte/FH-Vertibot/src/STM32F30x_StdPeriph_Driver/src/stm32f30x_adc.c ****   if((ADCx == ADC1) || (ADCx == ADC2))
 290              		.loc 1 305 0
 291 00e0 B0F1A04F 		cmp	r0, #1342177280
 296:/home/user/Desktop/STM32-Projekte/FH-Vertibot/src/STM32F30x_StdPeriph_Driver/src/stm32f30x_adc.c **** {
 292              		.loc 1 296 0
 293 00e4 10B5     		push	{r4, lr}
 294              	.LCFI2:
 295              		.cfi_def_cfa_offset 8
 296              		.cfi_offset 4, -8
 297              		.cfi_offset 14, -4
 298              		.loc 1 305 0
 299 00e6 02D0     		beq	.L20
 300              		.loc 1 305 0 is_stmt 0 discriminator 1
 301 00e8 104B     		ldr	r3, .L34
 302 00ea 9842     		cmp	r0, r3
 303 00ec 01D1     		bne	.L21
 304              	.L20:
 306:/home/user/Desktop/STM32-Projekte/FH-Vertibot/src/STM32F30x_StdPeriph_Driver/src/stm32f30x_adc.c ****   {
 307:/home/user/Desktop/STM32-Projekte/FH-Vertibot/src/STM32F30x_StdPeriph_Driver/src/stm32f30x_adc.c ****     /* Get the ADC CCR value */
 308:/home/user/Desktop/STM32-Projekte/FH-Vertibot/src/STM32F30x_StdPeriph_Driver/src/stm32f30x_adc.c ****     tmpreg1 = ADC1_2->CCR;
 305              		.loc 1 308 0 is_stmt 1
 306 00ee 104B     		ldr	r3, .L34+4
 307 00f0 00E0     		b	.L32
 308              	.L21:
 309:/home/user/Desktop/STM32-Projekte/FH-Vertibot/src/STM32F30x_StdPeriph_Driver/src/stm32f30x_adc.c ****   
 310:/home/user/Desktop/STM32-Projekte/FH-Vertibot/src/STM32F30x_StdPeriph_Driver/src/stm32f30x_adc.c ****     /* Clear MULTI, DELAY, DMA and ADCPRE bits */
 311:/home/user/Desktop/STM32-Projekte/FH-Vertibot/src/STM32F30x_StdPeriph_Driver/src/stm32f30x_adc.c ****     tmpreg1 &= CCR_CLEAR_MASK;
 312:/home/user/Desktop/STM32-Projekte/FH-Vertibot/src/STM32F30x_StdPeriph_Driver/src/stm32f30x_adc.c ****   }
 313:/home/user/Desktop/STM32-Projekte/FH-Vertibot/src/STM32F30x_StdPeriph_Driver/src/stm32f30x_adc.c ****   else
 314:/home/user/Desktop/STM32-Projekte/FH-Vertibot/src/STM32F30x_StdPeriph_Driver/src/stm32f30x_adc.c ****   {
 315:/home/user/Desktop/STM32-Projekte/FH-Vertibot/src/STM32F30x_StdPeriph_Driver/src/stm32f30x_adc.c ****     /* Get the ADC CCR value */
 316:/home/user/Desktop/STM32-Projekte/FH-Vertibot/src/STM32F30x_StdPeriph_Driver/src/stm32f30x_adc.c ****     tmpreg1 = ADC3_4->CCR;
 309              		.loc 1 316 0
 310 00f2 104B     		ldr	r3, .L34+8
 311              	.L32:
 312 00f4 9A68     		ldr	r2, [r3, #8]
 313              	.LVL20:
 317:/home/user/Desktop/STM32-Projekte/FH-Vertibot/src/STM32F30x_StdPeriph_Driver/src/stm32f30x_adc.c ****   
 318:/home/user/Desktop/STM32-Projekte/FH-Vertibot/src/STM32F30x_StdPeriph_Driver/src/stm32f30x_adc.c ****     /* Clear MULTI, DELAY, DMA and ADCPRE bits */
 319:/home/user/Desktop/STM32-Projekte/FH-Vertibot/src/STM32F30x_StdPeriph_Driver/src/stm32f30x_adc.c ****     tmpreg1 &= CCR_CLEAR_MASK;
 314              		.loc 1 319 0
 315 00f6 104B     		ldr	r3, .L34+12
 316 00f8 1340     		ands	r3, r3, r2
 317              	.LVL21:
 320:/home/user/Desktop/STM32-Projekte/FH-Vertibot/src/STM32F30x_StdPeriph_Driver/src/stm32f30x_adc.c ****   }
 321:/home/user/Desktop/STM32-Projekte/FH-Vertibot/src/STM32F30x_StdPeriph_Driver/src/stm32f30x_adc.c ****   /*---------------------------- ADC CCR Configuration -----------------*/  
 322:/home/user/Desktop/STM32-Projekte/FH-Vertibot/src/STM32F30x_StdPeriph_Driver/src/stm32f30x_adc.c ****   /* Configure ADCx: Multi mode, Delay between two sampling time, ADC clock, DMA mode
 323:/home/user/Desktop/STM32-Projekte/FH-Vertibot/src/STM32F30x_StdPeriph_Driver/src/stm32f30x_adc.c ****      and DMA access mode for dual mode */
 324:/home/user/Desktop/STM32-Projekte/FH-Vertibot/src/STM32F30x_StdPeriph_Driver/src/stm32f30x_adc.c ****   /* Set MULTI bits according to ADC_Mode value */
 325:/home/user/Desktop/STM32-Projekte/FH-Vertibot/src/STM32F30x_StdPeriph_Driver/src/stm32f30x_adc.c ****   /* Set CKMODE bits according to ADC_Clock value */
 326:/home/user/Desktop/STM32-Projekte/FH-Vertibot/src/STM32F30x_StdPeriph_Driver/src/stm32f30x_adc.c ****   /* Set MDMA bits according to ADC_DMAAccessMode value */
 327:/home/user/Desktop/STM32-Projekte/FH-Vertibot/src/STM32F30x_StdPeriph_Driver/src/stm32f30x_adc.c ****   /* Set DMACFG bits according to ADC_DMAMode value */
 328:/home/user/Desktop/STM32-Projekte/FH-Vertibot/src/STM32F30x_StdPeriph_Driver/src/stm32f30x_adc.c ****   /* Set DELAY bits according to ADC_TwoSamplingDelay value */    
 329:/home/user/Desktop/STM32-Projekte/FH-Vertibot/src/STM32F30x_StdPeriph_Driver/src/stm32f30x_adc.c ****   tmpreg1 |= (uint32_t)(ADC_CommonInitStruct->ADC_Mode | 
 318              		.loc 1 329 0
 319 00fa 91E81400 		ldmia	r1, {r2, r4}
 320 00fe 1443     		orrs	r4, r4, r2
 330:/home/user/Desktop/STM32-Projekte/FH-Vertibot/src/STM32F30x_StdPeriph_Driver/src/stm32f30x_adc.c ****                         ADC_CommonInitStruct->ADC_Clock | 
 321              		.loc 1 330 0
 322 0100 8A68     		ldr	r2, [r1, #8]
 323 0102 1443     		orrs	r4, r4, r2
 331:/home/user/Desktop/STM32-Projekte/FH-Vertibot/src/STM32F30x_StdPeriph_Driver/src/stm32f30x_adc.c ****                         ADC_CommonInitStruct->ADC_DMAAccessMode | 
 332:/home/user/Desktop/STM32-Projekte/FH-Vertibot/src/STM32F30x_StdPeriph_Driver/src/stm32f30x_adc.c ****                         (uint32_t)(ADC_CommonInitStruct->ADC_DMAMode << 12) |
 324              		.loc 1 332 0
 325 0104 CA68     		ldr	r2, [r1, #12]
 333:/home/user/Desktop/STM32-Projekte/FH-Vertibot/src/STM32F30x_StdPeriph_Driver/src/stm32f30x_adc.c ****                         (uint32_t)((uint32_t)ADC_CommonInitStruct->ADC_TwoSamplingDelay << 8));
 326              		.loc 1 333 0
 327 0106 097C     		ldrb	r1, [r1, #16]	@ zero_extendqisi2
 328              	.LVL22:
 331:/home/user/Desktop/STM32-Projekte/FH-Vertibot/src/STM32F30x_StdPeriph_Driver/src/stm32f30x_adc.c ****                         ADC_CommonInitStruct->ADC_DMAAccessMode | 
 329              		.loc 1 331 0
 330 0108 44EA0232 		orr	r2, r4, r2, lsl #12
 329:/home/user/Desktop/STM32-Projekte/FH-Vertibot/src/STM32F30x_StdPeriph_Driver/src/stm32f30x_adc.c ****   tmpreg1 |= (uint32_t)(ADC_CommonInitStruct->ADC_Mode | 
 331              		.loc 1 329 0
 332 010c 42EA0122 		orr	r2, r2, r1, lsl #8
 334:/home/user/Desktop/STM32-Projekte/FH-Vertibot/src/STM32F30x_StdPeriph_Driver/src/stm32f30x_adc.c **** 
 335:/home/user/Desktop/STM32-Projekte/FH-Vertibot/src/STM32F30x_StdPeriph_Driver/src/stm32f30x_adc.c ****   if((ADCx == ADC1) || (ADCx == ADC2))
 333              		.loc 1 335 0
 334 0110 B0F1A04F 		cmp	r0, #1342177280
 329:/home/user/Desktop/STM32-Projekte/FH-Vertibot/src/STM32F30x_StdPeriph_Driver/src/stm32f30x_adc.c ****   tmpreg1 |= (uint32_t)(ADC_CommonInitStruct->ADC_Mode | 
 335              		.loc 1 329 0
 336 0114 42EA0303 		orr	r3, r2, r3
 337              	.LVL23:
 338              		.loc 1 335 0
 339 0118 02D0     		beq	.L23
 340              		.loc 1 335 0 is_stmt 0 discriminator 1
 341 011a 044A     		ldr	r2, .L34
 342 011c 9042     		cmp	r0, r2
 343 011e 01D1     		bne	.L24
 344              	.L23:
 336:/home/user/Desktop/STM32-Projekte/FH-Vertibot/src/STM32F30x_StdPeriph_Driver/src/stm32f30x_adc.c ****   {                        
 337:/home/user/Desktop/STM32-Projekte/FH-Vertibot/src/STM32F30x_StdPeriph_Driver/src/stm32f30x_adc.c ****     /* Write to ADC CCR */
 338:/home/user/Desktop/STM32-Projekte/FH-Vertibot/src/STM32F30x_StdPeriph_Driver/src/stm32f30x_adc.c ****     ADC1_2->CCR = tmpreg1;
 345              		.loc 1 338 0 is_stmt 1
 346 0120 034A     		ldr	r2, .L34+4
 347 0122 00E0     		b	.L33
 348              	.L24:
 339:/home/user/Desktop/STM32-Projekte/FH-Vertibot/src/STM32F30x_StdPeriph_Driver/src/stm32f30x_adc.c ****   }
 340:/home/user/Desktop/STM32-Projekte/FH-Vertibot/src/STM32F30x_StdPeriph_Driver/src/stm32f30x_adc.c ****   else
 341:/home/user/Desktop/STM32-Projekte/FH-Vertibot/src/STM32F30x_StdPeriph_Driver/src/stm32f30x_adc.c ****   {
 342:/home/user/Desktop/STM32-Projekte/FH-Vertibot/src/STM32F30x_StdPeriph_Driver/src/stm32f30x_adc.c ****     /* Write to ADC CCR */
 343:/home/user/Desktop/STM32-Projekte/FH-Vertibot/src/STM32F30x_StdPeriph_Driver/src/stm32f30x_adc.c ****     ADC3_4->CCR = tmpreg1;
 349              		.loc 1 343 0
 350 0124 034A     		ldr	r2, .L34+8
 351              	.L33:
 352 0126 9360     		str	r3, [r2, #8]
 353 0128 10BD     		pop	{r4, pc}
 354              	.L35:
 355 012a 00BF     		.align	2
 356              	.L34:
 357 012c 00010050 		.word	1342177536
 358 0130 00030050 		.word	1342178048
 359 0134 00070050 		.word	1342179072
 360 0138 E010FCFF 		.word	-257824
 361              		.cfi_endproc
 362              	.LFE116:
 364              		.align	1
 365              		.global	ADC_CommonStructInit
 366              		.thumb
 367              		.thumb_func
 369              	ADC_CommonStructInit:
 370              	.LFB117:
 344:/home/user/Desktop/STM32-Projekte/FH-Vertibot/src/STM32F30x_StdPeriph_Driver/src/stm32f30x_adc.c ****   }
 345:/home/user/Desktop/STM32-Projekte/FH-Vertibot/src/STM32F30x_StdPeriph_Driver/src/stm32f30x_adc.c **** }
 346:/home/user/Desktop/STM32-Projekte/FH-Vertibot/src/STM32F30x_StdPeriph_Driver/src/stm32f30x_adc.c **** 
 347:/home/user/Desktop/STM32-Projekte/FH-Vertibot/src/STM32F30x_StdPeriph_Driver/src/stm32f30x_adc.c **** /**
 348:/home/user/Desktop/STM32-Projekte/FH-Vertibot/src/STM32F30x_StdPeriph_Driver/src/stm32f30x_adc.c ****   * @brief  Fills each ADC_CommonInitStruct member with its default value.
 349:/home/user/Desktop/STM32-Projekte/FH-Vertibot/src/STM32F30x_StdPeriph_Driver/src/stm32f30x_adc.c ****   * @param  ADC_CommonInitStruct: pointer to an ADC_CommonInitTypeDef structure
 350:/home/user/Desktop/STM32-Projekte/FH-Vertibot/src/STM32F30x_StdPeriph_Driver/src/stm32f30x_adc.c ****   *         which will be initialized.
 351:/home/user/Desktop/STM32-Projekte/FH-Vertibot/src/STM32F30x_StdPeriph_Driver/src/stm32f30x_adc.c ****   * @retval None
 352:/home/user/Desktop/STM32-Projekte/FH-Vertibot/src/STM32F30x_StdPeriph_Driver/src/stm32f30x_adc.c ****   */
 353:/home/user/Desktop/STM32-Projekte/FH-Vertibot/src/STM32F30x_StdPeriph_Driver/src/stm32f30x_adc.c **** void ADC_CommonStructInit(ADC_CommonInitTypeDef* ADC_CommonInitStruct)
 354:/home/user/Desktop/STM32-Projekte/FH-Vertibot/src/STM32F30x_StdPeriph_Driver/src/stm32f30x_adc.c **** {
 371              		.loc 1 354 0
 372              		.cfi_startproc
 373              		@ args = 0, pretend = 0, frame = 0
 374              		@ frame_needed = 0, uses_anonymous_args = 0
 375              		@ link register save eliminated.
 376              	.LVL24:
 355:/home/user/Desktop/STM32-Projekte/FH-Vertibot/src/STM32F30x_StdPeriph_Driver/src/stm32f30x_adc.c ****   /* Initialize the ADC_Mode member */
 356:/home/user/Desktop/STM32-Projekte/FH-Vertibot/src/STM32F30x_StdPeriph_Driver/src/stm32f30x_adc.c ****   ADC_CommonInitStruct->ADC_Mode = ADC_Mode_Independent;
 377              		.loc 1 356 0
 378 013c 0023     		movs	r3, #0
 379 013e 0360     		str	r3, [r0]
 357:/home/user/Desktop/STM32-Projekte/FH-Vertibot/src/STM32F30x_StdPeriph_Driver/src/stm32f30x_adc.c **** 
 358:/home/user/Desktop/STM32-Projekte/FH-Vertibot/src/STM32F30x_StdPeriph_Driver/src/stm32f30x_adc.c ****   /* initialize the ADC_Clock member */
 359:/home/user/Desktop/STM32-Projekte/FH-Vertibot/src/STM32F30x_StdPeriph_Driver/src/stm32f30x_adc.c ****   ADC_CommonInitStruct->ADC_Clock = ADC_Clock_AsynClkMode;
 380              		.loc 1 359 0
 381 0140 4360     		str	r3, [r0, #4]
 360:/home/user/Desktop/STM32-Projekte/FH-Vertibot/src/STM32F30x_StdPeriph_Driver/src/stm32f30x_adc.c **** 
 361:/home/user/Desktop/STM32-Projekte/FH-Vertibot/src/STM32F30x_StdPeriph_Driver/src/stm32f30x_adc.c ****   /* Initialize the ADC_DMAAccessMode member */
 362:/home/user/Desktop/STM32-Projekte/FH-Vertibot/src/STM32F30x_StdPeriph_Driver/src/stm32f30x_adc.c ****   ADC_CommonInitStruct->ADC_DMAAccessMode = ADC_DMAAccessMode_Disabled;
 382              		.loc 1 362 0
 383 0142 8360     		str	r3, [r0, #8]
 363:/home/user/Desktop/STM32-Projekte/FH-Vertibot/src/STM32F30x_StdPeriph_Driver/src/stm32f30x_adc.c **** 
 364:/home/user/Desktop/STM32-Projekte/FH-Vertibot/src/STM32F30x_StdPeriph_Driver/src/stm32f30x_adc.c ****   /* Initialize the ADC_DMAMode member */
 365:/home/user/Desktop/STM32-Projekte/FH-Vertibot/src/STM32F30x_StdPeriph_Driver/src/stm32f30x_adc.c ****   ADC_CommonInitStruct->ADC_DMAMode = ADC_DMAMode_OneShot;
 384              		.loc 1 365 0
 385 0144 C360     		str	r3, [r0, #12]
 366:/home/user/Desktop/STM32-Projekte/FH-Vertibot/src/STM32F30x_StdPeriph_Driver/src/stm32f30x_adc.c **** 
 367:/home/user/Desktop/STM32-Projekte/FH-Vertibot/src/STM32F30x_StdPeriph_Driver/src/stm32f30x_adc.c ****   /* Initialize the ADC_TwoSamplingDelay member */
 368:/home/user/Desktop/STM32-Projekte/FH-Vertibot/src/STM32F30x_StdPeriph_Driver/src/stm32f30x_adc.c ****   ADC_CommonInitStruct->ADC_TwoSamplingDelay = 0;
 386              		.loc 1 368 0
 387 0146 0374     		strb	r3, [r0, #16]
 388 0148 7047     		bx	lr
 389              		.cfi_endproc
 390              	.LFE117:
 392              		.align	1
 393              		.global	ADC_Cmd
 394              		.thumb
 395              		.thumb_func
 397              	ADC_Cmd:
 398              	.LFB118:
 369:/home/user/Desktop/STM32-Projekte/FH-Vertibot/src/STM32F30x_StdPeriph_Driver/src/stm32f30x_adc.c **** 
 370:/home/user/Desktop/STM32-Projekte/FH-Vertibot/src/STM32F30x_StdPeriph_Driver/src/stm32f30x_adc.c **** }
 371:/home/user/Desktop/STM32-Projekte/FH-Vertibot/src/STM32F30x_StdPeriph_Driver/src/stm32f30x_adc.c **** 
 372:/home/user/Desktop/STM32-Projekte/FH-Vertibot/src/STM32F30x_StdPeriph_Driver/src/stm32f30x_adc.c **** /**
 373:/home/user/Desktop/STM32-Projekte/FH-Vertibot/src/STM32F30x_StdPeriph_Driver/src/stm32f30x_adc.c ****   * @brief  Enables or disables the specified ADC peripheral.
 374:/home/user/Desktop/STM32-Projekte/FH-Vertibot/src/STM32F30x_StdPeriph_Driver/src/stm32f30x_adc.c ****   * @param  ADCx: where x can be 1, 2, 3 or 4 to select the ADC peripheral.
 375:/home/user/Desktop/STM32-Projekte/FH-Vertibot/src/STM32F30x_StdPeriph_Driver/src/stm32f30x_adc.c ****   * @param  NewState: new state of the ADCx peripheral.
 376:/home/user/Desktop/STM32-Projekte/FH-Vertibot/src/STM32F30x_StdPeriph_Driver/src/stm32f30x_adc.c ****   *   This parameter can be: ENABLE or DISABLE.
 377:/home/user/Desktop/STM32-Projekte/FH-Vertibot/src/STM32F30x_StdPeriph_Driver/src/stm32f30x_adc.c ****   * @retval None
 378:/home/user/Desktop/STM32-Projekte/FH-Vertibot/src/STM32F30x_StdPeriph_Driver/src/stm32f30x_adc.c ****   */
 379:/home/user/Desktop/STM32-Projekte/FH-Vertibot/src/STM32F30x_StdPeriph_Driver/src/stm32f30x_adc.c **** void ADC_Cmd(ADC_TypeDef* ADCx, FunctionalState NewState)
 380:/home/user/Desktop/STM32-Projekte/FH-Vertibot/src/STM32F30x_StdPeriph_Driver/src/stm32f30x_adc.c **** {
 399              		.loc 1 380 0
 400              		.cfi_startproc
 401              		@ args = 0, pretend = 0, frame = 0
 402              		@ frame_needed = 0, uses_anonymous_args = 0
 403              		@ link register save eliminated.
 404              	.LVL25:
 381:/home/user/Desktop/STM32-Projekte/FH-Vertibot/src/STM32F30x_StdPeriph_Driver/src/stm32f30x_adc.c ****   /* Check the parameters */
 382:/home/user/Desktop/STM32-Projekte/FH-Vertibot/src/STM32F30x_StdPeriph_Driver/src/stm32f30x_adc.c ****   assert_param(IS_ADC_ALL_PERIPH(ADCx));
 383:/home/user/Desktop/STM32-Projekte/FH-Vertibot/src/STM32F30x_StdPeriph_Driver/src/stm32f30x_adc.c ****   assert_param(IS_FUNCTIONAL_STATE(NewState));
 384:/home/user/Desktop/STM32-Projekte/FH-Vertibot/src/STM32F30x_StdPeriph_Driver/src/stm32f30x_adc.c **** 
 385:/home/user/Desktop/STM32-Projekte/FH-Vertibot/src/STM32F30x_StdPeriph_Driver/src/stm32f30x_adc.c ****   if (NewState != DISABLE)
 386:/home/user/Desktop/STM32-Projekte/FH-Vertibot/src/STM32F30x_StdPeriph_Driver/src/stm32f30x_adc.c ****   {
 387:/home/user/Desktop/STM32-Projekte/FH-Vertibot/src/STM32F30x_StdPeriph_Driver/src/stm32f30x_adc.c ****     /* Set the ADEN bit */
 388:/home/user/Desktop/STM32-Projekte/FH-Vertibot/src/STM32F30x_StdPeriph_Driver/src/stm32f30x_adc.c ****     ADCx->CR |= ADC_CR_ADEN;
 405              		.loc 1 388 0
 406 014a 8368     		ldr	r3, [r0, #8]
 385:/home/user/Desktop/STM32-Projekte/FH-Vertibot/src/STM32F30x_StdPeriph_Driver/src/stm32f30x_adc.c ****   if (NewState != DISABLE)
 407              		.loc 1 385 0
 408 014c 11B1     		cbz	r1, .L38
 409              		.loc 1 388 0
 410 014e 43F00103 		orr	r3, r3, #1
 411 0152 01E0     		b	.L40
 412              	.L38:
 389:/home/user/Desktop/STM32-Projekte/FH-Vertibot/src/STM32F30x_StdPeriph_Driver/src/stm32f30x_adc.c ****   }
 390:/home/user/Desktop/STM32-Projekte/FH-Vertibot/src/STM32F30x_StdPeriph_Driver/src/stm32f30x_adc.c ****   else
 391:/home/user/Desktop/STM32-Projekte/FH-Vertibot/src/STM32F30x_StdPeriph_Driver/src/stm32f30x_adc.c ****   {
 392:/home/user/Desktop/STM32-Projekte/FH-Vertibot/src/STM32F30x_StdPeriph_Driver/src/stm32f30x_adc.c ****     /* Disable the selected ADC peripheral: Set the ADDIS bit */
 393:/home/user/Desktop/STM32-Projekte/FH-Vertibot/src/STM32F30x_StdPeriph_Driver/src/stm32f30x_adc.c ****     ADCx->CR |= ADC_CR_ADDIS;
 413              		.loc 1 393 0
 414 0154 43F00203 		orr	r3, r3, #2
 415              	.L40:
 416 0158 8360     		str	r3, [r0, #8]
 417 015a 7047     		bx	lr
 418              		.cfi_endproc
 419              	.LFE118:
 421              		.align	1
 422              		.global	ADC_StartCalibration
 423              		.thumb
 424              		.thumb_func
 426              	ADC_StartCalibration:
 427              	.LFB119:
 394:/home/user/Desktop/STM32-Projekte/FH-Vertibot/src/STM32F30x_StdPeriph_Driver/src/stm32f30x_adc.c ****   }
 395:/home/user/Desktop/STM32-Projekte/FH-Vertibot/src/STM32F30x_StdPeriph_Driver/src/stm32f30x_adc.c **** }
 396:/home/user/Desktop/STM32-Projekte/FH-Vertibot/src/STM32F30x_StdPeriph_Driver/src/stm32f30x_adc.c **** 
 397:/home/user/Desktop/STM32-Projekte/FH-Vertibot/src/STM32F30x_StdPeriph_Driver/src/stm32f30x_adc.c **** /**
 398:/home/user/Desktop/STM32-Projekte/FH-Vertibot/src/STM32F30x_StdPeriph_Driver/src/stm32f30x_adc.c ****   * @brief  Starts the selected ADC calibration process.
 399:/home/user/Desktop/STM32-Projekte/FH-Vertibot/src/STM32F30x_StdPeriph_Driver/src/stm32f30x_adc.c ****   * @param  ADCx: where x can be 1, 2, 3 or 4 to select the ADC peripheral.
 400:/home/user/Desktop/STM32-Projekte/FH-Vertibot/src/STM32F30x_StdPeriph_Driver/src/stm32f30x_adc.c ****   * @retval None
 401:/home/user/Desktop/STM32-Projekte/FH-Vertibot/src/STM32F30x_StdPeriph_Driver/src/stm32f30x_adc.c ****   */
 402:/home/user/Desktop/STM32-Projekte/FH-Vertibot/src/STM32F30x_StdPeriph_Driver/src/stm32f30x_adc.c **** void ADC_StartCalibration(ADC_TypeDef* ADCx)
 403:/home/user/Desktop/STM32-Projekte/FH-Vertibot/src/STM32F30x_StdPeriph_Driver/src/stm32f30x_adc.c **** {
 428              		.loc 1 403 0
 429              		.cfi_startproc
 430              		@ args = 0, pretend = 0, frame = 0
 431              		@ frame_needed = 0, uses_anonymous_args = 0
 432              		@ link register save eliminated.
 433              	.LVL26:
 404:/home/user/Desktop/STM32-Projekte/FH-Vertibot/src/STM32F30x_StdPeriph_Driver/src/stm32f30x_adc.c ****   /* Check the parameters */
 405:/home/user/Desktop/STM32-Projekte/FH-Vertibot/src/STM32F30x_StdPeriph_Driver/src/stm32f30x_adc.c ****   assert_param(IS_ADC_ALL_PERIPH(ADCx));
 406:/home/user/Desktop/STM32-Projekte/FH-Vertibot/src/STM32F30x_StdPeriph_Driver/src/stm32f30x_adc.c **** 
 407:/home/user/Desktop/STM32-Projekte/FH-Vertibot/src/STM32F30x_StdPeriph_Driver/src/stm32f30x_adc.c ****   /* Set the ADCAL bit */
 408:/home/user/Desktop/STM32-Projekte/FH-Vertibot/src/STM32F30x_StdPeriph_Driver/src/stm32f30x_adc.c ****   ADCx->CR |= ADC_CR_ADCAL;
 434              		.loc 1 408 0
 435 015c 8368     		ldr	r3, [r0, #8]
 436 015e 43F00043 		orr	r3, r3, #-2147483648
 437 0162 8360     		str	r3, [r0, #8]
 438 0164 7047     		bx	lr
 439              		.cfi_endproc
 440              	.LFE119:
 442              		.align	1
 443              		.global	ADC_GetCalibrationValue
 444              		.thumb
 445              		.thumb_func
 447              	ADC_GetCalibrationValue:
 448              	.LFB120:
 409:/home/user/Desktop/STM32-Projekte/FH-Vertibot/src/STM32F30x_StdPeriph_Driver/src/stm32f30x_adc.c **** }
 410:/home/user/Desktop/STM32-Projekte/FH-Vertibot/src/STM32F30x_StdPeriph_Driver/src/stm32f30x_adc.c **** 
 411:/home/user/Desktop/STM32-Projekte/FH-Vertibot/src/STM32F30x_StdPeriph_Driver/src/stm32f30x_adc.c **** /**
 412:/home/user/Desktop/STM32-Projekte/FH-Vertibot/src/STM32F30x_StdPeriph_Driver/src/stm32f30x_adc.c ****   * @brief  Returns the ADCx calibration value.
 413:/home/user/Desktop/STM32-Projekte/FH-Vertibot/src/STM32F30x_StdPeriph_Driver/src/stm32f30x_adc.c ****   * @param  ADCx: where x can be 1, 2, 3 or 4 to select the ADC peripheral.
 414:/home/user/Desktop/STM32-Projekte/FH-Vertibot/src/STM32F30x_StdPeriph_Driver/src/stm32f30x_adc.c ****   * @retval None
 415:/home/user/Desktop/STM32-Projekte/FH-Vertibot/src/STM32F30x_StdPeriph_Driver/src/stm32f30x_adc.c ****   */
 416:/home/user/Desktop/STM32-Projekte/FH-Vertibot/src/STM32F30x_StdPeriph_Driver/src/stm32f30x_adc.c **** uint32_t ADC_GetCalibrationValue(ADC_TypeDef* ADCx)
 417:/home/user/Desktop/STM32-Projekte/FH-Vertibot/src/STM32F30x_StdPeriph_Driver/src/stm32f30x_adc.c **** {
 449              		.loc 1 417 0
 450              		.cfi_startproc
 451              		@ args = 0, pretend = 0, frame = 0
 452              		@ frame_needed = 0, uses_anonymous_args = 0
 453              		@ link register save eliminated.
 454              	.LVL27:
 418:/home/user/Desktop/STM32-Projekte/FH-Vertibot/src/STM32F30x_StdPeriph_Driver/src/stm32f30x_adc.c ****   /* Check the parameters */
 419:/home/user/Desktop/STM32-Projekte/FH-Vertibot/src/STM32F30x_StdPeriph_Driver/src/stm32f30x_adc.c ****   assert_param(IS_ADC_ALL_PERIPH(ADCx));
 420:/home/user/Desktop/STM32-Projekte/FH-Vertibot/src/STM32F30x_StdPeriph_Driver/src/stm32f30x_adc.c **** 
 421:/home/user/Desktop/STM32-Projekte/FH-Vertibot/src/STM32F30x_StdPeriph_Driver/src/stm32f30x_adc.c ****   /* Return the selected ADC calibration value */
 422:/home/user/Desktop/STM32-Projekte/FH-Vertibot/src/STM32F30x_StdPeriph_Driver/src/stm32f30x_adc.c ****   return (uint32_t)ADCx->CALFACT;
 455              		.loc 1 422 0
 456 0166 D0F8B400 		ldr	r0, [r0, #180]
 457              	.LVL28:
 423:/home/user/Desktop/STM32-Projekte/FH-Vertibot/src/STM32F30x_StdPeriph_Driver/src/stm32f30x_adc.c **** }
 458              		.loc 1 423 0
 459 016a 7047     		bx	lr
 460              		.cfi_endproc
 461              	.LFE120:
 463              		.align	1
 464              		.global	ADC_SetCalibrationValue
 465              		.thumb
 466              		.thumb_func
 468              	ADC_SetCalibrationValue:
 469              	.LFB121:
 424:/home/user/Desktop/STM32-Projekte/FH-Vertibot/src/STM32F30x_StdPeriph_Driver/src/stm32f30x_adc.c **** 
 425:/home/user/Desktop/STM32-Projekte/FH-Vertibot/src/STM32F30x_StdPeriph_Driver/src/stm32f30x_adc.c **** /**
 426:/home/user/Desktop/STM32-Projekte/FH-Vertibot/src/STM32F30x_StdPeriph_Driver/src/stm32f30x_adc.c ****   * @brief  Sets the ADCx calibration register.
 427:/home/user/Desktop/STM32-Projekte/FH-Vertibot/src/STM32F30x_StdPeriph_Driver/src/stm32f30x_adc.c ****   * @param  ADCx: where x can be 1, 2, 3 or 4 to select the ADC peripheral.
 428:/home/user/Desktop/STM32-Projekte/FH-Vertibot/src/STM32F30x_StdPeriph_Driver/src/stm32f30x_adc.c ****   * @retval None
 429:/home/user/Desktop/STM32-Projekte/FH-Vertibot/src/STM32F30x_StdPeriph_Driver/src/stm32f30x_adc.c ****   */
 430:/home/user/Desktop/STM32-Projekte/FH-Vertibot/src/STM32F30x_StdPeriph_Driver/src/stm32f30x_adc.c **** void ADC_SetCalibrationValue(ADC_TypeDef* ADCx, uint32_t ADC_Calibration)
 431:/home/user/Desktop/STM32-Projekte/FH-Vertibot/src/STM32F30x_StdPeriph_Driver/src/stm32f30x_adc.c **** {
 470              		.loc 1 431 0
 471              		.cfi_startproc
 472              		@ args = 0, pretend = 0, frame = 0
 473              		@ frame_needed = 0, uses_anonymous_args = 0
 474              		@ link register save eliminated.
 475              	.LVL29:
 432:/home/user/Desktop/STM32-Projekte/FH-Vertibot/src/STM32F30x_StdPeriph_Driver/src/stm32f30x_adc.c ****   /* Check the parameters */
 433:/home/user/Desktop/STM32-Projekte/FH-Vertibot/src/STM32F30x_StdPeriph_Driver/src/stm32f30x_adc.c ****   assert_param(IS_ADC_ALL_PERIPH(ADCx));
 434:/home/user/Desktop/STM32-Projekte/FH-Vertibot/src/STM32F30x_StdPeriph_Driver/src/stm32f30x_adc.c **** 
 435:/home/user/Desktop/STM32-Projekte/FH-Vertibot/src/STM32F30x_StdPeriph_Driver/src/stm32f30x_adc.c ****   /* Set the ADC calibration register value */
 436:/home/user/Desktop/STM32-Projekte/FH-Vertibot/src/STM32F30x_StdPeriph_Driver/src/stm32f30x_adc.c ****   ADCx->CALFACT = ADC_Calibration;
 476              		.loc 1 436 0
 477 016c C0F8B410 		str	r1, [r0, #180]
 478 0170 7047     		bx	lr
 479              		.cfi_endproc
 480              	.LFE121:
 482              		.align	1
 483              		.global	ADC_SelectCalibrationMode
 484              		.thumb
 485              		.thumb_func
 487              	ADC_SelectCalibrationMode:
 488              	.LFB122:
 437:/home/user/Desktop/STM32-Projekte/FH-Vertibot/src/STM32F30x_StdPeriph_Driver/src/stm32f30x_adc.c **** }
 438:/home/user/Desktop/STM32-Projekte/FH-Vertibot/src/STM32F30x_StdPeriph_Driver/src/stm32f30x_adc.c **** 
 439:/home/user/Desktop/STM32-Projekte/FH-Vertibot/src/STM32F30x_StdPeriph_Driver/src/stm32f30x_adc.c **** /**
 440:/home/user/Desktop/STM32-Projekte/FH-Vertibot/src/STM32F30x_StdPeriph_Driver/src/stm32f30x_adc.c ****   * @brief  Select the ADC calibration mode.
 441:/home/user/Desktop/STM32-Projekte/FH-Vertibot/src/STM32F30x_StdPeriph_Driver/src/stm32f30x_adc.c ****   * @param  ADCx: where x can be 1, 2, 3 or 4 to select the ADC peripheral.
 442:/home/user/Desktop/STM32-Projekte/FH-Vertibot/src/STM32F30x_StdPeriph_Driver/src/stm32f30x_adc.c ****   * @param  ADC_CalibrationMode: the ADC calibration mode.
 443:/home/user/Desktop/STM32-Projekte/FH-Vertibot/src/STM32F30x_StdPeriph_Driver/src/stm32f30x_adc.c ****   *         This parameter can be one of the following values: 
 444:/home/user/Desktop/STM32-Projekte/FH-Vertibot/src/STM32F30x_StdPeriph_Driver/src/stm32f30x_adc.c ****   *          @arg ADC_CalibrationMode_Single: to select the calibration for single channel
 445:/home/user/Desktop/STM32-Projekte/FH-Vertibot/src/STM32F30x_StdPeriph_Driver/src/stm32f30x_adc.c ****   *          @arg ADC_CalibrationMode_Differential: to select the calibration for differential chan
 446:/home/user/Desktop/STM32-Projekte/FH-Vertibot/src/STM32F30x_StdPeriph_Driver/src/stm32f30x_adc.c ****   * @retval None
 447:/home/user/Desktop/STM32-Projekte/FH-Vertibot/src/STM32F30x_StdPeriph_Driver/src/stm32f30x_adc.c ****   */
 448:/home/user/Desktop/STM32-Projekte/FH-Vertibot/src/STM32F30x_StdPeriph_Driver/src/stm32f30x_adc.c **** void ADC_SelectCalibrationMode(ADC_TypeDef* ADCx, uint32_t ADC_CalibrationMode)
 449:/home/user/Desktop/STM32-Projekte/FH-Vertibot/src/STM32F30x_StdPeriph_Driver/src/stm32f30x_adc.c **** {
 489              		.loc 1 449 0
 490              		.cfi_startproc
 491              		@ args = 0, pretend = 0, frame = 0
 492              		@ frame_needed = 0, uses_anonymous_args = 0
 493              		@ link register save eliminated.
 494              	.LVL30:
 450:/home/user/Desktop/STM32-Projekte/FH-Vertibot/src/STM32F30x_StdPeriph_Driver/src/stm32f30x_adc.c ****   /* Check the parameters */
 451:/home/user/Desktop/STM32-Projekte/FH-Vertibot/src/STM32F30x_StdPeriph_Driver/src/stm32f30x_adc.c ****   assert_param(IS_ADC_ALL_PERIPH(ADCx));
 452:/home/user/Desktop/STM32-Projekte/FH-Vertibot/src/STM32F30x_StdPeriph_Driver/src/stm32f30x_adc.c ****   assert_param(IS_ADC_CALIBRATION_MODE(ADC_CalibrationMode));
 453:/home/user/Desktop/STM32-Projekte/FH-Vertibot/src/STM32F30x_StdPeriph_Driver/src/stm32f30x_adc.c ****   /* Set or Reset the ADCALDIF bit */
 454:/home/user/Desktop/STM32-Projekte/FH-Vertibot/src/STM32F30x_StdPeriph_Driver/src/stm32f30x_adc.c ****   ADCx->CR &= (~ADC_CR_ADCALDIF);
 495              		.loc 1 454 0
 496 0172 8368     		ldr	r3, [r0, #8]
 497 0174 23F08043 		bic	r3, r3, #1073741824
 498 0178 8360     		str	r3, [r0, #8]
 455:/home/user/Desktop/STM32-Projekte/FH-Vertibot/src/STM32F30x_StdPeriph_Driver/src/stm32f30x_adc.c ****   ADCx->CR |= ADC_CalibrationMode;
 499              		.loc 1 455 0
 500 017a 8368     		ldr	r3, [r0, #8]
 501 017c 1943     		orrs	r1, r1, r3
 502              	.LVL31:
 503 017e 8160     		str	r1, [r0, #8]
 504 0180 7047     		bx	lr
 505              		.cfi_endproc
 506              	.LFE122:
 508              		.align	1
 509              		.global	ADC_GetCalibrationStatus
 510              		.thumb
 511              		.thumb_func
 513              	ADC_GetCalibrationStatus:
 514              	.LFB123:
 456:/home/user/Desktop/STM32-Projekte/FH-Vertibot/src/STM32F30x_StdPeriph_Driver/src/stm32f30x_adc.c **** 
 457:/home/user/Desktop/STM32-Projekte/FH-Vertibot/src/STM32F30x_StdPeriph_Driver/src/stm32f30x_adc.c **** }
 458:/home/user/Desktop/STM32-Projekte/FH-Vertibot/src/STM32F30x_StdPeriph_Driver/src/stm32f30x_adc.c **** 
 459:/home/user/Desktop/STM32-Projekte/FH-Vertibot/src/STM32F30x_StdPeriph_Driver/src/stm32f30x_adc.c **** /**
 460:/home/user/Desktop/STM32-Projekte/FH-Vertibot/src/STM32F30x_StdPeriph_Driver/src/stm32f30x_adc.c ****   * @brief  Gets the selected ADC calibration status.
 461:/home/user/Desktop/STM32-Projekte/FH-Vertibot/src/STM32F30x_StdPeriph_Driver/src/stm32f30x_adc.c ****   * @param  ADCx: where x can be 1, 2, 3 or 4 to select the ADC peripheral.
 462:/home/user/Desktop/STM32-Projekte/FH-Vertibot/src/STM32F30x_StdPeriph_Driver/src/stm32f30x_adc.c ****   * @retval The new state of ADC calibration (SET or RESET).
 463:/home/user/Desktop/STM32-Projekte/FH-Vertibot/src/STM32F30x_StdPeriph_Driver/src/stm32f30x_adc.c ****   */
 464:/home/user/Desktop/STM32-Projekte/FH-Vertibot/src/STM32F30x_StdPeriph_Driver/src/stm32f30x_adc.c **** FlagStatus ADC_GetCalibrationStatus(ADC_TypeDef* ADCx)
 465:/home/user/Desktop/STM32-Projekte/FH-Vertibot/src/STM32F30x_StdPeriph_Driver/src/stm32f30x_adc.c **** {
 515              		.loc 1 465 0
 516              		.cfi_startproc
 517              		@ args = 0, pretend = 0, frame = 0
 518              		@ frame_needed = 0, uses_anonymous_args = 0
 519              		@ link register save eliminated.
 520              	.LVL32:
 466:/home/user/Desktop/STM32-Projekte/FH-Vertibot/src/STM32F30x_StdPeriph_Driver/src/stm32f30x_adc.c ****   FlagStatus bitstatus = RESET;
 467:/home/user/Desktop/STM32-Projekte/FH-Vertibot/src/STM32F30x_StdPeriph_Driver/src/stm32f30x_adc.c ****   /* Check the parameters */
 468:/home/user/Desktop/STM32-Projekte/FH-Vertibot/src/STM32F30x_StdPeriph_Driver/src/stm32f30x_adc.c ****   assert_param(IS_ADC_ALL_PERIPH(ADCx));
 469:/home/user/Desktop/STM32-Projekte/FH-Vertibot/src/STM32F30x_StdPeriph_Driver/src/stm32f30x_adc.c ****   /* Check the status of CAL bit */
 470:/home/user/Desktop/STM32-Projekte/FH-Vertibot/src/STM32F30x_StdPeriph_Driver/src/stm32f30x_adc.c ****   if ((ADCx->CR & ADC_CR_ADCAL) != (uint32_t)RESET)
 521              		.loc 1 470 0
 522 0182 8068     		ldr	r0, [r0, #8]
 523              	.LVL33:
 471:/home/user/Desktop/STM32-Projekte/FH-Vertibot/src/STM32F30x_StdPeriph_Driver/src/stm32f30x_adc.c ****   {
 472:/home/user/Desktop/STM32-Projekte/FH-Vertibot/src/STM32F30x_StdPeriph_Driver/src/stm32f30x_adc.c ****     /* CAL bit is set: calibration on going */
 473:/home/user/Desktop/STM32-Projekte/FH-Vertibot/src/STM32F30x_StdPeriph_Driver/src/stm32f30x_adc.c ****     bitstatus = SET;
 474:/home/user/Desktop/STM32-Projekte/FH-Vertibot/src/STM32F30x_StdPeriph_Driver/src/stm32f30x_adc.c ****   }
 475:/home/user/Desktop/STM32-Projekte/FH-Vertibot/src/STM32F30x_StdPeriph_Driver/src/stm32f30x_adc.c ****   else
 476:/home/user/Desktop/STM32-Projekte/FH-Vertibot/src/STM32F30x_StdPeriph_Driver/src/stm32f30x_adc.c ****   {
 477:/home/user/Desktop/STM32-Projekte/FH-Vertibot/src/STM32F30x_StdPeriph_Driver/src/stm32f30x_adc.c ****     /* CAL bit is reset: end of calibration */
 478:/home/user/Desktop/STM32-Projekte/FH-Vertibot/src/STM32F30x_StdPeriph_Driver/src/stm32f30x_adc.c ****     bitstatus = RESET;
 479:/home/user/Desktop/STM32-Projekte/FH-Vertibot/src/STM32F30x_StdPeriph_Driver/src/stm32f30x_adc.c ****   }
 480:/home/user/Desktop/STM32-Projekte/FH-Vertibot/src/STM32F30x_StdPeriph_Driver/src/stm32f30x_adc.c ****   /* Return the CAL bit status */
 481:/home/user/Desktop/STM32-Projekte/FH-Vertibot/src/STM32F30x_StdPeriph_Driver/src/stm32f30x_adc.c ****   return  bitstatus;
 482:/home/user/Desktop/STM32-Projekte/FH-Vertibot/src/STM32F30x_StdPeriph_Driver/src/stm32f30x_adc.c **** }
 524              		.loc 1 482 0
 525 0184 C00F     		lsrs	r0, r0, #31
 526 0186 7047     		bx	lr
 527              		.cfi_endproc
 528              	.LFE123:
 530              		.align	1
 531              		.global	ADC_DisableCmd
 532              		.thumb
 533              		.thumb_func
 535              	ADC_DisableCmd:
 536              	.LFB124:
 483:/home/user/Desktop/STM32-Projekte/FH-Vertibot/src/STM32F30x_StdPeriph_Driver/src/stm32f30x_adc.c **** 
 484:/home/user/Desktop/STM32-Projekte/FH-Vertibot/src/STM32F30x_StdPeriph_Driver/src/stm32f30x_adc.c **** /**
 485:/home/user/Desktop/STM32-Projekte/FH-Vertibot/src/STM32F30x_StdPeriph_Driver/src/stm32f30x_adc.c ****   * @brief  ADC Disable Command.
 486:/home/user/Desktop/STM32-Projekte/FH-Vertibot/src/STM32F30x_StdPeriph_Driver/src/stm32f30x_adc.c ****   * @param  ADCx: where x can be 1, 2, 3 or 4 to select the ADC peripheral.
 487:/home/user/Desktop/STM32-Projekte/FH-Vertibot/src/STM32F30x_StdPeriph_Driver/src/stm32f30x_adc.c ****   * @retval None
 488:/home/user/Desktop/STM32-Projekte/FH-Vertibot/src/STM32F30x_StdPeriph_Driver/src/stm32f30x_adc.c ****   */
 489:/home/user/Desktop/STM32-Projekte/FH-Vertibot/src/STM32F30x_StdPeriph_Driver/src/stm32f30x_adc.c **** void ADC_DisableCmd(ADC_TypeDef* ADCx)
 490:/home/user/Desktop/STM32-Projekte/FH-Vertibot/src/STM32F30x_StdPeriph_Driver/src/stm32f30x_adc.c **** {
 537              		.loc 1 490 0
 538              		.cfi_startproc
 539              		@ args = 0, pretend = 0, frame = 0
 540              		@ frame_needed = 0, uses_anonymous_args = 0
 541              		@ link register save eliminated.
 542              	.LVL34:
 491:/home/user/Desktop/STM32-Projekte/FH-Vertibot/src/STM32F30x_StdPeriph_Driver/src/stm32f30x_adc.c ****   /* Check the parameters */
 492:/home/user/Desktop/STM32-Projekte/FH-Vertibot/src/STM32F30x_StdPeriph_Driver/src/stm32f30x_adc.c ****   assert_param(IS_ADC_ALL_PERIPH(ADCx));
 493:/home/user/Desktop/STM32-Projekte/FH-Vertibot/src/STM32F30x_StdPeriph_Driver/src/stm32f30x_adc.c **** 
 494:/home/user/Desktop/STM32-Projekte/FH-Vertibot/src/STM32F30x_StdPeriph_Driver/src/stm32f30x_adc.c ****   /* Set the ADDIS bit */
 495:/home/user/Desktop/STM32-Projekte/FH-Vertibot/src/STM32F30x_StdPeriph_Driver/src/stm32f30x_adc.c ****   ADCx->CR |= ADC_CR_ADDIS;
 543              		.loc 1 495 0
 544 0188 8368     		ldr	r3, [r0, #8]
 545 018a 43F00203 		orr	r3, r3, #2
 546 018e 8360     		str	r3, [r0, #8]
 547 0190 7047     		bx	lr
 548              		.cfi_endproc
 549              	.LFE124:
 551              		.align	1
 552              		.global	ADC_GetDisableCmdStatus
 553              		.thumb
 554              		.thumb_func
 556              	ADC_GetDisableCmdStatus:
 557              	.LFB125:
 496:/home/user/Desktop/STM32-Projekte/FH-Vertibot/src/STM32F30x_StdPeriph_Driver/src/stm32f30x_adc.c **** }
 497:/home/user/Desktop/STM32-Projekte/FH-Vertibot/src/STM32F30x_StdPeriph_Driver/src/stm32f30x_adc.c **** 
 498:/home/user/Desktop/STM32-Projekte/FH-Vertibot/src/STM32F30x_StdPeriph_Driver/src/stm32f30x_adc.c **** 
 499:/home/user/Desktop/STM32-Projekte/FH-Vertibot/src/STM32F30x_StdPeriph_Driver/src/stm32f30x_adc.c **** /**
 500:/home/user/Desktop/STM32-Projekte/FH-Vertibot/src/STM32F30x_StdPeriph_Driver/src/stm32f30x_adc.c ****   * @brief  Gets the selected ADC disable command Status.
 501:/home/user/Desktop/STM32-Projekte/FH-Vertibot/src/STM32F30x_StdPeriph_Driver/src/stm32f30x_adc.c ****   * @param  ADCx: where x can be 1, 2, 3 or 4 to select the ADC peripheral.
 502:/home/user/Desktop/STM32-Projekte/FH-Vertibot/src/STM32F30x_StdPeriph_Driver/src/stm32f30x_adc.c ****   * @retval The new state of ADC ADC disable command (SET or RESET).
 503:/home/user/Desktop/STM32-Projekte/FH-Vertibot/src/STM32F30x_StdPeriph_Driver/src/stm32f30x_adc.c ****   */
 504:/home/user/Desktop/STM32-Projekte/FH-Vertibot/src/STM32F30x_StdPeriph_Driver/src/stm32f30x_adc.c **** FlagStatus ADC_GetDisableCmdStatus(ADC_TypeDef* ADCx)
 505:/home/user/Desktop/STM32-Projekte/FH-Vertibot/src/STM32F30x_StdPeriph_Driver/src/stm32f30x_adc.c **** {
 558              		.loc 1 505 0
 559              		.cfi_startproc
 560              		@ args = 0, pretend = 0, frame = 0
 561              		@ frame_needed = 0, uses_anonymous_args = 0
 562              		@ link register save eliminated.
 563              	.LVL35:
 506:/home/user/Desktop/STM32-Projekte/FH-Vertibot/src/STM32F30x_StdPeriph_Driver/src/stm32f30x_adc.c ****   FlagStatus bitstatus = RESET;
 507:/home/user/Desktop/STM32-Projekte/FH-Vertibot/src/STM32F30x_StdPeriph_Driver/src/stm32f30x_adc.c ****   /* Check the parameters */
 508:/home/user/Desktop/STM32-Projekte/FH-Vertibot/src/STM32F30x_StdPeriph_Driver/src/stm32f30x_adc.c ****   assert_param(IS_ADC_ALL_PERIPH(ADCx));
 509:/home/user/Desktop/STM32-Projekte/FH-Vertibot/src/STM32F30x_StdPeriph_Driver/src/stm32f30x_adc.c **** 
 510:/home/user/Desktop/STM32-Projekte/FH-Vertibot/src/STM32F30x_StdPeriph_Driver/src/stm32f30x_adc.c ****   /* Check the status of ADDIS bit */
 511:/home/user/Desktop/STM32-Projekte/FH-Vertibot/src/STM32F30x_StdPeriph_Driver/src/stm32f30x_adc.c ****   if ((ADCx->CR & ADC_CR_ADDIS) != (uint32_t)RESET)
 564              		.loc 1 511 0
 565 0192 8068     		ldr	r0, [r0, #8]
 566              	.LVL36:
 512:/home/user/Desktop/STM32-Projekte/FH-Vertibot/src/STM32F30x_StdPeriph_Driver/src/stm32f30x_adc.c ****   {
 513:/home/user/Desktop/STM32-Projekte/FH-Vertibot/src/STM32F30x_StdPeriph_Driver/src/stm32f30x_adc.c ****     /* ADDIS bit is set */
 514:/home/user/Desktop/STM32-Projekte/FH-Vertibot/src/STM32F30x_StdPeriph_Driver/src/stm32f30x_adc.c ****     bitstatus = SET;
 515:/home/user/Desktop/STM32-Projekte/FH-Vertibot/src/STM32F30x_StdPeriph_Driver/src/stm32f30x_adc.c ****   }
 516:/home/user/Desktop/STM32-Projekte/FH-Vertibot/src/STM32F30x_StdPeriph_Driver/src/stm32f30x_adc.c ****   else
 517:/home/user/Desktop/STM32-Projekte/FH-Vertibot/src/STM32F30x_StdPeriph_Driver/src/stm32f30x_adc.c ****   {
 518:/home/user/Desktop/STM32-Projekte/FH-Vertibot/src/STM32F30x_StdPeriph_Driver/src/stm32f30x_adc.c ****     /* ADDIS bit is reset */
 519:/home/user/Desktop/STM32-Projekte/FH-Vertibot/src/STM32F30x_StdPeriph_Driver/src/stm32f30x_adc.c ****     bitstatus = RESET;
 520:/home/user/Desktop/STM32-Projekte/FH-Vertibot/src/STM32F30x_StdPeriph_Driver/src/stm32f30x_adc.c ****   }
 521:/home/user/Desktop/STM32-Projekte/FH-Vertibot/src/STM32F30x_StdPeriph_Driver/src/stm32f30x_adc.c ****   /* Return the ADDIS bit status */
 522:/home/user/Desktop/STM32-Projekte/FH-Vertibot/src/STM32F30x_StdPeriph_Driver/src/stm32f30x_adc.c ****   return  bitstatus;
 523:/home/user/Desktop/STM32-Projekte/FH-Vertibot/src/STM32F30x_StdPeriph_Driver/src/stm32f30x_adc.c **** }
 567              		.loc 1 523 0
 568 0194 C0F34000 		ubfx	r0, r0, #1, #1
 569              	.LVL37:
 570 0198 7047     		bx	lr
 571              		.cfi_endproc
 572              	.LFE125:
 574              		.align	1
 575              		.global	ADC_VoltageRegulatorCmd
 576              		.thumb
 577              		.thumb_func
 579              	ADC_VoltageRegulatorCmd:
 580              	.LFB126:
 524:/home/user/Desktop/STM32-Projekte/FH-Vertibot/src/STM32F30x_StdPeriph_Driver/src/stm32f30x_adc.c **** 
 525:/home/user/Desktop/STM32-Projekte/FH-Vertibot/src/STM32F30x_StdPeriph_Driver/src/stm32f30x_adc.c **** /**
 526:/home/user/Desktop/STM32-Projekte/FH-Vertibot/src/STM32F30x_StdPeriph_Driver/src/stm32f30x_adc.c ****   * @brief  Enables or disables the specified ADC Voltage Regulator.
 527:/home/user/Desktop/STM32-Projekte/FH-Vertibot/src/STM32F30x_StdPeriph_Driver/src/stm32f30x_adc.c ****   * @param  ADCx: where x can be 1, 2, 3 or 4 to select the ADC peripheral.
 528:/home/user/Desktop/STM32-Projekte/FH-Vertibot/src/STM32F30x_StdPeriph_Driver/src/stm32f30x_adc.c ****   * @param  NewState: new state of the ADCx Voltage Regulator.
 529:/home/user/Desktop/STM32-Projekte/FH-Vertibot/src/STM32F30x_StdPeriph_Driver/src/stm32f30x_adc.c ****   *         This parameter can be: ENABLE or DISABLE.
 530:/home/user/Desktop/STM32-Projekte/FH-Vertibot/src/STM32F30x_StdPeriph_Driver/src/stm32f30x_adc.c ****   * @retval None
 531:/home/user/Desktop/STM32-Projekte/FH-Vertibot/src/STM32F30x_StdPeriph_Driver/src/stm32f30x_adc.c ****   */
 532:/home/user/Desktop/STM32-Projekte/FH-Vertibot/src/STM32F30x_StdPeriph_Driver/src/stm32f30x_adc.c **** void ADC_VoltageRegulatorCmd(ADC_TypeDef* ADCx, FunctionalState NewState)
 533:/home/user/Desktop/STM32-Projekte/FH-Vertibot/src/STM32F30x_StdPeriph_Driver/src/stm32f30x_adc.c **** {
 581              		.loc 1 533 0
 582              		.cfi_startproc
 583              		@ args = 0, pretend = 0, frame = 0
 584              		@ frame_needed = 0, uses_anonymous_args = 0
 585              		@ link register save eliminated.
 586              	.LVL38:
 534:/home/user/Desktop/STM32-Projekte/FH-Vertibot/src/STM32F30x_StdPeriph_Driver/src/stm32f30x_adc.c ****   /* Check the parameters */
 535:/home/user/Desktop/STM32-Projekte/FH-Vertibot/src/STM32F30x_StdPeriph_Driver/src/stm32f30x_adc.c ****   assert_param(IS_ADC_ALL_PERIPH(ADCx));
 536:/home/user/Desktop/STM32-Projekte/FH-Vertibot/src/STM32F30x_StdPeriph_Driver/src/stm32f30x_adc.c ****   assert_param(IS_FUNCTIONAL_STATE(NewState));
 537:/home/user/Desktop/STM32-Projekte/FH-Vertibot/src/STM32F30x_StdPeriph_Driver/src/stm32f30x_adc.c **** 
 538:/home/user/Desktop/STM32-Projekte/FH-Vertibot/src/STM32F30x_StdPeriph_Driver/src/stm32f30x_adc.c ****   /* set the intermediate state before moving the ADC voltage regulator 
 539:/home/user/Desktop/STM32-Projekte/FH-Vertibot/src/STM32F30x_StdPeriph_Driver/src/stm32f30x_adc.c ****   from enable state to disable state or from disable state to enable state */
 540:/home/user/Desktop/STM32-Projekte/FH-Vertibot/src/STM32F30x_StdPeriph_Driver/src/stm32f30x_adc.c ****   ADCx->CR &= ~(ADC_CR_ADVREGEN);
 587              		.loc 1 540 0
 588 019a 8368     		ldr	r3, [r0, #8]
 589 019c 23F04053 		bic	r3, r3, #805306368
 590 01a0 8360     		str	r3, [r0, #8]
 541:/home/user/Desktop/STM32-Projekte/FH-Vertibot/src/STM32F30x_StdPeriph_Driver/src/stm32f30x_adc.c ****   
 542:/home/user/Desktop/STM32-Projekte/FH-Vertibot/src/STM32F30x_StdPeriph_Driver/src/stm32f30x_adc.c ****   if (NewState != DISABLE)
 543:/home/user/Desktop/STM32-Projekte/FH-Vertibot/src/STM32F30x_StdPeriph_Driver/src/stm32f30x_adc.c ****   {
 544:/home/user/Desktop/STM32-Projekte/FH-Vertibot/src/STM32F30x_StdPeriph_Driver/src/stm32f30x_adc.c ****     /* Set the ADVREGEN bit 0 */
 545:/home/user/Desktop/STM32-Projekte/FH-Vertibot/src/STM32F30x_StdPeriph_Driver/src/stm32f30x_adc.c ****     ADCx->CR |= ADC_CR_ADVREGEN_0;
 591              		.loc 1 545 0
 592 01a2 8368     		ldr	r3, [r0, #8]
 542:/home/user/Desktop/STM32-Projekte/FH-Vertibot/src/STM32F30x_StdPeriph_Driver/src/stm32f30x_adc.c ****   if (NewState != DISABLE)
 593              		.loc 1 542 0
 594 01a4 11B1     		cbz	r1, .L49
 595              		.loc 1 545 0
 596 01a6 43F08053 		orr	r3, r3, #268435456
 597 01aa 01E0     		b	.L51
 598              	.L49:
 546:/home/user/Desktop/STM32-Projekte/FH-Vertibot/src/STM32F30x_StdPeriph_Driver/src/stm32f30x_adc.c ****   }
 547:/home/user/Desktop/STM32-Projekte/FH-Vertibot/src/STM32F30x_StdPeriph_Driver/src/stm32f30x_adc.c ****   else
 548:/home/user/Desktop/STM32-Projekte/FH-Vertibot/src/STM32F30x_StdPeriph_Driver/src/stm32f30x_adc.c ****   {
 549:/home/user/Desktop/STM32-Projekte/FH-Vertibot/src/STM32F30x_StdPeriph_Driver/src/stm32f30x_adc.c ****     /* Set the ADVREGEN bit 1 */
 550:/home/user/Desktop/STM32-Projekte/FH-Vertibot/src/STM32F30x_StdPeriph_Driver/src/stm32f30x_adc.c ****     ADCx->CR |=ADC_CR_ADVREGEN_1;
 599              		.loc 1 550 0
 600 01ac 43F00053 		orr	r3, r3, #536870912
 601              	.L51:
 602 01b0 8360     		str	r3, [r0, #8]
 603 01b2 7047     		bx	lr
 604              		.cfi_endproc
 605              	.LFE126:
 607              		.align	1
 608              		.global	ADC_SelectDifferentialMode
 609              		.thumb
 610              		.thumb_func
 612              	ADC_SelectDifferentialMode:
 613              	.LFB127:
 551:/home/user/Desktop/STM32-Projekte/FH-Vertibot/src/STM32F30x_StdPeriph_Driver/src/stm32f30x_adc.c ****   }
 552:/home/user/Desktop/STM32-Projekte/FH-Vertibot/src/STM32F30x_StdPeriph_Driver/src/stm32f30x_adc.c **** }
 553:/home/user/Desktop/STM32-Projekte/FH-Vertibot/src/STM32F30x_StdPeriph_Driver/src/stm32f30x_adc.c **** 
 554:/home/user/Desktop/STM32-Projekte/FH-Vertibot/src/STM32F30x_StdPeriph_Driver/src/stm32f30x_adc.c **** /**
 555:/home/user/Desktop/STM32-Projekte/FH-Vertibot/src/STM32F30x_StdPeriph_Driver/src/stm32f30x_adc.c ****   * @brief  Selectes the differential mode for a specific channel
 556:/home/user/Desktop/STM32-Projekte/FH-Vertibot/src/STM32F30x_StdPeriph_Driver/src/stm32f30x_adc.c ****   * @param  ADCx: where x can be 1, 2, 3 or 4 to select the ADC peripheral.
 557:/home/user/Desktop/STM32-Projekte/FH-Vertibot/src/STM32F30x_StdPeriph_Driver/src/stm32f30x_adc.c ****   * @param  ADC_Channel: the ADC channel to configure for the analog watchdog. 
 558:/home/user/Desktop/STM32-Projekte/FH-Vertibot/src/STM32F30x_StdPeriph_Driver/src/stm32f30x_adc.c ****   *   This parameter can be one of the following values:
 559:/home/user/Desktop/STM32-Projekte/FH-Vertibot/src/STM32F30x_StdPeriph_Driver/src/stm32f30x_adc.c ****   *     @arg ADC_Channel_1: ADC Channel1 selected
 560:/home/user/Desktop/STM32-Projekte/FH-Vertibot/src/STM32F30x_StdPeriph_Driver/src/stm32f30x_adc.c ****   *     @arg ADC_Channel_2: ADC Channel2 selected
 561:/home/user/Desktop/STM32-Projekte/FH-Vertibot/src/STM32F30x_StdPeriph_Driver/src/stm32f30x_adc.c ****   *     @arg ADC_Channel_3: ADC Channel3 selected
 562:/home/user/Desktop/STM32-Projekte/FH-Vertibot/src/STM32F30x_StdPeriph_Driver/src/stm32f30x_adc.c ****   *     @arg ADC_Channel_4: ADC Channel4 selected
 563:/home/user/Desktop/STM32-Projekte/FH-Vertibot/src/STM32F30x_StdPeriph_Driver/src/stm32f30x_adc.c ****   *     @arg ADC_Channel_5: ADC Channel5 selected
 564:/home/user/Desktop/STM32-Projekte/FH-Vertibot/src/STM32F30x_StdPeriph_Driver/src/stm32f30x_adc.c ****   *     @arg ADC_Channel_6: ADC Channel6 selected
 565:/home/user/Desktop/STM32-Projekte/FH-Vertibot/src/STM32F30x_StdPeriph_Driver/src/stm32f30x_adc.c ****   *     @arg ADC_Channel_7: ADC Channel7 selected
 566:/home/user/Desktop/STM32-Projekte/FH-Vertibot/src/STM32F30x_StdPeriph_Driver/src/stm32f30x_adc.c ****   *     @arg ADC_Channel_8: ADC Channel8 selected
 567:/home/user/Desktop/STM32-Projekte/FH-Vertibot/src/STM32F30x_StdPeriph_Driver/src/stm32f30x_adc.c ****   *     @arg ADC_Channel_9: ADC Channel9 selected
 568:/home/user/Desktop/STM32-Projekte/FH-Vertibot/src/STM32F30x_StdPeriph_Driver/src/stm32f30x_adc.c ****   *     @arg ADC_Channel_10: ADC Channel10 selected
 569:/home/user/Desktop/STM32-Projekte/FH-Vertibot/src/STM32F30x_StdPeriph_Driver/src/stm32f30x_adc.c ****   *     @arg ADC_Channel_11: ADC Channel11 selected
 570:/home/user/Desktop/STM32-Projekte/FH-Vertibot/src/STM32F30x_StdPeriph_Driver/src/stm32f30x_adc.c ****   *     @arg ADC_Channel_12: ADC Channel12 selected
 571:/home/user/Desktop/STM32-Projekte/FH-Vertibot/src/STM32F30x_StdPeriph_Driver/src/stm32f30x_adc.c ****   *     @arg ADC_Channel_13: ADC Channel13 selected
 572:/home/user/Desktop/STM32-Projekte/FH-Vertibot/src/STM32F30x_StdPeriph_Driver/src/stm32f30x_adc.c ****   *     @arg ADC_Channel_14: ADC Channel14 selected
 573:/home/user/Desktop/STM32-Projekte/FH-Vertibot/src/STM32F30x_StdPeriph_Driver/src/stm32f30x_adc.c ****   * @note : Channel 15, 16 and 17 are fixed to single-ended inputs mode.
 574:/home/user/Desktop/STM32-Projekte/FH-Vertibot/src/STM32F30x_StdPeriph_Driver/src/stm32f30x_adc.c ****   * @retval None
 575:/home/user/Desktop/STM32-Projekte/FH-Vertibot/src/STM32F30x_StdPeriph_Driver/src/stm32f30x_adc.c ****   */
 576:/home/user/Desktop/STM32-Projekte/FH-Vertibot/src/STM32F30x_StdPeriph_Driver/src/stm32f30x_adc.c **** void ADC_SelectDifferentialMode(ADC_TypeDef* ADCx, uint8_t ADC_Channel, FunctionalState NewState)
 577:/home/user/Desktop/STM32-Projekte/FH-Vertibot/src/STM32F30x_StdPeriph_Driver/src/stm32f30x_adc.c **** {
 614              		.loc 1 577 0
 615              		.cfi_startproc
 616              		@ args = 0, pretend = 0, frame = 0
 617              		@ frame_needed = 0, uses_anonymous_args = 0
 618              		@ link register save eliminated.
 619              	.LVL39:
 620 01b4 0123     		movs	r3, #1
 578:/home/user/Desktop/STM32-Projekte/FH-Vertibot/src/STM32F30x_StdPeriph_Driver/src/stm32f30x_adc.c ****   /* Check the parameters */
 579:/home/user/Desktop/STM32-Projekte/FH-Vertibot/src/STM32F30x_StdPeriph_Driver/src/stm32f30x_adc.c ****   assert_param(IS_ADC_ALL_PERIPH(ADCx)); 
 580:/home/user/Desktop/STM32-Projekte/FH-Vertibot/src/STM32F30x_StdPeriph_Driver/src/stm32f30x_adc.c ****   assert_param(IS_ADC_DIFFCHANNEL(ADC_Channel)); 
 581:/home/user/Desktop/STM32-Projekte/FH-Vertibot/src/STM32F30x_StdPeriph_Driver/src/stm32f30x_adc.c ****   assert_param(IS_FUNCTIONAL_STATE(NewState));
 582:/home/user/Desktop/STM32-Projekte/FH-Vertibot/src/STM32F30x_StdPeriph_Driver/src/stm32f30x_adc.c **** 
 583:/home/user/Desktop/STM32-Projekte/FH-Vertibot/src/STM32F30x_StdPeriph_Driver/src/stm32f30x_adc.c ****   if (NewState != DISABLE)
 621              		.loc 1 583 0
 622 01b6 22B1     		cbz	r2, .L53
 584:/home/user/Desktop/STM32-Projekte/FH-Vertibot/src/STM32F30x_StdPeriph_Driver/src/stm32f30x_adc.c ****   {
 585:/home/user/Desktop/STM32-Projekte/FH-Vertibot/src/STM32F30x_StdPeriph_Driver/src/stm32f30x_adc.c ****     /* Set the DIFSEL bit */
 586:/home/user/Desktop/STM32-Projekte/FH-Vertibot/src/STM32F30x_StdPeriph_Driver/src/stm32f30x_adc.c ****    ADCx->DIFSEL |= (uint32_t)(1 << ADC_Channel );
 623              		.loc 1 586 0
 624 01b8 D0F8B020 		ldr	r2, [r0, #176]
 625              	.LVL40:
 626 01bc 8B40     		lsls	r3, r3, r1
 627 01be 1343     		orrs	r3, r3, r2
 628 01c0 04E0     		b	.L55
 629              	.LVL41:
 630              	.L53:
 587:/home/user/Desktop/STM32-Projekte/FH-Vertibot/src/STM32F30x_StdPeriph_Driver/src/stm32f30x_adc.c ****   }
 588:/home/user/Desktop/STM32-Projekte/FH-Vertibot/src/STM32F30x_StdPeriph_Driver/src/stm32f30x_adc.c ****   else
 589:/home/user/Desktop/STM32-Projekte/FH-Vertibot/src/STM32F30x_StdPeriph_Driver/src/stm32f30x_adc.c ****   {
 590:/home/user/Desktop/STM32-Projekte/FH-Vertibot/src/STM32F30x_StdPeriph_Driver/src/stm32f30x_adc.c ****     /* Reset the DIFSEL bit */
 591:/home/user/Desktop/STM32-Projekte/FH-Vertibot/src/STM32F30x_StdPeriph_Driver/src/stm32f30x_adc.c ****    ADCx->DIFSEL &= ~(uint32_t)(1 << ADC_Channel);
 631              		.loc 1 591 0
 632 01c2 D0F8B020 		ldr	r2, [r0, #176]
 633              	.LVL42:
 634 01c6 8B40     		lsls	r3, r3, r1
 635 01c8 22EA0303 		bic	r3, r2, r3
 636              	.L55:
 637 01cc C0F8B030 		str	r3, [r0, #176]
 638 01d0 7047     		bx	lr
 639              		.cfi_endproc
 640              	.LFE127:
 642              		.align	1
 643              		.global	ADC_SelectQueueOfContextMode
 644              		.thumb
 645              		.thumb_func
 647              	ADC_SelectQueueOfContextMode:
 648              	.LFB128:
 592:/home/user/Desktop/STM32-Projekte/FH-Vertibot/src/STM32F30x_StdPeriph_Driver/src/stm32f30x_adc.c ****   }
 593:/home/user/Desktop/STM32-Projekte/FH-Vertibot/src/STM32F30x_StdPeriph_Driver/src/stm32f30x_adc.c **** }
 594:/home/user/Desktop/STM32-Projekte/FH-Vertibot/src/STM32F30x_StdPeriph_Driver/src/stm32f30x_adc.c **** 
 595:/home/user/Desktop/STM32-Projekte/FH-Vertibot/src/STM32F30x_StdPeriph_Driver/src/stm32f30x_adc.c **** /**
 596:/home/user/Desktop/STM32-Projekte/FH-Vertibot/src/STM32F30x_StdPeriph_Driver/src/stm32f30x_adc.c ****   * @brief  Selects the Queue Of Context Mode for injected channels.
 597:/home/user/Desktop/STM32-Projekte/FH-Vertibot/src/STM32F30x_StdPeriph_Driver/src/stm32f30x_adc.c ****   * @param  ADCx: where x can be 1, 2, 3 or 4 to select the ADC peripheral.
 598:/home/user/Desktop/STM32-Projekte/FH-Vertibot/src/STM32F30x_StdPeriph_Driver/src/stm32f30x_adc.c ****   * @param  NewState: new state of the Queue Of Context Mode.
 599:/home/user/Desktop/STM32-Projekte/FH-Vertibot/src/STM32F30x_StdPeriph_Driver/src/stm32f30x_adc.c ****   *   This parameter can be: ENABLE or DISABLE.
 600:/home/user/Desktop/STM32-Projekte/FH-Vertibot/src/STM32F30x_StdPeriph_Driver/src/stm32f30x_adc.c ****   * @retval None
 601:/home/user/Desktop/STM32-Projekte/FH-Vertibot/src/STM32F30x_StdPeriph_Driver/src/stm32f30x_adc.c ****   */
 602:/home/user/Desktop/STM32-Projekte/FH-Vertibot/src/STM32F30x_StdPeriph_Driver/src/stm32f30x_adc.c **** void ADC_SelectQueueOfContextMode(ADC_TypeDef* ADCx, FunctionalState NewState)
 603:/home/user/Desktop/STM32-Projekte/FH-Vertibot/src/STM32F30x_StdPeriph_Driver/src/stm32f30x_adc.c **** {
 649              		.loc 1 603 0
 650              		.cfi_startproc
 651              		@ args = 0, pretend = 0, frame = 0
 652              		@ frame_needed = 0, uses_anonymous_args = 0
 653              		@ link register save eliminated.
 654              	.LVL43:
 604:/home/user/Desktop/STM32-Projekte/FH-Vertibot/src/STM32F30x_StdPeriph_Driver/src/stm32f30x_adc.c ****   /* Check the parameters */
 605:/home/user/Desktop/STM32-Projekte/FH-Vertibot/src/STM32F30x_StdPeriph_Driver/src/stm32f30x_adc.c ****   assert_param(IS_ADC_ALL_PERIPH(ADCx)); 
 606:/home/user/Desktop/STM32-Projekte/FH-Vertibot/src/STM32F30x_StdPeriph_Driver/src/stm32f30x_adc.c ****   assert_param(IS_FUNCTIONAL_STATE(NewState));
 607:/home/user/Desktop/STM32-Projekte/FH-Vertibot/src/STM32F30x_StdPeriph_Driver/src/stm32f30x_adc.c **** 
 608:/home/user/Desktop/STM32-Projekte/FH-Vertibot/src/STM32F30x_StdPeriph_Driver/src/stm32f30x_adc.c ****   if (NewState != DISABLE)
 609:/home/user/Desktop/STM32-Projekte/FH-Vertibot/src/STM32F30x_StdPeriph_Driver/src/stm32f30x_adc.c ****   {
 610:/home/user/Desktop/STM32-Projekte/FH-Vertibot/src/STM32F30x_StdPeriph_Driver/src/stm32f30x_adc.c ****     /* Set the JQM bit */
 611:/home/user/Desktop/STM32-Projekte/FH-Vertibot/src/STM32F30x_StdPeriph_Driver/src/stm32f30x_adc.c ****     ADCx->CFGR |= (uint32_t)(ADC_CFGR_JQM );
 655              		.loc 1 611 0
 656 01d2 C368     		ldr	r3, [r0, #12]
 608:/home/user/Desktop/STM32-Projekte/FH-Vertibot/src/STM32F30x_StdPeriph_Driver/src/stm32f30x_adc.c ****   if (NewState != DISABLE)
 657              		.loc 1 608 0
 658 01d4 11B1     		cbz	r1, .L57
 659              		.loc 1 611 0
 660 01d6 43F40013 		orr	r3, r3, #2097152
 661 01da 01E0     		b	.L59
 662              	.L57:
 612:/home/user/Desktop/STM32-Projekte/FH-Vertibot/src/STM32F30x_StdPeriph_Driver/src/stm32f30x_adc.c ****   }
 613:/home/user/Desktop/STM32-Projekte/FH-Vertibot/src/STM32F30x_StdPeriph_Driver/src/stm32f30x_adc.c ****   else
 614:/home/user/Desktop/STM32-Projekte/FH-Vertibot/src/STM32F30x_StdPeriph_Driver/src/stm32f30x_adc.c ****   {
 615:/home/user/Desktop/STM32-Projekte/FH-Vertibot/src/STM32F30x_StdPeriph_Driver/src/stm32f30x_adc.c ****     /* Reset the JQM bit */
 616:/home/user/Desktop/STM32-Projekte/FH-Vertibot/src/STM32F30x_StdPeriph_Driver/src/stm32f30x_adc.c ****     ADCx->CFGR &= ~(uint32_t)(ADC_CFGR_JQM);
 663              		.loc 1 616 0
 664 01dc 23F40013 		bic	r3, r3, #2097152
 665              	.L59:
 666 01e0 C360     		str	r3, [r0, #12]
 667 01e2 7047     		bx	lr
 668              		.cfi_endproc
 669              	.LFE128:
 671              		.align	1
 672              		.global	ADC_AutoDelayCmd
 673              		.thumb
 674              		.thumb_func
 676              	ADC_AutoDelayCmd:
 677              	.LFB129:
 617:/home/user/Desktop/STM32-Projekte/FH-Vertibot/src/STM32F30x_StdPeriph_Driver/src/stm32f30x_adc.c ****   }
 618:/home/user/Desktop/STM32-Projekte/FH-Vertibot/src/STM32F30x_StdPeriph_Driver/src/stm32f30x_adc.c **** }
 619:/home/user/Desktop/STM32-Projekte/FH-Vertibot/src/STM32F30x_StdPeriph_Driver/src/stm32f30x_adc.c **** 
 620:/home/user/Desktop/STM32-Projekte/FH-Vertibot/src/STM32F30x_StdPeriph_Driver/src/stm32f30x_adc.c **** /**
 621:/home/user/Desktop/STM32-Projekte/FH-Vertibot/src/STM32F30x_StdPeriph_Driver/src/stm32f30x_adc.c ****   * @brief  Selects the ADC Delayed Conversion Mode.
 622:/home/user/Desktop/STM32-Projekte/FH-Vertibot/src/STM32F30x_StdPeriph_Driver/src/stm32f30x_adc.c ****   * @param  ADCx: where x can be 1, 2, 3 or 4 to select the ADC peripheral.
 623:/home/user/Desktop/STM32-Projekte/FH-Vertibot/src/STM32F30x_StdPeriph_Driver/src/stm32f30x_adc.c ****   * @param  NewState: new state of the ADC Delayed Conversion Mode.
 624:/home/user/Desktop/STM32-Projekte/FH-Vertibot/src/STM32F30x_StdPeriph_Driver/src/stm32f30x_adc.c ****   *   This parameter can be: ENABLE or DISABLE.
 625:/home/user/Desktop/STM32-Projekte/FH-Vertibot/src/STM32F30x_StdPeriph_Driver/src/stm32f30x_adc.c ****   * @retval None
 626:/home/user/Desktop/STM32-Projekte/FH-Vertibot/src/STM32F30x_StdPeriph_Driver/src/stm32f30x_adc.c ****   */
 627:/home/user/Desktop/STM32-Projekte/FH-Vertibot/src/STM32F30x_StdPeriph_Driver/src/stm32f30x_adc.c **** void ADC_AutoDelayCmd(ADC_TypeDef* ADCx, FunctionalState NewState)
 628:/home/user/Desktop/STM32-Projekte/FH-Vertibot/src/STM32F30x_StdPeriph_Driver/src/stm32f30x_adc.c **** {
 678              		.loc 1 628 0
 679              		.cfi_startproc
 680              		@ args = 0, pretend = 0, frame = 0
 681              		@ frame_needed = 0, uses_anonymous_args = 0
 682              		@ link register save eliminated.
 683              	.LVL44:
 629:/home/user/Desktop/STM32-Projekte/FH-Vertibot/src/STM32F30x_StdPeriph_Driver/src/stm32f30x_adc.c ****   /* Check the parameters */
 630:/home/user/Desktop/STM32-Projekte/FH-Vertibot/src/STM32F30x_StdPeriph_Driver/src/stm32f30x_adc.c ****   assert_param(IS_ADC_ALL_PERIPH(ADCx)); 
 631:/home/user/Desktop/STM32-Projekte/FH-Vertibot/src/STM32F30x_StdPeriph_Driver/src/stm32f30x_adc.c ****   assert_param(IS_FUNCTIONAL_STATE(NewState));
 632:/home/user/Desktop/STM32-Projekte/FH-Vertibot/src/STM32F30x_StdPeriph_Driver/src/stm32f30x_adc.c **** 
 633:/home/user/Desktop/STM32-Projekte/FH-Vertibot/src/STM32F30x_StdPeriph_Driver/src/stm32f30x_adc.c ****   if (NewState != DISABLE)
 634:/home/user/Desktop/STM32-Projekte/FH-Vertibot/src/STM32F30x_StdPeriph_Driver/src/stm32f30x_adc.c ****   {
 635:/home/user/Desktop/STM32-Projekte/FH-Vertibot/src/STM32F30x_StdPeriph_Driver/src/stm32f30x_adc.c ****     /* Set the AUTDLY bit */
 636:/home/user/Desktop/STM32-Projekte/FH-Vertibot/src/STM32F30x_StdPeriph_Driver/src/stm32f30x_adc.c ****     ADCx->CFGR |= (uint32_t)(ADC_CFGR_AUTDLY );
 684              		.loc 1 636 0
 685 01e4 C368     		ldr	r3, [r0, #12]
 633:/home/user/Desktop/STM32-Projekte/FH-Vertibot/src/STM32F30x_StdPeriph_Driver/src/stm32f30x_adc.c ****   if (NewState != DISABLE)
 686              		.loc 1 633 0
 687 01e6 11B1     		cbz	r1, .L61
 688              		.loc 1 636 0
 689 01e8 43F48043 		orr	r3, r3, #16384
 690 01ec 01E0     		b	.L63
 691              	.L61:
 637:/home/user/Desktop/STM32-Projekte/FH-Vertibot/src/STM32F30x_StdPeriph_Driver/src/stm32f30x_adc.c ****   }
 638:/home/user/Desktop/STM32-Projekte/FH-Vertibot/src/STM32F30x_StdPeriph_Driver/src/stm32f30x_adc.c ****   else
 639:/home/user/Desktop/STM32-Projekte/FH-Vertibot/src/STM32F30x_StdPeriph_Driver/src/stm32f30x_adc.c ****   {
 640:/home/user/Desktop/STM32-Projekte/FH-Vertibot/src/STM32F30x_StdPeriph_Driver/src/stm32f30x_adc.c ****     /* Reset the AUTDLY bit */
 641:/home/user/Desktop/STM32-Projekte/FH-Vertibot/src/STM32F30x_StdPeriph_Driver/src/stm32f30x_adc.c ****     ADCx->CFGR &= ~(uint32_t)(ADC_CFGR_AUTDLY);
 692              		.loc 1 641 0
 693 01ee 23F48043 		bic	r3, r3, #16384
 694              	.L63:
 695 01f2 C360     		str	r3, [r0, #12]
 696 01f4 7047     		bx	lr
 697              		.cfi_endproc
 698              	.LFE129:
 700              		.align	1
 701              		.global	ADC_AnalogWatchdogCmd
 702              		.thumb
 703              		.thumb_func
 705              	ADC_AnalogWatchdogCmd:
 706              	.LFB130:
 642:/home/user/Desktop/STM32-Projekte/FH-Vertibot/src/STM32F30x_StdPeriph_Driver/src/stm32f30x_adc.c ****   }
 643:/home/user/Desktop/STM32-Projekte/FH-Vertibot/src/STM32F30x_StdPeriph_Driver/src/stm32f30x_adc.c **** }
 644:/home/user/Desktop/STM32-Projekte/FH-Vertibot/src/STM32F30x_StdPeriph_Driver/src/stm32f30x_adc.c **** 
 645:/home/user/Desktop/STM32-Projekte/FH-Vertibot/src/STM32F30x_StdPeriph_Driver/src/stm32f30x_adc.c **** /**
 646:/home/user/Desktop/STM32-Projekte/FH-Vertibot/src/STM32F30x_StdPeriph_Driver/src/stm32f30x_adc.c ****   * @}
 647:/home/user/Desktop/STM32-Projekte/FH-Vertibot/src/STM32F30x_StdPeriph_Driver/src/stm32f30x_adc.c ****   */
 648:/home/user/Desktop/STM32-Projekte/FH-Vertibot/src/STM32F30x_StdPeriph_Driver/src/stm32f30x_adc.c **** 
 649:/home/user/Desktop/STM32-Projekte/FH-Vertibot/src/STM32F30x_StdPeriph_Driver/src/stm32f30x_adc.c **** /** @defgroup ADC_Group2 Analog Watchdog configuration functions
 650:/home/user/Desktop/STM32-Projekte/FH-Vertibot/src/STM32F30x_StdPeriph_Driver/src/stm32f30x_adc.c ****  *  @brief   Analog Watchdog configuration functions 
 651:/home/user/Desktop/STM32-Projekte/FH-Vertibot/src/STM32F30x_StdPeriph_Driver/src/stm32f30x_adc.c ****  *
 652:/home/user/Desktop/STM32-Projekte/FH-Vertibot/src/STM32F30x_StdPeriph_Driver/src/stm32f30x_adc.c **** @verbatim   
 653:/home/user/Desktop/STM32-Projekte/FH-Vertibot/src/STM32F30x_StdPeriph_Driver/src/stm32f30x_adc.c ****  ===============================================================================
 654:/home/user/Desktop/STM32-Projekte/FH-Vertibot/src/STM32F30x_StdPeriph_Driver/src/stm32f30x_adc.c ****                     ##### Analog Watchdog configuration functions #####
 655:/home/user/Desktop/STM32-Projekte/FH-Vertibot/src/STM32F30x_StdPeriph_Driver/src/stm32f30x_adc.c ****  ===============================================================================  
 656:/home/user/Desktop/STM32-Projekte/FH-Vertibot/src/STM32F30x_StdPeriph_Driver/src/stm32f30x_adc.c **** 
 657:/home/user/Desktop/STM32-Projekte/FH-Vertibot/src/STM32F30x_StdPeriph_Driver/src/stm32f30x_adc.c ****   [..] This section provides functions allowing to configure the 3 Analog Watchdogs 
 658:/home/user/Desktop/STM32-Projekte/FH-Vertibot/src/STM32F30x_StdPeriph_Driver/src/stm32f30x_adc.c ****        (AWDG1, AWDG2 and AWDG3) in the ADC.
 659:/home/user/Desktop/STM32-Projekte/FH-Vertibot/src/STM32F30x_StdPeriph_Driver/src/stm32f30x_adc.c ****   
 660:/home/user/Desktop/STM32-Projekte/FH-Vertibot/src/STM32F30x_StdPeriph_Driver/src/stm32f30x_adc.c ****   [..] A typical configuration Analog Watchdog is done following these steps :
 661:/home/user/Desktop/STM32-Projekte/FH-Vertibot/src/STM32F30x_StdPeriph_Driver/src/stm32f30x_adc.c ****    (#) The ADC guarded channel(s) is (are) selected using the functions: 
 662:/home/user/Desktop/STM32-Projekte/FH-Vertibot/src/STM32F30x_StdPeriph_Driver/src/stm32f30x_adc.c ****       (++) ADC_AnalogWatchdog1SingleChannelConfig().
 663:/home/user/Desktop/STM32-Projekte/FH-Vertibot/src/STM32F30x_StdPeriph_Driver/src/stm32f30x_adc.c ****       (++) ADC_AnalogWatchdog2SingleChannelConfig().
 664:/home/user/Desktop/STM32-Projekte/FH-Vertibot/src/STM32F30x_StdPeriph_Driver/src/stm32f30x_adc.c ****       (++) ADC_AnalogWatchdog3SingleChannelConfig().
 665:/home/user/Desktop/STM32-Projekte/FH-Vertibot/src/STM32F30x_StdPeriph_Driver/src/stm32f30x_adc.c **** 
 666:/home/user/Desktop/STM32-Projekte/FH-Vertibot/src/STM32F30x_StdPeriph_Driver/src/stm32f30x_adc.c ****    (#) The Analog watchdog lower and higher threshold are configured using the functions: 
 667:/home/user/Desktop/STM32-Projekte/FH-Vertibot/src/STM32F30x_StdPeriph_Driver/src/stm32f30x_adc.c ****       (++) ADC_AnalogWatchdog1ThresholdsConfig().
 668:/home/user/Desktop/STM32-Projekte/FH-Vertibot/src/STM32F30x_StdPeriph_Driver/src/stm32f30x_adc.c ****       (++) ADC_AnalogWatchdog2ThresholdsConfig().
 669:/home/user/Desktop/STM32-Projekte/FH-Vertibot/src/STM32F30x_StdPeriph_Driver/src/stm32f30x_adc.c ****       (++) ADC_AnalogWatchdog3ThresholdsConfig().
 670:/home/user/Desktop/STM32-Projekte/FH-Vertibot/src/STM32F30x_StdPeriph_Driver/src/stm32f30x_adc.c **** 
 671:/home/user/Desktop/STM32-Projekte/FH-Vertibot/src/STM32F30x_StdPeriph_Driver/src/stm32f30x_adc.c ****    (#) The Analog watchdog is enabled and configured to enable the check, on one
 672:/home/user/Desktop/STM32-Projekte/FH-Vertibot/src/STM32F30x_StdPeriph_Driver/src/stm32f30x_adc.c ****       or more channels, using the function:
 673:/home/user/Desktop/STM32-Projekte/FH-Vertibot/src/STM32F30x_StdPeriph_Driver/src/stm32f30x_adc.c ****       (++) ADC_AnalogWatchdogCmd().
 674:/home/user/Desktop/STM32-Projekte/FH-Vertibot/src/STM32F30x_StdPeriph_Driver/src/stm32f30x_adc.c **** 
 675:/home/user/Desktop/STM32-Projekte/FH-Vertibot/src/STM32F30x_StdPeriph_Driver/src/stm32f30x_adc.c **** @endverbatim
 676:/home/user/Desktop/STM32-Projekte/FH-Vertibot/src/STM32F30x_StdPeriph_Driver/src/stm32f30x_adc.c ****   * @{
 677:/home/user/Desktop/STM32-Projekte/FH-Vertibot/src/STM32F30x_StdPeriph_Driver/src/stm32f30x_adc.c ****   */
 678:/home/user/Desktop/STM32-Projekte/FH-Vertibot/src/STM32F30x_StdPeriph_Driver/src/stm32f30x_adc.c **** 
 679:/home/user/Desktop/STM32-Projekte/FH-Vertibot/src/STM32F30x_StdPeriph_Driver/src/stm32f30x_adc.c **** /**
 680:/home/user/Desktop/STM32-Projekte/FH-Vertibot/src/STM32F30x_StdPeriph_Driver/src/stm32f30x_adc.c ****   * @brief  Enables or disables the analog watchdog on single/all regular
 681:/home/user/Desktop/STM32-Projekte/FH-Vertibot/src/STM32F30x_StdPeriph_Driver/src/stm32f30x_adc.c ****   *         or injected channels
 682:/home/user/Desktop/STM32-Projekte/FH-Vertibot/src/STM32F30x_StdPeriph_Driver/src/stm32f30x_adc.c ****   * @param  ADCx: where x can be 1, 2, 3 or 4 to select the ADC peripheral.
 683:/home/user/Desktop/STM32-Projekte/FH-Vertibot/src/STM32F30x_StdPeriph_Driver/src/stm32f30x_adc.c ****   * @param  ADC_AnalogWatchdog: the ADC analog watchdog configuration.
 684:/home/user/Desktop/STM32-Projekte/FH-Vertibot/src/STM32F30x_StdPeriph_Driver/src/stm32f30x_adc.c ****   *   This parameter can be one of the following values:
 685:/home/user/Desktop/STM32-Projekte/FH-Vertibot/src/STM32F30x_StdPeriph_Driver/src/stm32f30x_adc.c ****   *     @arg ADC_AnalogWatchdog_SingleRegEnable: Analog watchdog on a single regular channel
 686:/home/user/Desktop/STM32-Projekte/FH-Vertibot/src/STM32F30x_StdPeriph_Driver/src/stm32f30x_adc.c ****   *     @arg ADC_AnalogWatchdog_SingleInjecEnable: Analog watchdog on a single injected channel
 687:/home/user/Desktop/STM32-Projekte/FH-Vertibot/src/STM32F30x_StdPeriph_Driver/src/stm32f30x_adc.c ****   *     @arg ADC_AnalogWatchdog_SingleRegOrInjecEnable: Analog watchdog on a single regular or inje
 688:/home/user/Desktop/STM32-Projekte/FH-Vertibot/src/STM32F30x_StdPeriph_Driver/src/stm32f30x_adc.c ****   *     @arg ADC_AnalogWatchdog_AllRegEnable: Analog watchdog on  all regular channel
 689:/home/user/Desktop/STM32-Projekte/FH-Vertibot/src/STM32F30x_StdPeriph_Driver/src/stm32f30x_adc.c ****   *     @arg ADC_AnalogWatchdog_AllInjecEnable: Analog watchdog on  all injected channel
 690:/home/user/Desktop/STM32-Projekte/FH-Vertibot/src/STM32F30x_StdPeriph_Driver/src/stm32f30x_adc.c ****   *     @arg ADC_AnalogWatchdog_AllRegAllInjecEnable: Analog watchdog on all regular and injected c
 691:/home/user/Desktop/STM32-Projekte/FH-Vertibot/src/STM32F30x_StdPeriph_Driver/src/stm32f30x_adc.c ****   *     @arg ADC_AnalogWatchdog_None: No channel guarded by the analog watchdog
 692:/home/user/Desktop/STM32-Projekte/FH-Vertibot/src/STM32F30x_StdPeriph_Driver/src/stm32f30x_adc.c ****   * @retval None	  
 693:/home/user/Desktop/STM32-Projekte/FH-Vertibot/src/STM32F30x_StdPeriph_Driver/src/stm32f30x_adc.c ****   */
 694:/home/user/Desktop/STM32-Projekte/FH-Vertibot/src/STM32F30x_StdPeriph_Driver/src/stm32f30x_adc.c **** void ADC_AnalogWatchdogCmd(ADC_TypeDef* ADCx, uint32_t ADC_AnalogWatchdog)
 695:/home/user/Desktop/STM32-Projekte/FH-Vertibot/src/STM32F30x_StdPeriph_Driver/src/stm32f30x_adc.c **** {
 707              		.loc 1 695 0
 708              		.cfi_startproc
 709              		@ args = 0, pretend = 0, frame = 0
 710              		@ frame_needed = 0, uses_anonymous_args = 0
 711              		@ link register save eliminated.
 712              	.LVL45:
 696:/home/user/Desktop/STM32-Projekte/FH-Vertibot/src/STM32F30x_StdPeriph_Driver/src/stm32f30x_adc.c ****   uint32_t tmpreg = 0;
 697:/home/user/Desktop/STM32-Projekte/FH-Vertibot/src/STM32F30x_StdPeriph_Driver/src/stm32f30x_adc.c ****   /* Check the parameters */
 698:/home/user/Desktop/STM32-Projekte/FH-Vertibot/src/STM32F30x_StdPeriph_Driver/src/stm32f30x_adc.c ****   assert_param(IS_ADC_ALL_PERIPH(ADCx));
 699:/home/user/Desktop/STM32-Projekte/FH-Vertibot/src/STM32F30x_StdPeriph_Driver/src/stm32f30x_adc.c ****   assert_param(IS_ADC_ANALOG_WATCHDOG(ADC_AnalogWatchdog));
 700:/home/user/Desktop/STM32-Projekte/FH-Vertibot/src/STM32F30x_StdPeriph_Driver/src/stm32f30x_adc.c ****   /* Get the old register value */
 701:/home/user/Desktop/STM32-Projekte/FH-Vertibot/src/STM32F30x_StdPeriph_Driver/src/stm32f30x_adc.c ****   tmpreg = ADCx->CFGR;
 713              		.loc 1 701 0
 714 01f6 C368     		ldr	r3, [r0, #12]
 715              	.LVL46:
 702:/home/user/Desktop/STM32-Projekte/FH-Vertibot/src/STM32F30x_StdPeriph_Driver/src/stm32f30x_adc.c ****   /* Clear AWDEN, AWDENJ and AWDSGL bits */
 703:/home/user/Desktop/STM32-Projekte/FH-Vertibot/src/STM32F30x_StdPeriph_Driver/src/stm32f30x_adc.c ****   tmpreg &= ~(uint32_t)(ADC_CFGR_AWD1SGL|ADC_CFGR_AWD1EN|ADC_CFGR_JAWD1EN);
 716              		.loc 1 703 0
 717 01f8 23F0E073 		bic	r3, r3, #29360128
 718              	.LVL47:
 704:/home/user/Desktop/STM32-Projekte/FH-Vertibot/src/STM32F30x_StdPeriph_Driver/src/stm32f30x_adc.c ****   /* Set the analog watchdog enable mode */
 705:/home/user/Desktop/STM32-Projekte/FH-Vertibot/src/STM32F30x_StdPeriph_Driver/src/stm32f30x_adc.c ****   tmpreg |= ADC_AnalogWatchdog;
 719              		.loc 1 705 0
 720 01fc 1943     		orrs	r1, r1, r3
 721              	.LVL48:
 706:/home/user/Desktop/STM32-Projekte/FH-Vertibot/src/STM32F30x_StdPeriph_Driver/src/stm32f30x_adc.c ****   /* Store the new register value */
 707:/home/user/Desktop/STM32-Projekte/FH-Vertibot/src/STM32F30x_StdPeriph_Driver/src/stm32f30x_adc.c ****   ADCx->CFGR = tmpreg;
 722              		.loc 1 707 0
 723 01fe C160     		str	r1, [r0, #12]
 724 0200 7047     		bx	lr
 725              		.cfi_endproc
 726              	.LFE130:
 728              		.align	1
 729              		.global	ADC_AnalogWatchdog1ThresholdsConfig
 730              		.thumb
 731              		.thumb_func
 733              	ADC_AnalogWatchdog1ThresholdsConfig:
 734              	.LFB131:
 708:/home/user/Desktop/STM32-Projekte/FH-Vertibot/src/STM32F30x_StdPeriph_Driver/src/stm32f30x_adc.c **** }
 709:/home/user/Desktop/STM32-Projekte/FH-Vertibot/src/STM32F30x_StdPeriph_Driver/src/stm32f30x_adc.c **** 
 710:/home/user/Desktop/STM32-Projekte/FH-Vertibot/src/STM32F30x_StdPeriph_Driver/src/stm32f30x_adc.c **** /**
 711:/home/user/Desktop/STM32-Projekte/FH-Vertibot/src/STM32F30x_StdPeriph_Driver/src/stm32f30x_adc.c ****   * @brief  Configures the high and low thresholds of the analog watchdog1.
 712:/home/user/Desktop/STM32-Projekte/FH-Vertibot/src/STM32F30x_StdPeriph_Driver/src/stm32f30x_adc.c ****   * @param  ADCx: where x can be 1, 2, 3 or 4 to select the ADC peripheral.
 713:/home/user/Desktop/STM32-Projekte/FH-Vertibot/src/STM32F30x_StdPeriph_Driver/src/stm32f30x_adc.c ****   * @param  HighThreshold: the ADC analog watchdog High threshold value.
 714:/home/user/Desktop/STM32-Projekte/FH-Vertibot/src/STM32F30x_StdPeriph_Driver/src/stm32f30x_adc.c ****   *   This parameter must be a 12bit value.
 715:/home/user/Desktop/STM32-Projekte/FH-Vertibot/src/STM32F30x_StdPeriph_Driver/src/stm32f30x_adc.c ****   * @param  LowThreshold: the ADC analog watchdog Low threshold value.
 716:/home/user/Desktop/STM32-Projekte/FH-Vertibot/src/STM32F30x_StdPeriph_Driver/src/stm32f30x_adc.c ****   *   This parameter must be a 12bit value.
 717:/home/user/Desktop/STM32-Projekte/FH-Vertibot/src/STM32F30x_StdPeriph_Driver/src/stm32f30x_adc.c ****   * @retval None
 718:/home/user/Desktop/STM32-Projekte/FH-Vertibot/src/STM32F30x_StdPeriph_Driver/src/stm32f30x_adc.c ****   */
 719:/home/user/Desktop/STM32-Projekte/FH-Vertibot/src/STM32F30x_StdPeriph_Driver/src/stm32f30x_adc.c **** void ADC_AnalogWatchdog1ThresholdsConfig(ADC_TypeDef* ADCx, uint16_t HighThreshold,
 720:/home/user/Desktop/STM32-Projekte/FH-Vertibot/src/STM32F30x_StdPeriph_Driver/src/stm32f30x_adc.c ****                                          uint16_t LowThreshold)
 721:/home/user/Desktop/STM32-Projekte/FH-Vertibot/src/STM32F30x_StdPeriph_Driver/src/stm32f30x_adc.c **** {
 735              		.loc 1 721 0
 736              		.cfi_startproc
 737              		@ args = 0, pretend = 0, frame = 0
 738              		@ frame_needed = 0, uses_anonymous_args = 0
 739              		@ link register save eliminated.
 740              	.LVL49:
 722:/home/user/Desktop/STM32-Projekte/FH-Vertibot/src/STM32F30x_StdPeriph_Driver/src/stm32f30x_adc.c ****   /* Check the parameters */
 723:/home/user/Desktop/STM32-Projekte/FH-Vertibot/src/STM32F30x_StdPeriph_Driver/src/stm32f30x_adc.c ****   assert_param(IS_ADC_ALL_PERIPH(ADCx));
 724:/home/user/Desktop/STM32-Projekte/FH-Vertibot/src/STM32F30x_StdPeriph_Driver/src/stm32f30x_adc.c ****   assert_param(IS_ADC_THRESHOLD(HighThreshold));
 725:/home/user/Desktop/STM32-Projekte/FH-Vertibot/src/STM32F30x_StdPeriph_Driver/src/stm32f30x_adc.c ****   assert_param(IS_ADC_THRESHOLD(LowThreshold));
 726:/home/user/Desktop/STM32-Projekte/FH-Vertibot/src/STM32F30x_StdPeriph_Driver/src/stm32f30x_adc.c ****   /* Set the ADCx high threshold */
 727:/home/user/Desktop/STM32-Projekte/FH-Vertibot/src/STM32F30x_StdPeriph_Driver/src/stm32f30x_adc.c ****   ADCx->TR1 &= ~(uint32_t)ADC_TR1_HT1;
 741              		.loc 1 727 0
 742 0202 036A     		ldr	r3, [r0, #32]
 743 0204 23F07F63 		bic	r3, r3, #267386880
 744 0208 23F47023 		bic	r3, r3, #983040
 745 020c 0362     		str	r3, [r0, #32]
 728:/home/user/Desktop/STM32-Projekte/FH-Vertibot/src/STM32F30x_StdPeriph_Driver/src/stm32f30x_adc.c ****   ADCx->TR1 |= (uint32_t)((uint32_t)HighThreshold << 16);
 746              		.loc 1 728 0
 747 020e 036A     		ldr	r3, [r0, #32]
 748 0210 43EA0141 		orr	r1, r3, r1, lsl #16
 749              	.LVL50:
 750 0214 0162     		str	r1, [r0, #32]
 729:/home/user/Desktop/STM32-Projekte/FH-Vertibot/src/STM32F30x_StdPeriph_Driver/src/stm32f30x_adc.c **** 
 730:/home/user/Desktop/STM32-Projekte/FH-Vertibot/src/STM32F30x_StdPeriph_Driver/src/stm32f30x_adc.c ****   /* Set the ADCx low threshold */
 731:/home/user/Desktop/STM32-Projekte/FH-Vertibot/src/STM32F30x_StdPeriph_Driver/src/stm32f30x_adc.c ****   ADCx->TR1 &= ~(uint32_t)ADC_TR1_LT1;
 751              		.loc 1 731 0
 752 0216 036A     		ldr	r3, [r0, #32]
 753 0218 23F47F63 		bic	r3, r3, #4080
 754 021c 23F00F03 		bic	r3, r3, #15
 755 0220 0362     		str	r3, [r0, #32]
 732:/home/user/Desktop/STM32-Projekte/FH-Vertibot/src/STM32F30x_StdPeriph_Driver/src/stm32f30x_adc.c ****   ADCx->TR1 |= LowThreshold;
 756              		.loc 1 732 0
 757 0222 036A     		ldr	r3, [r0, #32]
 758 0224 1A43     		orrs	r2, r2, r3
 759              	.LVL51:
 760 0226 0262     		str	r2, [r0, #32]
 761 0228 7047     		bx	lr
 762              		.cfi_endproc
 763              	.LFE131:
 765              		.align	1
 766              		.global	ADC_AnalogWatchdog2ThresholdsConfig
 767              		.thumb
 768              		.thumb_func
 770              	ADC_AnalogWatchdog2ThresholdsConfig:
 771              	.LFB132:
 733:/home/user/Desktop/STM32-Projekte/FH-Vertibot/src/STM32F30x_StdPeriph_Driver/src/stm32f30x_adc.c **** }
 734:/home/user/Desktop/STM32-Projekte/FH-Vertibot/src/STM32F30x_StdPeriph_Driver/src/stm32f30x_adc.c **** 
 735:/home/user/Desktop/STM32-Projekte/FH-Vertibot/src/STM32F30x_StdPeriph_Driver/src/stm32f30x_adc.c **** /**
 736:/home/user/Desktop/STM32-Projekte/FH-Vertibot/src/STM32F30x_StdPeriph_Driver/src/stm32f30x_adc.c ****   * @brief  Configures the high and low thresholds of the analog watchdog2.
 737:/home/user/Desktop/STM32-Projekte/FH-Vertibot/src/STM32F30x_StdPeriph_Driver/src/stm32f30x_adc.c ****   * @param  ADCx: where x can be 1, 2, 3 or 4 to select the ADC peripheral.
 738:/home/user/Desktop/STM32-Projekte/FH-Vertibot/src/STM32F30x_StdPeriph_Driver/src/stm32f30x_adc.c ****   * @param  HighThreshold: the ADC analog watchdog High threshold value.
 739:/home/user/Desktop/STM32-Projekte/FH-Vertibot/src/STM32F30x_StdPeriph_Driver/src/stm32f30x_adc.c ****   *   This parameter must be a 8bit value.
 740:/home/user/Desktop/STM32-Projekte/FH-Vertibot/src/STM32F30x_StdPeriph_Driver/src/stm32f30x_adc.c ****   * @param  LowThreshold: the ADC analog watchdog Low threshold value.
 741:/home/user/Desktop/STM32-Projekte/FH-Vertibot/src/STM32F30x_StdPeriph_Driver/src/stm32f30x_adc.c ****   *   This parameter must be a 8bit value.
 742:/home/user/Desktop/STM32-Projekte/FH-Vertibot/src/STM32F30x_StdPeriph_Driver/src/stm32f30x_adc.c ****   * @retval None
 743:/home/user/Desktop/STM32-Projekte/FH-Vertibot/src/STM32F30x_StdPeriph_Driver/src/stm32f30x_adc.c ****   */
 744:/home/user/Desktop/STM32-Projekte/FH-Vertibot/src/STM32F30x_StdPeriph_Driver/src/stm32f30x_adc.c **** void ADC_AnalogWatchdog2ThresholdsConfig(ADC_TypeDef* ADCx, uint8_t HighThreshold,
 745:/home/user/Desktop/STM32-Projekte/FH-Vertibot/src/STM32F30x_StdPeriph_Driver/src/stm32f30x_adc.c ****                                          uint8_t LowThreshold)
 746:/home/user/Desktop/STM32-Projekte/FH-Vertibot/src/STM32F30x_StdPeriph_Driver/src/stm32f30x_adc.c **** {
 772              		.loc 1 746 0
 773              		.cfi_startproc
 774              		@ args = 0, pretend = 0, frame = 0
 775              		@ frame_needed = 0, uses_anonymous_args = 0
 776              		@ link register save eliminated.
 777              	.LVL52:
 747:/home/user/Desktop/STM32-Projekte/FH-Vertibot/src/STM32F30x_StdPeriph_Driver/src/stm32f30x_adc.c ****   /* Check the parameters */
 748:/home/user/Desktop/STM32-Projekte/FH-Vertibot/src/STM32F30x_StdPeriph_Driver/src/stm32f30x_adc.c ****   assert_param(IS_ADC_ALL_PERIPH(ADCx));
 749:/home/user/Desktop/STM32-Projekte/FH-Vertibot/src/STM32F30x_StdPeriph_Driver/src/stm32f30x_adc.c ****   
 750:/home/user/Desktop/STM32-Projekte/FH-Vertibot/src/STM32F30x_StdPeriph_Driver/src/stm32f30x_adc.c ****   /* Set the ADCx high threshold */
 751:/home/user/Desktop/STM32-Projekte/FH-Vertibot/src/STM32F30x_StdPeriph_Driver/src/stm32f30x_adc.c ****   ADCx->TR2 &= ~(uint32_t)ADC_TR2_HT2;
 778              		.loc 1 751 0
 779 022a 436A     		ldr	r3, [r0, #36]
 780 022c 23F47F03 		bic	r3, r3, #16711680
 781 0230 4362     		str	r3, [r0, #36]
 752:/home/user/Desktop/STM32-Projekte/FH-Vertibot/src/STM32F30x_StdPeriph_Driver/src/stm32f30x_adc.c ****   ADCx->TR2 |= (uint32_t)((uint32_t)HighThreshold << 16);
 782              		.loc 1 752 0
 783 0232 436A     		ldr	r3, [r0, #36]
 784 0234 43EA0141 		orr	r1, r3, r1, lsl #16
 785              	.LVL53:
 786 0238 4162     		str	r1, [r0, #36]
 753:/home/user/Desktop/STM32-Projekte/FH-Vertibot/src/STM32F30x_StdPeriph_Driver/src/stm32f30x_adc.c **** 
 754:/home/user/Desktop/STM32-Projekte/FH-Vertibot/src/STM32F30x_StdPeriph_Driver/src/stm32f30x_adc.c ****   /* Set the ADCx low threshold */
 755:/home/user/Desktop/STM32-Projekte/FH-Vertibot/src/STM32F30x_StdPeriph_Driver/src/stm32f30x_adc.c ****   ADCx->TR2 &= ~(uint32_t)ADC_TR2_LT2;
 787              		.loc 1 755 0
 788 023a 436A     		ldr	r3, [r0, #36]
 789 023c 23F0FF03 		bic	r3, r3, #255
 790 0240 4362     		str	r3, [r0, #36]
 756:/home/user/Desktop/STM32-Projekte/FH-Vertibot/src/STM32F30x_StdPeriph_Driver/src/stm32f30x_adc.c ****   ADCx->TR2 |= LowThreshold;
 791              		.loc 1 756 0
 792 0242 436A     		ldr	r3, [r0, #36]
 793 0244 1A43     		orrs	r2, r2, r3
 794              	.LVL54:
 795 0246 4262     		str	r2, [r0, #36]
 796 0248 7047     		bx	lr
 797              		.cfi_endproc
 798              	.LFE132:
 800              		.align	1
 801              		.global	ADC_AnalogWatchdog3ThresholdsConfig
 802              		.thumb
 803              		.thumb_func
 805              	ADC_AnalogWatchdog3ThresholdsConfig:
 806              	.LFB133:
 757:/home/user/Desktop/STM32-Projekte/FH-Vertibot/src/STM32F30x_StdPeriph_Driver/src/stm32f30x_adc.c **** }
 758:/home/user/Desktop/STM32-Projekte/FH-Vertibot/src/STM32F30x_StdPeriph_Driver/src/stm32f30x_adc.c **** 
 759:/home/user/Desktop/STM32-Projekte/FH-Vertibot/src/STM32F30x_StdPeriph_Driver/src/stm32f30x_adc.c **** /**
 760:/home/user/Desktop/STM32-Projekte/FH-Vertibot/src/STM32F30x_StdPeriph_Driver/src/stm32f30x_adc.c ****   * @brief  Configures the high and low thresholds of the analog watchdog3.
 761:/home/user/Desktop/STM32-Projekte/FH-Vertibot/src/STM32F30x_StdPeriph_Driver/src/stm32f30x_adc.c ****   * @param  ADCx: where x can be 1, 2, 3 or 4 to select the ADC peripheral.
 762:/home/user/Desktop/STM32-Projekte/FH-Vertibot/src/STM32F30x_StdPeriph_Driver/src/stm32f30x_adc.c ****   * @param  HighThreshold: the ADC analog watchdog High threshold value.
 763:/home/user/Desktop/STM32-Projekte/FH-Vertibot/src/STM32F30x_StdPeriph_Driver/src/stm32f30x_adc.c ****   *   This parameter must be a 8bit value.
 764:/home/user/Desktop/STM32-Projekte/FH-Vertibot/src/STM32F30x_StdPeriph_Driver/src/stm32f30x_adc.c ****   * @param  LowThreshold: the ADC analog watchdog Low threshold value.
 765:/home/user/Desktop/STM32-Projekte/FH-Vertibot/src/STM32F30x_StdPeriph_Driver/src/stm32f30x_adc.c ****   *   This parameter must be a 8bit value.
 766:/home/user/Desktop/STM32-Projekte/FH-Vertibot/src/STM32F30x_StdPeriph_Driver/src/stm32f30x_adc.c ****   * @retval None
 767:/home/user/Desktop/STM32-Projekte/FH-Vertibot/src/STM32F30x_StdPeriph_Driver/src/stm32f30x_adc.c ****   */
 768:/home/user/Desktop/STM32-Projekte/FH-Vertibot/src/STM32F30x_StdPeriph_Driver/src/stm32f30x_adc.c **** void ADC_AnalogWatchdog3ThresholdsConfig(ADC_TypeDef* ADCx, uint8_t HighThreshold,
 769:/home/user/Desktop/STM32-Projekte/FH-Vertibot/src/STM32F30x_StdPeriph_Driver/src/stm32f30x_adc.c ****                                          uint8_t LowThreshold)
 770:/home/user/Desktop/STM32-Projekte/FH-Vertibot/src/STM32F30x_StdPeriph_Driver/src/stm32f30x_adc.c **** {
 807              		.loc 1 770 0
 808              		.cfi_startproc
 809              		@ args = 0, pretend = 0, frame = 0
 810              		@ frame_needed = 0, uses_anonymous_args = 0
 811              		@ link register save eliminated.
 812              	.LVL55:
 771:/home/user/Desktop/STM32-Projekte/FH-Vertibot/src/STM32F30x_StdPeriph_Driver/src/stm32f30x_adc.c ****   /* Check the parameters */
 772:/home/user/Desktop/STM32-Projekte/FH-Vertibot/src/STM32F30x_StdPeriph_Driver/src/stm32f30x_adc.c ****   assert_param(IS_ADC_ALL_PERIPH(ADCx));
 773:/home/user/Desktop/STM32-Projekte/FH-Vertibot/src/STM32F30x_StdPeriph_Driver/src/stm32f30x_adc.c **** 
 774:/home/user/Desktop/STM32-Projekte/FH-Vertibot/src/STM32F30x_StdPeriph_Driver/src/stm32f30x_adc.c ****   /* Set the ADCx high threshold */
 775:/home/user/Desktop/STM32-Projekte/FH-Vertibot/src/STM32F30x_StdPeriph_Driver/src/stm32f30x_adc.c ****   ADCx->TR3 &= ~(uint32_t)ADC_TR3_HT3;
 813              		.loc 1 775 0
 814 024a 836A     		ldr	r3, [r0, #40]
 815 024c 23F47F03 		bic	r3, r3, #16711680
 816 0250 8362     		str	r3, [r0, #40]
 776:/home/user/Desktop/STM32-Projekte/FH-Vertibot/src/STM32F30x_StdPeriph_Driver/src/stm32f30x_adc.c ****   ADCx->TR3 |= (uint32_t)((uint32_t)HighThreshold << 16);
 817              		.loc 1 776 0
 818 0252 836A     		ldr	r3, [r0, #40]
 819 0254 43EA0141 		orr	r1, r3, r1, lsl #16
 820              	.LVL56:
 821 0258 8162     		str	r1, [r0, #40]
 777:/home/user/Desktop/STM32-Projekte/FH-Vertibot/src/STM32F30x_StdPeriph_Driver/src/stm32f30x_adc.c **** 
 778:/home/user/Desktop/STM32-Projekte/FH-Vertibot/src/STM32F30x_StdPeriph_Driver/src/stm32f30x_adc.c ****   /* Set the ADCx low threshold */
 779:/home/user/Desktop/STM32-Projekte/FH-Vertibot/src/STM32F30x_StdPeriph_Driver/src/stm32f30x_adc.c ****   ADCx->TR3 &= ~(uint32_t)ADC_TR3_LT3;
 822              		.loc 1 779 0
 823 025a 836A     		ldr	r3, [r0, #40]
 824 025c 23F0FF03 		bic	r3, r3, #255
 825 0260 8362     		str	r3, [r0, #40]
 780:/home/user/Desktop/STM32-Projekte/FH-Vertibot/src/STM32F30x_StdPeriph_Driver/src/stm32f30x_adc.c ****   ADCx->TR3 |= LowThreshold;
 826              		.loc 1 780 0
 827 0262 836A     		ldr	r3, [r0, #40]
 828 0264 1A43     		orrs	r2, r2, r3
 829              	.LVL57:
 830 0266 8262     		str	r2, [r0, #40]
 831 0268 7047     		bx	lr
 832              		.cfi_endproc
 833              	.LFE133:
 835              		.align	1
 836              		.global	ADC_AnalogWatchdog1SingleChannelConfig
 837              		.thumb
 838              		.thumb_func
 840              	ADC_AnalogWatchdog1SingleChannelConfig:
 841              	.LFB134:
 781:/home/user/Desktop/STM32-Projekte/FH-Vertibot/src/STM32F30x_StdPeriph_Driver/src/stm32f30x_adc.c **** }
 782:/home/user/Desktop/STM32-Projekte/FH-Vertibot/src/STM32F30x_StdPeriph_Driver/src/stm32f30x_adc.c **** 
 783:/home/user/Desktop/STM32-Projekte/FH-Vertibot/src/STM32F30x_StdPeriph_Driver/src/stm32f30x_adc.c **** /**
 784:/home/user/Desktop/STM32-Projekte/FH-Vertibot/src/STM32F30x_StdPeriph_Driver/src/stm32f30x_adc.c ****   * @brief  Configures the analog watchdog 2 guarded single channel
 785:/home/user/Desktop/STM32-Projekte/FH-Vertibot/src/STM32F30x_StdPeriph_Driver/src/stm32f30x_adc.c ****   * @param  ADCx: where x can be 1, 2, 3 or 4 to select the ADC peripheral.
 786:/home/user/Desktop/STM32-Projekte/FH-Vertibot/src/STM32F30x_StdPeriph_Driver/src/stm32f30x_adc.c ****   * @param  ADC_Channel: the ADC channel to configure for the analog watchdog. 
 787:/home/user/Desktop/STM32-Projekte/FH-Vertibot/src/STM32F30x_StdPeriph_Driver/src/stm32f30x_adc.c ****   *   This parameter can be one of the following values:
 788:/home/user/Desktop/STM32-Projekte/FH-Vertibot/src/STM32F30x_StdPeriph_Driver/src/stm32f30x_adc.c ****   *     @arg ADC_Channel_1: ADC Channel1 selected
 789:/home/user/Desktop/STM32-Projekte/FH-Vertibot/src/STM32F30x_StdPeriph_Driver/src/stm32f30x_adc.c ****   *     @arg ADC_Channel_2: ADC Channel2 selected
 790:/home/user/Desktop/STM32-Projekte/FH-Vertibot/src/STM32F30x_StdPeriph_Driver/src/stm32f30x_adc.c ****   *     @arg ADC_Channel_3: ADC Channel3 selected
 791:/home/user/Desktop/STM32-Projekte/FH-Vertibot/src/STM32F30x_StdPeriph_Driver/src/stm32f30x_adc.c ****   *     @arg ADC_Channel_4: ADC Channel4 selected
 792:/home/user/Desktop/STM32-Projekte/FH-Vertibot/src/STM32F30x_StdPeriph_Driver/src/stm32f30x_adc.c ****   *     @arg ADC_Channel_5: ADC Channel5 selected
 793:/home/user/Desktop/STM32-Projekte/FH-Vertibot/src/STM32F30x_StdPeriph_Driver/src/stm32f30x_adc.c ****   *     @arg ADC_Channel_6: ADC Channel6 selected
 794:/home/user/Desktop/STM32-Projekte/FH-Vertibot/src/STM32F30x_StdPeriph_Driver/src/stm32f30x_adc.c ****   *     @arg ADC_Channel_7: ADC Channel7 selected
 795:/home/user/Desktop/STM32-Projekte/FH-Vertibot/src/STM32F30x_StdPeriph_Driver/src/stm32f30x_adc.c ****   *     @arg ADC_Channel_8: ADC Channel8 selected
 796:/home/user/Desktop/STM32-Projekte/FH-Vertibot/src/STM32F30x_StdPeriph_Driver/src/stm32f30x_adc.c ****   *     @arg ADC_Channel_9: ADC Channel9 selected
 797:/home/user/Desktop/STM32-Projekte/FH-Vertibot/src/STM32F30x_StdPeriph_Driver/src/stm32f30x_adc.c ****   *     @arg ADC_Channel_10: ADC Channel10 selected
 798:/home/user/Desktop/STM32-Projekte/FH-Vertibot/src/STM32F30x_StdPeriph_Driver/src/stm32f30x_adc.c ****   *     @arg ADC_Channel_11: ADC Channel11 selected
 799:/home/user/Desktop/STM32-Projekte/FH-Vertibot/src/STM32F30x_StdPeriph_Driver/src/stm32f30x_adc.c ****   *     @arg ADC_Channel_12: ADC Channel12 selected
 800:/home/user/Desktop/STM32-Projekte/FH-Vertibot/src/STM32F30x_StdPeriph_Driver/src/stm32f30x_adc.c ****   *     @arg ADC_Channel_13: ADC Channel13 selected
 801:/home/user/Desktop/STM32-Projekte/FH-Vertibot/src/STM32F30x_StdPeriph_Driver/src/stm32f30x_adc.c ****   *     @arg ADC_Channel_14: ADC Channel14 selected
 802:/home/user/Desktop/STM32-Projekte/FH-Vertibot/src/STM32F30x_StdPeriph_Driver/src/stm32f30x_adc.c ****   *     @arg ADC_Channel_15: ADC Channel15 selected
 803:/home/user/Desktop/STM32-Projekte/FH-Vertibot/src/STM32F30x_StdPeriph_Driver/src/stm32f30x_adc.c ****   *     @arg ADC_Channel_16: ADC Channel16 selected
 804:/home/user/Desktop/STM32-Projekte/FH-Vertibot/src/STM32F30x_StdPeriph_Driver/src/stm32f30x_adc.c ****   *     @arg ADC_Channel_17: ADC Channel17 selected
 805:/home/user/Desktop/STM32-Projekte/FH-Vertibot/src/STM32F30x_StdPeriph_Driver/src/stm32f30x_adc.c ****   *     @arg ADC_Channel_18: ADC Channel18 selected
 806:/home/user/Desktop/STM32-Projekte/FH-Vertibot/src/STM32F30x_StdPeriph_Driver/src/stm32f30x_adc.c ****   * @retval None
 807:/home/user/Desktop/STM32-Projekte/FH-Vertibot/src/STM32F30x_StdPeriph_Driver/src/stm32f30x_adc.c ****   */
 808:/home/user/Desktop/STM32-Projekte/FH-Vertibot/src/STM32F30x_StdPeriph_Driver/src/stm32f30x_adc.c **** void ADC_AnalogWatchdog1SingleChannelConfig(ADC_TypeDef* ADCx, uint8_t ADC_Channel)
 809:/home/user/Desktop/STM32-Projekte/FH-Vertibot/src/STM32F30x_StdPeriph_Driver/src/stm32f30x_adc.c **** {
 842              		.loc 1 809 0
 843              		.cfi_startproc
 844              		@ args = 0, pretend = 0, frame = 0
 845              		@ frame_needed = 0, uses_anonymous_args = 0
 846              		@ link register save eliminated.
 847              	.LVL58:
 810:/home/user/Desktop/STM32-Projekte/FH-Vertibot/src/STM32F30x_StdPeriph_Driver/src/stm32f30x_adc.c ****   uint32_t tmpreg = 0;
 811:/home/user/Desktop/STM32-Projekte/FH-Vertibot/src/STM32F30x_StdPeriph_Driver/src/stm32f30x_adc.c ****   /* Check the parameters */
 812:/home/user/Desktop/STM32-Projekte/FH-Vertibot/src/STM32F30x_StdPeriph_Driver/src/stm32f30x_adc.c ****   assert_param(IS_ADC_ALL_PERIPH(ADCx));
 813:/home/user/Desktop/STM32-Projekte/FH-Vertibot/src/STM32F30x_StdPeriph_Driver/src/stm32f30x_adc.c ****   assert_param(IS_ADC_CHANNEL(ADC_Channel));
 814:/home/user/Desktop/STM32-Projekte/FH-Vertibot/src/STM32F30x_StdPeriph_Driver/src/stm32f30x_adc.c ****   /* Get the old register value */
 815:/home/user/Desktop/STM32-Projekte/FH-Vertibot/src/STM32F30x_StdPeriph_Driver/src/stm32f30x_adc.c ****   tmpreg = ADCx->CFGR;
 848              		.loc 1 815 0
 849 026a C368     		ldr	r3, [r0, #12]
 850              	.LVL59:
 816:/home/user/Desktop/STM32-Projekte/FH-Vertibot/src/STM32F30x_StdPeriph_Driver/src/stm32f30x_adc.c ****   /* Clear the Analog watchdog channel select bits */
 817:/home/user/Desktop/STM32-Projekte/FH-Vertibot/src/STM32F30x_StdPeriph_Driver/src/stm32f30x_adc.c ****   tmpreg &= ~(uint32_t)ADC_CFGR_AWD1CH;
 851              		.loc 1 817 0
 852 026c 23F0F843 		bic	r3, r3, #2080374784
 853              	.LVL60:
 818:/home/user/Desktop/STM32-Projekte/FH-Vertibot/src/STM32F30x_StdPeriph_Driver/src/stm32f30x_adc.c ****   /* Set the Analog watchdog channel */
 819:/home/user/Desktop/STM32-Projekte/FH-Vertibot/src/STM32F30x_StdPeriph_Driver/src/stm32f30x_adc.c ****   tmpreg |= (uint32_t)((uint32_t)ADC_Channel << 26);
 854              		.loc 1 819 0
 855 0270 43EA8161 		orr	r1, r3, r1, lsl #26
 856              	.LVL61:
 820:/home/user/Desktop/STM32-Projekte/FH-Vertibot/src/STM32F30x_StdPeriph_Driver/src/stm32f30x_adc.c ****   /* Store the new register value */
 821:/home/user/Desktop/STM32-Projekte/FH-Vertibot/src/STM32F30x_StdPeriph_Driver/src/stm32f30x_adc.c ****   ADCx->CFGR = tmpreg;
 857              		.loc 1 821 0
 858 0274 C160     		str	r1, [r0, #12]
 859 0276 7047     		bx	lr
 860              		.cfi_endproc
 861              	.LFE134:
 863              		.align	1
 864              		.global	ADC_AnalogWatchdog2SingleChannelConfig
 865              		.thumb
 866              		.thumb_func
 868              	ADC_AnalogWatchdog2SingleChannelConfig:
 869              	.LFB135:
 822:/home/user/Desktop/STM32-Projekte/FH-Vertibot/src/STM32F30x_StdPeriph_Driver/src/stm32f30x_adc.c **** }
 823:/home/user/Desktop/STM32-Projekte/FH-Vertibot/src/STM32F30x_StdPeriph_Driver/src/stm32f30x_adc.c **** 
 824:/home/user/Desktop/STM32-Projekte/FH-Vertibot/src/STM32F30x_StdPeriph_Driver/src/stm32f30x_adc.c **** /**
 825:/home/user/Desktop/STM32-Projekte/FH-Vertibot/src/STM32F30x_StdPeriph_Driver/src/stm32f30x_adc.c ****   * @brief  Configures the analog watchdog 2 guarded single channel
 826:/home/user/Desktop/STM32-Projekte/FH-Vertibot/src/STM32F30x_StdPeriph_Driver/src/stm32f30x_adc.c ****   * @param  ADCx: where x can be 1, 2, 3 or 4 to select the ADC peripheral.
 827:/home/user/Desktop/STM32-Projekte/FH-Vertibot/src/STM32F30x_StdPeriph_Driver/src/stm32f30x_adc.c ****   * @param  ADC_Channel: the ADC channel to configure for the analog watchdog. 
 828:/home/user/Desktop/STM32-Projekte/FH-Vertibot/src/STM32F30x_StdPeriph_Driver/src/stm32f30x_adc.c ****   *   This parameter can be one of the following values:
 829:/home/user/Desktop/STM32-Projekte/FH-Vertibot/src/STM32F30x_StdPeriph_Driver/src/stm32f30x_adc.c ****   *     @arg ADC_Channel_1: ADC Channel1 selected
 830:/home/user/Desktop/STM32-Projekte/FH-Vertibot/src/STM32F30x_StdPeriph_Driver/src/stm32f30x_adc.c ****   *     @arg ADC_Channel_2: ADC Channel2 selected
 831:/home/user/Desktop/STM32-Projekte/FH-Vertibot/src/STM32F30x_StdPeriph_Driver/src/stm32f30x_adc.c ****   *     @arg ADC_Channel_3: ADC Channel3 selected
 832:/home/user/Desktop/STM32-Projekte/FH-Vertibot/src/STM32F30x_StdPeriph_Driver/src/stm32f30x_adc.c ****   *     @arg ADC_Channel_4: ADC Channel4 selected
 833:/home/user/Desktop/STM32-Projekte/FH-Vertibot/src/STM32F30x_StdPeriph_Driver/src/stm32f30x_adc.c ****   *     @arg ADC_Channel_5: ADC Channel5 selected
 834:/home/user/Desktop/STM32-Projekte/FH-Vertibot/src/STM32F30x_StdPeriph_Driver/src/stm32f30x_adc.c ****   *     @arg ADC_Channel_6: ADC Channel6 selected
 835:/home/user/Desktop/STM32-Projekte/FH-Vertibot/src/STM32F30x_StdPeriph_Driver/src/stm32f30x_adc.c ****   *     @arg ADC_Channel_7: ADC Channel7 selected
 836:/home/user/Desktop/STM32-Projekte/FH-Vertibot/src/STM32F30x_StdPeriph_Driver/src/stm32f30x_adc.c ****   *     @arg ADC_Channel_8: ADC Channel8 selected
 837:/home/user/Desktop/STM32-Projekte/FH-Vertibot/src/STM32F30x_StdPeriph_Driver/src/stm32f30x_adc.c ****   *     @arg ADC_Channel_9: ADC Channel9 selected
 838:/home/user/Desktop/STM32-Projekte/FH-Vertibot/src/STM32F30x_StdPeriph_Driver/src/stm32f30x_adc.c ****   *     @arg ADC_Channel_10: ADC Channel10 selected
 839:/home/user/Desktop/STM32-Projekte/FH-Vertibot/src/STM32F30x_StdPeriph_Driver/src/stm32f30x_adc.c ****   *     @arg ADC_Channel_11: ADC Channel11 selected
 840:/home/user/Desktop/STM32-Projekte/FH-Vertibot/src/STM32F30x_StdPeriph_Driver/src/stm32f30x_adc.c ****   *     @arg ADC_Channel_12: ADC Channel12 selected
 841:/home/user/Desktop/STM32-Projekte/FH-Vertibot/src/STM32F30x_StdPeriph_Driver/src/stm32f30x_adc.c ****   *     @arg ADC_Channel_13: ADC Channel13 selected
 842:/home/user/Desktop/STM32-Projekte/FH-Vertibot/src/STM32F30x_StdPeriph_Driver/src/stm32f30x_adc.c ****   *     @arg ADC_Channel_14: ADC Channel14 selected
 843:/home/user/Desktop/STM32-Projekte/FH-Vertibot/src/STM32F30x_StdPeriph_Driver/src/stm32f30x_adc.c ****   *     @arg ADC_Channel_15: ADC Channel15 selected
 844:/home/user/Desktop/STM32-Projekte/FH-Vertibot/src/STM32F30x_StdPeriph_Driver/src/stm32f30x_adc.c ****   *     @arg ADC_Channel_16: ADC Channel16 selected
 845:/home/user/Desktop/STM32-Projekte/FH-Vertibot/src/STM32F30x_StdPeriph_Driver/src/stm32f30x_adc.c ****   *     @arg ADC_Channel_17: ADC Channel17 selected
 846:/home/user/Desktop/STM32-Projekte/FH-Vertibot/src/STM32F30x_StdPeriph_Driver/src/stm32f30x_adc.c ****   *     @arg ADC_Channel_18: ADC Channel18 selected
 847:/home/user/Desktop/STM32-Projekte/FH-Vertibot/src/STM32F30x_StdPeriph_Driver/src/stm32f30x_adc.c ****   * @retval None
 848:/home/user/Desktop/STM32-Projekte/FH-Vertibot/src/STM32F30x_StdPeriph_Driver/src/stm32f30x_adc.c ****   */
 849:/home/user/Desktop/STM32-Projekte/FH-Vertibot/src/STM32F30x_StdPeriph_Driver/src/stm32f30x_adc.c **** void ADC_AnalogWatchdog2SingleChannelConfig(ADC_TypeDef* ADCx, uint8_t ADC_Channel)
 850:/home/user/Desktop/STM32-Projekte/FH-Vertibot/src/STM32F30x_StdPeriph_Driver/src/stm32f30x_adc.c **** {
 870              		.loc 1 850 0
 871              		.cfi_startproc
 872              		@ args = 0, pretend = 0, frame = 0
 873              		@ frame_needed = 0, uses_anonymous_args = 0
 874              		@ link register save eliminated.
 875              	.LVL62:
 851:/home/user/Desktop/STM32-Projekte/FH-Vertibot/src/STM32F30x_StdPeriph_Driver/src/stm32f30x_adc.c ****   uint32_t tmpreg = 0;
 852:/home/user/Desktop/STM32-Projekte/FH-Vertibot/src/STM32F30x_StdPeriph_Driver/src/stm32f30x_adc.c ****   /* Check the parameters */
 853:/home/user/Desktop/STM32-Projekte/FH-Vertibot/src/STM32F30x_StdPeriph_Driver/src/stm32f30x_adc.c ****   assert_param(IS_ADC_ALL_PERIPH(ADCx));
 854:/home/user/Desktop/STM32-Projekte/FH-Vertibot/src/STM32F30x_StdPeriph_Driver/src/stm32f30x_adc.c ****   assert_param(IS_ADC_CHANNEL(ADC_Channel));
 855:/home/user/Desktop/STM32-Projekte/FH-Vertibot/src/STM32F30x_StdPeriph_Driver/src/stm32f30x_adc.c ****   /* Get the old register value */
 856:/home/user/Desktop/STM32-Projekte/FH-Vertibot/src/STM32F30x_StdPeriph_Driver/src/stm32f30x_adc.c ****   tmpreg = ADCx->AWD2CR;
 876              		.loc 1 856 0
 877 0278 D0F8A020 		ldr	r2, [r0, #160]
 878              	.LVL63:
 857:/home/user/Desktop/STM32-Projekte/FH-Vertibot/src/STM32F30x_StdPeriph_Driver/src/stm32f30x_adc.c ****   /* Clear the Analog watchdog channel select bits */
 858:/home/user/Desktop/STM32-Projekte/FH-Vertibot/src/STM32F30x_StdPeriph_Driver/src/stm32f30x_adc.c ****   tmpreg &= ~(uint32_t)ADC_AWD2CR_AWD2CH;
 879              		.loc 1 858 0
 880 027c 054B     		ldr	r3, .L70
 881 027e 1340     		ands	r3, r3, r2
 882              	.LVL64:
 859:/home/user/Desktop/STM32-Projekte/FH-Vertibot/src/STM32F30x_StdPeriph_Driver/src/stm32f30x_adc.c ****   /* Set the Analog watchdog channel */
 860:/home/user/Desktop/STM32-Projekte/FH-Vertibot/src/STM32F30x_StdPeriph_Driver/src/stm32f30x_adc.c ****   tmpreg |= (uint32_t)1 << (ADC_Channel);
 861:/home/user/Desktop/STM32-Projekte/FH-Vertibot/src/STM32F30x_StdPeriph_Driver/src/stm32f30x_adc.c ****   /* Store the new register value */
 862:/home/user/Desktop/STM32-Projekte/FH-Vertibot/src/STM32F30x_StdPeriph_Driver/src/stm32f30x_adc.c ****   ADCx->AWD2CR |= tmpreg;
 883              		.loc 1 862 0
 884 0280 D0F8A020 		ldr	r2, [r0, #160]
 860:/home/user/Desktop/STM32-Projekte/FH-Vertibot/src/STM32F30x_StdPeriph_Driver/src/stm32f30x_adc.c ****   tmpreg |= (uint32_t)1 << (ADC_Channel);
 885              		.loc 1 860 0
 886 0284 1343     		orrs	r3, r3, r2
 887              	.LVL65:
 888 0286 0122     		movs	r2, #1
 889 0288 02FA01F1 		lsl	r1, r2, r1
 890              	.LVL66:
 891              		.loc 1 862 0
 892 028c 0B43     		orrs	r3, r3, r1
 893 028e C0F8A030 		str	r3, [r0, #160]
 894 0292 7047     		bx	lr
 895              	.L71:
 896              		.align	2
 897              	.L70:
 898 0294 0100F8FF 		.word	-524287
 899              		.cfi_endproc
 900              	.LFE135:
 902              		.align	1
 903              		.global	ADC_AnalogWatchdog3SingleChannelConfig
 904              		.thumb
 905              		.thumb_func
 907              	ADC_AnalogWatchdog3SingleChannelConfig:
 908              	.LFB136:
 863:/home/user/Desktop/STM32-Projekte/FH-Vertibot/src/STM32F30x_StdPeriph_Driver/src/stm32f30x_adc.c **** }
 864:/home/user/Desktop/STM32-Projekte/FH-Vertibot/src/STM32F30x_StdPeriph_Driver/src/stm32f30x_adc.c **** 
 865:/home/user/Desktop/STM32-Projekte/FH-Vertibot/src/STM32F30x_StdPeriph_Driver/src/stm32f30x_adc.c **** /**
 866:/home/user/Desktop/STM32-Projekte/FH-Vertibot/src/STM32F30x_StdPeriph_Driver/src/stm32f30x_adc.c ****   * @brief  Configures the analog watchdog 3 guarded single channel
 867:/home/user/Desktop/STM32-Projekte/FH-Vertibot/src/STM32F30x_StdPeriph_Driver/src/stm32f30x_adc.c ****   * @param  ADCx: where x can be 1, 2, 3 or 4 to select the ADC peripheral.
 868:/home/user/Desktop/STM32-Projekte/FH-Vertibot/src/STM32F30x_StdPeriph_Driver/src/stm32f30x_adc.c ****   * @param  ADC_Channel: the ADC channel to configure for the analog watchdog. 
 869:/home/user/Desktop/STM32-Projekte/FH-Vertibot/src/STM32F30x_StdPeriph_Driver/src/stm32f30x_adc.c ****   *   This parameter can be one of the following values:
 870:/home/user/Desktop/STM32-Projekte/FH-Vertibot/src/STM32F30x_StdPeriph_Driver/src/stm32f30x_adc.c ****   *     @arg ADC_Channel_1: ADC Channel1 selected
 871:/home/user/Desktop/STM32-Projekte/FH-Vertibot/src/STM32F30x_StdPeriph_Driver/src/stm32f30x_adc.c ****   *     @arg ADC_Channel_2: ADC Channel2 selected
 872:/home/user/Desktop/STM32-Projekte/FH-Vertibot/src/STM32F30x_StdPeriph_Driver/src/stm32f30x_adc.c ****   *     @arg ADC_Channel_3: ADC Channel3 selected
 873:/home/user/Desktop/STM32-Projekte/FH-Vertibot/src/STM32F30x_StdPeriph_Driver/src/stm32f30x_adc.c ****   *     @arg ADC_Channel_4: ADC Channel4 selected
 874:/home/user/Desktop/STM32-Projekte/FH-Vertibot/src/STM32F30x_StdPeriph_Driver/src/stm32f30x_adc.c ****   *     @arg ADC_Channel_5: ADC Channel5 selected
 875:/home/user/Desktop/STM32-Projekte/FH-Vertibot/src/STM32F30x_StdPeriph_Driver/src/stm32f30x_adc.c ****   *     @arg ADC_Channel_6: ADC Channel6 selected
 876:/home/user/Desktop/STM32-Projekte/FH-Vertibot/src/STM32F30x_StdPeriph_Driver/src/stm32f30x_adc.c ****   *     @arg ADC_Channel_7: ADC Channel7 selected
 877:/home/user/Desktop/STM32-Projekte/FH-Vertibot/src/STM32F30x_StdPeriph_Driver/src/stm32f30x_adc.c ****   *     @arg ADC_Channel_8: ADC Channel8 selected
 878:/home/user/Desktop/STM32-Projekte/FH-Vertibot/src/STM32F30x_StdPeriph_Driver/src/stm32f30x_adc.c ****   *     @arg ADC_Channel_9: ADC Channel9 selected
 879:/home/user/Desktop/STM32-Projekte/FH-Vertibot/src/STM32F30x_StdPeriph_Driver/src/stm32f30x_adc.c ****   *     @arg ADC_Channel_10: ADC Channel10 selected
 880:/home/user/Desktop/STM32-Projekte/FH-Vertibot/src/STM32F30x_StdPeriph_Driver/src/stm32f30x_adc.c ****   *     @arg ADC_Channel_11: ADC Channel11 selected
 881:/home/user/Desktop/STM32-Projekte/FH-Vertibot/src/STM32F30x_StdPeriph_Driver/src/stm32f30x_adc.c ****   *     @arg ADC_Channel_12: ADC Channel12 selected
 882:/home/user/Desktop/STM32-Projekte/FH-Vertibot/src/STM32F30x_StdPeriph_Driver/src/stm32f30x_adc.c ****   *     @arg ADC_Channel_13: ADC Channel13 selected
 883:/home/user/Desktop/STM32-Projekte/FH-Vertibot/src/STM32F30x_StdPeriph_Driver/src/stm32f30x_adc.c ****   *     @arg ADC_Channel_14: ADC Channel14 selected
 884:/home/user/Desktop/STM32-Projekte/FH-Vertibot/src/STM32F30x_StdPeriph_Driver/src/stm32f30x_adc.c ****   *     @arg ADC_Channel_15: ADC Channel15 selected
 885:/home/user/Desktop/STM32-Projekte/FH-Vertibot/src/STM32F30x_StdPeriph_Driver/src/stm32f30x_adc.c ****   *     @arg ADC_Channel_16: ADC Channel16 selected
 886:/home/user/Desktop/STM32-Projekte/FH-Vertibot/src/STM32F30x_StdPeriph_Driver/src/stm32f30x_adc.c ****   *     @arg ADC_Channel_17: ADC Channel17 selected
 887:/home/user/Desktop/STM32-Projekte/FH-Vertibot/src/STM32F30x_StdPeriph_Driver/src/stm32f30x_adc.c ****   *     @arg ADC_Channel_18: ADC Channel18 selected
 888:/home/user/Desktop/STM32-Projekte/FH-Vertibot/src/STM32F30x_StdPeriph_Driver/src/stm32f30x_adc.c ****   * @retval None
 889:/home/user/Desktop/STM32-Projekte/FH-Vertibot/src/STM32F30x_StdPeriph_Driver/src/stm32f30x_adc.c ****   */
 890:/home/user/Desktop/STM32-Projekte/FH-Vertibot/src/STM32F30x_StdPeriph_Driver/src/stm32f30x_adc.c **** void ADC_AnalogWatchdog3SingleChannelConfig(ADC_TypeDef* ADCx, uint8_t ADC_Channel)
 891:/home/user/Desktop/STM32-Projekte/FH-Vertibot/src/STM32F30x_StdPeriph_Driver/src/stm32f30x_adc.c **** {
 909              		.loc 1 891 0
 910              		.cfi_startproc
 911              		@ args = 0, pretend = 0, frame = 0
 912              		@ frame_needed = 0, uses_anonymous_args = 0
 913              		@ link register save eliminated.
 914              	.LVL67:
 892:/home/user/Desktop/STM32-Projekte/FH-Vertibot/src/STM32F30x_StdPeriph_Driver/src/stm32f30x_adc.c ****   uint32_t tmpreg = 0;
 893:/home/user/Desktop/STM32-Projekte/FH-Vertibot/src/STM32F30x_StdPeriph_Driver/src/stm32f30x_adc.c ****   /* Check the parameters */
 894:/home/user/Desktop/STM32-Projekte/FH-Vertibot/src/STM32F30x_StdPeriph_Driver/src/stm32f30x_adc.c ****   assert_param(IS_ADC_ALL_PERIPH(ADCx));
 895:/home/user/Desktop/STM32-Projekte/FH-Vertibot/src/STM32F30x_StdPeriph_Driver/src/stm32f30x_adc.c ****   assert_param(IS_ADC_CHANNEL(ADC_Channel));
 896:/home/user/Desktop/STM32-Projekte/FH-Vertibot/src/STM32F30x_StdPeriph_Driver/src/stm32f30x_adc.c ****   /* Get the old register value */
 897:/home/user/Desktop/STM32-Projekte/FH-Vertibot/src/STM32F30x_StdPeriph_Driver/src/stm32f30x_adc.c ****   tmpreg = ADCx->AWD3CR;
 915              		.loc 1 897 0
 916 0298 D0F8A420 		ldr	r2, [r0, #164]
 917              	.LVL68:
 898:/home/user/Desktop/STM32-Projekte/FH-Vertibot/src/STM32F30x_StdPeriph_Driver/src/stm32f30x_adc.c ****   /* Clear the Analog watchdog channel select bits */
 899:/home/user/Desktop/STM32-Projekte/FH-Vertibot/src/STM32F30x_StdPeriph_Driver/src/stm32f30x_adc.c ****   tmpreg &= ~(uint32_t)ADC_AWD3CR_AWD3CH;
 918              		.loc 1 899 0
 919 029c 054B     		ldr	r3, .L73
 920 029e 1340     		ands	r3, r3, r2
 921              	.LVL69:
 900:/home/user/Desktop/STM32-Projekte/FH-Vertibot/src/STM32F30x_StdPeriph_Driver/src/stm32f30x_adc.c ****   /* Set the Analog watchdog channel */
 901:/home/user/Desktop/STM32-Projekte/FH-Vertibot/src/STM32F30x_StdPeriph_Driver/src/stm32f30x_adc.c ****   tmpreg |= (uint32_t)1 << (ADC_Channel);
 902:/home/user/Desktop/STM32-Projekte/FH-Vertibot/src/STM32F30x_StdPeriph_Driver/src/stm32f30x_adc.c ****   /* Store the new register value */
 903:/home/user/Desktop/STM32-Projekte/FH-Vertibot/src/STM32F30x_StdPeriph_Driver/src/stm32f30x_adc.c ****   ADCx->AWD3CR |= tmpreg;
 922              		.loc 1 903 0
 923 02a0 D0F8A420 		ldr	r2, [r0, #164]
 901:/home/user/Desktop/STM32-Projekte/FH-Vertibot/src/STM32F30x_StdPeriph_Driver/src/stm32f30x_adc.c ****   tmpreg |= (uint32_t)1 << (ADC_Channel);
 924              		.loc 1 901 0
 925 02a4 1343     		orrs	r3, r3, r2
 926              	.LVL70:
 927 02a6 0122     		movs	r2, #1
 928 02a8 02FA01F1 		lsl	r1, r2, r1
 929              	.LVL71:
 930              		.loc 1 903 0
 931 02ac 0B43     		orrs	r3, r3, r1
 932 02ae C0F8A430 		str	r3, [r0, #164]
 933 02b2 7047     		bx	lr
 934              	.L74:
 935              		.align	2
 936              	.L73:
 937 02b4 0100F8FF 		.word	-524287
 938              		.cfi_endproc
 939              	.LFE136:
 941              		.align	1
 942              		.global	ADC_TempSensorCmd
 943              		.thumb
 944              		.thumb_func
 946              	ADC_TempSensorCmd:
 947              	.LFB137:
 904:/home/user/Desktop/STM32-Projekte/FH-Vertibot/src/STM32F30x_StdPeriph_Driver/src/stm32f30x_adc.c **** }
 905:/home/user/Desktop/STM32-Projekte/FH-Vertibot/src/STM32F30x_StdPeriph_Driver/src/stm32f30x_adc.c **** 
 906:/home/user/Desktop/STM32-Projekte/FH-Vertibot/src/STM32F30x_StdPeriph_Driver/src/stm32f30x_adc.c **** /**
 907:/home/user/Desktop/STM32-Projekte/FH-Vertibot/src/STM32F30x_StdPeriph_Driver/src/stm32f30x_adc.c ****   * @}
 908:/home/user/Desktop/STM32-Projekte/FH-Vertibot/src/STM32F30x_StdPeriph_Driver/src/stm32f30x_adc.c ****   */
 909:/home/user/Desktop/STM32-Projekte/FH-Vertibot/src/STM32F30x_StdPeriph_Driver/src/stm32f30x_adc.c **** 
 910:/home/user/Desktop/STM32-Projekte/FH-Vertibot/src/STM32F30x_StdPeriph_Driver/src/stm32f30x_adc.c **** /** @defgroup ADC_Group3 Temperature Sensor - Vrefint (Internal Reference Voltage) and VBAT managem
 911:/home/user/Desktop/STM32-Projekte/FH-Vertibot/src/STM32F30x_StdPeriph_Driver/src/stm32f30x_adc.c ****  *  @brief   Vbat, Temperature Sensor & Vrefint (Internal Reference Voltage) management function 
 912:/home/user/Desktop/STM32-Projekte/FH-Vertibot/src/STM32F30x_StdPeriph_Driver/src/stm32f30x_adc.c ****  *
 913:/home/user/Desktop/STM32-Projekte/FH-Vertibot/src/STM32F30x_StdPeriph_Driver/src/stm32f30x_adc.c **** @verbatim   
 914:/home/user/Desktop/STM32-Projekte/FH-Vertibot/src/STM32F30x_StdPeriph_Driver/src/stm32f30x_adc.c ****  ==================================================================================================
 915:/home/user/Desktop/STM32-Projekte/FH-Vertibot/src/STM32F30x_StdPeriph_Driver/src/stm32f30x_adc.c ****   ##### Temperature Sensor - Vrefint (Internal Reference Voltage) and VBAT management functions ###
 916:/home/user/Desktop/STM32-Projekte/FH-Vertibot/src/STM32F30x_StdPeriph_Driver/src/stm32f30x_adc.c ****  ==================================================================================================
 917:/home/user/Desktop/STM32-Projekte/FH-Vertibot/src/STM32F30x_StdPeriph_Driver/src/stm32f30x_adc.c **** 
 918:/home/user/Desktop/STM32-Projekte/FH-Vertibot/src/STM32F30x_StdPeriph_Driver/src/stm32f30x_adc.c ****   [..] This section provides a function allowing to enable/ disable the internal 
 919:/home/user/Desktop/STM32-Projekte/FH-Vertibot/src/STM32F30x_StdPeriph_Driver/src/stm32f30x_adc.c ****   connections between the ADC and the Vbat/2, Temperature Sensor and the Vrefint source.
 920:/home/user/Desktop/STM32-Projekte/FH-Vertibot/src/STM32F30x_StdPeriph_Driver/src/stm32f30x_adc.c **** 
 921:/home/user/Desktop/STM32-Projekte/FH-Vertibot/src/STM32F30x_StdPeriph_Driver/src/stm32f30x_adc.c ****   [..] A typical configuration to get the Temperature sensor and Vrefint channels 
 922:/home/user/Desktop/STM32-Projekte/FH-Vertibot/src/STM32F30x_StdPeriph_Driver/src/stm32f30x_adc.c ****   voltages is done following these steps :
 923:/home/user/Desktop/STM32-Projekte/FH-Vertibot/src/STM32F30x_StdPeriph_Driver/src/stm32f30x_adc.c ****    (#) Enable the internal connection of Vbat/2, Temperature sensor and Vrefint sources 
 924:/home/user/Desktop/STM32-Projekte/FH-Vertibot/src/STM32F30x_StdPeriph_Driver/src/stm32f30x_adc.c ****        with the ADC channels using:
 925:/home/user/Desktop/STM32-Projekte/FH-Vertibot/src/STM32F30x_StdPeriph_Driver/src/stm32f30x_adc.c ****       (++) ADC_TempSensorCmd()  
 926:/home/user/Desktop/STM32-Projekte/FH-Vertibot/src/STM32F30x_StdPeriph_Driver/src/stm32f30x_adc.c ****       (++) ADC_VrefintCmd() 
 927:/home/user/Desktop/STM32-Projekte/FH-Vertibot/src/STM32F30x_StdPeriph_Driver/src/stm32f30x_adc.c ****       (++) ADC_VbatCmd()  
 928:/home/user/Desktop/STM32-Projekte/FH-Vertibot/src/STM32F30x_StdPeriph_Driver/src/stm32f30x_adc.c **** 
 929:/home/user/Desktop/STM32-Projekte/FH-Vertibot/src/STM32F30x_StdPeriph_Driver/src/stm32f30x_adc.c ****    (#) select the ADC_Channel_TempSensor and/or ADC_Channel_Vrefint and/or ADC_Channel_Vbat using 
 930:/home/user/Desktop/STM32-Projekte/FH-Vertibot/src/STM32F30x_StdPeriph_Driver/src/stm32f30x_adc.c ****       (++) ADC_RegularChannelConfig() or  
 931:/home/user/Desktop/STM32-Projekte/FH-Vertibot/src/STM32F30x_StdPeriph_Driver/src/stm32f30x_adc.c ****       (++) ADC_InjectedInit() functions 
 932:/home/user/Desktop/STM32-Projekte/FH-Vertibot/src/STM32F30x_StdPeriph_Driver/src/stm32f30x_adc.c **** 
 933:/home/user/Desktop/STM32-Projekte/FH-Vertibot/src/STM32F30x_StdPeriph_Driver/src/stm32f30x_adc.c ****    (#) Get the voltage values, using:
 934:/home/user/Desktop/STM32-Projekte/FH-Vertibot/src/STM32F30x_StdPeriph_Driver/src/stm32f30x_adc.c ****       (++) ADC_GetConversionValue() or  
 935:/home/user/Desktop/STM32-Projekte/FH-Vertibot/src/STM32F30x_StdPeriph_Driver/src/stm32f30x_adc.c ****       (++) ADC_GetInjectedConversionValue().
 936:/home/user/Desktop/STM32-Projekte/FH-Vertibot/src/STM32F30x_StdPeriph_Driver/src/stm32f30x_adc.c ****  
 937:/home/user/Desktop/STM32-Projekte/FH-Vertibot/src/STM32F30x_StdPeriph_Driver/src/stm32f30x_adc.c **** @endverbatim
 938:/home/user/Desktop/STM32-Projekte/FH-Vertibot/src/STM32F30x_StdPeriph_Driver/src/stm32f30x_adc.c ****   * @{
 939:/home/user/Desktop/STM32-Projekte/FH-Vertibot/src/STM32F30x_StdPeriph_Driver/src/stm32f30x_adc.c ****   */
 940:/home/user/Desktop/STM32-Projekte/FH-Vertibot/src/STM32F30x_StdPeriph_Driver/src/stm32f30x_adc.c **** 
 941:/home/user/Desktop/STM32-Projekte/FH-Vertibot/src/STM32F30x_StdPeriph_Driver/src/stm32f30x_adc.c **** /**
 942:/home/user/Desktop/STM32-Projekte/FH-Vertibot/src/STM32F30x_StdPeriph_Driver/src/stm32f30x_adc.c ****   * @brief  Enables or disables the temperature sensor channel.
 943:/home/user/Desktop/STM32-Projekte/FH-Vertibot/src/STM32F30x_StdPeriph_Driver/src/stm32f30x_adc.c ****   * @param  ADCx: where x can be 1 or 4 to select the ADC peripheral.
 944:/home/user/Desktop/STM32-Projekte/FH-Vertibot/src/STM32F30x_StdPeriph_Driver/src/stm32f30x_adc.c ****   * @param  NewState: new state of the temperature sensor.
 945:/home/user/Desktop/STM32-Projekte/FH-Vertibot/src/STM32F30x_StdPeriph_Driver/src/stm32f30x_adc.c ****   *   This parameter can be: ENABLE or DISABLE.
 946:/home/user/Desktop/STM32-Projekte/FH-Vertibot/src/STM32F30x_StdPeriph_Driver/src/stm32f30x_adc.c ****   * @retval None
 947:/home/user/Desktop/STM32-Projekte/FH-Vertibot/src/STM32F30x_StdPeriph_Driver/src/stm32f30x_adc.c ****   */
 948:/home/user/Desktop/STM32-Projekte/FH-Vertibot/src/STM32F30x_StdPeriph_Driver/src/stm32f30x_adc.c **** void ADC_TempSensorCmd(ADC_TypeDef* ADCx, FunctionalState NewState)
 949:/home/user/Desktop/STM32-Projekte/FH-Vertibot/src/STM32F30x_StdPeriph_Driver/src/stm32f30x_adc.c **** {
 948              		.loc 1 949 0
 949              		.cfi_startproc
 950              		@ args = 0, pretend = 0, frame = 0
 951              		@ frame_needed = 0, uses_anonymous_args = 0
 952              		@ link register save eliminated.
 953              	.LVL72:
 950:/home/user/Desktop/STM32-Projekte/FH-Vertibot/src/STM32F30x_StdPeriph_Driver/src/stm32f30x_adc.c ****   /* Check the parameters */
 951:/home/user/Desktop/STM32-Projekte/FH-Vertibot/src/STM32F30x_StdPeriph_Driver/src/stm32f30x_adc.c ****   assert_param(IS_ADC_ALL_PERIPH(ADCx));
 952:/home/user/Desktop/STM32-Projekte/FH-Vertibot/src/STM32F30x_StdPeriph_Driver/src/stm32f30x_adc.c ****   assert_param(IS_FUNCTIONAL_STATE(NewState));
 953:/home/user/Desktop/STM32-Projekte/FH-Vertibot/src/STM32F30x_StdPeriph_Driver/src/stm32f30x_adc.c **** 
 954:/home/user/Desktop/STM32-Projekte/FH-Vertibot/src/STM32F30x_StdPeriph_Driver/src/stm32f30x_adc.c ****   if((ADCx == ADC1) || (ADCx == ADC2))
 954              		.loc 1 954 0
 955 02b8 B0F1A04F 		cmp	r0, #1342177280
 956 02bc 02D0     		beq	.L76
 957              		.loc 1 954 0 is_stmt 0 discriminator 1
 958 02be 074B     		ldr	r3, .L88
 959 02c0 9842     		cmp	r0, r3
 960 02c2 01D1     		bne	.L77
 961              	.L76:
 962 02c4 064B     		ldr	r3, .L88+4
 963 02c6 00E0     		b	.L87
 964              	.L77:
 965 02c8 064B     		ldr	r3, .L88+8
 966              	.L87:
 955:/home/user/Desktop/STM32-Projekte/FH-Vertibot/src/STM32F30x_StdPeriph_Driver/src/stm32f30x_adc.c ****   {
 956:/home/user/Desktop/STM32-Projekte/FH-Vertibot/src/STM32F30x_StdPeriph_Driver/src/stm32f30x_adc.c ****     if (NewState != DISABLE)
 957:/home/user/Desktop/STM32-Projekte/FH-Vertibot/src/STM32F30x_StdPeriph_Driver/src/stm32f30x_adc.c ****     {
 958:/home/user/Desktop/STM32-Projekte/FH-Vertibot/src/STM32F30x_StdPeriph_Driver/src/stm32f30x_adc.c ****       /* Enable the temperature sensor channel*/
 959:/home/user/Desktop/STM32-Projekte/FH-Vertibot/src/STM32F30x_StdPeriph_Driver/src/stm32f30x_adc.c ****       ADC1_2->CCR |= ADC12_CCR_TSEN;
 960:/home/user/Desktop/STM32-Projekte/FH-Vertibot/src/STM32F30x_StdPeriph_Driver/src/stm32f30x_adc.c ****     }
 961:/home/user/Desktop/STM32-Projekte/FH-Vertibot/src/STM32F30x_StdPeriph_Driver/src/stm32f30x_adc.c ****     else
 962:/home/user/Desktop/STM32-Projekte/FH-Vertibot/src/STM32F30x_StdPeriph_Driver/src/stm32f30x_adc.c ****     {
 963:/home/user/Desktop/STM32-Projekte/FH-Vertibot/src/STM32F30x_StdPeriph_Driver/src/stm32f30x_adc.c ****       /* Disable the temperature sensor channel*/
 964:/home/user/Desktop/STM32-Projekte/FH-Vertibot/src/STM32F30x_StdPeriph_Driver/src/stm32f30x_adc.c ****       ADC1_2->CCR &= ~(uint32_t)ADC12_CCR_TSEN;
 965:/home/user/Desktop/STM32-Projekte/FH-Vertibot/src/STM32F30x_StdPeriph_Driver/src/stm32f30x_adc.c ****     }
 966:/home/user/Desktop/STM32-Projekte/FH-Vertibot/src/STM32F30x_StdPeriph_Driver/src/stm32f30x_adc.c ****   }
 967:/home/user/Desktop/STM32-Projekte/FH-Vertibot/src/STM32F30x_StdPeriph_Driver/src/stm32f30x_adc.c ****   else
 968:/home/user/Desktop/STM32-Projekte/FH-Vertibot/src/STM32F30x_StdPeriph_Driver/src/stm32f30x_adc.c ****   {
 969:/home/user/Desktop/STM32-Projekte/FH-Vertibot/src/STM32F30x_StdPeriph_Driver/src/stm32f30x_adc.c ****     if (NewState != DISABLE)
 970:/home/user/Desktop/STM32-Projekte/FH-Vertibot/src/STM32F30x_StdPeriph_Driver/src/stm32f30x_adc.c ****     {
 971:/home/user/Desktop/STM32-Projekte/FH-Vertibot/src/STM32F30x_StdPeriph_Driver/src/stm32f30x_adc.c ****       /* Enable the temperature sensor channel*/
 972:/home/user/Desktop/STM32-Projekte/FH-Vertibot/src/STM32F30x_StdPeriph_Driver/src/stm32f30x_adc.c ****       ADC3_4->CCR |= ADC34_CCR_TSEN;
 967              		.loc 1 972 0 is_stmt 1
 968 02ca 9A68     		ldr	r2, [r3, #8]
 969:/home/user/Desktop/STM32-Projekte/FH-Vertibot/src/STM32F30x_StdPeriph_Driver/src/stm32f30x_adc.c ****     if (NewState != DISABLE)
 969              		.loc 1 969 0
 970 02cc 11B1     		cbz	r1, .L80
 971              		.loc 1 972 0
 972 02ce 42F40002 		orr	r2, r2, #8388608
 973 02d2 01E0     		b	.L84
 974              	.L80:
 973:/home/user/Desktop/STM32-Projekte/FH-Vertibot/src/STM32F30x_StdPeriph_Driver/src/stm32f30x_adc.c ****     }
 974:/home/user/Desktop/STM32-Projekte/FH-Vertibot/src/STM32F30x_StdPeriph_Driver/src/stm32f30x_adc.c ****     else
 975:/home/user/Desktop/STM32-Projekte/FH-Vertibot/src/STM32F30x_StdPeriph_Driver/src/stm32f30x_adc.c ****     {
 976:/home/user/Desktop/STM32-Projekte/FH-Vertibot/src/STM32F30x_StdPeriph_Driver/src/stm32f30x_adc.c ****       /* Disable the temperature sensor channel*/
 977:/home/user/Desktop/STM32-Projekte/FH-Vertibot/src/STM32F30x_StdPeriph_Driver/src/stm32f30x_adc.c ****       ADC3_4->CCR &= ~(uint32_t)ADC34_CCR_TSEN;
 975              		.loc 1 977 0
 976 02d4 22F40002 		bic	r2, r2, #8388608
 977              	.L84:
 978 02d8 9A60     		str	r2, [r3, #8]
 979 02da 7047     		bx	lr
 980              	.L89:
 981              		.align	2
 982              	.L88:
 983 02dc 00010050 		.word	1342177536
 984 02e0 00030050 		.word	1342178048
 985 02e4 00070050 		.word	1342179072
 986              		.cfi_endproc
 987              	.LFE137:
 989              		.align	1
 990              		.global	ADC_VrefintCmd
 991              		.thumb
 992              		.thumb_func
 994              	ADC_VrefintCmd:
 995              	.LFB138:
 978:/home/user/Desktop/STM32-Projekte/FH-Vertibot/src/STM32F30x_StdPeriph_Driver/src/stm32f30x_adc.c ****     }
 979:/home/user/Desktop/STM32-Projekte/FH-Vertibot/src/STM32F30x_StdPeriph_Driver/src/stm32f30x_adc.c ****   }
 980:/home/user/Desktop/STM32-Projekte/FH-Vertibot/src/STM32F30x_StdPeriph_Driver/src/stm32f30x_adc.c **** }
 981:/home/user/Desktop/STM32-Projekte/FH-Vertibot/src/STM32F30x_StdPeriph_Driver/src/stm32f30x_adc.c **** 
 982:/home/user/Desktop/STM32-Projekte/FH-Vertibot/src/STM32F30x_StdPeriph_Driver/src/stm32f30x_adc.c **** /**
 983:/home/user/Desktop/STM32-Projekte/FH-Vertibot/src/STM32F30x_StdPeriph_Driver/src/stm32f30x_adc.c ****   * @brief  Enables or disables the Vrefint channel.
 984:/home/user/Desktop/STM32-Projekte/FH-Vertibot/src/STM32F30x_StdPeriph_Driver/src/stm32f30x_adc.c ****   * @param  ADCx: where x can be 1 or 4 to select the ADC peripheral.
 985:/home/user/Desktop/STM32-Projekte/FH-Vertibot/src/STM32F30x_StdPeriph_Driver/src/stm32f30x_adc.c ****   * @param  NewState: new state of the Vrefint.
 986:/home/user/Desktop/STM32-Projekte/FH-Vertibot/src/STM32F30x_StdPeriph_Driver/src/stm32f30x_adc.c ****   *   This parameter can be: ENABLE or DISABLE.
 987:/home/user/Desktop/STM32-Projekte/FH-Vertibot/src/STM32F30x_StdPeriph_Driver/src/stm32f30x_adc.c ****   * @retval None
 988:/home/user/Desktop/STM32-Projekte/FH-Vertibot/src/STM32F30x_StdPeriph_Driver/src/stm32f30x_adc.c ****   */
 989:/home/user/Desktop/STM32-Projekte/FH-Vertibot/src/STM32F30x_StdPeriph_Driver/src/stm32f30x_adc.c **** void ADC_VrefintCmd(ADC_TypeDef* ADCx, FunctionalState NewState)
 990:/home/user/Desktop/STM32-Projekte/FH-Vertibot/src/STM32F30x_StdPeriph_Driver/src/stm32f30x_adc.c **** {
 996              		.loc 1 990 0
 997              		.cfi_startproc
 998              		@ args = 0, pretend = 0, frame = 0
 999              		@ frame_needed = 0, uses_anonymous_args = 0
 1000              		@ link register save eliminated.
 1001              	.LVL73:
 991:/home/user/Desktop/STM32-Projekte/FH-Vertibot/src/STM32F30x_StdPeriph_Driver/src/stm32f30x_adc.c ****   /* Check the parameters */
 992:/home/user/Desktop/STM32-Projekte/FH-Vertibot/src/STM32F30x_StdPeriph_Driver/src/stm32f30x_adc.c ****   assert_param(IS_ADC_ALL_PERIPH(ADCx));
 993:/home/user/Desktop/STM32-Projekte/FH-Vertibot/src/STM32F30x_StdPeriph_Driver/src/stm32f30x_adc.c ****   assert_param(IS_FUNCTIONAL_STATE(NewState));
 994:/home/user/Desktop/STM32-Projekte/FH-Vertibot/src/STM32F30x_StdPeriph_Driver/src/stm32f30x_adc.c **** 
 995:/home/user/Desktop/STM32-Projekte/FH-Vertibot/src/STM32F30x_StdPeriph_Driver/src/stm32f30x_adc.c ****   if((ADCx == ADC1) || (ADCx == ADC2))
 1002              		.loc 1 995 0
 1003 02e8 B0F1A04F 		cmp	r0, #1342177280
 1004 02ec 02D0     		beq	.L91
 1005              		.loc 1 995 0 is_stmt 0 discriminator 1
 1006 02ee 074B     		ldr	r3, .L103
 1007 02f0 9842     		cmp	r0, r3
 1008 02f2 01D1     		bne	.L92
 1009              	.L91:
 1010 02f4 064B     		ldr	r3, .L103+4
 1011 02f6 00E0     		b	.L102
 1012              	.L92:
 1013 02f8 064B     		ldr	r3, .L103+8
 1014              	.L102:
 996:/home/user/Desktop/STM32-Projekte/FH-Vertibot/src/STM32F30x_StdPeriph_Driver/src/stm32f30x_adc.c ****   {
 997:/home/user/Desktop/STM32-Projekte/FH-Vertibot/src/STM32F30x_StdPeriph_Driver/src/stm32f30x_adc.c ****     if (NewState != DISABLE)
 998:/home/user/Desktop/STM32-Projekte/FH-Vertibot/src/STM32F30x_StdPeriph_Driver/src/stm32f30x_adc.c ****     {
 999:/home/user/Desktop/STM32-Projekte/FH-Vertibot/src/STM32F30x_StdPeriph_Driver/src/stm32f30x_adc.c ****       /* Enable the Vrefint channel*/
1000:/home/user/Desktop/STM32-Projekte/FH-Vertibot/src/STM32F30x_StdPeriph_Driver/src/stm32f30x_adc.c ****       ADC1_2->CCR |= ADC12_CCR_VREFEN;
1001:/home/user/Desktop/STM32-Projekte/FH-Vertibot/src/STM32F30x_StdPeriph_Driver/src/stm32f30x_adc.c ****     }
1002:/home/user/Desktop/STM32-Projekte/FH-Vertibot/src/STM32F30x_StdPeriph_Driver/src/stm32f30x_adc.c ****     else
1003:/home/user/Desktop/STM32-Projekte/FH-Vertibot/src/STM32F30x_StdPeriph_Driver/src/stm32f30x_adc.c ****     {
1004:/home/user/Desktop/STM32-Projekte/FH-Vertibot/src/STM32F30x_StdPeriph_Driver/src/stm32f30x_adc.c ****       /* Disable the Vrefint channel*/
1005:/home/user/Desktop/STM32-Projekte/FH-Vertibot/src/STM32F30x_StdPeriph_Driver/src/stm32f30x_adc.c ****       ADC1_2->CCR &= ~(uint32_t)ADC12_CCR_VREFEN;
1006:/home/user/Desktop/STM32-Projekte/FH-Vertibot/src/STM32F30x_StdPeriph_Driver/src/stm32f30x_adc.c ****     }
1007:/home/user/Desktop/STM32-Projekte/FH-Vertibot/src/STM32F30x_StdPeriph_Driver/src/stm32f30x_adc.c ****   }
1008:/home/user/Desktop/STM32-Projekte/FH-Vertibot/src/STM32F30x_StdPeriph_Driver/src/stm32f30x_adc.c ****   else
1009:/home/user/Desktop/STM32-Projekte/FH-Vertibot/src/STM32F30x_StdPeriph_Driver/src/stm32f30x_adc.c ****   {
1010:/home/user/Desktop/STM32-Projekte/FH-Vertibot/src/STM32F30x_StdPeriph_Driver/src/stm32f30x_adc.c ****     if (NewState != DISABLE)
1011:/home/user/Desktop/STM32-Projekte/FH-Vertibot/src/STM32F30x_StdPeriph_Driver/src/stm32f30x_adc.c ****     {
1012:/home/user/Desktop/STM32-Projekte/FH-Vertibot/src/STM32F30x_StdPeriph_Driver/src/stm32f30x_adc.c ****       /* Enable the Vrefint channel*/
1013:/home/user/Desktop/STM32-Projekte/FH-Vertibot/src/STM32F30x_StdPeriph_Driver/src/stm32f30x_adc.c ****       ADC3_4->CCR |= ADC34_CCR_VREFEN;
 1015              		.loc 1 1013 0 is_stmt 1
 1016 02fa 9A68     		ldr	r2, [r3, #8]
1010:/home/user/Desktop/STM32-Projekte/FH-Vertibot/src/STM32F30x_StdPeriph_Driver/src/stm32f30x_adc.c ****     if (NewState != DISABLE)
 1017              		.loc 1 1010 0
 1018 02fc 11B1     		cbz	r1, .L95
 1019              		.loc 1 1013 0
 1020 02fe 42F48002 		orr	r2, r2, #4194304
 1021 0302 01E0     		b	.L99
 1022              	.L95:
1014:/home/user/Desktop/STM32-Projekte/FH-Vertibot/src/STM32F30x_StdPeriph_Driver/src/stm32f30x_adc.c ****     }
1015:/home/user/Desktop/STM32-Projekte/FH-Vertibot/src/STM32F30x_StdPeriph_Driver/src/stm32f30x_adc.c ****     else
1016:/home/user/Desktop/STM32-Projekte/FH-Vertibot/src/STM32F30x_StdPeriph_Driver/src/stm32f30x_adc.c ****     {
1017:/home/user/Desktop/STM32-Projekte/FH-Vertibot/src/STM32F30x_StdPeriph_Driver/src/stm32f30x_adc.c ****       /* Disable the Vrefint channel*/
1018:/home/user/Desktop/STM32-Projekte/FH-Vertibot/src/STM32F30x_StdPeriph_Driver/src/stm32f30x_adc.c ****       ADC3_4->CCR &= ~(uint32_t)ADC34_CCR_VREFEN;
 1023              		.loc 1 1018 0
 1024 0304 22F48002 		bic	r2, r2, #4194304
 1025              	.L99:
 1026 0308 9A60     		str	r2, [r3, #8]
 1027 030a 7047     		bx	lr
 1028              	.L104:
 1029              		.align	2
 1030              	.L103:
 1031 030c 00010050 		.word	1342177536
 1032 0310 00030050 		.word	1342178048
 1033 0314 00070050 		.word	1342179072
 1034              		.cfi_endproc
 1035              	.LFE138:
 1037              		.align	1
 1038              		.global	ADC_VbatCmd
 1039              		.thumb
 1040              		.thumb_func
 1042              	ADC_VbatCmd:
 1043              	.LFB139:
1019:/home/user/Desktop/STM32-Projekte/FH-Vertibot/src/STM32F30x_StdPeriph_Driver/src/stm32f30x_adc.c ****     }
1020:/home/user/Desktop/STM32-Projekte/FH-Vertibot/src/STM32F30x_StdPeriph_Driver/src/stm32f30x_adc.c ****   }
1021:/home/user/Desktop/STM32-Projekte/FH-Vertibot/src/STM32F30x_StdPeriph_Driver/src/stm32f30x_adc.c **** }
1022:/home/user/Desktop/STM32-Projekte/FH-Vertibot/src/STM32F30x_StdPeriph_Driver/src/stm32f30x_adc.c **** 
1023:/home/user/Desktop/STM32-Projekte/FH-Vertibot/src/STM32F30x_StdPeriph_Driver/src/stm32f30x_adc.c **** /**
1024:/home/user/Desktop/STM32-Projekte/FH-Vertibot/src/STM32F30x_StdPeriph_Driver/src/stm32f30x_adc.c ****   * @brief  Enables or disables the Vbat channel.
1025:/home/user/Desktop/STM32-Projekte/FH-Vertibot/src/STM32F30x_StdPeriph_Driver/src/stm32f30x_adc.c ****   * @param  ADCx: where x can be 1 or 4 to select the ADC peripheral.
1026:/home/user/Desktop/STM32-Projekte/FH-Vertibot/src/STM32F30x_StdPeriph_Driver/src/stm32f30x_adc.c ****   * @param  NewState: new state of the Vbat.
1027:/home/user/Desktop/STM32-Projekte/FH-Vertibot/src/STM32F30x_StdPeriph_Driver/src/stm32f30x_adc.c ****   *   This parameter can be: ENABLE or DISABLE.
1028:/home/user/Desktop/STM32-Projekte/FH-Vertibot/src/STM32F30x_StdPeriph_Driver/src/stm32f30x_adc.c ****   * @retval None
1029:/home/user/Desktop/STM32-Projekte/FH-Vertibot/src/STM32F30x_StdPeriph_Driver/src/stm32f30x_adc.c ****   */
1030:/home/user/Desktop/STM32-Projekte/FH-Vertibot/src/STM32F30x_StdPeriph_Driver/src/stm32f30x_adc.c **** void ADC_VbatCmd(ADC_TypeDef* ADCx, FunctionalState NewState)
1031:/home/user/Desktop/STM32-Projekte/FH-Vertibot/src/STM32F30x_StdPeriph_Driver/src/stm32f30x_adc.c **** {
 1044              		.loc 1 1031 0
 1045              		.cfi_startproc
 1046              		@ args = 0, pretend = 0, frame = 0
 1047              		@ frame_needed = 0, uses_anonymous_args = 0
 1048              		@ link register save eliminated.
 1049              	.LVL74:
1032:/home/user/Desktop/STM32-Projekte/FH-Vertibot/src/STM32F30x_StdPeriph_Driver/src/stm32f30x_adc.c ****   /* Check the parameters */
1033:/home/user/Desktop/STM32-Projekte/FH-Vertibot/src/STM32F30x_StdPeriph_Driver/src/stm32f30x_adc.c ****   assert_param(IS_ADC_ALL_PERIPH(ADCx));
1034:/home/user/Desktop/STM32-Projekte/FH-Vertibot/src/STM32F30x_StdPeriph_Driver/src/stm32f30x_adc.c ****   assert_param(IS_FUNCTIONAL_STATE(NewState));
1035:/home/user/Desktop/STM32-Projekte/FH-Vertibot/src/STM32F30x_StdPeriph_Driver/src/stm32f30x_adc.c **** 
1036:/home/user/Desktop/STM32-Projekte/FH-Vertibot/src/STM32F30x_StdPeriph_Driver/src/stm32f30x_adc.c ****   if((ADCx == ADC1) || (ADCx == ADC2))
 1050              		.loc 1 1036 0
 1051 0318 B0F1A04F 		cmp	r0, #1342177280
 1052 031c 02D0     		beq	.L106
 1053              		.loc 1 1036 0 is_stmt 0 discriminator 1
 1054 031e 074B     		ldr	r3, .L118
 1055 0320 9842     		cmp	r0, r3
 1056 0322 01D1     		bne	.L107
 1057              	.L106:
 1058 0324 064B     		ldr	r3, .L118+4
 1059 0326 00E0     		b	.L117
 1060              	.L107:
 1061 0328 064B     		ldr	r3, .L118+8
 1062              	.L117:
1037:/home/user/Desktop/STM32-Projekte/FH-Vertibot/src/STM32F30x_StdPeriph_Driver/src/stm32f30x_adc.c ****   {
1038:/home/user/Desktop/STM32-Projekte/FH-Vertibot/src/STM32F30x_StdPeriph_Driver/src/stm32f30x_adc.c ****     if (NewState != DISABLE)
1039:/home/user/Desktop/STM32-Projekte/FH-Vertibot/src/STM32F30x_StdPeriph_Driver/src/stm32f30x_adc.c ****     {
1040:/home/user/Desktop/STM32-Projekte/FH-Vertibot/src/STM32F30x_StdPeriph_Driver/src/stm32f30x_adc.c ****       /* Enable the Vbat channel*/
1041:/home/user/Desktop/STM32-Projekte/FH-Vertibot/src/STM32F30x_StdPeriph_Driver/src/stm32f30x_adc.c ****       ADC1_2->CCR |= ADC12_CCR_VBATEN;
1042:/home/user/Desktop/STM32-Projekte/FH-Vertibot/src/STM32F30x_StdPeriph_Driver/src/stm32f30x_adc.c ****     }
1043:/home/user/Desktop/STM32-Projekte/FH-Vertibot/src/STM32F30x_StdPeriph_Driver/src/stm32f30x_adc.c ****     else
1044:/home/user/Desktop/STM32-Projekte/FH-Vertibot/src/STM32F30x_StdPeriph_Driver/src/stm32f30x_adc.c ****     {
1045:/home/user/Desktop/STM32-Projekte/FH-Vertibot/src/STM32F30x_StdPeriph_Driver/src/stm32f30x_adc.c ****       /* Disable the Vbat channel*/
1046:/home/user/Desktop/STM32-Projekte/FH-Vertibot/src/STM32F30x_StdPeriph_Driver/src/stm32f30x_adc.c ****       ADC1_2->CCR &= ~(uint32_t)ADC12_CCR_VBATEN;
1047:/home/user/Desktop/STM32-Projekte/FH-Vertibot/src/STM32F30x_StdPeriph_Driver/src/stm32f30x_adc.c ****     }
1048:/home/user/Desktop/STM32-Projekte/FH-Vertibot/src/STM32F30x_StdPeriph_Driver/src/stm32f30x_adc.c ****   }
1049:/home/user/Desktop/STM32-Projekte/FH-Vertibot/src/STM32F30x_StdPeriph_Driver/src/stm32f30x_adc.c ****   else
1050:/home/user/Desktop/STM32-Projekte/FH-Vertibot/src/STM32F30x_StdPeriph_Driver/src/stm32f30x_adc.c ****   {
1051:/home/user/Desktop/STM32-Projekte/FH-Vertibot/src/STM32F30x_StdPeriph_Driver/src/stm32f30x_adc.c ****     if (NewState != DISABLE)
1052:/home/user/Desktop/STM32-Projekte/FH-Vertibot/src/STM32F30x_StdPeriph_Driver/src/stm32f30x_adc.c ****     {
1053:/home/user/Desktop/STM32-Projekte/FH-Vertibot/src/STM32F30x_StdPeriph_Driver/src/stm32f30x_adc.c ****       /* Enable the Vbat channel*/
1054:/home/user/Desktop/STM32-Projekte/FH-Vertibot/src/STM32F30x_StdPeriph_Driver/src/stm32f30x_adc.c ****       ADC3_4->CCR |= ADC34_CCR_VBATEN;
 1063              		.loc 1 1054 0 is_stmt 1
 1064 032a 9A68     		ldr	r2, [r3, #8]
1051:/home/user/Desktop/STM32-Projekte/FH-Vertibot/src/STM32F30x_StdPeriph_Driver/src/stm32f30x_adc.c ****     if (NewState != DISABLE)
 1065              		.loc 1 1051 0
 1066 032c 11B1     		cbz	r1, .L110
 1067              		.loc 1 1054 0
 1068 032e 42F08072 		orr	r2, r2, #16777216
 1069 0332 01E0     		b	.L114
 1070              	.L110:
1055:/home/user/Desktop/STM32-Projekte/FH-Vertibot/src/STM32F30x_StdPeriph_Driver/src/stm32f30x_adc.c ****     }
1056:/home/user/Desktop/STM32-Projekte/FH-Vertibot/src/STM32F30x_StdPeriph_Driver/src/stm32f30x_adc.c ****     else
1057:/home/user/Desktop/STM32-Projekte/FH-Vertibot/src/STM32F30x_StdPeriph_Driver/src/stm32f30x_adc.c ****     {
1058:/home/user/Desktop/STM32-Projekte/FH-Vertibot/src/STM32F30x_StdPeriph_Driver/src/stm32f30x_adc.c ****       /* Disable the Vbat channel*/
1059:/home/user/Desktop/STM32-Projekte/FH-Vertibot/src/STM32F30x_StdPeriph_Driver/src/stm32f30x_adc.c ****       ADC3_4->CCR &= ~(uint32_t)ADC34_CCR_VBATEN;
 1071              		.loc 1 1059 0
 1072 0334 22F08072 		bic	r2, r2, #16777216
 1073              	.L114:
 1074 0338 9A60     		str	r2, [r3, #8]
 1075 033a 7047     		bx	lr
 1076              	.L119:
 1077              		.align	2
 1078              	.L118:
 1079 033c 00010050 		.word	1342177536
 1080 0340 00030050 		.word	1342178048
 1081 0344 00070050 		.word	1342179072
 1082              		.cfi_endproc
 1083              	.LFE139:
 1085              		.align	1
 1086              		.global	ADC_RegularChannelConfig
 1087              		.thumb
 1088              		.thumb_func
 1090              	ADC_RegularChannelConfig:
 1091              	.LFB140:
1060:/home/user/Desktop/STM32-Projekte/FH-Vertibot/src/STM32F30x_StdPeriph_Driver/src/stm32f30x_adc.c ****     }
1061:/home/user/Desktop/STM32-Projekte/FH-Vertibot/src/STM32F30x_StdPeriph_Driver/src/stm32f30x_adc.c ****   }
1062:/home/user/Desktop/STM32-Projekte/FH-Vertibot/src/STM32F30x_StdPeriph_Driver/src/stm32f30x_adc.c **** }
1063:/home/user/Desktop/STM32-Projekte/FH-Vertibot/src/STM32F30x_StdPeriph_Driver/src/stm32f30x_adc.c **** 
1064:/home/user/Desktop/STM32-Projekte/FH-Vertibot/src/STM32F30x_StdPeriph_Driver/src/stm32f30x_adc.c **** /**
1065:/home/user/Desktop/STM32-Projekte/FH-Vertibot/src/STM32F30x_StdPeriph_Driver/src/stm32f30x_adc.c ****   * @}
1066:/home/user/Desktop/STM32-Projekte/FH-Vertibot/src/STM32F30x_StdPeriph_Driver/src/stm32f30x_adc.c ****   */
1067:/home/user/Desktop/STM32-Projekte/FH-Vertibot/src/STM32F30x_StdPeriph_Driver/src/stm32f30x_adc.c **** 
1068:/home/user/Desktop/STM32-Projekte/FH-Vertibot/src/STM32F30x_StdPeriph_Driver/src/stm32f30x_adc.c **** /** @defgroup ADC_Group4 Regular Channels Configuration functions
1069:/home/user/Desktop/STM32-Projekte/FH-Vertibot/src/STM32F30x_StdPeriph_Driver/src/stm32f30x_adc.c ****  *  @brief   Regular Channels Configuration functions 
1070:/home/user/Desktop/STM32-Projekte/FH-Vertibot/src/STM32F30x_StdPeriph_Driver/src/stm32f30x_adc.c ****  *
1071:/home/user/Desktop/STM32-Projekte/FH-Vertibot/src/STM32F30x_StdPeriph_Driver/src/stm32f30x_adc.c **** @verbatim   
1072:/home/user/Desktop/STM32-Projekte/FH-Vertibot/src/STM32F30x_StdPeriph_Driver/src/stm32f30x_adc.c ****  ===============================================================================
1073:/home/user/Desktop/STM32-Projekte/FH-Vertibot/src/STM32F30x_StdPeriph_Driver/src/stm32f30x_adc.c ****                   ##### Channels Configuration functions #####
1074:/home/user/Desktop/STM32-Projekte/FH-Vertibot/src/STM32F30x_StdPeriph_Driver/src/stm32f30x_adc.c ****  ===============================================================================  
1075:/home/user/Desktop/STM32-Projekte/FH-Vertibot/src/STM32F30x_StdPeriph_Driver/src/stm32f30x_adc.c **** 
1076:/home/user/Desktop/STM32-Projekte/FH-Vertibot/src/STM32F30x_StdPeriph_Driver/src/stm32f30x_adc.c ****   [..] This section provides functions allowing to manage the ADC regular channels.
1077:/home/user/Desktop/STM32-Projekte/FH-Vertibot/src/STM32F30x_StdPeriph_Driver/src/stm32f30x_adc.c ****    
1078:/home/user/Desktop/STM32-Projekte/FH-Vertibot/src/STM32F30x_StdPeriph_Driver/src/stm32f30x_adc.c ****   [..] To configure a regular sequence of channels use:
1079:/home/user/Desktop/STM32-Projekte/FH-Vertibot/src/STM32F30x_StdPeriph_Driver/src/stm32f30x_adc.c ****    (#) ADC_RegularChannelConfig()
1080:/home/user/Desktop/STM32-Projekte/FH-Vertibot/src/STM32F30x_StdPeriph_Driver/src/stm32f30x_adc.c ****        this fuction allows:
1081:/home/user/Desktop/STM32-Projekte/FH-Vertibot/src/STM32F30x_StdPeriph_Driver/src/stm32f30x_adc.c ****        (++) Configure the rank in the regular group sequencer for each channel
1082:/home/user/Desktop/STM32-Projekte/FH-Vertibot/src/STM32F30x_StdPeriph_Driver/src/stm32f30x_adc.c ****        (++) Configure the sampling time for each channel
1083:/home/user/Desktop/STM32-Projekte/FH-Vertibot/src/STM32F30x_StdPeriph_Driver/src/stm32f30x_adc.c **** 
1084:/home/user/Desktop/STM32-Projekte/FH-Vertibot/src/STM32F30x_StdPeriph_Driver/src/stm32f30x_adc.c ****    (#) ADC_RegularChannelSequencerLengthConfig() to set the length of the regular sequencer
1085:/home/user/Desktop/STM32-Projekte/FH-Vertibot/src/STM32F30x_StdPeriph_Driver/src/stm32f30x_adc.c **** 
1086:/home/user/Desktop/STM32-Projekte/FH-Vertibot/src/STM32F30x_StdPeriph_Driver/src/stm32f30x_adc.c ****    [..] The regular trigger is configured using the following functions:
1087:/home/user/Desktop/STM32-Projekte/FH-Vertibot/src/STM32F30x_StdPeriph_Driver/src/stm32f30x_adc.c ****    (#) ADC_SelectExternalTrigger()
1088:/home/user/Desktop/STM32-Projekte/FH-Vertibot/src/STM32F30x_StdPeriph_Driver/src/stm32f30x_adc.c ****    (#) ADC_ExternalTriggerPolarityConfig()
1089:/home/user/Desktop/STM32-Projekte/FH-Vertibot/src/STM32F30x_StdPeriph_Driver/src/stm32f30x_adc.c **** 
1090:/home/user/Desktop/STM32-Projekte/FH-Vertibot/src/STM32F30x_StdPeriph_Driver/src/stm32f30x_adc.c ****    [..] The start and the stop conversion are controlled by:
1091:/home/user/Desktop/STM32-Projekte/FH-Vertibot/src/STM32F30x_StdPeriph_Driver/src/stm32f30x_adc.c ****    (#) ADC_StartConversion()
1092:/home/user/Desktop/STM32-Projekte/FH-Vertibot/src/STM32F30x_StdPeriph_Driver/src/stm32f30x_adc.c ****    (#) ADC_StopConversion()
1093:/home/user/Desktop/STM32-Projekte/FH-Vertibot/src/STM32F30x_StdPeriph_Driver/src/stm32f30x_adc.c ****     
1094:/home/user/Desktop/STM32-Projekte/FH-Vertibot/src/STM32F30x_StdPeriph_Driver/src/stm32f30x_adc.c ****    [..] 
1095:/home/user/Desktop/STM32-Projekte/FH-Vertibot/src/STM32F30x_StdPeriph_Driver/src/stm32f30x_adc.c ****    (@)Please Note that the following features for regular channels are configurated
1096:/home/user/Desktop/STM32-Projekte/FH-Vertibot/src/STM32F30x_StdPeriph_Driver/src/stm32f30x_adc.c ****      using the ADC_Init() function : 
1097:/home/user/Desktop/STM32-Projekte/FH-Vertibot/src/STM32F30x_StdPeriph_Driver/src/stm32f30x_adc.c ****           (++) continuous mode activation
1098:/home/user/Desktop/STM32-Projekte/FH-Vertibot/src/STM32F30x_StdPeriph_Driver/src/stm32f30x_adc.c ****           (++) Resolution  
1099:/home/user/Desktop/STM32-Projekte/FH-Vertibot/src/STM32F30x_StdPeriph_Driver/src/stm32f30x_adc.c ****           (++) Data Alignement 
1100:/home/user/Desktop/STM32-Projekte/FH-Vertibot/src/STM32F30x_StdPeriph_Driver/src/stm32f30x_adc.c ****           (++) Overrun Mode.
1101:/home/user/Desktop/STM32-Projekte/FH-Vertibot/src/STM32F30x_StdPeriph_Driver/src/stm32f30x_adc.c ****      
1102:/home/user/Desktop/STM32-Projekte/FH-Vertibot/src/STM32F30x_StdPeriph_Driver/src/stm32f30x_adc.c ****   [..] Get the conversion data: This subsection provides an important function in 
1103:/home/user/Desktop/STM32-Projekte/FH-Vertibot/src/STM32F30x_StdPeriph_Driver/src/stm32f30x_adc.c ****      the ADC peripheral since it returns the converted data of the current 
1104:/home/user/Desktop/STM32-Projekte/FH-Vertibot/src/STM32F30x_StdPeriph_Driver/src/stm32f30x_adc.c ****      regular channel. When the Conversion value is read, the EOC Flag is 
1105:/home/user/Desktop/STM32-Projekte/FH-Vertibot/src/STM32F30x_StdPeriph_Driver/src/stm32f30x_adc.c ****      automatically cleared.
1106:/home/user/Desktop/STM32-Projekte/FH-Vertibot/src/STM32F30x_StdPeriph_Driver/src/stm32f30x_adc.c **** 
1107:/home/user/Desktop/STM32-Projekte/FH-Vertibot/src/STM32F30x_StdPeriph_Driver/src/stm32f30x_adc.c ****   [..] To configure the  discontinous mode, the following functions should be used:
1108:/home/user/Desktop/STM32-Projekte/FH-Vertibot/src/STM32F30x_StdPeriph_Driver/src/stm32f30x_adc.c ****    (#) ADC_DiscModeChannelCountConfig() to configure the number of discontinuous channel to be conv
1109:/home/user/Desktop/STM32-Projekte/FH-Vertibot/src/STM32F30x_StdPeriph_Driver/src/stm32f30x_adc.c ****    (#) ADC_DiscModeCmd() to enable the discontinuous mode.
1110:/home/user/Desktop/STM32-Projekte/FH-Vertibot/src/STM32F30x_StdPeriph_Driver/src/stm32f30x_adc.c **** 
1111:/home/user/Desktop/STM32-Projekte/FH-Vertibot/src/STM32F30x_StdPeriph_Driver/src/stm32f30x_adc.c ****   [..] To configure and enable/disable the Channel offset use the functions:
1112:/home/user/Desktop/STM32-Projekte/FH-Vertibot/src/STM32F30x_StdPeriph_Driver/src/stm32f30x_adc.c ****      (++) ADC_SetChannelOffset1()
1113:/home/user/Desktop/STM32-Projekte/FH-Vertibot/src/STM32F30x_StdPeriph_Driver/src/stm32f30x_adc.c ****      (++) ADC_SetChannelOffset2()
1114:/home/user/Desktop/STM32-Projekte/FH-Vertibot/src/STM32F30x_StdPeriph_Driver/src/stm32f30x_adc.c ****      (++) ADC_SetChannelOffset3()
1115:/home/user/Desktop/STM32-Projekte/FH-Vertibot/src/STM32F30x_StdPeriph_Driver/src/stm32f30x_adc.c ****      (++) ADC_SetChannelOffset4()
1116:/home/user/Desktop/STM32-Projekte/FH-Vertibot/src/STM32F30x_StdPeriph_Driver/src/stm32f30x_adc.c ****      (++) ADC_ChannelOffset1Cmd()
1117:/home/user/Desktop/STM32-Projekte/FH-Vertibot/src/STM32F30x_StdPeriph_Driver/src/stm32f30x_adc.c ****      (++) ADC_ChannelOffset2Cmd()
1118:/home/user/Desktop/STM32-Projekte/FH-Vertibot/src/STM32F30x_StdPeriph_Driver/src/stm32f30x_adc.c ****      (++) ADC_ChannelOffset3Cmd()
1119:/home/user/Desktop/STM32-Projekte/FH-Vertibot/src/STM32F30x_StdPeriph_Driver/src/stm32f30x_adc.c ****      (++) ADC_ChannelOffset4Cmd()
1120:/home/user/Desktop/STM32-Projekte/FH-Vertibot/src/STM32F30x_StdPeriph_Driver/src/stm32f30x_adc.c ****   
1121:/home/user/Desktop/STM32-Projekte/FH-Vertibot/src/STM32F30x_StdPeriph_Driver/src/stm32f30x_adc.c **** @endverbatim
1122:/home/user/Desktop/STM32-Projekte/FH-Vertibot/src/STM32F30x_StdPeriph_Driver/src/stm32f30x_adc.c ****   * @{
1123:/home/user/Desktop/STM32-Projekte/FH-Vertibot/src/STM32F30x_StdPeriph_Driver/src/stm32f30x_adc.c ****   */
1124:/home/user/Desktop/STM32-Projekte/FH-Vertibot/src/STM32F30x_StdPeriph_Driver/src/stm32f30x_adc.c **** 
1125:/home/user/Desktop/STM32-Projekte/FH-Vertibot/src/STM32F30x_StdPeriph_Driver/src/stm32f30x_adc.c **** /**
1126:/home/user/Desktop/STM32-Projekte/FH-Vertibot/src/STM32F30x_StdPeriph_Driver/src/stm32f30x_adc.c ****   * @brief  Configures for the selected ADC regular channel its corresponding
1127:/home/user/Desktop/STM32-Projekte/FH-Vertibot/src/STM32F30x_StdPeriph_Driver/src/stm32f30x_adc.c ****   *         rank in the sequencer and its sample time.
1128:/home/user/Desktop/STM32-Projekte/FH-Vertibot/src/STM32F30x_StdPeriph_Driver/src/stm32f30x_adc.c ****   * @param  ADCx: where x can be 1, 2, 3 or 4 to select the ADC peripheral.
1129:/home/user/Desktop/STM32-Projekte/FH-Vertibot/src/STM32F30x_StdPeriph_Driver/src/stm32f30x_adc.c ****   * @param  ADC_Channel: the ADC channel to configure. 
1130:/home/user/Desktop/STM32-Projekte/FH-Vertibot/src/STM32F30x_StdPeriph_Driver/src/stm32f30x_adc.c ****   *   This parameter can be one of the following values:
1131:/home/user/Desktop/STM32-Projekte/FH-Vertibot/src/STM32F30x_StdPeriph_Driver/src/stm32f30x_adc.c ****   *     @arg ADC_Channel_1: ADC Channel1 selected
1132:/home/user/Desktop/STM32-Projekte/FH-Vertibot/src/STM32F30x_StdPeriph_Driver/src/stm32f30x_adc.c ****   *     @arg ADC_Channel_2: ADC Channel2 selected
1133:/home/user/Desktop/STM32-Projekte/FH-Vertibot/src/STM32F30x_StdPeriph_Driver/src/stm32f30x_adc.c ****   *     @arg ADC_Channel_3: ADC Channel3 selected
1134:/home/user/Desktop/STM32-Projekte/FH-Vertibot/src/STM32F30x_StdPeriph_Driver/src/stm32f30x_adc.c ****   *     @arg ADC_Channel_4: ADC Channel4 selected
1135:/home/user/Desktop/STM32-Projekte/FH-Vertibot/src/STM32F30x_StdPeriph_Driver/src/stm32f30x_adc.c ****   *     @arg ADC_Channel_5: ADC Channel5 selected
1136:/home/user/Desktop/STM32-Projekte/FH-Vertibot/src/STM32F30x_StdPeriph_Driver/src/stm32f30x_adc.c ****   *     @arg ADC_Channel_6: ADC Channel6 selected
1137:/home/user/Desktop/STM32-Projekte/FH-Vertibot/src/STM32F30x_StdPeriph_Driver/src/stm32f30x_adc.c ****   *     @arg ADC_Channel_7: ADC Channel7 selected
1138:/home/user/Desktop/STM32-Projekte/FH-Vertibot/src/STM32F30x_StdPeriph_Driver/src/stm32f30x_adc.c ****   *     @arg ADC_Channel_8: ADC Channel8 selected
1139:/home/user/Desktop/STM32-Projekte/FH-Vertibot/src/STM32F30x_StdPeriph_Driver/src/stm32f30x_adc.c ****   *     @arg ADC_Channel_9: ADC Channel9 selected
1140:/home/user/Desktop/STM32-Projekte/FH-Vertibot/src/STM32F30x_StdPeriph_Driver/src/stm32f30x_adc.c ****   *     @arg ADC_Channel_10: ADC Channel10 selected
1141:/home/user/Desktop/STM32-Projekte/FH-Vertibot/src/STM32F30x_StdPeriph_Driver/src/stm32f30x_adc.c ****   *     @arg ADC_Channel_11: ADC Channel11 selected
1142:/home/user/Desktop/STM32-Projekte/FH-Vertibot/src/STM32F30x_StdPeriph_Driver/src/stm32f30x_adc.c ****   *     @arg ADC_Channel_12: ADC Channel12 selected
1143:/home/user/Desktop/STM32-Projekte/FH-Vertibot/src/STM32F30x_StdPeriph_Driver/src/stm32f30x_adc.c ****   *     @arg ADC_Channel_13: ADC Channel13 selected
1144:/home/user/Desktop/STM32-Projekte/FH-Vertibot/src/STM32F30x_StdPeriph_Driver/src/stm32f30x_adc.c ****   *     @arg ADC_Channel_14: ADC Channel14 selected
1145:/home/user/Desktop/STM32-Projekte/FH-Vertibot/src/STM32F30x_StdPeriph_Driver/src/stm32f30x_adc.c ****   *     @arg ADC_Channel_15: ADC Channel15 selected
1146:/home/user/Desktop/STM32-Projekte/FH-Vertibot/src/STM32F30x_StdPeriph_Driver/src/stm32f30x_adc.c ****   *     @arg ADC_Channel_16: ADC Channel16 selected
1147:/home/user/Desktop/STM32-Projekte/FH-Vertibot/src/STM32F30x_StdPeriph_Driver/src/stm32f30x_adc.c ****   *     @arg ADC_Channel_17: ADC Channel17 selected
1148:/home/user/Desktop/STM32-Projekte/FH-Vertibot/src/STM32F30x_StdPeriph_Driver/src/stm32f30x_adc.c ****   *     @arg ADC_Channel_18: ADC Channel18 selected
1149:/home/user/Desktop/STM32-Projekte/FH-Vertibot/src/STM32F30x_StdPeriph_Driver/src/stm32f30x_adc.c ****   * @param  Rank: The rank in the regular group sequencer. This parameter must be between 1 to 16.
1150:/home/user/Desktop/STM32-Projekte/FH-Vertibot/src/STM32F30x_StdPeriph_Driver/src/stm32f30x_adc.c ****   * @param  ADC_SampleTime: The sample time value to be set for the selected channel. 
1151:/home/user/Desktop/STM32-Projekte/FH-Vertibot/src/STM32F30x_StdPeriph_Driver/src/stm32f30x_adc.c ****   *   This parameter can be one of the following values:
1152:/home/user/Desktop/STM32-Projekte/FH-Vertibot/src/STM32F30x_StdPeriph_Driver/src/stm32f30x_adc.c ****   *     @arg ADC_SampleTime_1Cycles5: Sample time equal to 1.5 cycles
1153:/home/user/Desktop/STM32-Projekte/FH-Vertibot/src/STM32F30x_StdPeriph_Driver/src/stm32f30x_adc.c ****   *     @arg ADC_SampleTime_2Cycles5: Sample time equal to 2.5 cycles
1154:/home/user/Desktop/STM32-Projekte/FH-Vertibot/src/STM32F30x_StdPeriph_Driver/src/stm32f30x_adc.c ****   *     @arg ADC_SampleTime_4Cycles5: Sample time equal to 4.5 cycles
1155:/home/user/Desktop/STM32-Projekte/FH-Vertibot/src/STM32F30x_StdPeriph_Driver/src/stm32f30x_adc.c ****   *     @arg ADC_SampleTime_7Cycles5: Sample time equal to 7.5 cycles	
1156:/home/user/Desktop/STM32-Projekte/FH-Vertibot/src/STM32F30x_StdPeriph_Driver/src/stm32f30x_adc.c ****   *     @arg ADC_SampleTime_19Cycles5: Sample time equal to 19.5 cycles	
1157:/home/user/Desktop/STM32-Projekte/FH-Vertibot/src/STM32F30x_StdPeriph_Driver/src/stm32f30x_adc.c ****   *     @arg ADC_SampleTime_61Cycles5: Sample time equal to 61.5 cycles	
1158:/home/user/Desktop/STM32-Projekte/FH-Vertibot/src/STM32F30x_StdPeriph_Driver/src/stm32f30x_adc.c ****   *     @arg ADC_SampleTime_181Cycles5: Sample time equal to 181.5 cycles	
1159:/home/user/Desktop/STM32-Projekte/FH-Vertibot/src/STM32F30x_StdPeriph_Driver/src/stm32f30x_adc.c ****   *     @arg ADC_SampleTime_601Cycles5: Sample time equal to 601.5 cycles	
1160:/home/user/Desktop/STM32-Projekte/FH-Vertibot/src/STM32F30x_StdPeriph_Driver/src/stm32f30x_adc.c ****   * @retval None
1161:/home/user/Desktop/STM32-Projekte/FH-Vertibot/src/STM32F30x_StdPeriph_Driver/src/stm32f30x_adc.c ****   */
1162:/home/user/Desktop/STM32-Projekte/FH-Vertibot/src/STM32F30x_StdPeriph_Driver/src/stm32f30x_adc.c **** void ADC_RegularChannelConfig(ADC_TypeDef* ADCx, uint8_t ADC_Channel, uint8_t Rank, uint8_t ADC_Sam
1163:/home/user/Desktop/STM32-Projekte/FH-Vertibot/src/STM32F30x_StdPeriph_Driver/src/stm32f30x_adc.c **** {
 1092              		.loc 1 1163 0
 1093              		.cfi_startproc
 1094              		@ args = 0, pretend = 0, frame = 0
 1095              		@ frame_needed = 0, uses_anonymous_args = 0
 1096              	.LVL75:
1164:/home/user/Desktop/STM32-Projekte/FH-Vertibot/src/STM32F30x_StdPeriph_Driver/src/stm32f30x_adc.c ****   uint32_t tmpreg1 = 0, tmpreg2 = 0;
1165:/home/user/Desktop/STM32-Projekte/FH-Vertibot/src/STM32F30x_StdPeriph_Driver/src/stm32f30x_adc.c ****   /* Check the parameters */
1166:/home/user/Desktop/STM32-Projekte/FH-Vertibot/src/STM32F30x_StdPeriph_Driver/src/stm32f30x_adc.c ****   assert_param(IS_ADC_ALL_PERIPH(ADCx));
1167:/home/user/Desktop/STM32-Projekte/FH-Vertibot/src/STM32F30x_StdPeriph_Driver/src/stm32f30x_adc.c ****   assert_param(IS_ADC_CHANNEL(ADC_Channel));
1168:/home/user/Desktop/STM32-Projekte/FH-Vertibot/src/STM32F30x_StdPeriph_Driver/src/stm32f30x_adc.c ****   assert_param(IS_ADC_SAMPLE_TIME(ADC_SampleTime));
1169:/home/user/Desktop/STM32-Projekte/FH-Vertibot/src/STM32F30x_StdPeriph_Driver/src/stm32f30x_adc.c **** 
1170:/home/user/Desktop/STM32-Projekte/FH-Vertibot/src/STM32F30x_StdPeriph_Driver/src/stm32f30x_adc.c ****   /* Regular sequence configuration */
1171:/home/user/Desktop/STM32-Projekte/FH-Vertibot/src/STM32F30x_StdPeriph_Driver/src/stm32f30x_adc.c ****   /* For Rank 1 to 4 */
1172:/home/user/Desktop/STM32-Projekte/FH-Vertibot/src/STM32F30x_StdPeriph_Driver/src/stm32f30x_adc.c ****   if (Rank < 5)
 1097              		.loc 1 1172 0
 1098 0348 042A     		cmp	r2, #4
1163:/home/user/Desktop/STM32-Projekte/FH-Vertibot/src/STM32F30x_StdPeriph_Driver/src/stm32f30x_adc.c **** {
 1099              		.loc 1 1163 0
 1100 034a 30B5     		push	{r4, r5, lr}
 1101              	.LCFI3:
 1102              		.cfi_def_cfa_offset 12
 1103              		.cfi_offset 4, -12
 1104              		.cfi_offset 5, -8
 1105              		.cfi_offset 14, -4
 1106              		.loc 1 1172 0
 1107 034c 0CD8     		bhi	.L121
1173:/home/user/Desktop/STM32-Projekte/FH-Vertibot/src/STM32F30x_StdPeriph_Driver/src/stm32f30x_adc.c ****   {
1174:/home/user/Desktop/STM32-Projekte/FH-Vertibot/src/STM32F30x_StdPeriph_Driver/src/stm32f30x_adc.c ****     /* Get the old register value */
1175:/home/user/Desktop/STM32-Projekte/FH-Vertibot/src/STM32F30x_StdPeriph_Driver/src/stm32f30x_adc.c ****     tmpreg1 = ADCx->SQR1;
1176:/home/user/Desktop/STM32-Projekte/FH-Vertibot/src/STM32F30x_StdPeriph_Driver/src/stm32f30x_adc.c ****     /* Calculate the mask to clear */
1177:/home/user/Desktop/STM32-Projekte/FH-Vertibot/src/STM32F30x_StdPeriph_Driver/src/stm32f30x_adc.c ****     tmpreg2 = 0x1F << (6 * (Rank ));
 1108              		.loc 1 1177 0
 1109 034e 02EB4202 		add	r2, r2, r2, lsl #1
 1110              	.LVL76:
1175:/home/user/Desktop/STM32-Projekte/FH-Vertibot/src/STM32F30x_StdPeriph_Driver/src/stm32f30x_adc.c ****     tmpreg1 = ADCx->SQR1;
 1111              		.loc 1 1175 0
 1112 0352 056B     		ldr	r5, [r0, #48]
 1113              	.LVL77:
 1114              		.loc 1 1177 0
 1115 0354 5200     		lsls	r2, r2, #1
 1116              	.LVL78:
 1117 0356 1F24     		movs	r4, #31
 1118 0358 9440     		lsls	r4, r4, r2
 1119              	.LVL79:
1178:/home/user/Desktop/STM32-Projekte/FH-Vertibot/src/STM32F30x_StdPeriph_Driver/src/stm32f30x_adc.c ****     /* Clear the old SQx bits for the selected rank */
1179:/home/user/Desktop/STM32-Projekte/FH-Vertibot/src/STM32F30x_StdPeriph_Driver/src/stm32f30x_adc.c ****     tmpreg1 &= ~tmpreg2;
 1120              		.loc 1 1179 0
 1121 035a 25EA0404 		bic	r4, r5, r4
 1122              	.LVL80:
1180:/home/user/Desktop/STM32-Projekte/FH-Vertibot/src/STM32F30x_StdPeriph_Driver/src/stm32f30x_adc.c ****     /* Calculate the mask to set */
1181:/home/user/Desktop/STM32-Projekte/FH-Vertibot/src/STM32F30x_StdPeriph_Driver/src/stm32f30x_adc.c ****     tmpreg2 = (uint32_t)(ADC_Channel) << (6 * (Rank));
 1123              		.loc 1 1181 0
 1124 035e 01FA02F2 		lsl	r2, r1, r2
 1125              	.LVL81:
1182:/home/user/Desktop/STM32-Projekte/FH-Vertibot/src/STM32F30x_StdPeriph_Driver/src/stm32f30x_adc.c ****     /* Set the SQx bits for the selected rank */
1183:/home/user/Desktop/STM32-Projekte/FH-Vertibot/src/STM32F30x_StdPeriph_Driver/src/stm32f30x_adc.c ****     tmpreg1 |= tmpreg2;
 1126              		.loc 1 1183 0
 1127 0362 2243     		orrs	r2, r2, r4
 1128              	.LVL82:
1184:/home/user/Desktop/STM32-Projekte/FH-Vertibot/src/STM32F30x_StdPeriph_Driver/src/stm32f30x_adc.c ****     /* Store the new register value */
1185:/home/user/Desktop/STM32-Projekte/FH-Vertibot/src/STM32F30x_StdPeriph_Driver/src/stm32f30x_adc.c ****     ADCx->SQR1 = tmpreg1;
 1129              		.loc 1 1185 0
 1130 0364 0263     		str	r2, [r0, #48]
 1131 0366 29E0     		b	.L122
 1132              	.LVL83:
 1133              	.L121:
1186:/home/user/Desktop/STM32-Projekte/FH-Vertibot/src/STM32F30x_StdPeriph_Driver/src/stm32f30x_adc.c ****   }
1187:/home/user/Desktop/STM32-Projekte/FH-Vertibot/src/STM32F30x_StdPeriph_Driver/src/stm32f30x_adc.c ****   /* For Rank 5 to 9 */
1188:/home/user/Desktop/STM32-Projekte/FH-Vertibot/src/STM32F30x_StdPeriph_Driver/src/stm32f30x_adc.c ****   else if (Rank < 10)
 1134              		.loc 1 1188 0
 1135 0368 092A     		cmp	r2, #9
 1136 036a 0CD8     		bhi	.L123
1189:/home/user/Desktop/STM32-Projekte/FH-Vertibot/src/STM32F30x_StdPeriph_Driver/src/stm32f30x_adc.c ****   {
1190:/home/user/Desktop/STM32-Projekte/FH-Vertibot/src/STM32F30x_StdPeriph_Driver/src/stm32f30x_adc.c ****     /* Get the old register value */
1191:/home/user/Desktop/STM32-Projekte/FH-Vertibot/src/STM32F30x_StdPeriph_Driver/src/stm32f30x_adc.c ****     tmpreg1 = ADCx->SQR2;
1192:/home/user/Desktop/STM32-Projekte/FH-Vertibot/src/STM32F30x_StdPeriph_Driver/src/stm32f30x_adc.c ****     /* Calculate the mask to clear */
1193:/home/user/Desktop/STM32-Projekte/FH-Vertibot/src/STM32F30x_StdPeriph_Driver/src/stm32f30x_adc.c ****     tmpreg2 = ADC_SQR2_SQ5 << (6 * (Rank - 5));
 1137              		.loc 1 1193 0
 1138 036c 0624     		movs	r4, #6
 1139 036e 053A     		subs	r2, r2, #5
 1140              	.LVL84:
 1141 0370 6243     		muls	r2, r4, r2
1191:/home/user/Desktop/STM32-Projekte/FH-Vertibot/src/STM32F30x_StdPeriph_Driver/src/stm32f30x_adc.c ****     tmpreg1 = ADCx->SQR2;
 1142              		.loc 1 1191 0
 1143 0372 456B     		ldr	r5, [r0, #52]
 1144              	.LVL85:
 1145              		.loc 1 1193 0
 1146 0374 1F24     		movs	r4, #31
 1147 0376 9440     		lsls	r4, r4, r2
 1148              	.LVL86:
1194:/home/user/Desktop/STM32-Projekte/FH-Vertibot/src/STM32F30x_StdPeriph_Driver/src/stm32f30x_adc.c ****     /* Clear the old SQx bits for the selected rank */
1195:/home/user/Desktop/STM32-Projekte/FH-Vertibot/src/STM32F30x_StdPeriph_Driver/src/stm32f30x_adc.c ****     tmpreg1 &= ~tmpreg2;
 1149              		.loc 1 1195 0
 1150 0378 25EA0404 		bic	r4, r5, r4
 1151              	.LVL87:
1196:/home/user/Desktop/STM32-Projekte/FH-Vertibot/src/STM32F30x_StdPeriph_Driver/src/stm32f30x_adc.c ****     /* Calculate the mask to set */
1197:/home/user/Desktop/STM32-Projekte/FH-Vertibot/src/STM32F30x_StdPeriph_Driver/src/stm32f30x_adc.c ****     tmpreg2 = (uint32_t)(ADC_Channel) << (6 * (Rank - 5));
 1152              		.loc 1 1197 0
 1153 037c 01FA02F2 		lsl	r2, r1, r2
 1154              	.LVL88:
1198:/home/user/Desktop/STM32-Projekte/FH-Vertibot/src/STM32F30x_StdPeriph_Driver/src/stm32f30x_adc.c ****     /* Set the SQx bits for the selected rank */
1199:/home/user/Desktop/STM32-Projekte/FH-Vertibot/src/STM32F30x_StdPeriph_Driver/src/stm32f30x_adc.c ****     tmpreg1 |= tmpreg2;
 1155              		.loc 1 1199 0
 1156 0380 2243     		orrs	r2, r2, r4
 1157              	.LVL89:
1200:/home/user/Desktop/STM32-Projekte/FH-Vertibot/src/STM32F30x_StdPeriph_Driver/src/stm32f30x_adc.c ****     /* Store the new register value */
1201:/home/user/Desktop/STM32-Projekte/FH-Vertibot/src/STM32F30x_StdPeriph_Driver/src/stm32f30x_adc.c ****     ADCx->SQR2 = tmpreg1;
 1158              		.loc 1 1201 0
 1159 0382 4263     		str	r2, [r0, #52]
 1160 0384 1AE0     		b	.L122
 1161              	.LVL90:
 1162              	.L123:
1202:/home/user/Desktop/STM32-Projekte/FH-Vertibot/src/STM32F30x_StdPeriph_Driver/src/stm32f30x_adc.c ****   }
1203:/home/user/Desktop/STM32-Projekte/FH-Vertibot/src/STM32F30x_StdPeriph_Driver/src/stm32f30x_adc.c ****   /* For Rank 10 to 14 */
1204:/home/user/Desktop/STM32-Projekte/FH-Vertibot/src/STM32F30x_StdPeriph_Driver/src/stm32f30x_adc.c ****   else if (Rank < 15)
 1163              		.loc 1 1204 0
 1164 0386 0E2A     		cmp	r2, #14
 1165 0388 4FF00604 		mov	r4, #6
 1166 038c 0BD8     		bhi	.L124
1205:/home/user/Desktop/STM32-Projekte/FH-Vertibot/src/STM32F30x_StdPeriph_Driver/src/stm32f30x_adc.c ****   {
1206:/home/user/Desktop/STM32-Projekte/FH-Vertibot/src/STM32F30x_StdPeriph_Driver/src/stm32f30x_adc.c ****     /* Get the old register value */
1207:/home/user/Desktop/STM32-Projekte/FH-Vertibot/src/STM32F30x_StdPeriph_Driver/src/stm32f30x_adc.c ****     tmpreg1 = ADCx->SQR3;
1208:/home/user/Desktop/STM32-Projekte/FH-Vertibot/src/STM32F30x_StdPeriph_Driver/src/stm32f30x_adc.c ****     /* Calculate the mask to clear */
1209:/home/user/Desktop/STM32-Projekte/FH-Vertibot/src/STM32F30x_StdPeriph_Driver/src/stm32f30x_adc.c ****     tmpreg2 = ADC_SQR3_SQ10 << (6 * (Rank - 10));
 1167              		.loc 1 1209 0
 1168 038e 0A3A     		subs	r2, r2, #10
 1169              	.LVL91:
 1170 0390 5443     		muls	r4, r2, r4
1207:/home/user/Desktop/STM32-Projekte/FH-Vertibot/src/STM32F30x_StdPeriph_Driver/src/stm32f30x_adc.c ****     tmpreg1 = ADCx->SQR3;
 1171              		.loc 1 1207 0
 1172 0392 856B     		ldr	r5, [r0, #56]
 1173              	.LVL92:
 1174              		.loc 1 1209 0
 1175 0394 1F22     		movs	r2, #31
 1176 0396 A240     		lsls	r2, r2, r4
 1177              	.LVL93:
1210:/home/user/Desktop/STM32-Projekte/FH-Vertibot/src/STM32F30x_StdPeriph_Driver/src/stm32f30x_adc.c ****     /* Clear the old SQx bits for the selected rank */
1211:/home/user/Desktop/STM32-Projekte/FH-Vertibot/src/STM32F30x_StdPeriph_Driver/src/stm32f30x_adc.c ****     tmpreg1 &= ~tmpreg2;
 1178              		.loc 1 1211 0
 1179 0398 25EA0202 		bic	r2, r5, r2
 1180              	.LVL94:
1212:/home/user/Desktop/STM32-Projekte/FH-Vertibot/src/STM32F30x_StdPeriph_Driver/src/stm32f30x_adc.c ****     /* Calculate the mask to set */
1213:/home/user/Desktop/STM32-Projekte/FH-Vertibot/src/STM32F30x_StdPeriph_Driver/src/stm32f30x_adc.c ****     tmpreg2 = (uint32_t)(ADC_Channel) << (6 * (Rank - 10));
 1181              		.loc 1 1213 0
 1182 039c 01FA04F4 		lsl	r4, r1, r4
 1183              	.LVL95:
1214:/home/user/Desktop/STM32-Projekte/FH-Vertibot/src/STM32F30x_StdPeriph_Driver/src/stm32f30x_adc.c ****     /* Set the SQx bits for the selected rank */
1215:/home/user/Desktop/STM32-Projekte/FH-Vertibot/src/STM32F30x_StdPeriph_Driver/src/stm32f30x_adc.c ****     tmpreg1 |= tmpreg2;
 1184              		.loc 1 1215 0
 1185 03a0 1443     		orrs	r4, r4, r2
 1186              	.LVL96:
1216:/home/user/Desktop/STM32-Projekte/FH-Vertibot/src/STM32F30x_StdPeriph_Driver/src/stm32f30x_adc.c ****     /* Store the new register value */
1217:/home/user/Desktop/STM32-Projekte/FH-Vertibot/src/STM32F30x_StdPeriph_Driver/src/stm32f30x_adc.c ****     ADCx->SQR3 = tmpreg1;
 1187              		.loc 1 1217 0
 1188 03a2 8463     		str	r4, [r0, #56]
 1189 03a4 0AE0     		b	.L122
 1190              	.LVL97:
 1191              	.L124:
1218:/home/user/Desktop/STM32-Projekte/FH-Vertibot/src/STM32F30x_StdPeriph_Driver/src/stm32f30x_adc.c ****   }
1219:/home/user/Desktop/STM32-Projekte/FH-Vertibot/src/STM32F30x_StdPeriph_Driver/src/stm32f30x_adc.c ****   else 
1220:/home/user/Desktop/STM32-Projekte/FH-Vertibot/src/STM32F30x_StdPeriph_Driver/src/stm32f30x_adc.c ****   {
1221:/home/user/Desktop/STM32-Projekte/FH-Vertibot/src/STM32F30x_StdPeriph_Driver/src/stm32f30x_adc.c ****     /* Get the old register value */
1222:/home/user/Desktop/STM32-Projekte/FH-Vertibot/src/STM32F30x_StdPeriph_Driver/src/stm32f30x_adc.c ****     tmpreg1 = ADCx->SQR4;
1223:/home/user/Desktop/STM32-Projekte/FH-Vertibot/src/STM32F30x_StdPeriph_Driver/src/stm32f30x_adc.c ****     /* Calculate the mask to clear */
1224:/home/user/Desktop/STM32-Projekte/FH-Vertibot/src/STM32F30x_StdPeriph_Driver/src/stm32f30x_adc.c ****     tmpreg2 = ADC_SQR3_SQ15 << (6 * (Rank - 15));
 1192              		.loc 1 1224 0
 1193 03a6 0F3A     		subs	r2, r2, #15
 1194              	.LVL98:
 1195 03a8 6243     		muls	r2, r4, r2
1222:/home/user/Desktop/STM32-Projekte/FH-Vertibot/src/STM32F30x_StdPeriph_Driver/src/stm32f30x_adc.c ****     tmpreg1 = ADCx->SQR4;
 1196              		.loc 1 1222 0
 1197 03aa C56B     		ldr	r5, [r0, #60]
 1198              	.LVL99:
 1199              		.loc 1 1224 0
 1200 03ac 1F24     		movs	r4, #31
 1201 03ae 9440     		lsls	r4, r4, r2
 1202              	.LVL100:
1225:/home/user/Desktop/STM32-Projekte/FH-Vertibot/src/STM32F30x_StdPeriph_Driver/src/stm32f30x_adc.c ****     /* Clear the old SQx bits for the selected rank */
1226:/home/user/Desktop/STM32-Projekte/FH-Vertibot/src/STM32F30x_StdPeriph_Driver/src/stm32f30x_adc.c ****     tmpreg1 &= ~tmpreg2;
 1203              		.loc 1 1226 0
 1204 03b0 25EA0404 		bic	r4, r5, r4
 1205              	.LVL101:
1227:/home/user/Desktop/STM32-Projekte/FH-Vertibot/src/STM32F30x_StdPeriph_Driver/src/stm32f30x_adc.c ****     /* Calculate the mask to set */
1228:/home/user/Desktop/STM32-Projekte/FH-Vertibot/src/STM32F30x_StdPeriph_Driver/src/stm32f30x_adc.c ****     tmpreg2 = (uint32_t)(ADC_Channel) << (6 * (Rank - 15));
 1206              		.loc 1 1228 0
 1207 03b4 01FA02F2 		lsl	r2, r1, r2
 1208              	.LVL102:
1229:/home/user/Desktop/STM32-Projekte/FH-Vertibot/src/STM32F30x_StdPeriph_Driver/src/stm32f30x_adc.c ****     /* Set the SQx bits for the selected rank */
1230:/home/user/Desktop/STM32-Projekte/FH-Vertibot/src/STM32F30x_StdPeriph_Driver/src/stm32f30x_adc.c ****     tmpreg1 |= tmpreg2;
 1209              		.loc 1 1230 0
 1210 03b8 2243     		orrs	r2, r2, r4
 1211              	.LVL103:
1231:/home/user/Desktop/STM32-Projekte/FH-Vertibot/src/STM32F30x_StdPeriph_Driver/src/stm32f30x_adc.c ****     /* Store the new register value */
1232:/home/user/Desktop/STM32-Projekte/FH-Vertibot/src/STM32F30x_StdPeriph_Driver/src/stm32f30x_adc.c ****     ADCx->SQR4 = tmpreg1;
 1212              		.loc 1 1232 0
 1213 03ba C263     		str	r2, [r0, #60]
 1214              	.LVL104:
 1215              	.L122:
1233:/home/user/Desktop/STM32-Projekte/FH-Vertibot/src/STM32F30x_StdPeriph_Driver/src/stm32f30x_adc.c ****   }
1234:/home/user/Desktop/STM32-Projekte/FH-Vertibot/src/STM32F30x_StdPeriph_Driver/src/stm32f30x_adc.c **** 
1235:/home/user/Desktop/STM32-Projekte/FH-Vertibot/src/STM32F30x_StdPeriph_Driver/src/stm32f30x_adc.c ****   /* Channel sampling configuration */
1236:/home/user/Desktop/STM32-Projekte/FH-Vertibot/src/STM32F30x_StdPeriph_Driver/src/stm32f30x_adc.c ****   /* if ADC_Channel_10 ... ADC_Channel_18 is selected */
1237:/home/user/Desktop/STM32-Projekte/FH-Vertibot/src/STM32F30x_StdPeriph_Driver/src/stm32f30x_adc.c ****   if (ADC_Channel > ADC_Channel_9)
 1216              		.loc 1 1237 0
 1217 03bc 0929     		cmp	r1, #9
 1218 03be 0FD9     		bls	.L125
1238:/home/user/Desktop/STM32-Projekte/FH-Vertibot/src/STM32F30x_StdPeriph_Driver/src/stm32f30x_adc.c ****   {
1239:/home/user/Desktop/STM32-Projekte/FH-Vertibot/src/STM32F30x_StdPeriph_Driver/src/stm32f30x_adc.c ****     /* Get the old register value */
1240:/home/user/Desktop/STM32-Projekte/FH-Vertibot/src/STM32F30x_StdPeriph_Driver/src/stm32f30x_adc.c ****     tmpreg1 = ADCx->SMPR2;
1241:/home/user/Desktop/STM32-Projekte/FH-Vertibot/src/STM32F30x_StdPeriph_Driver/src/stm32f30x_adc.c ****     /* Calculate the mask to clear */
1242:/home/user/Desktop/STM32-Projekte/FH-Vertibot/src/STM32F30x_StdPeriph_Driver/src/stm32f30x_adc.c ****     tmpreg2 = ADC_SMPR2_SMP10 << (3 * (ADC_Channel - 10));
 1219              		.loc 1 1242 0
 1220 03c0 0A39     		subs	r1, r1, #10
 1221              	.LVL105:
1240:/home/user/Desktop/STM32-Projekte/FH-Vertibot/src/STM32F30x_StdPeriph_Driver/src/stm32f30x_adc.c ****     tmpreg1 = ADCx->SMPR2;
 1222              		.loc 1 1240 0
 1223 03c2 8269     		ldr	r2, [r0, #24]
1243:/home/user/Desktop/STM32-Projekte/FH-Vertibot/src/STM32F30x_StdPeriph_Driver/src/stm32f30x_adc.c ****     /* Clear the old channel sample time */
1244:/home/user/Desktop/STM32-Projekte/FH-Vertibot/src/STM32F30x_StdPeriph_Driver/src/stm32f30x_adc.c **** 	ADCx->SMPR2 &= ~tmpreg2;
 1224              		.loc 1 1244 0
 1225 03c4 8469     		ldr	r4, [r0, #24]
1242:/home/user/Desktop/STM32-Projekte/FH-Vertibot/src/STM32F30x_StdPeriph_Driver/src/stm32f30x_adc.c ****     tmpreg2 = ADC_SMPR2_SMP10 << (3 * (ADC_Channel - 10));
 1226              		.loc 1 1242 0
 1227 03c6 01EB4101 		add	r1, r1, r1, lsl #1
 1228              	.LVL106:
 1229 03ca 0722     		movs	r2, #7
 1230 03cc 8A40     		lsls	r2, r2, r1
 1231              	.LVL107:
 1232              		.loc 1 1244 0
 1233 03ce 24EA0202 		bic	r2, r4, r2
 1234              	.LVL108:
 1235 03d2 8261     		str	r2, [r0, #24]
1245:/home/user/Desktop/STM32-Projekte/FH-Vertibot/src/STM32F30x_StdPeriph_Driver/src/stm32f30x_adc.c ****     /* Calculate the mask to set */
1246:/home/user/Desktop/STM32-Projekte/FH-Vertibot/src/STM32F30x_StdPeriph_Driver/src/stm32f30x_adc.c **** 	ADCx->SMPR2 |= (uint32_t)ADC_SampleTime << (3 * (ADC_Channel - 10));
 1236              		.loc 1 1246 0
 1237 03d4 8269     		ldr	r2, [r0, #24]
 1238 03d6 03FA01F1 		lsl	r1, r3, r1
 1239              	.LVL109:
 1240 03da 1143     		orrs	r1, r1, r2
 1241 03dc 8161     		str	r1, [r0, #24]
 1242 03de 30BD     		pop	{r4, r5, pc}
 1243              	.LVL110:
 1244              	.L125:
1247:/home/user/Desktop/STM32-Projekte/FH-Vertibot/src/STM32F30x_StdPeriph_Driver/src/stm32f30x_adc.c **** 
1248:/home/user/Desktop/STM32-Projekte/FH-Vertibot/src/STM32F30x_StdPeriph_Driver/src/stm32f30x_adc.c ****   }
1249:/home/user/Desktop/STM32-Projekte/FH-Vertibot/src/STM32F30x_StdPeriph_Driver/src/stm32f30x_adc.c ****   else /* ADC_Channel include in ADC_Channel_[0..9] */
1250:/home/user/Desktop/STM32-Projekte/FH-Vertibot/src/STM32F30x_StdPeriph_Driver/src/stm32f30x_adc.c ****   {
1251:/home/user/Desktop/STM32-Projekte/FH-Vertibot/src/STM32F30x_StdPeriph_Driver/src/stm32f30x_adc.c ****     /* Get the old register value */
1252:/home/user/Desktop/STM32-Projekte/FH-Vertibot/src/STM32F30x_StdPeriph_Driver/src/stm32f30x_adc.c ****     tmpreg1 = ADCx->SMPR1;
1253:/home/user/Desktop/STM32-Projekte/FH-Vertibot/src/STM32F30x_StdPeriph_Driver/src/stm32f30x_adc.c ****     /* Calculate the mask to clear */
1254:/home/user/Desktop/STM32-Projekte/FH-Vertibot/src/STM32F30x_StdPeriph_Driver/src/stm32f30x_adc.c ****     tmpreg2 = ADC_SMPR1_SMP1 << (3 * (ADC_Channel - 1));
 1245              		.loc 1 1254 0
 1246 03e0 0139     		subs	r1, r1, #1
 1247              	.LVL111:
1252:/home/user/Desktop/STM32-Projekte/FH-Vertibot/src/STM32F30x_StdPeriph_Driver/src/stm32f30x_adc.c ****     tmpreg1 = ADCx->SMPR1;
 1248              		.loc 1 1252 0
 1249 03e2 4269     		ldr	r2, [r0, #20]
1255:/home/user/Desktop/STM32-Projekte/FH-Vertibot/src/STM32F30x_StdPeriph_Driver/src/stm32f30x_adc.c ****     /* Clear the old channel sample time */
1256:/home/user/Desktop/STM32-Projekte/FH-Vertibot/src/STM32F30x_StdPeriph_Driver/src/stm32f30x_adc.c **** 	ADCx->SMPR1 &= ~tmpreg2;
 1250              		.loc 1 1256 0
 1251 03e4 4469     		ldr	r4, [r0, #20]
1254:/home/user/Desktop/STM32-Projekte/FH-Vertibot/src/STM32F30x_StdPeriph_Driver/src/stm32f30x_adc.c ****     tmpreg2 = ADC_SMPR1_SMP1 << (3 * (ADC_Channel - 1));
 1252              		.loc 1 1254 0
 1253 03e6 01EB4101 		add	r1, r1, r1, lsl #1
 1254              	.LVL112:
 1255 03ea 3822     		movs	r2, #56
 1256 03ec 8A40     		lsls	r2, r2, r1
 1257              	.LVL113:
 1258              		.loc 1 1256 0
 1259 03ee 24EA0202 		bic	r2, r4, r2
 1260              	.LVL114:
 1261 03f2 4261     		str	r2, [r0, #20]
1257:/home/user/Desktop/STM32-Projekte/FH-Vertibot/src/STM32F30x_StdPeriph_Driver/src/stm32f30x_adc.c ****     /* Calculate the mask to set */
1258:/home/user/Desktop/STM32-Projekte/FH-Vertibot/src/STM32F30x_StdPeriph_Driver/src/stm32f30x_adc.c **** 	ADCx->SMPR1 |= (uint32_t)ADC_SampleTime << (3 * (ADC_Channel));
 1262              		.loc 1 1258 0
 1263 03f4 4269     		ldr	r2, [r0, #20]
 1264 03f6 0331     		adds	r1, r1, #3
 1265              	.LVL115:
 1266 03f8 8B40     		lsls	r3, r3, r1
 1267              	.LVL116:
 1268 03fa 1343     		orrs	r3, r3, r2
 1269 03fc 4361     		str	r3, [r0, #20]
 1270 03fe 30BD     		pop	{r4, r5, pc}
 1271              		.cfi_endproc
 1272              	.LFE140:
 1274              		.align	1
 1275              		.global	ADC_RegularChannelSequencerLengthConfig
 1276              		.thumb
 1277              		.thumb_func
 1279              	ADC_RegularChannelSequencerLengthConfig:
 1280              	.LFB141:
1259:/home/user/Desktop/STM32-Projekte/FH-Vertibot/src/STM32F30x_StdPeriph_Driver/src/stm32f30x_adc.c ****   }
1260:/home/user/Desktop/STM32-Projekte/FH-Vertibot/src/STM32F30x_StdPeriph_Driver/src/stm32f30x_adc.c **** }
1261:/home/user/Desktop/STM32-Projekte/FH-Vertibot/src/STM32F30x_StdPeriph_Driver/src/stm32f30x_adc.c **** 
1262:/home/user/Desktop/STM32-Projekte/FH-Vertibot/src/STM32F30x_StdPeriph_Driver/src/stm32f30x_adc.c **** /**
1263:/home/user/Desktop/STM32-Projekte/FH-Vertibot/src/STM32F30x_StdPeriph_Driver/src/stm32f30x_adc.c ****   * @brief  Sets the ADC regular channel sequence lenght.
1264:/home/user/Desktop/STM32-Projekte/FH-Vertibot/src/STM32F30x_StdPeriph_Driver/src/stm32f30x_adc.c ****   * @param  ADCx: where x can be 1, 2 or 3 to select the ADC peripheral.
1265:/home/user/Desktop/STM32-Projekte/FH-Vertibot/src/STM32F30x_StdPeriph_Driver/src/stm32f30x_adc.c ****   * @param  SequenceLength: The Regular sequence length. This parameter must be between 1 to 16.
1266:/home/user/Desktop/STM32-Projekte/FH-Vertibot/src/STM32F30x_StdPeriph_Driver/src/stm32f30x_adc.c ****   *   This parameter can be: ENABLE or DISABLE.
1267:/home/user/Desktop/STM32-Projekte/FH-Vertibot/src/STM32F30x_StdPeriph_Driver/src/stm32f30x_adc.c ****   * @retval None
1268:/home/user/Desktop/STM32-Projekte/FH-Vertibot/src/STM32F30x_StdPeriph_Driver/src/stm32f30x_adc.c ****   */
1269:/home/user/Desktop/STM32-Projekte/FH-Vertibot/src/STM32F30x_StdPeriph_Driver/src/stm32f30x_adc.c **** void ADC_RegularChannelSequencerLengthConfig(ADC_TypeDef* ADCx, uint8_t SequencerLength)
1270:/home/user/Desktop/STM32-Projekte/FH-Vertibot/src/STM32F30x_StdPeriph_Driver/src/stm32f30x_adc.c **** {
 1281              		.loc 1 1270 0
 1282              		.cfi_startproc
 1283              		@ args = 0, pretend = 0, frame = 0
 1284              		@ frame_needed = 0, uses_anonymous_args = 0
 1285              		@ link register save eliminated.
 1286              	.LVL117:
1271:/home/user/Desktop/STM32-Projekte/FH-Vertibot/src/STM32F30x_StdPeriph_Driver/src/stm32f30x_adc.c ****   /* Check the parameters */
1272:/home/user/Desktop/STM32-Projekte/FH-Vertibot/src/STM32F30x_StdPeriph_Driver/src/stm32f30x_adc.c ****   assert_param(IS_ADC_ALL_PERIPH(ADCx));
1273:/home/user/Desktop/STM32-Projekte/FH-Vertibot/src/STM32F30x_StdPeriph_Driver/src/stm32f30x_adc.c **** 
1274:/home/user/Desktop/STM32-Projekte/FH-Vertibot/src/STM32F30x_StdPeriph_Driver/src/stm32f30x_adc.c ****   /* Configure the ADC sequence lenght */  
1275:/home/user/Desktop/STM32-Projekte/FH-Vertibot/src/STM32F30x_StdPeriph_Driver/src/stm32f30x_adc.c ****   ADCx->SQR1 &= ~(uint32_t)ADC_SQR1_L;
 1287              		.loc 1 1275 0
 1288 0400 036B     		ldr	r3, [r0, #48]
 1289 0402 23F00F03 		bic	r3, r3, #15
 1290 0406 0363     		str	r3, [r0, #48]
1276:/home/user/Desktop/STM32-Projekte/FH-Vertibot/src/STM32F30x_StdPeriph_Driver/src/stm32f30x_adc.c ****   ADCx->SQR1 |= (uint32_t)(SequencerLength - 1);   
 1291              		.loc 1 1276 0
 1292 0408 036B     		ldr	r3, [r0, #48]
 1293 040a 0139     		subs	r1, r1, #1
 1294              	.LVL118:
 1295 040c 0B43     		orrs	r3, r3, r1
 1296 040e 0363     		str	r3, [r0, #48]
 1297 0410 7047     		bx	lr
 1298              		.cfi_endproc
 1299              	.LFE141:
 1301              		.align	1
 1302              		.global	ADC_ExternalTriggerConfig
 1303              		.thumb
 1304              		.thumb_func
 1306              	ADC_ExternalTriggerConfig:
 1307              	.LFB142:
1277:/home/user/Desktop/STM32-Projekte/FH-Vertibot/src/STM32F30x_StdPeriph_Driver/src/stm32f30x_adc.c **** }
1278:/home/user/Desktop/STM32-Projekte/FH-Vertibot/src/STM32F30x_StdPeriph_Driver/src/stm32f30x_adc.c **** 
1279:/home/user/Desktop/STM32-Projekte/FH-Vertibot/src/STM32F30x_StdPeriph_Driver/src/stm32f30x_adc.c **** /**
1280:/home/user/Desktop/STM32-Projekte/FH-Vertibot/src/STM32F30x_StdPeriph_Driver/src/stm32f30x_adc.c ****   * @brief  External Trigger Enable and Polarity Selection for regular channels.
1281:/home/user/Desktop/STM32-Projekte/FH-Vertibot/src/STM32F30x_StdPeriph_Driver/src/stm32f30x_adc.c ****   * @param  ADCx: where x can be 1, 2, 3 or 4 to select the ADC peripheral.
1282:/home/user/Desktop/STM32-Projekte/FH-Vertibot/src/STM32F30x_StdPeriph_Driver/src/stm32f30x_adc.c ****   * @param  ADC_ExternalTrigConvEvent: ADC external Trigger source.
1283:/home/user/Desktop/STM32-Projekte/FH-Vertibot/src/STM32F30x_StdPeriph_Driver/src/stm32f30x_adc.c ****   *   This parameter can be one of the following values:
1284:/home/user/Desktop/STM32-Projekte/FH-Vertibot/src/STM32F30x_StdPeriph_Driver/src/stm32f30x_adc.c ****   *     @arg ADC_ExternalTrigger_Event0: External trigger event 0 
1285:/home/user/Desktop/STM32-Projekte/FH-Vertibot/src/STM32F30x_StdPeriph_Driver/src/stm32f30x_adc.c ****   *     @arg ADC_ExternalTrigger_Event1: External trigger event 1
1286:/home/user/Desktop/STM32-Projekte/FH-Vertibot/src/STM32F30x_StdPeriph_Driver/src/stm32f30x_adc.c ****   *     @arg ADC_ExternalTrigger_Event2: External trigger event 2
1287:/home/user/Desktop/STM32-Projekte/FH-Vertibot/src/STM32F30x_StdPeriph_Driver/src/stm32f30x_adc.c ****   *     @arg ADC_ExternalTrigger_Event3: External trigger event 3
1288:/home/user/Desktop/STM32-Projekte/FH-Vertibot/src/STM32F30x_StdPeriph_Driver/src/stm32f30x_adc.c ****   *     @arg ADC_ExternalTrigger_Event4: External trigger event 4 
1289:/home/user/Desktop/STM32-Projekte/FH-Vertibot/src/STM32F30x_StdPeriph_Driver/src/stm32f30x_adc.c ****   *     @arg ADC_ExternalTrigger_Event5: External trigger event 5
1290:/home/user/Desktop/STM32-Projekte/FH-Vertibot/src/STM32F30x_StdPeriph_Driver/src/stm32f30x_adc.c ****   *     @arg ADC_ExternalTrigger_Event6: External trigger event 6
1291:/home/user/Desktop/STM32-Projekte/FH-Vertibot/src/STM32F30x_StdPeriph_Driver/src/stm32f30x_adc.c ****   *     @arg ADC_ExternalTrigger_Event7: External trigger event 7
1292:/home/user/Desktop/STM32-Projekte/FH-Vertibot/src/STM32F30x_StdPeriph_Driver/src/stm32f30x_adc.c ****   *     @arg ADC_ExternalTrigger_Event8: External trigger event 8 
1293:/home/user/Desktop/STM32-Projekte/FH-Vertibot/src/STM32F30x_StdPeriph_Driver/src/stm32f30x_adc.c ****   *     @arg ADC_ExternalTrigger_Event9: External trigger event 9
1294:/home/user/Desktop/STM32-Projekte/FH-Vertibot/src/STM32F30x_StdPeriph_Driver/src/stm32f30x_adc.c ****   *     @arg ADC_ExternalTrigger_Event10: External trigger event 10
1295:/home/user/Desktop/STM32-Projekte/FH-Vertibot/src/STM32F30x_StdPeriph_Driver/src/stm32f30x_adc.c ****   *     @arg ADC_ExternalTrigger_Event11: External trigger event 11
1296:/home/user/Desktop/STM32-Projekte/FH-Vertibot/src/STM32F30x_StdPeriph_Driver/src/stm32f30x_adc.c ****   *     @arg ADC_ExternalTrigger_Event12: External trigger event 12 
1297:/home/user/Desktop/STM32-Projekte/FH-Vertibot/src/STM32F30x_StdPeriph_Driver/src/stm32f30x_adc.c ****   *     @arg ADC_ExternalTrigger_Event13: External trigger event 13
1298:/home/user/Desktop/STM32-Projekte/FH-Vertibot/src/STM32F30x_StdPeriph_Driver/src/stm32f30x_adc.c ****   *     @arg ADC_ExternalTrigger_Event14: External trigger event 14
1299:/home/user/Desktop/STM32-Projekte/FH-Vertibot/src/STM32F30x_StdPeriph_Driver/src/stm32f30x_adc.c ****   *     @arg ADC_ExternalTrigger_Event15: External trigger event 15	  
1300:/home/user/Desktop/STM32-Projekte/FH-Vertibot/src/STM32F30x_StdPeriph_Driver/src/stm32f30x_adc.c ****   * @param  ADC_ExternalTrigEventEdge: ADC external Trigger Polarity.
1301:/home/user/Desktop/STM32-Projekte/FH-Vertibot/src/STM32F30x_StdPeriph_Driver/src/stm32f30x_adc.c ****   *   This parameter can be one of the following values:
1302:/home/user/Desktop/STM32-Projekte/FH-Vertibot/src/STM32F30x_StdPeriph_Driver/src/stm32f30x_adc.c ****   *     @arg ADC_ExternalTrigEventEdge_OFF: Hardware trigger detection disabled 
1303:/home/user/Desktop/STM32-Projekte/FH-Vertibot/src/STM32F30x_StdPeriph_Driver/src/stm32f30x_adc.c ****   *                                          (conversions can be launched by software)
1304:/home/user/Desktop/STM32-Projekte/FH-Vertibot/src/STM32F30x_StdPeriph_Driver/src/stm32f30x_adc.c ****   *     @arg ADC_ExternalTrigEventEdge_RisingEdge: Hardware trigger detection on the rising edge
1305:/home/user/Desktop/STM32-Projekte/FH-Vertibot/src/STM32F30x_StdPeriph_Driver/src/stm32f30x_adc.c ****   *     @arg ADC_ExternalTrigEventEdge_FallingEdge: Hardware trigger detection on the falling edge
1306:/home/user/Desktop/STM32-Projekte/FH-Vertibot/src/STM32F30x_StdPeriph_Driver/src/stm32f30x_adc.c ****   *     @arg ADC_ExternalTrigEventEdge_BothEdge: Hardware trigger detection on both the rising and 
1307:/home/user/Desktop/STM32-Projekte/FH-Vertibot/src/STM32F30x_StdPeriph_Driver/src/stm32f30x_adc.c ****   * @retval None
1308:/home/user/Desktop/STM32-Projekte/FH-Vertibot/src/STM32F30x_StdPeriph_Driver/src/stm32f30x_adc.c ****   */
1309:/home/user/Desktop/STM32-Projekte/FH-Vertibot/src/STM32F30x_StdPeriph_Driver/src/stm32f30x_adc.c **** void ADC_ExternalTriggerConfig(ADC_TypeDef* ADCx, uint16_t ADC_ExternalTrigConvEvent, uint16_t ADC_
1310:/home/user/Desktop/STM32-Projekte/FH-Vertibot/src/STM32F30x_StdPeriph_Driver/src/stm32f30x_adc.c **** {
 1308              		.loc 1 1310 0
 1309              		.cfi_startproc
 1310              		@ args = 0, pretend = 0, frame = 0
 1311              		@ frame_needed = 0, uses_anonymous_args = 0
 1312              		@ link register save eliminated.
 1313              	.LVL119:
1311:/home/user/Desktop/STM32-Projekte/FH-Vertibot/src/STM32F30x_StdPeriph_Driver/src/stm32f30x_adc.c ****   /* Check the parameters */
1312:/home/user/Desktop/STM32-Projekte/FH-Vertibot/src/STM32F30x_StdPeriph_Driver/src/stm32f30x_adc.c ****   assert_param(IS_ADC_ALL_PERIPH(ADCx));
1313:/home/user/Desktop/STM32-Projekte/FH-Vertibot/src/STM32F30x_StdPeriph_Driver/src/stm32f30x_adc.c ****   assert_param(IS_ADC_EXT_TRIG(ADC_ExternalTrigConvEvent));
1314:/home/user/Desktop/STM32-Projekte/FH-Vertibot/src/STM32F30x_StdPeriph_Driver/src/stm32f30x_adc.c ****   assert_param(IS_EXTERNALTRIG_EDGE(ADC_ExternalTrigEventEdge));
1315:/home/user/Desktop/STM32-Projekte/FH-Vertibot/src/STM32F30x_StdPeriph_Driver/src/stm32f30x_adc.c **** 
1316:/home/user/Desktop/STM32-Projekte/FH-Vertibot/src/STM32F30x_StdPeriph_Driver/src/stm32f30x_adc.c ****   /* Disable the selected ADC conversion on external event */
1317:/home/user/Desktop/STM32-Projekte/FH-Vertibot/src/STM32F30x_StdPeriph_Driver/src/stm32f30x_adc.c ****   ADCx->CFGR &= ~(ADC_CFGR_EXTEN | ADC_CFGR_EXTSEL);
 1314              		.loc 1 1317 0
 1315 0412 C368     		ldr	r3, [r0, #12]
 1316 0414 23F47C63 		bic	r3, r3, #4032
 1317 0418 C360     		str	r3, [r0, #12]
1318:/home/user/Desktop/STM32-Projekte/FH-Vertibot/src/STM32F30x_StdPeriph_Driver/src/stm32f30x_adc.c ****   ADCx->CFGR |= (uint32_t)(ADC_ExternalTrigEventEdge | ADC_ExternalTrigConvEvent);
 1318              		.loc 1 1318 0
 1319 041a C368     		ldr	r3, [r0, #12]
 1320 041c 0A43     		orrs	r2, r2, r1
 1321              	.LVL120:
 1322 041e 1343     		orrs	r3, r3, r2
 1323 0420 C360     		str	r3, [r0, #12]
 1324 0422 7047     		bx	lr
 1325              		.cfi_endproc
 1326              	.LFE142:
 1328              		.align	1
 1329              		.global	ADC_StartConversion
 1330              		.thumb
 1331              		.thumb_func
 1333              	ADC_StartConversion:
 1334              	.LFB143:
1319:/home/user/Desktop/STM32-Projekte/FH-Vertibot/src/STM32F30x_StdPeriph_Driver/src/stm32f30x_adc.c **** }
1320:/home/user/Desktop/STM32-Projekte/FH-Vertibot/src/STM32F30x_StdPeriph_Driver/src/stm32f30x_adc.c **** 
1321:/home/user/Desktop/STM32-Projekte/FH-Vertibot/src/STM32F30x_StdPeriph_Driver/src/stm32f30x_adc.c **** /**
1322:/home/user/Desktop/STM32-Projekte/FH-Vertibot/src/STM32F30x_StdPeriph_Driver/src/stm32f30x_adc.c ****   * @brief  Enables or disables the selected ADC start conversion .
1323:/home/user/Desktop/STM32-Projekte/FH-Vertibot/src/STM32F30x_StdPeriph_Driver/src/stm32f30x_adc.c ****   * @param  ADCx: where x can be 1, 2, 3 or 4 to select the ADC peripheral.
1324:/home/user/Desktop/STM32-Projekte/FH-Vertibot/src/STM32F30x_StdPeriph_Driver/src/stm32f30x_adc.c ****   * @retval None
1325:/home/user/Desktop/STM32-Projekte/FH-Vertibot/src/STM32F30x_StdPeriph_Driver/src/stm32f30x_adc.c ****   */
1326:/home/user/Desktop/STM32-Projekte/FH-Vertibot/src/STM32F30x_StdPeriph_Driver/src/stm32f30x_adc.c **** void ADC_StartConversion(ADC_TypeDef* ADCx)
1327:/home/user/Desktop/STM32-Projekte/FH-Vertibot/src/STM32F30x_StdPeriph_Driver/src/stm32f30x_adc.c **** {
 1335              		.loc 1 1327 0
 1336              		.cfi_startproc
 1337              		@ args = 0, pretend = 0, frame = 0
 1338              		@ frame_needed = 0, uses_anonymous_args = 0
 1339              		@ link register save eliminated.
 1340              	.LVL121:
1328:/home/user/Desktop/STM32-Projekte/FH-Vertibot/src/STM32F30x_StdPeriph_Driver/src/stm32f30x_adc.c ****   /* Check the parameters */
1329:/home/user/Desktop/STM32-Projekte/FH-Vertibot/src/STM32F30x_StdPeriph_Driver/src/stm32f30x_adc.c ****   assert_param(IS_ADC_ALL_PERIPH(ADCx));
1330:/home/user/Desktop/STM32-Projekte/FH-Vertibot/src/STM32F30x_StdPeriph_Driver/src/stm32f30x_adc.c **** 
1331:/home/user/Desktop/STM32-Projekte/FH-Vertibot/src/STM32F30x_StdPeriph_Driver/src/stm32f30x_adc.c ****   /* Set the ADSTART bit */
1332:/home/user/Desktop/STM32-Projekte/FH-Vertibot/src/STM32F30x_StdPeriph_Driver/src/stm32f30x_adc.c ****   ADCx->CR |= ADC_CR_ADSTART;
 1341              		.loc 1 1332 0
 1342 0424 8368     		ldr	r3, [r0, #8]
 1343 0426 43F00403 		orr	r3, r3, #4
 1344 042a 8360     		str	r3, [r0, #8]
 1345 042c 7047     		bx	lr
 1346              		.cfi_endproc
 1347              	.LFE143:
 1349              		.align	1
 1350              		.global	ADC_GetStartConversionStatus
 1351              		.thumb
 1352              		.thumb_func
 1354              	ADC_GetStartConversionStatus:
 1355              	.LFB144:
1333:/home/user/Desktop/STM32-Projekte/FH-Vertibot/src/STM32F30x_StdPeriph_Driver/src/stm32f30x_adc.c **** }
1334:/home/user/Desktop/STM32-Projekte/FH-Vertibot/src/STM32F30x_StdPeriph_Driver/src/stm32f30x_adc.c **** 
1335:/home/user/Desktop/STM32-Projekte/FH-Vertibot/src/STM32F30x_StdPeriph_Driver/src/stm32f30x_adc.c **** /**
1336:/home/user/Desktop/STM32-Projekte/FH-Vertibot/src/STM32F30x_StdPeriph_Driver/src/stm32f30x_adc.c ****   * @brief  Gets the selected ADC start conversion Status.
1337:/home/user/Desktop/STM32-Projekte/FH-Vertibot/src/STM32F30x_StdPeriph_Driver/src/stm32f30x_adc.c ****   * @param  ADCx: where x can be 1, 2, 3 or 4 to select the ADC peripheral.
1338:/home/user/Desktop/STM32-Projekte/FH-Vertibot/src/STM32F30x_StdPeriph_Driver/src/stm32f30x_adc.c ****   * @retval The new state of ADC start conversion (SET or RESET).
1339:/home/user/Desktop/STM32-Projekte/FH-Vertibot/src/STM32F30x_StdPeriph_Driver/src/stm32f30x_adc.c ****   */
1340:/home/user/Desktop/STM32-Projekte/FH-Vertibot/src/STM32F30x_StdPeriph_Driver/src/stm32f30x_adc.c **** FlagStatus ADC_GetStartConversionStatus(ADC_TypeDef* ADCx)
1341:/home/user/Desktop/STM32-Projekte/FH-Vertibot/src/STM32F30x_StdPeriph_Driver/src/stm32f30x_adc.c **** {
 1356              		.loc 1 1341 0
 1357              		.cfi_startproc
 1358              		@ args = 0, pretend = 0, frame = 0
 1359              		@ frame_needed = 0, uses_anonymous_args = 0
 1360              		@ link register save eliminated.
 1361              	.LVL122:
1342:/home/user/Desktop/STM32-Projekte/FH-Vertibot/src/STM32F30x_StdPeriph_Driver/src/stm32f30x_adc.c ****   FlagStatus bitstatus = RESET;
1343:/home/user/Desktop/STM32-Projekte/FH-Vertibot/src/STM32F30x_StdPeriph_Driver/src/stm32f30x_adc.c ****   /* Check the parameters */
1344:/home/user/Desktop/STM32-Projekte/FH-Vertibot/src/STM32F30x_StdPeriph_Driver/src/stm32f30x_adc.c ****   assert_param(IS_ADC_ALL_PERIPH(ADCx));
1345:/home/user/Desktop/STM32-Projekte/FH-Vertibot/src/STM32F30x_StdPeriph_Driver/src/stm32f30x_adc.c ****   /* Check the status of ADSTART bit */
1346:/home/user/Desktop/STM32-Projekte/FH-Vertibot/src/STM32F30x_StdPeriph_Driver/src/stm32f30x_adc.c ****   if ((ADCx->CR & ADC_CR_ADSTART) != (uint32_t)RESET)
 1362              		.loc 1 1346 0
 1363 042e 8068     		ldr	r0, [r0, #8]
 1364              	.LVL123:
1347:/home/user/Desktop/STM32-Projekte/FH-Vertibot/src/STM32F30x_StdPeriph_Driver/src/stm32f30x_adc.c ****   {
1348:/home/user/Desktop/STM32-Projekte/FH-Vertibot/src/STM32F30x_StdPeriph_Driver/src/stm32f30x_adc.c ****     /* ADSTART bit is set */
1349:/home/user/Desktop/STM32-Projekte/FH-Vertibot/src/STM32F30x_StdPeriph_Driver/src/stm32f30x_adc.c ****     bitstatus = SET;
1350:/home/user/Desktop/STM32-Projekte/FH-Vertibot/src/STM32F30x_StdPeriph_Driver/src/stm32f30x_adc.c ****   }
1351:/home/user/Desktop/STM32-Projekte/FH-Vertibot/src/STM32F30x_StdPeriph_Driver/src/stm32f30x_adc.c ****   else
1352:/home/user/Desktop/STM32-Projekte/FH-Vertibot/src/STM32F30x_StdPeriph_Driver/src/stm32f30x_adc.c ****   {
1353:/home/user/Desktop/STM32-Projekte/FH-Vertibot/src/STM32F30x_StdPeriph_Driver/src/stm32f30x_adc.c ****     /* ADSTART bit is reset */
1354:/home/user/Desktop/STM32-Projekte/FH-Vertibot/src/STM32F30x_StdPeriph_Driver/src/stm32f30x_adc.c ****     bitstatus = RESET;
1355:/home/user/Desktop/STM32-Projekte/FH-Vertibot/src/STM32F30x_StdPeriph_Driver/src/stm32f30x_adc.c ****   }
1356:/home/user/Desktop/STM32-Projekte/FH-Vertibot/src/STM32F30x_StdPeriph_Driver/src/stm32f30x_adc.c ****   /* Return the ADSTART bit status */
1357:/home/user/Desktop/STM32-Projekte/FH-Vertibot/src/STM32F30x_StdPeriph_Driver/src/stm32f30x_adc.c ****   return  bitstatus;
1358:/home/user/Desktop/STM32-Projekte/FH-Vertibot/src/STM32F30x_StdPeriph_Driver/src/stm32f30x_adc.c **** }
 1365              		.loc 1 1358 0
 1366 0430 C0F38000 		ubfx	r0, r0, #2, #1
 1367              	.LVL124:
 1368 0434 7047     		bx	lr
 1369              		.cfi_endproc
 1370              	.LFE144:
 1372              		.align	1
 1373              		.global	ADC_StopConversion
 1374              		.thumb
 1375              		.thumb_func
 1377              	ADC_StopConversion:
 1378              	.LFB145:
1359:/home/user/Desktop/STM32-Projekte/FH-Vertibot/src/STM32F30x_StdPeriph_Driver/src/stm32f30x_adc.c **** 
1360:/home/user/Desktop/STM32-Projekte/FH-Vertibot/src/STM32F30x_StdPeriph_Driver/src/stm32f30x_adc.c **** /**
1361:/home/user/Desktop/STM32-Projekte/FH-Vertibot/src/STM32F30x_StdPeriph_Driver/src/stm32f30x_adc.c ****   * @brief  Stops the selected ADC ongoing conversion.
1362:/home/user/Desktop/STM32-Projekte/FH-Vertibot/src/STM32F30x_StdPeriph_Driver/src/stm32f30x_adc.c ****   * @param  ADCx: where x can be 1, 2, 3 or 4 to select the ADC peripheral.
1363:/home/user/Desktop/STM32-Projekte/FH-Vertibot/src/STM32F30x_StdPeriph_Driver/src/stm32f30x_adc.c ****   * @retval None
1364:/home/user/Desktop/STM32-Projekte/FH-Vertibot/src/STM32F30x_StdPeriph_Driver/src/stm32f30x_adc.c ****   */
1365:/home/user/Desktop/STM32-Projekte/FH-Vertibot/src/STM32F30x_StdPeriph_Driver/src/stm32f30x_adc.c **** void ADC_StopConversion(ADC_TypeDef* ADCx)
1366:/home/user/Desktop/STM32-Projekte/FH-Vertibot/src/STM32F30x_StdPeriph_Driver/src/stm32f30x_adc.c **** {
 1379              		.loc 1 1366 0
 1380              		.cfi_startproc
 1381              		@ args = 0, pretend = 0, frame = 0
 1382              		@ frame_needed = 0, uses_anonymous_args = 0
 1383              		@ link register save eliminated.
 1384              	.LVL125:
1367:/home/user/Desktop/STM32-Projekte/FH-Vertibot/src/STM32F30x_StdPeriph_Driver/src/stm32f30x_adc.c ****   /* Check the parameters */
1368:/home/user/Desktop/STM32-Projekte/FH-Vertibot/src/STM32F30x_StdPeriph_Driver/src/stm32f30x_adc.c ****   assert_param(IS_ADC_ALL_PERIPH(ADCx));
1369:/home/user/Desktop/STM32-Projekte/FH-Vertibot/src/STM32F30x_StdPeriph_Driver/src/stm32f30x_adc.c **** 
1370:/home/user/Desktop/STM32-Projekte/FH-Vertibot/src/STM32F30x_StdPeriph_Driver/src/stm32f30x_adc.c ****   /* Set the ADSTP bit */
1371:/home/user/Desktop/STM32-Projekte/FH-Vertibot/src/STM32F30x_StdPeriph_Driver/src/stm32f30x_adc.c ****    ADCx->CR |= ADC_CR_ADSTP;
 1385              		.loc 1 1371 0
 1386 0436 8368     		ldr	r3, [r0, #8]
 1387 0438 43F01003 		orr	r3, r3, #16
 1388 043c 8360     		str	r3, [r0, #8]
 1389 043e 7047     		bx	lr
 1390              		.cfi_endproc
 1391              	.LFE145:
 1393              		.align	1
 1394              		.global	ADC_DiscModeChannelCountConfig
 1395              		.thumb
 1396              		.thumb_func
 1398              	ADC_DiscModeChannelCountConfig:
 1399              	.LFB146:
1372:/home/user/Desktop/STM32-Projekte/FH-Vertibot/src/STM32F30x_StdPeriph_Driver/src/stm32f30x_adc.c **** }
1373:/home/user/Desktop/STM32-Projekte/FH-Vertibot/src/STM32F30x_StdPeriph_Driver/src/stm32f30x_adc.c **** 
1374:/home/user/Desktop/STM32-Projekte/FH-Vertibot/src/STM32F30x_StdPeriph_Driver/src/stm32f30x_adc.c **** 
1375:/home/user/Desktop/STM32-Projekte/FH-Vertibot/src/STM32F30x_StdPeriph_Driver/src/stm32f30x_adc.c **** /**
1376:/home/user/Desktop/STM32-Projekte/FH-Vertibot/src/STM32F30x_StdPeriph_Driver/src/stm32f30x_adc.c ****   * @brief  Configures the discontinuous mode for the selected ADC regular
1377:/home/user/Desktop/STM32-Projekte/FH-Vertibot/src/STM32F30x_StdPeriph_Driver/src/stm32f30x_adc.c ****   *         group channel.
1378:/home/user/Desktop/STM32-Projekte/FH-Vertibot/src/STM32F30x_StdPeriph_Driver/src/stm32f30x_adc.c ****   * @param  ADCx: where x can be 1, 2, 3 or 4 to select the ADC peripheral.
1379:/home/user/Desktop/STM32-Projekte/FH-Vertibot/src/STM32F30x_StdPeriph_Driver/src/stm32f30x_adc.c ****   * @param  Number: specifies the discontinuous mode regular channel
1380:/home/user/Desktop/STM32-Projekte/FH-Vertibot/src/STM32F30x_StdPeriph_Driver/src/stm32f30x_adc.c ****   *         count value. This number must be between 1 and 8.
1381:/home/user/Desktop/STM32-Projekte/FH-Vertibot/src/STM32F30x_StdPeriph_Driver/src/stm32f30x_adc.c ****   * @retval None
1382:/home/user/Desktop/STM32-Projekte/FH-Vertibot/src/STM32F30x_StdPeriph_Driver/src/stm32f30x_adc.c ****   */
1383:/home/user/Desktop/STM32-Projekte/FH-Vertibot/src/STM32F30x_StdPeriph_Driver/src/stm32f30x_adc.c **** void ADC_DiscModeChannelCountConfig(ADC_TypeDef* ADCx, uint8_t Number)
1384:/home/user/Desktop/STM32-Projekte/FH-Vertibot/src/STM32F30x_StdPeriph_Driver/src/stm32f30x_adc.c **** {
 1400              		.loc 1 1384 0
 1401              		.cfi_startproc
 1402              		@ args = 0, pretend = 0, frame = 0
 1403              		@ frame_needed = 0, uses_anonymous_args = 0
 1404              		@ link register save eliminated.
 1405              	.LVL126:
1385:/home/user/Desktop/STM32-Projekte/FH-Vertibot/src/STM32F30x_StdPeriph_Driver/src/stm32f30x_adc.c ****   uint32_t tmpreg1 = 0;
1386:/home/user/Desktop/STM32-Projekte/FH-Vertibot/src/STM32F30x_StdPeriph_Driver/src/stm32f30x_adc.c ****   uint32_t tmpreg2 = 0;
1387:/home/user/Desktop/STM32-Projekte/FH-Vertibot/src/STM32F30x_StdPeriph_Driver/src/stm32f30x_adc.c ****   /* Check the parameters */
1388:/home/user/Desktop/STM32-Projekte/FH-Vertibot/src/STM32F30x_StdPeriph_Driver/src/stm32f30x_adc.c ****   assert_param(IS_ADC_ALL_PERIPH(ADCx));
1389:/home/user/Desktop/STM32-Projekte/FH-Vertibot/src/STM32F30x_StdPeriph_Driver/src/stm32f30x_adc.c ****   assert_param(IS_ADC_REGULAR_DISC_NUMBER(Number));
1390:/home/user/Desktop/STM32-Projekte/FH-Vertibot/src/STM32F30x_StdPeriph_Driver/src/stm32f30x_adc.c ****   /* Get the old register value */
1391:/home/user/Desktop/STM32-Projekte/FH-Vertibot/src/STM32F30x_StdPeriph_Driver/src/stm32f30x_adc.c ****   tmpreg1 = ADCx->CFGR;
 1406              		.loc 1 1391 0
 1407 0440 C368     		ldr	r3, [r0, #12]
 1408              	.LVL127:
1392:/home/user/Desktop/STM32-Projekte/FH-Vertibot/src/STM32F30x_StdPeriph_Driver/src/stm32f30x_adc.c ****   /* Clear the old discontinuous mode channel count */
1393:/home/user/Desktop/STM32-Projekte/FH-Vertibot/src/STM32F30x_StdPeriph_Driver/src/stm32f30x_adc.c ****   tmpreg1 &= ~(uint32_t)(ADC_CFGR_DISCNUM);
1394:/home/user/Desktop/STM32-Projekte/FH-Vertibot/src/STM32F30x_StdPeriph_Driver/src/stm32f30x_adc.c ****   /* Set the discontinuous mode channel count */
1395:/home/user/Desktop/STM32-Projekte/FH-Vertibot/src/STM32F30x_StdPeriph_Driver/src/stm32f30x_adc.c ****   tmpreg2 = Number - 1;
 1409              		.loc 1 1395 0
 1410 0442 0139     		subs	r1, r1, #1
 1411              	.LVL128:
1393:/home/user/Desktop/STM32-Projekte/FH-Vertibot/src/STM32F30x_StdPeriph_Driver/src/stm32f30x_adc.c ****   tmpreg1 &= ~(uint32_t)(ADC_CFGR_DISCNUM);
 1412              		.loc 1 1393 0
 1413 0444 23F46023 		bic	r3, r3, #917504
 1414              	.LVL129:
1396:/home/user/Desktop/STM32-Projekte/FH-Vertibot/src/STM32F30x_StdPeriph_Driver/src/stm32f30x_adc.c ****   tmpreg1 |= tmpreg2 << 17;
 1415              		.loc 1 1396 0
 1416 0448 43EA4143 		orr	r3, r3, r1, lsl #17
 1417              	.LVL130:
1397:/home/user/Desktop/STM32-Projekte/FH-Vertibot/src/STM32F30x_StdPeriph_Driver/src/stm32f30x_adc.c ****   /* Store the new register value */
1398:/home/user/Desktop/STM32-Projekte/FH-Vertibot/src/STM32F30x_StdPeriph_Driver/src/stm32f30x_adc.c ****   ADCx->CFGR = tmpreg1;
 1418              		.loc 1 1398 0
 1419 044c C360     		str	r3, [r0, #12]
 1420 044e 7047     		bx	lr
 1421              		.cfi_endproc
 1422              	.LFE146:
 1424              		.align	1
 1425              		.global	ADC_DiscModeCmd
 1426              		.thumb
 1427              		.thumb_func
 1429              	ADC_DiscModeCmd:
 1430              	.LFB147:
1399:/home/user/Desktop/STM32-Projekte/FH-Vertibot/src/STM32F30x_StdPeriph_Driver/src/stm32f30x_adc.c **** }
1400:/home/user/Desktop/STM32-Projekte/FH-Vertibot/src/STM32F30x_StdPeriph_Driver/src/stm32f30x_adc.c **** 
1401:/home/user/Desktop/STM32-Projekte/FH-Vertibot/src/STM32F30x_StdPeriph_Driver/src/stm32f30x_adc.c **** /**
1402:/home/user/Desktop/STM32-Projekte/FH-Vertibot/src/STM32F30x_StdPeriph_Driver/src/stm32f30x_adc.c ****   * @brief  Enables or disables the discontinuous mode on regular group
1403:/home/user/Desktop/STM32-Projekte/FH-Vertibot/src/STM32F30x_StdPeriph_Driver/src/stm32f30x_adc.c ****   *         channel for the specified ADC
1404:/home/user/Desktop/STM32-Projekte/FH-Vertibot/src/STM32F30x_StdPeriph_Driver/src/stm32f30x_adc.c ****   * @param  ADCx: where x can be 1, 2, 3 or 4 to select the ADC peripheral.
1405:/home/user/Desktop/STM32-Projekte/FH-Vertibot/src/STM32F30x_StdPeriph_Driver/src/stm32f30x_adc.c ****   * @param  NewState: new state of the selected ADC discontinuous mode
1406:/home/user/Desktop/STM32-Projekte/FH-Vertibot/src/STM32F30x_StdPeriph_Driver/src/stm32f30x_adc.c ****   *         on regular group channel.
1407:/home/user/Desktop/STM32-Projekte/FH-Vertibot/src/STM32F30x_StdPeriph_Driver/src/stm32f30x_adc.c ****   *         This parameter can be: ENABLE or DISABLE.
1408:/home/user/Desktop/STM32-Projekte/FH-Vertibot/src/STM32F30x_StdPeriph_Driver/src/stm32f30x_adc.c ****   * @retval None
1409:/home/user/Desktop/STM32-Projekte/FH-Vertibot/src/STM32F30x_StdPeriph_Driver/src/stm32f30x_adc.c ****   */
1410:/home/user/Desktop/STM32-Projekte/FH-Vertibot/src/STM32F30x_StdPeriph_Driver/src/stm32f30x_adc.c **** void ADC_DiscModeCmd(ADC_TypeDef* ADCx, FunctionalState NewState)
1411:/home/user/Desktop/STM32-Projekte/FH-Vertibot/src/STM32F30x_StdPeriph_Driver/src/stm32f30x_adc.c **** {
 1431              		.loc 1 1411 0
 1432              		.cfi_startproc
 1433              		@ args = 0, pretend = 0, frame = 0
 1434              		@ frame_needed = 0, uses_anonymous_args = 0
 1435              		@ link register save eliminated.
 1436              	.LVL131:
1412:/home/user/Desktop/STM32-Projekte/FH-Vertibot/src/STM32F30x_StdPeriph_Driver/src/stm32f30x_adc.c ****   /* Check the parameters */
1413:/home/user/Desktop/STM32-Projekte/FH-Vertibot/src/STM32F30x_StdPeriph_Driver/src/stm32f30x_adc.c ****   assert_param(IS_ADC_ALL_PERIPH(ADCx));
1414:/home/user/Desktop/STM32-Projekte/FH-Vertibot/src/STM32F30x_StdPeriph_Driver/src/stm32f30x_adc.c ****   assert_param(IS_FUNCTIONAL_STATE(NewState));
1415:/home/user/Desktop/STM32-Projekte/FH-Vertibot/src/STM32F30x_StdPeriph_Driver/src/stm32f30x_adc.c ****   if (NewState != DISABLE)
1416:/home/user/Desktop/STM32-Projekte/FH-Vertibot/src/STM32F30x_StdPeriph_Driver/src/stm32f30x_adc.c ****   {
1417:/home/user/Desktop/STM32-Projekte/FH-Vertibot/src/STM32F30x_StdPeriph_Driver/src/stm32f30x_adc.c ****     /* Enable the selected ADC regular discontinuous mode */
1418:/home/user/Desktop/STM32-Projekte/FH-Vertibot/src/STM32F30x_StdPeriph_Driver/src/stm32f30x_adc.c ****     ADCx->CFGR |= ADC_CFGR_DISCEN;
 1437              		.loc 1 1418 0
 1438 0450 C368     		ldr	r3, [r0, #12]
1415:/home/user/Desktop/STM32-Projekte/FH-Vertibot/src/STM32F30x_StdPeriph_Driver/src/stm32f30x_adc.c ****   if (NewState != DISABLE)
 1439              		.loc 1 1415 0
 1440 0452 11B1     		cbz	r1, .L134
 1441              		.loc 1 1418 0
 1442 0454 43F48033 		orr	r3, r3, #65536
 1443 0458 01E0     		b	.L136
 1444              	.L134:
1419:/home/user/Desktop/STM32-Projekte/FH-Vertibot/src/STM32F30x_StdPeriph_Driver/src/stm32f30x_adc.c ****   }
1420:/home/user/Desktop/STM32-Projekte/FH-Vertibot/src/STM32F30x_StdPeriph_Driver/src/stm32f30x_adc.c ****   else
1421:/home/user/Desktop/STM32-Projekte/FH-Vertibot/src/STM32F30x_StdPeriph_Driver/src/stm32f30x_adc.c ****   {
1422:/home/user/Desktop/STM32-Projekte/FH-Vertibot/src/STM32F30x_StdPeriph_Driver/src/stm32f30x_adc.c ****     /* Disable the selected ADC regular discontinuous mode */
1423:/home/user/Desktop/STM32-Projekte/FH-Vertibot/src/STM32F30x_StdPeriph_Driver/src/stm32f30x_adc.c ****     ADCx->CFGR &= ~(uint32_t)(ADC_CFGR_DISCEN);
 1445              		.loc 1 1423 0
 1446 045a 23F48033 		bic	r3, r3, #65536
 1447              	.L136:
 1448 045e C360     		str	r3, [r0, #12]
 1449 0460 7047     		bx	lr
 1450              		.cfi_endproc
 1451              	.LFE147:
 1453              		.align	1
 1454              		.global	ADC_GetConversionValue
 1455              		.thumb
 1456              		.thumb_func
 1458              	ADC_GetConversionValue:
 1459              	.LFB148:
1424:/home/user/Desktop/STM32-Projekte/FH-Vertibot/src/STM32F30x_StdPeriph_Driver/src/stm32f30x_adc.c ****   }
1425:/home/user/Desktop/STM32-Projekte/FH-Vertibot/src/STM32F30x_StdPeriph_Driver/src/stm32f30x_adc.c **** }
1426:/home/user/Desktop/STM32-Projekte/FH-Vertibot/src/STM32F30x_StdPeriph_Driver/src/stm32f30x_adc.c **** 
1427:/home/user/Desktop/STM32-Projekte/FH-Vertibot/src/STM32F30x_StdPeriph_Driver/src/stm32f30x_adc.c **** /**
1428:/home/user/Desktop/STM32-Projekte/FH-Vertibot/src/STM32F30x_StdPeriph_Driver/src/stm32f30x_adc.c ****   * @brief  Returns the last ADCx conversion result data for regular channel.
1429:/home/user/Desktop/STM32-Projekte/FH-Vertibot/src/STM32F30x_StdPeriph_Driver/src/stm32f30x_adc.c ****   * @param  ADCx: where x can be 1, 2, 3 or 4 to select the ADC peripheral.
1430:/home/user/Desktop/STM32-Projekte/FH-Vertibot/src/STM32F30x_StdPeriph_Driver/src/stm32f30x_adc.c ****   * @retval The Data conversion value.
1431:/home/user/Desktop/STM32-Projekte/FH-Vertibot/src/STM32F30x_StdPeriph_Driver/src/stm32f30x_adc.c ****   */
1432:/home/user/Desktop/STM32-Projekte/FH-Vertibot/src/STM32F30x_StdPeriph_Driver/src/stm32f30x_adc.c **** uint16_t ADC_GetConversionValue(ADC_TypeDef* ADCx)
1433:/home/user/Desktop/STM32-Projekte/FH-Vertibot/src/STM32F30x_StdPeriph_Driver/src/stm32f30x_adc.c **** {
 1460              		.loc 1 1433 0
 1461              		.cfi_startproc
 1462              		@ args = 0, pretend = 0, frame = 0
 1463              		@ frame_needed = 0, uses_anonymous_args = 0
 1464              		@ link register save eliminated.
 1465              	.LVL132:
1434:/home/user/Desktop/STM32-Projekte/FH-Vertibot/src/STM32F30x_StdPeriph_Driver/src/stm32f30x_adc.c ****   /* Check the parameters */
1435:/home/user/Desktop/STM32-Projekte/FH-Vertibot/src/STM32F30x_StdPeriph_Driver/src/stm32f30x_adc.c ****   assert_param(IS_ADC_ALL_PERIPH(ADCx));
1436:/home/user/Desktop/STM32-Projekte/FH-Vertibot/src/STM32F30x_StdPeriph_Driver/src/stm32f30x_adc.c ****   /* Return the selected ADC conversion value */
1437:/home/user/Desktop/STM32-Projekte/FH-Vertibot/src/STM32F30x_StdPeriph_Driver/src/stm32f30x_adc.c ****   return (uint16_t) ADCx->DR;
 1466              		.loc 1 1437 0
 1467 0462 006C     		ldr	r0, [r0, #64]
 1468              	.LVL133:
1438:/home/user/Desktop/STM32-Projekte/FH-Vertibot/src/STM32F30x_StdPeriph_Driver/src/stm32f30x_adc.c **** }
 1469              		.loc 1 1438 0
 1470 0464 80B2     		uxth	r0, r0
 1471 0466 7047     		bx	lr
 1472              		.cfi_endproc
 1473              	.LFE148:
 1475              		.align	1
 1476              		.global	ADC_GetDualModeConversionValue
 1477              		.thumb
 1478              		.thumb_func
 1480              	ADC_GetDualModeConversionValue:
 1481              	.LFB149:
1439:/home/user/Desktop/STM32-Projekte/FH-Vertibot/src/STM32F30x_StdPeriph_Driver/src/stm32f30x_adc.c **** 
1440:/home/user/Desktop/STM32-Projekte/FH-Vertibot/src/STM32F30x_StdPeriph_Driver/src/stm32f30x_adc.c **** /**
1441:/home/user/Desktop/STM32-Projekte/FH-Vertibot/src/STM32F30x_StdPeriph_Driver/src/stm32f30x_adc.c ****   * @brief  Returns the last ADC1, ADC2, ADC3 and ADC4 regular conversions results 
1442:/home/user/Desktop/STM32-Projekte/FH-Vertibot/src/STM32F30x_StdPeriph_Driver/src/stm32f30x_adc.c ****   *         data in the selected dual mode.
1443:/home/user/Desktop/STM32-Projekte/FH-Vertibot/src/STM32F30x_StdPeriph_Driver/src/stm32f30x_adc.c ****   * @param  ADCx: where x can be 1, 2, 3 or 4 to select the ADC peripheral.  
1444:/home/user/Desktop/STM32-Projekte/FH-Vertibot/src/STM32F30x_StdPeriph_Driver/src/stm32f30x_adc.c ****   * @retval The Data conversion value.
1445:/home/user/Desktop/STM32-Projekte/FH-Vertibot/src/STM32F30x_StdPeriph_Driver/src/stm32f30x_adc.c ****   * @note   In dual mode, the value returned by this function is as following
1446:/home/user/Desktop/STM32-Projekte/FH-Vertibot/src/STM32F30x_StdPeriph_Driver/src/stm32f30x_adc.c ****   *           Data[15:0] : these bits contain the regular data of the Master ADC.
1447:/home/user/Desktop/STM32-Projekte/FH-Vertibot/src/STM32F30x_StdPeriph_Driver/src/stm32f30x_adc.c ****   *           Data[31:16]: these bits contain the regular data of the Slave ADC.           
1448:/home/user/Desktop/STM32-Projekte/FH-Vertibot/src/STM32F30x_StdPeriph_Driver/src/stm32f30x_adc.c ****   */
1449:/home/user/Desktop/STM32-Projekte/FH-Vertibot/src/STM32F30x_StdPeriph_Driver/src/stm32f30x_adc.c **** uint32_t ADC_GetDualModeConversionValue(ADC_TypeDef* ADCx)
1450:/home/user/Desktop/STM32-Projekte/FH-Vertibot/src/STM32F30x_StdPeriph_Driver/src/stm32f30x_adc.c **** {
 1482              		.loc 1 1450 0
 1483              		.cfi_startproc
 1484              		@ args = 0, pretend = 0, frame = 0
 1485              		@ frame_needed = 0, uses_anonymous_args = 0
 1486              		@ link register save eliminated.
 1487              	.LVL134:
1451:/home/user/Desktop/STM32-Projekte/FH-Vertibot/src/STM32F30x_StdPeriph_Driver/src/stm32f30x_adc.c ****   uint32_t tmpreg1 = 0;
1452:/home/user/Desktop/STM32-Projekte/FH-Vertibot/src/STM32F30x_StdPeriph_Driver/src/stm32f30x_adc.c **** 
1453:/home/user/Desktop/STM32-Projekte/FH-Vertibot/src/STM32F30x_StdPeriph_Driver/src/stm32f30x_adc.c ****   /* Check the parameters */
1454:/home/user/Desktop/STM32-Projekte/FH-Vertibot/src/STM32F30x_StdPeriph_Driver/src/stm32f30x_adc.c ****   assert_param(IS_ADC_ALL_PERIPH(ADCx));
1455:/home/user/Desktop/STM32-Projekte/FH-Vertibot/src/STM32F30x_StdPeriph_Driver/src/stm32f30x_adc.c **** 
1456:/home/user/Desktop/STM32-Projekte/FH-Vertibot/src/STM32F30x_StdPeriph_Driver/src/stm32f30x_adc.c ****   if((ADCx == ADC1) || (ADCx== ADC2))
 1488              		.loc 1 1456 0
 1489 0468 B0F1A04F 		cmp	r0, #1342177280
 1490 046c 02D0     		beq	.L139
 1491              		.loc 1 1456 0 is_stmt 0 discriminator 1
 1492 046e 044B     		ldr	r3, .L146
 1493 0470 9842     		cmp	r0, r3
 1494 0472 01D1     		bne	.L140
 1495              	.L139:
1457:/home/user/Desktop/STM32-Projekte/FH-Vertibot/src/STM32F30x_StdPeriph_Driver/src/stm32f30x_adc.c ****   {
1458:/home/user/Desktop/STM32-Projekte/FH-Vertibot/src/STM32F30x_StdPeriph_Driver/src/stm32f30x_adc.c ****     /* Get the dual mode conversion value */
1459:/home/user/Desktop/STM32-Projekte/FH-Vertibot/src/STM32F30x_StdPeriph_Driver/src/stm32f30x_adc.c ****     tmpreg1 = ADC1_2->CDR;
 1496              		.loc 1 1459 0 is_stmt 1
 1497 0474 034B     		ldr	r3, .L146+4
 1498 0476 00E0     		b	.L145
 1499              	.L140:
1460:/home/user/Desktop/STM32-Projekte/FH-Vertibot/src/STM32F30x_StdPeriph_Driver/src/stm32f30x_adc.c ****   }
1461:/home/user/Desktop/STM32-Projekte/FH-Vertibot/src/STM32F30x_StdPeriph_Driver/src/stm32f30x_adc.c ****   else
1462:/home/user/Desktop/STM32-Projekte/FH-Vertibot/src/STM32F30x_StdPeriph_Driver/src/stm32f30x_adc.c ****   {	
1463:/home/user/Desktop/STM32-Projekte/FH-Vertibot/src/STM32F30x_StdPeriph_Driver/src/stm32f30x_adc.c ****     /* Get the dual mode conversion value */
1464:/home/user/Desktop/STM32-Projekte/FH-Vertibot/src/STM32F30x_StdPeriph_Driver/src/stm32f30x_adc.c ****     tmpreg1 = ADC3_4->CDR;
 1500              		.loc 1 1464 0
 1501 0478 034B     		ldr	r3, .L146+8
 1502              	.L145:
 1503 047a D868     		ldr	r0, [r3, #12]
 1504              	.LVL135:
1465:/home/user/Desktop/STM32-Projekte/FH-Vertibot/src/STM32F30x_StdPeriph_Driver/src/stm32f30x_adc.c ****   }
1466:/home/user/Desktop/STM32-Projekte/FH-Vertibot/src/STM32F30x_StdPeriph_Driver/src/stm32f30x_adc.c ****   /* Return the dual mode conversion value */
1467:/home/user/Desktop/STM32-Projekte/FH-Vertibot/src/STM32F30x_StdPeriph_Driver/src/stm32f30x_adc.c ****   return (uint32_t) tmpreg1;
1468:/home/user/Desktop/STM32-Projekte/FH-Vertibot/src/STM32F30x_StdPeriph_Driver/src/stm32f30x_adc.c **** }
 1505              		.loc 1 1468 0
 1506 047c 7047     		bx	lr
 1507              	.L147:
 1508 047e 00BF     		.align	2
 1509              	.L146:
 1510 0480 00010050 		.word	1342177536
 1511 0484 00030050 		.word	1342178048
 1512 0488 00070050 		.word	1342179072
 1513              		.cfi_endproc
 1514              	.LFE149:
 1516              		.align	1
 1517              		.global	ADC_SetChannelOffset1
 1518              		.thumb
 1519              		.thumb_func
 1521              	ADC_SetChannelOffset1:
 1522              	.LFB150:
1469:/home/user/Desktop/STM32-Projekte/FH-Vertibot/src/STM32F30x_StdPeriph_Driver/src/stm32f30x_adc.c **** 
1470:/home/user/Desktop/STM32-Projekte/FH-Vertibot/src/STM32F30x_StdPeriph_Driver/src/stm32f30x_adc.c **** /**
1471:/home/user/Desktop/STM32-Projekte/FH-Vertibot/src/STM32F30x_StdPeriph_Driver/src/stm32f30x_adc.c ****   * @brief  Set the ADC channels conversion value offset1
1472:/home/user/Desktop/STM32-Projekte/FH-Vertibot/src/STM32F30x_StdPeriph_Driver/src/stm32f30x_adc.c ****   * @param  ADCx: where x can be 1, 2, 3 or 4 to select the ADC peripheral.
1473:/home/user/Desktop/STM32-Projekte/FH-Vertibot/src/STM32F30x_StdPeriph_Driver/src/stm32f30x_adc.c ****   * @param  ADC_Channel: the ADC channel to configure. 
1474:/home/user/Desktop/STM32-Projekte/FH-Vertibot/src/STM32F30x_StdPeriph_Driver/src/stm32f30x_adc.c ****   *   This parameter can be one of the following values:
1475:/home/user/Desktop/STM32-Projekte/FH-Vertibot/src/STM32F30x_StdPeriph_Driver/src/stm32f30x_adc.c ****   *     @arg ADC_Channel_1: ADC Channel1 selected
1476:/home/user/Desktop/STM32-Projekte/FH-Vertibot/src/STM32F30x_StdPeriph_Driver/src/stm32f30x_adc.c ****   *     @arg ADC_Channel_2: ADC Channel2 selected
1477:/home/user/Desktop/STM32-Projekte/FH-Vertibot/src/STM32F30x_StdPeriph_Driver/src/stm32f30x_adc.c ****   *     @arg ADC_Channel_3: ADC Channel3 selected
1478:/home/user/Desktop/STM32-Projekte/FH-Vertibot/src/STM32F30x_StdPeriph_Driver/src/stm32f30x_adc.c ****   *     @arg ADC_Channel_4: ADC Channel4 selected
1479:/home/user/Desktop/STM32-Projekte/FH-Vertibot/src/STM32F30x_StdPeriph_Driver/src/stm32f30x_adc.c ****   *     @arg ADC_Channel_5: ADC Channel5 selected
1480:/home/user/Desktop/STM32-Projekte/FH-Vertibot/src/STM32F30x_StdPeriph_Driver/src/stm32f30x_adc.c ****   *     @arg ADC_Channel_6: ADC Channel6 selected
1481:/home/user/Desktop/STM32-Projekte/FH-Vertibot/src/STM32F30x_StdPeriph_Driver/src/stm32f30x_adc.c ****   *     @arg ADC_Channel_7: ADC Channel7 selected
1482:/home/user/Desktop/STM32-Projekte/FH-Vertibot/src/STM32F30x_StdPeriph_Driver/src/stm32f30x_adc.c ****   *     @arg ADC_Channel_8: ADC Channel8 selected
1483:/home/user/Desktop/STM32-Projekte/FH-Vertibot/src/STM32F30x_StdPeriph_Driver/src/stm32f30x_adc.c ****   *     @arg ADC_Channel_9: ADC Channel9 selected
1484:/home/user/Desktop/STM32-Projekte/FH-Vertibot/src/STM32F30x_StdPeriph_Driver/src/stm32f30x_adc.c ****   *     @arg ADC_Channel_10: ADC Channel10 selected
1485:/home/user/Desktop/STM32-Projekte/FH-Vertibot/src/STM32F30x_StdPeriph_Driver/src/stm32f30x_adc.c ****   *     @arg ADC_Channel_11: ADC Channel11 selected
1486:/home/user/Desktop/STM32-Projekte/FH-Vertibot/src/STM32F30x_StdPeriph_Driver/src/stm32f30x_adc.c ****   *     @arg ADC_Channel_12: ADC Channel12 selected
1487:/home/user/Desktop/STM32-Projekte/FH-Vertibot/src/STM32F30x_StdPeriph_Driver/src/stm32f30x_adc.c ****   *     @arg ADC_Channel_13: ADC Channel13 selected
1488:/home/user/Desktop/STM32-Projekte/FH-Vertibot/src/STM32F30x_StdPeriph_Driver/src/stm32f30x_adc.c ****   *     @arg ADC_Channel_14: ADC Channel14 selected
1489:/home/user/Desktop/STM32-Projekte/FH-Vertibot/src/STM32F30x_StdPeriph_Driver/src/stm32f30x_adc.c ****   *     @arg ADC_Channel_15: ADC Channel15 selected
1490:/home/user/Desktop/STM32-Projekte/FH-Vertibot/src/STM32F30x_StdPeriph_Driver/src/stm32f30x_adc.c ****   *     @arg ADC_Channel_16: ADC Channel16 selected
1491:/home/user/Desktop/STM32-Projekte/FH-Vertibot/src/STM32F30x_StdPeriph_Driver/src/stm32f30x_adc.c ****   *     @arg ADC_Channel_17: ADC Channel17 selected
1492:/home/user/Desktop/STM32-Projekte/FH-Vertibot/src/STM32F30x_StdPeriph_Driver/src/stm32f30x_adc.c ****   *     @arg ADC_Channel_18: ADC Channel18 selected
1493:/home/user/Desktop/STM32-Projekte/FH-Vertibot/src/STM32F30x_StdPeriph_Driver/src/stm32f30x_adc.c ****   * @param  Offset: the offset value for the selected ADC Channel
1494:/home/user/Desktop/STM32-Projekte/FH-Vertibot/src/STM32F30x_StdPeriph_Driver/src/stm32f30x_adc.c ****   *   This parameter must be a 12bit value.
1495:/home/user/Desktop/STM32-Projekte/FH-Vertibot/src/STM32F30x_StdPeriph_Driver/src/stm32f30x_adc.c ****   * @retval None
1496:/home/user/Desktop/STM32-Projekte/FH-Vertibot/src/STM32F30x_StdPeriph_Driver/src/stm32f30x_adc.c ****   */
1497:/home/user/Desktop/STM32-Projekte/FH-Vertibot/src/STM32F30x_StdPeriph_Driver/src/stm32f30x_adc.c **** void ADC_SetChannelOffset1(ADC_TypeDef* ADCx, uint8_t ADC_Channel, uint16_t Offset)
1498:/home/user/Desktop/STM32-Projekte/FH-Vertibot/src/STM32F30x_StdPeriph_Driver/src/stm32f30x_adc.c **** {
 1523              		.loc 1 1498 0
 1524              		.cfi_startproc
 1525              		@ args = 0, pretend = 0, frame = 0
 1526              		@ frame_needed = 0, uses_anonymous_args = 0
 1527              		@ link register save eliminated.
 1528              	.LVL136:
1499:/home/user/Desktop/STM32-Projekte/FH-Vertibot/src/STM32F30x_StdPeriph_Driver/src/stm32f30x_adc.c ****   /* Check the parameters */
1500:/home/user/Desktop/STM32-Projekte/FH-Vertibot/src/STM32F30x_StdPeriph_Driver/src/stm32f30x_adc.c ****   assert_param(IS_ADC_ALL_PERIPH(ADCx));
1501:/home/user/Desktop/STM32-Projekte/FH-Vertibot/src/STM32F30x_StdPeriph_Driver/src/stm32f30x_adc.c ****   assert_param(IS_ADC_CHANNEL(ADC_Channel));
1502:/home/user/Desktop/STM32-Projekte/FH-Vertibot/src/STM32F30x_StdPeriph_Driver/src/stm32f30x_adc.c ****   assert_param(IS_ADC_OFFSET(Offset));
1503:/home/user/Desktop/STM32-Projekte/FH-Vertibot/src/STM32F30x_StdPeriph_Driver/src/stm32f30x_adc.c ****     
1504:/home/user/Desktop/STM32-Projekte/FH-Vertibot/src/STM32F30x_StdPeriph_Driver/src/stm32f30x_adc.c ****   /* Select the Channel */
1505:/home/user/Desktop/STM32-Projekte/FH-Vertibot/src/STM32F30x_StdPeriph_Driver/src/stm32f30x_adc.c ****   ADCx->OFR1 &= ~ (uint32_t) ADC_OFR1_OFFSET1_CH;
 1529              		.loc 1 1505 0
 1530 048c 036E     		ldr	r3, [r0, #96]
 1531 048e 23F0F843 		bic	r3, r3, #2080374784
 1532 0492 0366     		str	r3, [r0, #96]
1506:/home/user/Desktop/STM32-Projekte/FH-Vertibot/src/STM32F30x_StdPeriph_Driver/src/stm32f30x_adc.c ****   ADCx->OFR1 |=	(uint32_t)((uint32_t)ADC_Channel << 26);
 1533              		.loc 1 1506 0
 1534 0494 036E     		ldr	r3, [r0, #96]
 1535 0496 43EA8161 		orr	r1, r3, r1, lsl #26
 1536              	.LVL137:
 1537 049a 0166     		str	r1, [r0, #96]
1507:/home/user/Desktop/STM32-Projekte/FH-Vertibot/src/STM32F30x_StdPeriph_Driver/src/stm32f30x_adc.c **** 
1508:/home/user/Desktop/STM32-Projekte/FH-Vertibot/src/STM32F30x_StdPeriph_Driver/src/stm32f30x_adc.c ****   /* Set the data offset */
1509:/home/user/Desktop/STM32-Projekte/FH-Vertibot/src/STM32F30x_StdPeriph_Driver/src/stm32f30x_adc.c ****   ADCx->OFR1 &= ~ (uint32_t) ADC_OFR1_OFFSET1;
 1538              		.loc 1 1509 0
 1539 049c 036E     		ldr	r3, [r0, #96]
 1540 049e 23F47F63 		bic	r3, r3, #4080
 1541 04a2 23F00F03 		bic	r3, r3, #15
 1542 04a6 0366     		str	r3, [r0, #96]
1510:/home/user/Desktop/STM32-Projekte/FH-Vertibot/src/STM32F30x_StdPeriph_Driver/src/stm32f30x_adc.c ****   ADCx->OFR1 |= (uint32_t)Offset;
 1543              		.loc 1 1510 0
 1544 04a8 036E     		ldr	r3, [r0, #96]
 1545 04aa 1A43     		orrs	r2, r2, r3
 1546              	.LVL138:
 1547 04ac 0266     		str	r2, [r0, #96]
 1548 04ae 7047     		bx	lr
 1549              		.cfi_endproc
 1550              	.LFE150:
 1552              		.align	1
 1553              		.global	ADC_SetChannelOffset2
 1554              		.thumb
 1555              		.thumb_func
 1557              	ADC_SetChannelOffset2:
 1558              	.LFB151:
1511:/home/user/Desktop/STM32-Projekte/FH-Vertibot/src/STM32F30x_StdPeriph_Driver/src/stm32f30x_adc.c **** }
1512:/home/user/Desktop/STM32-Projekte/FH-Vertibot/src/STM32F30x_StdPeriph_Driver/src/stm32f30x_adc.c **** 
1513:/home/user/Desktop/STM32-Projekte/FH-Vertibot/src/STM32F30x_StdPeriph_Driver/src/stm32f30x_adc.c **** /**
1514:/home/user/Desktop/STM32-Projekte/FH-Vertibot/src/STM32F30x_StdPeriph_Driver/src/stm32f30x_adc.c ****   * @brief  Set the ADC channels conversion value offset2
1515:/home/user/Desktop/STM32-Projekte/FH-Vertibot/src/STM32F30x_StdPeriph_Driver/src/stm32f30x_adc.c ****   * @param  ADCx: where x can be 1, 2, 3 or 4 to select the ADC peripheral.
1516:/home/user/Desktop/STM32-Projekte/FH-Vertibot/src/STM32F30x_StdPeriph_Driver/src/stm32f30x_adc.c ****   * @param  ADC_Channel: the ADC channel to configure. 
1517:/home/user/Desktop/STM32-Projekte/FH-Vertibot/src/STM32F30x_StdPeriph_Driver/src/stm32f30x_adc.c ****   *   This parameter can be one of the following values:
1518:/home/user/Desktop/STM32-Projekte/FH-Vertibot/src/STM32F30x_StdPeriph_Driver/src/stm32f30x_adc.c ****   *     @arg ADC_Channel_1: ADC Channel1 selected
1519:/home/user/Desktop/STM32-Projekte/FH-Vertibot/src/STM32F30x_StdPeriph_Driver/src/stm32f30x_adc.c ****   *     @arg ADC_Channel_2: ADC Channel2 selected
1520:/home/user/Desktop/STM32-Projekte/FH-Vertibot/src/STM32F30x_StdPeriph_Driver/src/stm32f30x_adc.c ****   *     @arg ADC_Channel_3: ADC Channel3 selected
1521:/home/user/Desktop/STM32-Projekte/FH-Vertibot/src/STM32F30x_StdPeriph_Driver/src/stm32f30x_adc.c ****   *     @arg ADC_Channel_4: ADC Channel4 selected
1522:/home/user/Desktop/STM32-Projekte/FH-Vertibot/src/STM32F30x_StdPeriph_Driver/src/stm32f30x_adc.c ****   *     @arg ADC_Channel_5: ADC Channel5 selected
1523:/home/user/Desktop/STM32-Projekte/FH-Vertibot/src/STM32F30x_StdPeriph_Driver/src/stm32f30x_adc.c ****   *     @arg ADC_Channel_6: ADC Channel6 selected
1524:/home/user/Desktop/STM32-Projekte/FH-Vertibot/src/STM32F30x_StdPeriph_Driver/src/stm32f30x_adc.c ****   *     @arg ADC_Channel_7: ADC Channel7 selected
1525:/home/user/Desktop/STM32-Projekte/FH-Vertibot/src/STM32F30x_StdPeriph_Driver/src/stm32f30x_adc.c ****   *     @arg ADC_Channel_8: ADC Channel8 selected
1526:/home/user/Desktop/STM32-Projekte/FH-Vertibot/src/STM32F30x_StdPeriph_Driver/src/stm32f30x_adc.c ****   *     @arg ADC_Channel_9: ADC Channel9 selected
1527:/home/user/Desktop/STM32-Projekte/FH-Vertibot/src/STM32F30x_StdPeriph_Driver/src/stm32f30x_adc.c ****   *     @arg ADC_Channel_10: ADC Channel10 selected
1528:/home/user/Desktop/STM32-Projekte/FH-Vertibot/src/STM32F30x_StdPeriph_Driver/src/stm32f30x_adc.c ****   *     @arg ADC_Channel_11: ADC Channel11 selected
1529:/home/user/Desktop/STM32-Projekte/FH-Vertibot/src/STM32F30x_StdPeriph_Driver/src/stm32f30x_adc.c ****   *     @arg ADC_Channel_12: ADC Channel12 selected
1530:/home/user/Desktop/STM32-Projekte/FH-Vertibot/src/STM32F30x_StdPeriph_Driver/src/stm32f30x_adc.c ****   *     @arg ADC_Channel_13: ADC Channel13 selected
1531:/home/user/Desktop/STM32-Projekte/FH-Vertibot/src/STM32F30x_StdPeriph_Driver/src/stm32f30x_adc.c ****   *     @arg ADC_Channel_14: ADC Channel14 selected
1532:/home/user/Desktop/STM32-Projekte/FH-Vertibot/src/STM32F30x_StdPeriph_Driver/src/stm32f30x_adc.c ****   *     @arg ADC_Channel_15: ADC Channel15 selected
1533:/home/user/Desktop/STM32-Projekte/FH-Vertibot/src/STM32F30x_StdPeriph_Driver/src/stm32f30x_adc.c ****   *     @arg ADC_Channel_16: ADC Channel16 selected
1534:/home/user/Desktop/STM32-Projekte/FH-Vertibot/src/STM32F30x_StdPeriph_Driver/src/stm32f30x_adc.c ****   *     @arg ADC_Channel_17: ADC Channel17 selected
1535:/home/user/Desktop/STM32-Projekte/FH-Vertibot/src/STM32F30x_StdPeriph_Driver/src/stm32f30x_adc.c ****   *     @arg ADC_Channel_18: ADC Channel18 selected
1536:/home/user/Desktop/STM32-Projekte/FH-Vertibot/src/STM32F30x_StdPeriph_Driver/src/stm32f30x_adc.c ****   * @param  Offset: the offset value for the selected ADC Channel
1537:/home/user/Desktop/STM32-Projekte/FH-Vertibot/src/STM32F30x_StdPeriph_Driver/src/stm32f30x_adc.c ****   *   This parameter must be a 12bit value.
1538:/home/user/Desktop/STM32-Projekte/FH-Vertibot/src/STM32F30x_StdPeriph_Driver/src/stm32f30x_adc.c ****   * @retval None
1539:/home/user/Desktop/STM32-Projekte/FH-Vertibot/src/STM32F30x_StdPeriph_Driver/src/stm32f30x_adc.c ****   */
1540:/home/user/Desktop/STM32-Projekte/FH-Vertibot/src/STM32F30x_StdPeriph_Driver/src/stm32f30x_adc.c **** void ADC_SetChannelOffset2(ADC_TypeDef* ADCx, uint8_t ADC_Channel, uint16_t Offset)
1541:/home/user/Desktop/STM32-Projekte/FH-Vertibot/src/STM32F30x_StdPeriph_Driver/src/stm32f30x_adc.c **** {
 1559              		.loc 1 1541 0
 1560              		.cfi_startproc
 1561              		@ args = 0, pretend = 0, frame = 0
 1562              		@ frame_needed = 0, uses_anonymous_args = 0
 1563              		@ link register save eliminated.
 1564              	.LVL139:
1542:/home/user/Desktop/STM32-Projekte/FH-Vertibot/src/STM32F30x_StdPeriph_Driver/src/stm32f30x_adc.c ****   /* Check the parameters */
1543:/home/user/Desktop/STM32-Projekte/FH-Vertibot/src/STM32F30x_StdPeriph_Driver/src/stm32f30x_adc.c ****   assert_param(IS_ADC_ALL_PERIPH(ADCx));
1544:/home/user/Desktop/STM32-Projekte/FH-Vertibot/src/STM32F30x_StdPeriph_Driver/src/stm32f30x_adc.c ****   assert_param(IS_ADC_CHANNEL(ADC_Channel));
1545:/home/user/Desktop/STM32-Projekte/FH-Vertibot/src/STM32F30x_StdPeriph_Driver/src/stm32f30x_adc.c ****   assert_param(IS_ADC_OFFSET(Offset));
1546:/home/user/Desktop/STM32-Projekte/FH-Vertibot/src/STM32F30x_StdPeriph_Driver/src/stm32f30x_adc.c ****     
1547:/home/user/Desktop/STM32-Projekte/FH-Vertibot/src/STM32F30x_StdPeriph_Driver/src/stm32f30x_adc.c ****   /* Select the Channel */
1548:/home/user/Desktop/STM32-Projekte/FH-Vertibot/src/STM32F30x_StdPeriph_Driver/src/stm32f30x_adc.c ****   ADCx->OFR2 &= ~ (uint32_t) ADC_OFR2_OFFSET2_CH;
 1565              		.loc 1 1548 0
 1566 04b0 436E     		ldr	r3, [r0, #100]
 1567 04b2 23F0F843 		bic	r3, r3, #2080374784
 1568 04b6 4366     		str	r3, [r0, #100]
1549:/home/user/Desktop/STM32-Projekte/FH-Vertibot/src/STM32F30x_StdPeriph_Driver/src/stm32f30x_adc.c ****   ADCx->OFR2 |=	(uint32_t)((uint32_t)ADC_Channel << 26);
 1569              		.loc 1 1549 0
 1570 04b8 436E     		ldr	r3, [r0, #100]
 1571 04ba 43EA8161 		orr	r1, r3, r1, lsl #26
 1572              	.LVL140:
 1573 04be 4166     		str	r1, [r0, #100]
1550:/home/user/Desktop/STM32-Projekte/FH-Vertibot/src/STM32F30x_StdPeriph_Driver/src/stm32f30x_adc.c **** 
1551:/home/user/Desktop/STM32-Projekte/FH-Vertibot/src/STM32F30x_StdPeriph_Driver/src/stm32f30x_adc.c ****   /* Set the data offset */
1552:/home/user/Desktop/STM32-Projekte/FH-Vertibot/src/STM32F30x_StdPeriph_Driver/src/stm32f30x_adc.c ****   ADCx->OFR2 &= ~ (uint32_t) ADC_OFR2_OFFSET2;
 1574              		.loc 1 1552 0
 1575 04c0 436E     		ldr	r3, [r0, #100]
 1576 04c2 23F47F63 		bic	r3, r3, #4080
 1577 04c6 23F00F03 		bic	r3, r3, #15
 1578 04ca 4366     		str	r3, [r0, #100]
1553:/home/user/Desktop/STM32-Projekte/FH-Vertibot/src/STM32F30x_StdPeriph_Driver/src/stm32f30x_adc.c ****   ADCx->OFR2 |= (uint32_t)Offset;
 1579              		.loc 1 1553 0
 1580 04cc 436E     		ldr	r3, [r0, #100]
 1581 04ce 1A43     		orrs	r2, r2, r3
 1582              	.LVL141:
 1583 04d0 4266     		str	r2, [r0, #100]
 1584 04d2 7047     		bx	lr
 1585              		.cfi_endproc
 1586              	.LFE151:
 1588              		.align	1
 1589              		.global	ADC_SetChannelOffset3
 1590              		.thumb
 1591              		.thumb_func
 1593              	ADC_SetChannelOffset3:
 1594              	.LFB152:
1554:/home/user/Desktop/STM32-Projekte/FH-Vertibot/src/STM32F30x_StdPeriph_Driver/src/stm32f30x_adc.c **** }
1555:/home/user/Desktop/STM32-Projekte/FH-Vertibot/src/STM32F30x_StdPeriph_Driver/src/stm32f30x_adc.c **** 
1556:/home/user/Desktop/STM32-Projekte/FH-Vertibot/src/STM32F30x_StdPeriph_Driver/src/stm32f30x_adc.c **** /**
1557:/home/user/Desktop/STM32-Projekte/FH-Vertibot/src/STM32F30x_StdPeriph_Driver/src/stm32f30x_adc.c ****   * @brief  Set the ADC channels conversion value offset3
1558:/home/user/Desktop/STM32-Projekte/FH-Vertibot/src/STM32F30x_StdPeriph_Driver/src/stm32f30x_adc.c ****   * @param  ADCx: where x can be 1, 2, 3 or 4 to select the ADC peripheral.
1559:/home/user/Desktop/STM32-Projekte/FH-Vertibot/src/STM32F30x_StdPeriph_Driver/src/stm32f30x_adc.c ****   * @param  ADC_Channel: the ADC channel to configure. 
1560:/home/user/Desktop/STM32-Projekte/FH-Vertibot/src/STM32F30x_StdPeriph_Driver/src/stm32f30x_adc.c ****   *   This parameter can be one of the following values:
1561:/home/user/Desktop/STM32-Projekte/FH-Vertibot/src/STM32F30x_StdPeriph_Driver/src/stm32f30x_adc.c ****   *     @arg ADC_Channel_1: ADC Channel1 selected
1562:/home/user/Desktop/STM32-Projekte/FH-Vertibot/src/STM32F30x_StdPeriph_Driver/src/stm32f30x_adc.c ****   *     @arg ADC_Channel_2: ADC Channel2 selected
1563:/home/user/Desktop/STM32-Projekte/FH-Vertibot/src/STM32F30x_StdPeriph_Driver/src/stm32f30x_adc.c ****   *     @arg ADC_Channel_3: ADC Channel3 selected
1564:/home/user/Desktop/STM32-Projekte/FH-Vertibot/src/STM32F30x_StdPeriph_Driver/src/stm32f30x_adc.c ****   *     @arg ADC_Channel_4: ADC Channel4 selected
1565:/home/user/Desktop/STM32-Projekte/FH-Vertibot/src/STM32F30x_StdPeriph_Driver/src/stm32f30x_adc.c ****   *     @arg ADC_Channel_5: ADC Channel5 selected
1566:/home/user/Desktop/STM32-Projekte/FH-Vertibot/src/STM32F30x_StdPeriph_Driver/src/stm32f30x_adc.c ****   *     @arg ADC_Channel_6: ADC Channel6 selected
1567:/home/user/Desktop/STM32-Projekte/FH-Vertibot/src/STM32F30x_StdPeriph_Driver/src/stm32f30x_adc.c ****   *     @arg ADC_Channel_7: ADC Channel7 selected
1568:/home/user/Desktop/STM32-Projekte/FH-Vertibot/src/STM32F30x_StdPeriph_Driver/src/stm32f30x_adc.c ****   *     @arg ADC_Channel_8: ADC Channel8 selected
1569:/home/user/Desktop/STM32-Projekte/FH-Vertibot/src/STM32F30x_StdPeriph_Driver/src/stm32f30x_adc.c ****   *     @arg ADC_Channel_9: ADC Channel9 selected
1570:/home/user/Desktop/STM32-Projekte/FH-Vertibot/src/STM32F30x_StdPeriph_Driver/src/stm32f30x_adc.c ****   *     @arg ADC_Channel_10: ADC Channel10 selected
1571:/home/user/Desktop/STM32-Projekte/FH-Vertibot/src/STM32F30x_StdPeriph_Driver/src/stm32f30x_adc.c ****   *     @arg ADC_Channel_11: ADC Channel11 selected
1572:/home/user/Desktop/STM32-Projekte/FH-Vertibot/src/STM32F30x_StdPeriph_Driver/src/stm32f30x_adc.c ****   *     @arg ADC_Channel_12: ADC Channel12 selected
1573:/home/user/Desktop/STM32-Projekte/FH-Vertibot/src/STM32F30x_StdPeriph_Driver/src/stm32f30x_adc.c ****   *     @arg ADC_Channel_13: ADC Channel13 selected
1574:/home/user/Desktop/STM32-Projekte/FH-Vertibot/src/STM32F30x_StdPeriph_Driver/src/stm32f30x_adc.c ****   *     @arg ADC_Channel_14: ADC Channel14 selected
1575:/home/user/Desktop/STM32-Projekte/FH-Vertibot/src/STM32F30x_StdPeriph_Driver/src/stm32f30x_adc.c ****   *     @arg ADC_Channel_15: ADC Channel15 selected
1576:/home/user/Desktop/STM32-Projekte/FH-Vertibot/src/STM32F30x_StdPeriph_Driver/src/stm32f30x_adc.c ****   *     @arg ADC_Channel_16: ADC Channel16 selected
1577:/home/user/Desktop/STM32-Projekte/FH-Vertibot/src/STM32F30x_StdPeriph_Driver/src/stm32f30x_adc.c ****   *     @arg ADC_Channel_17: ADC Channel17 selected
1578:/home/user/Desktop/STM32-Projekte/FH-Vertibot/src/STM32F30x_StdPeriph_Driver/src/stm32f30x_adc.c ****   *     @arg ADC_Channel_18: ADC Channel18 selected
1579:/home/user/Desktop/STM32-Projekte/FH-Vertibot/src/STM32F30x_StdPeriph_Driver/src/stm32f30x_adc.c ****   * @param  Offset: the offset value for the selected ADC Channel
1580:/home/user/Desktop/STM32-Projekte/FH-Vertibot/src/STM32F30x_StdPeriph_Driver/src/stm32f30x_adc.c ****   *   This parameter must be a 12bit value.
1581:/home/user/Desktop/STM32-Projekte/FH-Vertibot/src/STM32F30x_StdPeriph_Driver/src/stm32f30x_adc.c ****   * @retval None
1582:/home/user/Desktop/STM32-Projekte/FH-Vertibot/src/STM32F30x_StdPeriph_Driver/src/stm32f30x_adc.c ****   */
1583:/home/user/Desktop/STM32-Projekte/FH-Vertibot/src/STM32F30x_StdPeriph_Driver/src/stm32f30x_adc.c **** void ADC_SetChannelOffset3(ADC_TypeDef* ADCx, uint8_t ADC_Channel, uint16_t Offset)
1584:/home/user/Desktop/STM32-Projekte/FH-Vertibot/src/STM32F30x_StdPeriph_Driver/src/stm32f30x_adc.c **** {
 1595              		.loc 1 1584 0
 1596              		.cfi_startproc
 1597              		@ args = 0, pretend = 0, frame = 0
 1598              		@ frame_needed = 0, uses_anonymous_args = 0
 1599              		@ link register save eliminated.
 1600              	.LVL142:
1585:/home/user/Desktop/STM32-Projekte/FH-Vertibot/src/STM32F30x_StdPeriph_Driver/src/stm32f30x_adc.c ****   /* Check the parameters */
1586:/home/user/Desktop/STM32-Projekte/FH-Vertibot/src/STM32F30x_StdPeriph_Driver/src/stm32f30x_adc.c ****   assert_param(IS_ADC_ALL_PERIPH(ADCx));
1587:/home/user/Desktop/STM32-Projekte/FH-Vertibot/src/STM32F30x_StdPeriph_Driver/src/stm32f30x_adc.c ****   assert_param(IS_ADC_CHANNEL(ADC_Channel));
1588:/home/user/Desktop/STM32-Projekte/FH-Vertibot/src/STM32F30x_StdPeriph_Driver/src/stm32f30x_adc.c ****   assert_param(IS_ADC_OFFSET(Offset));
1589:/home/user/Desktop/STM32-Projekte/FH-Vertibot/src/STM32F30x_StdPeriph_Driver/src/stm32f30x_adc.c ****     
1590:/home/user/Desktop/STM32-Projekte/FH-Vertibot/src/STM32F30x_StdPeriph_Driver/src/stm32f30x_adc.c ****   /* Select the Channel */
1591:/home/user/Desktop/STM32-Projekte/FH-Vertibot/src/STM32F30x_StdPeriph_Driver/src/stm32f30x_adc.c ****   ADCx->OFR3 &= ~ (uint32_t) ADC_OFR3_OFFSET3_CH;
 1601              		.loc 1 1591 0
 1602 04d4 836E     		ldr	r3, [r0, #104]
 1603 04d6 23F0F843 		bic	r3, r3, #2080374784
 1604 04da 8366     		str	r3, [r0, #104]
1592:/home/user/Desktop/STM32-Projekte/FH-Vertibot/src/STM32F30x_StdPeriph_Driver/src/stm32f30x_adc.c ****   ADCx->OFR3 |=	(uint32_t)((uint32_t)ADC_Channel << 26);
 1605              		.loc 1 1592 0
 1606 04dc 836E     		ldr	r3, [r0, #104]
 1607 04de 43EA8161 		orr	r1, r3, r1, lsl #26
 1608              	.LVL143:
 1609 04e2 8166     		str	r1, [r0, #104]
1593:/home/user/Desktop/STM32-Projekte/FH-Vertibot/src/STM32F30x_StdPeriph_Driver/src/stm32f30x_adc.c **** 
1594:/home/user/Desktop/STM32-Projekte/FH-Vertibot/src/STM32F30x_StdPeriph_Driver/src/stm32f30x_adc.c ****   /* Set the data offset */
1595:/home/user/Desktop/STM32-Projekte/FH-Vertibot/src/STM32F30x_StdPeriph_Driver/src/stm32f30x_adc.c ****   ADCx->OFR3 &= ~ (uint32_t) ADC_OFR3_OFFSET3;
 1610              		.loc 1 1595 0
 1611 04e4 836E     		ldr	r3, [r0, #104]
 1612 04e6 23F47F63 		bic	r3, r3, #4080
 1613 04ea 23F00F03 		bic	r3, r3, #15
 1614 04ee 8366     		str	r3, [r0, #104]
1596:/home/user/Desktop/STM32-Projekte/FH-Vertibot/src/STM32F30x_StdPeriph_Driver/src/stm32f30x_adc.c ****   ADCx->OFR3 |= (uint32_t)Offset;
 1615              		.loc 1 1596 0
 1616 04f0 836E     		ldr	r3, [r0, #104]
 1617 04f2 1A43     		orrs	r2, r2, r3
 1618              	.LVL144:
 1619 04f4 8266     		str	r2, [r0, #104]
 1620 04f6 7047     		bx	lr
 1621              		.cfi_endproc
 1622              	.LFE152:
 1624              		.align	1
 1625              		.global	ADC_SetChannelOffset4
 1626              		.thumb
 1627              		.thumb_func
 1629              	ADC_SetChannelOffset4:
 1630              	.LFB153:
1597:/home/user/Desktop/STM32-Projekte/FH-Vertibot/src/STM32F30x_StdPeriph_Driver/src/stm32f30x_adc.c **** }
1598:/home/user/Desktop/STM32-Projekte/FH-Vertibot/src/STM32F30x_StdPeriph_Driver/src/stm32f30x_adc.c **** 
1599:/home/user/Desktop/STM32-Projekte/FH-Vertibot/src/STM32F30x_StdPeriph_Driver/src/stm32f30x_adc.c **** /**
1600:/home/user/Desktop/STM32-Projekte/FH-Vertibot/src/STM32F30x_StdPeriph_Driver/src/stm32f30x_adc.c ****   * @brief  Set the ADC channels conversion value offset4
1601:/home/user/Desktop/STM32-Projekte/FH-Vertibot/src/STM32F30x_StdPeriph_Driver/src/stm32f30x_adc.c ****   * @param  ADCx: where x can be 1, 2, 3 or 4 to select the ADC peripheral.
1602:/home/user/Desktop/STM32-Projekte/FH-Vertibot/src/STM32F30x_StdPeriph_Driver/src/stm32f30x_adc.c ****   * @param  ADC_Channel: the ADC channel to configure. 
1603:/home/user/Desktop/STM32-Projekte/FH-Vertibot/src/STM32F30x_StdPeriph_Driver/src/stm32f30x_adc.c ****   *   This parameter can be one of the following values:
1604:/home/user/Desktop/STM32-Projekte/FH-Vertibot/src/STM32F30x_StdPeriph_Driver/src/stm32f30x_adc.c ****   *     @arg ADC_Channel_1: ADC Channel1 selected
1605:/home/user/Desktop/STM32-Projekte/FH-Vertibot/src/STM32F30x_StdPeriph_Driver/src/stm32f30x_adc.c ****   *     @arg ADC_Channel_2: ADC Channel2 selected
1606:/home/user/Desktop/STM32-Projekte/FH-Vertibot/src/STM32F30x_StdPeriph_Driver/src/stm32f30x_adc.c ****   *     @arg ADC_Channel_3: ADC Channel3 selected
1607:/home/user/Desktop/STM32-Projekte/FH-Vertibot/src/STM32F30x_StdPeriph_Driver/src/stm32f30x_adc.c ****   *     @arg ADC_Channel_4: ADC Channel4 selected
1608:/home/user/Desktop/STM32-Projekte/FH-Vertibot/src/STM32F30x_StdPeriph_Driver/src/stm32f30x_adc.c ****   *     @arg ADC_Channel_5: ADC Channel5 selected
1609:/home/user/Desktop/STM32-Projekte/FH-Vertibot/src/STM32F30x_StdPeriph_Driver/src/stm32f30x_adc.c ****   *     @arg ADC_Channel_6: ADC Channel6 selected
1610:/home/user/Desktop/STM32-Projekte/FH-Vertibot/src/STM32F30x_StdPeriph_Driver/src/stm32f30x_adc.c ****   *     @arg ADC_Channel_7: ADC Channel7 selected
1611:/home/user/Desktop/STM32-Projekte/FH-Vertibot/src/STM32F30x_StdPeriph_Driver/src/stm32f30x_adc.c ****   *     @arg ADC_Channel_8: ADC Channel8 selected
1612:/home/user/Desktop/STM32-Projekte/FH-Vertibot/src/STM32F30x_StdPeriph_Driver/src/stm32f30x_adc.c ****   *     @arg ADC_Channel_9: ADC Channel9 selected
1613:/home/user/Desktop/STM32-Projekte/FH-Vertibot/src/STM32F30x_StdPeriph_Driver/src/stm32f30x_adc.c ****   *     @arg ADC_Channel_10: ADC Channel10 selected
1614:/home/user/Desktop/STM32-Projekte/FH-Vertibot/src/STM32F30x_StdPeriph_Driver/src/stm32f30x_adc.c ****   *     @arg ADC_Channel_11: ADC Channel11 selected
1615:/home/user/Desktop/STM32-Projekte/FH-Vertibot/src/STM32F30x_StdPeriph_Driver/src/stm32f30x_adc.c ****   *     @arg ADC_Channel_12: ADC Channel12 selected
1616:/home/user/Desktop/STM32-Projekte/FH-Vertibot/src/STM32F30x_StdPeriph_Driver/src/stm32f30x_adc.c ****   *     @arg ADC_Channel_13: ADC Channel13 selected
1617:/home/user/Desktop/STM32-Projekte/FH-Vertibot/src/STM32F30x_StdPeriph_Driver/src/stm32f30x_adc.c ****   *     @arg ADC_Channel_14: ADC Channel14 selected
1618:/home/user/Desktop/STM32-Projekte/FH-Vertibot/src/STM32F30x_StdPeriph_Driver/src/stm32f30x_adc.c ****   *     @arg ADC_Channel_15: ADC Channel15 selected
1619:/home/user/Desktop/STM32-Projekte/FH-Vertibot/src/STM32F30x_StdPeriph_Driver/src/stm32f30x_adc.c ****   *     @arg ADC_Channel_16: ADC Channel16 selected
1620:/home/user/Desktop/STM32-Projekte/FH-Vertibot/src/STM32F30x_StdPeriph_Driver/src/stm32f30x_adc.c ****   *     @arg ADC_Channel_17: ADC Channel17 selected
1621:/home/user/Desktop/STM32-Projekte/FH-Vertibot/src/STM32F30x_StdPeriph_Driver/src/stm32f30x_adc.c ****   *     @arg ADC_Channel_18: ADC Channel18 selected
1622:/home/user/Desktop/STM32-Projekte/FH-Vertibot/src/STM32F30x_StdPeriph_Driver/src/stm32f30x_adc.c ****   * @param  Offset: the offset value for the selected ADC Channel
1623:/home/user/Desktop/STM32-Projekte/FH-Vertibot/src/STM32F30x_StdPeriph_Driver/src/stm32f30x_adc.c ****   *   This parameter must be a 12bit value.
1624:/home/user/Desktop/STM32-Projekte/FH-Vertibot/src/STM32F30x_StdPeriph_Driver/src/stm32f30x_adc.c ****   * @retval None
1625:/home/user/Desktop/STM32-Projekte/FH-Vertibot/src/STM32F30x_StdPeriph_Driver/src/stm32f30x_adc.c ****   */
1626:/home/user/Desktop/STM32-Projekte/FH-Vertibot/src/STM32F30x_StdPeriph_Driver/src/stm32f30x_adc.c **** void ADC_SetChannelOffset4(ADC_TypeDef* ADCx, uint8_t ADC_Channel, uint16_t Offset)
1627:/home/user/Desktop/STM32-Projekte/FH-Vertibot/src/STM32F30x_StdPeriph_Driver/src/stm32f30x_adc.c **** {
 1631              		.loc 1 1627 0
 1632              		.cfi_startproc
 1633              		@ args = 0, pretend = 0, frame = 0
 1634              		@ frame_needed = 0, uses_anonymous_args = 0
 1635              		@ link register save eliminated.
 1636              	.LVL145:
1628:/home/user/Desktop/STM32-Projekte/FH-Vertibot/src/STM32F30x_StdPeriph_Driver/src/stm32f30x_adc.c ****   /* Check the parameters */
1629:/home/user/Desktop/STM32-Projekte/FH-Vertibot/src/STM32F30x_StdPeriph_Driver/src/stm32f30x_adc.c ****   assert_param(IS_ADC_ALL_PERIPH(ADCx));
1630:/home/user/Desktop/STM32-Projekte/FH-Vertibot/src/STM32F30x_StdPeriph_Driver/src/stm32f30x_adc.c ****   assert_param(IS_ADC_CHANNEL(ADC_Channel));
1631:/home/user/Desktop/STM32-Projekte/FH-Vertibot/src/STM32F30x_StdPeriph_Driver/src/stm32f30x_adc.c ****   assert_param(IS_ADC_OFFSET(Offset));
1632:/home/user/Desktop/STM32-Projekte/FH-Vertibot/src/STM32F30x_StdPeriph_Driver/src/stm32f30x_adc.c ****     
1633:/home/user/Desktop/STM32-Projekte/FH-Vertibot/src/STM32F30x_StdPeriph_Driver/src/stm32f30x_adc.c ****   /* Select the Channel */
1634:/home/user/Desktop/STM32-Projekte/FH-Vertibot/src/STM32F30x_StdPeriph_Driver/src/stm32f30x_adc.c ****   ADCx->OFR4 &= ~ (uint32_t) ADC_OFR4_OFFSET4_CH;
 1637              		.loc 1 1634 0
 1638 04f8 C36E     		ldr	r3, [r0, #108]
 1639 04fa 23F0F843 		bic	r3, r3, #2080374784
 1640 04fe C366     		str	r3, [r0, #108]
1635:/home/user/Desktop/STM32-Projekte/FH-Vertibot/src/STM32F30x_StdPeriph_Driver/src/stm32f30x_adc.c ****   ADCx->OFR4 |=	(uint32_t)((uint32_t)ADC_Channel << 26);
 1641              		.loc 1 1635 0
 1642 0500 C36E     		ldr	r3, [r0, #108]
 1643 0502 43EA8161 		orr	r1, r3, r1, lsl #26
 1644              	.LVL146:
 1645 0506 C166     		str	r1, [r0, #108]
1636:/home/user/Desktop/STM32-Projekte/FH-Vertibot/src/STM32F30x_StdPeriph_Driver/src/stm32f30x_adc.c **** 
1637:/home/user/Desktop/STM32-Projekte/FH-Vertibot/src/STM32F30x_StdPeriph_Driver/src/stm32f30x_adc.c ****   /* Set the data offset */
1638:/home/user/Desktop/STM32-Projekte/FH-Vertibot/src/STM32F30x_StdPeriph_Driver/src/stm32f30x_adc.c ****   ADCx->OFR4 &= ~ (uint32_t) ADC_OFR4_OFFSET4;
 1646              		.loc 1 1638 0
 1647 0508 C36E     		ldr	r3, [r0, #108]
 1648 050a 23F47F63 		bic	r3, r3, #4080
 1649 050e 23F00F03 		bic	r3, r3, #15
 1650 0512 C366     		str	r3, [r0, #108]
1639:/home/user/Desktop/STM32-Projekte/FH-Vertibot/src/STM32F30x_StdPeriph_Driver/src/stm32f30x_adc.c ****   ADCx->OFR4 |= (uint32_t)Offset;
 1651              		.loc 1 1639 0
 1652 0514 C36E     		ldr	r3, [r0, #108]
 1653 0516 1A43     		orrs	r2, r2, r3
 1654              	.LVL147:
 1655 0518 C266     		str	r2, [r0, #108]
 1656 051a 7047     		bx	lr
 1657              		.cfi_endproc
 1658              	.LFE153:
 1660              		.align	1
 1661              		.global	ADC_ChannelOffset1Cmd
 1662              		.thumb
 1663              		.thumb_func
 1665              	ADC_ChannelOffset1Cmd:
 1666              	.LFB154:
1640:/home/user/Desktop/STM32-Projekte/FH-Vertibot/src/STM32F30x_StdPeriph_Driver/src/stm32f30x_adc.c **** }
1641:/home/user/Desktop/STM32-Projekte/FH-Vertibot/src/STM32F30x_StdPeriph_Driver/src/stm32f30x_adc.c **** 
1642:/home/user/Desktop/STM32-Projekte/FH-Vertibot/src/STM32F30x_StdPeriph_Driver/src/stm32f30x_adc.c **** /**
1643:/home/user/Desktop/STM32-Projekte/FH-Vertibot/src/STM32F30x_StdPeriph_Driver/src/stm32f30x_adc.c ****   * @brief  Enables or disables the Offset1.
1644:/home/user/Desktop/STM32-Projekte/FH-Vertibot/src/STM32F30x_StdPeriph_Driver/src/stm32f30x_adc.c ****   * @param  ADCx: where x can be 1, 2, 3 or 4 to select the ADC peripheral.
1645:/home/user/Desktop/STM32-Projekte/FH-Vertibot/src/STM32F30x_StdPeriph_Driver/src/stm32f30x_adc.c ****   * @param  NewState: new state of the ADCx offset1.
1646:/home/user/Desktop/STM32-Projekte/FH-Vertibot/src/STM32F30x_StdPeriph_Driver/src/stm32f30x_adc.c ****   *   This parameter can be: ENABLE or DISABLE.
1647:/home/user/Desktop/STM32-Projekte/FH-Vertibot/src/STM32F30x_StdPeriph_Driver/src/stm32f30x_adc.c ****   * @retval None
1648:/home/user/Desktop/STM32-Projekte/FH-Vertibot/src/STM32F30x_StdPeriph_Driver/src/stm32f30x_adc.c ****   */
1649:/home/user/Desktop/STM32-Projekte/FH-Vertibot/src/STM32F30x_StdPeriph_Driver/src/stm32f30x_adc.c **** void ADC_ChannelOffset1Cmd(ADC_TypeDef* ADCx, FunctionalState NewState)
1650:/home/user/Desktop/STM32-Projekte/FH-Vertibot/src/STM32F30x_StdPeriph_Driver/src/stm32f30x_adc.c **** {
 1667              		.loc 1 1650 0
 1668              		.cfi_startproc
 1669              		@ args = 0, pretend = 0, frame = 0
 1670              		@ frame_needed = 0, uses_anonymous_args = 0
 1671              		@ link register save eliminated.
 1672              	.LVL148:
1651:/home/user/Desktop/STM32-Projekte/FH-Vertibot/src/STM32F30x_StdPeriph_Driver/src/stm32f30x_adc.c ****   /* Check the parameters */
1652:/home/user/Desktop/STM32-Projekte/FH-Vertibot/src/STM32F30x_StdPeriph_Driver/src/stm32f30x_adc.c ****   assert_param(IS_ADC_ALL_PERIPH(ADCx));
1653:/home/user/Desktop/STM32-Projekte/FH-Vertibot/src/STM32F30x_StdPeriph_Driver/src/stm32f30x_adc.c ****   assert_param(IS_FUNCTIONAL_STATE(NewState));
1654:/home/user/Desktop/STM32-Projekte/FH-Vertibot/src/STM32F30x_StdPeriph_Driver/src/stm32f30x_adc.c **** 
1655:/home/user/Desktop/STM32-Projekte/FH-Vertibot/src/STM32F30x_StdPeriph_Driver/src/stm32f30x_adc.c ****   if (NewState != DISABLE)
1656:/home/user/Desktop/STM32-Projekte/FH-Vertibot/src/STM32F30x_StdPeriph_Driver/src/stm32f30x_adc.c ****   {
1657:/home/user/Desktop/STM32-Projekte/FH-Vertibot/src/STM32F30x_StdPeriph_Driver/src/stm32f30x_adc.c ****     /* Set the OFFSET1_EN bit */
1658:/home/user/Desktop/STM32-Projekte/FH-Vertibot/src/STM32F30x_StdPeriph_Driver/src/stm32f30x_adc.c ****     ADCx->OFR1 |= ADC_OFR1_OFFSET1_EN;
 1673              		.loc 1 1658 0
 1674 051c 036E     		ldr	r3, [r0, #96]
1655:/home/user/Desktop/STM32-Projekte/FH-Vertibot/src/STM32F30x_StdPeriph_Driver/src/stm32f30x_adc.c ****   if (NewState != DISABLE)
 1675              		.loc 1 1655 0
 1676 051e 11B1     		cbz	r1, .L153
 1677              		.loc 1 1658 0
 1678 0520 43F00043 		orr	r3, r3, #-2147483648
 1679 0524 01E0     		b	.L155
 1680              	.L153:
1659:/home/user/Desktop/STM32-Projekte/FH-Vertibot/src/STM32F30x_StdPeriph_Driver/src/stm32f30x_adc.c ****   }
1660:/home/user/Desktop/STM32-Projekte/FH-Vertibot/src/STM32F30x_StdPeriph_Driver/src/stm32f30x_adc.c ****   else
1661:/home/user/Desktop/STM32-Projekte/FH-Vertibot/src/STM32F30x_StdPeriph_Driver/src/stm32f30x_adc.c ****   {
1662:/home/user/Desktop/STM32-Projekte/FH-Vertibot/src/STM32F30x_StdPeriph_Driver/src/stm32f30x_adc.c ****     /* Reset the OFFSET1_EN bit */
1663:/home/user/Desktop/STM32-Projekte/FH-Vertibot/src/STM32F30x_StdPeriph_Driver/src/stm32f30x_adc.c ****     ADCx->OFR1 &= ~(ADC_OFR1_OFFSET1_EN);
 1681              		.loc 1 1663 0
 1682 0526 23F00043 		bic	r3, r3, #-2147483648
 1683              	.L155:
 1684 052a 0366     		str	r3, [r0, #96]
 1685 052c 7047     		bx	lr
 1686              		.cfi_endproc
 1687              	.LFE154:
 1689              		.align	1
 1690              		.global	ADC_ChannelOffset2Cmd
 1691              		.thumb
 1692              		.thumb_func
 1694              	ADC_ChannelOffset2Cmd:
 1695              	.LFB155:
1664:/home/user/Desktop/STM32-Projekte/FH-Vertibot/src/STM32F30x_StdPeriph_Driver/src/stm32f30x_adc.c ****   }
1665:/home/user/Desktop/STM32-Projekte/FH-Vertibot/src/STM32F30x_StdPeriph_Driver/src/stm32f30x_adc.c **** }
1666:/home/user/Desktop/STM32-Projekte/FH-Vertibot/src/STM32F30x_StdPeriph_Driver/src/stm32f30x_adc.c **** 
1667:/home/user/Desktop/STM32-Projekte/FH-Vertibot/src/STM32F30x_StdPeriph_Driver/src/stm32f30x_adc.c **** /**
1668:/home/user/Desktop/STM32-Projekte/FH-Vertibot/src/STM32F30x_StdPeriph_Driver/src/stm32f30x_adc.c ****   * @brief  Enables or disables the Offset2.
1669:/home/user/Desktop/STM32-Projekte/FH-Vertibot/src/STM32F30x_StdPeriph_Driver/src/stm32f30x_adc.c ****   * @param  ADCx: where x can be 1, 2, 3 or 4 to select the ADC peripheral.
1670:/home/user/Desktop/STM32-Projekte/FH-Vertibot/src/STM32F30x_StdPeriph_Driver/src/stm32f30x_adc.c ****   * @param  NewState: new state of the ADCx offset2.
1671:/home/user/Desktop/STM32-Projekte/FH-Vertibot/src/STM32F30x_StdPeriph_Driver/src/stm32f30x_adc.c ****   *   This parameter can be: ENABLE or DISABLE.
1672:/home/user/Desktop/STM32-Projekte/FH-Vertibot/src/STM32F30x_StdPeriph_Driver/src/stm32f30x_adc.c ****   * @retval None
1673:/home/user/Desktop/STM32-Projekte/FH-Vertibot/src/STM32F30x_StdPeriph_Driver/src/stm32f30x_adc.c ****   */
1674:/home/user/Desktop/STM32-Projekte/FH-Vertibot/src/STM32F30x_StdPeriph_Driver/src/stm32f30x_adc.c **** void ADC_ChannelOffset2Cmd(ADC_TypeDef* ADCx, FunctionalState NewState)
1675:/home/user/Desktop/STM32-Projekte/FH-Vertibot/src/STM32F30x_StdPeriph_Driver/src/stm32f30x_adc.c **** {
 1696              		.loc 1 1675 0
 1697              		.cfi_startproc
 1698              		@ args = 0, pretend = 0, frame = 0
 1699              		@ frame_needed = 0, uses_anonymous_args = 0
 1700              		@ link register save eliminated.
 1701              	.LVL149:
1676:/home/user/Desktop/STM32-Projekte/FH-Vertibot/src/STM32F30x_StdPeriph_Driver/src/stm32f30x_adc.c ****   /* Check the parameters */
1677:/home/user/Desktop/STM32-Projekte/FH-Vertibot/src/STM32F30x_StdPeriph_Driver/src/stm32f30x_adc.c ****   assert_param(IS_ADC_ALL_PERIPH(ADCx));
1678:/home/user/Desktop/STM32-Projekte/FH-Vertibot/src/STM32F30x_StdPeriph_Driver/src/stm32f30x_adc.c ****   assert_param(IS_FUNCTIONAL_STATE(NewState));
1679:/home/user/Desktop/STM32-Projekte/FH-Vertibot/src/STM32F30x_StdPeriph_Driver/src/stm32f30x_adc.c **** 
1680:/home/user/Desktop/STM32-Projekte/FH-Vertibot/src/STM32F30x_StdPeriph_Driver/src/stm32f30x_adc.c ****   if (NewState != DISABLE)
1681:/home/user/Desktop/STM32-Projekte/FH-Vertibot/src/STM32F30x_StdPeriph_Driver/src/stm32f30x_adc.c ****   {
1682:/home/user/Desktop/STM32-Projekte/FH-Vertibot/src/STM32F30x_StdPeriph_Driver/src/stm32f30x_adc.c ****     /* Set the OFFSET1_EN bit */
1683:/home/user/Desktop/STM32-Projekte/FH-Vertibot/src/STM32F30x_StdPeriph_Driver/src/stm32f30x_adc.c ****     ADCx->OFR2 |= ADC_OFR2_OFFSET2_EN;
 1702              		.loc 1 1683 0
 1703 052e 436E     		ldr	r3, [r0, #100]
1680:/home/user/Desktop/STM32-Projekte/FH-Vertibot/src/STM32F30x_StdPeriph_Driver/src/stm32f30x_adc.c ****   if (NewState != DISABLE)
 1704              		.loc 1 1680 0
 1705 0530 11B1     		cbz	r1, .L157
 1706              		.loc 1 1683 0
 1707 0532 43F00043 		orr	r3, r3, #-2147483648
 1708 0536 01E0     		b	.L159
 1709              	.L157:
1684:/home/user/Desktop/STM32-Projekte/FH-Vertibot/src/STM32F30x_StdPeriph_Driver/src/stm32f30x_adc.c ****   }
1685:/home/user/Desktop/STM32-Projekte/FH-Vertibot/src/STM32F30x_StdPeriph_Driver/src/stm32f30x_adc.c ****   else
1686:/home/user/Desktop/STM32-Projekte/FH-Vertibot/src/STM32F30x_StdPeriph_Driver/src/stm32f30x_adc.c ****   {
1687:/home/user/Desktop/STM32-Projekte/FH-Vertibot/src/STM32F30x_StdPeriph_Driver/src/stm32f30x_adc.c ****     /* Reset the OFFSET1_EN bit */
1688:/home/user/Desktop/STM32-Projekte/FH-Vertibot/src/STM32F30x_StdPeriph_Driver/src/stm32f30x_adc.c ****     ADCx->OFR2 &= ~(ADC_OFR2_OFFSET2_EN);
 1710              		.loc 1 1688 0
 1711 0538 23F00043 		bic	r3, r3, #-2147483648
 1712              	.L159:
 1713 053c 4366     		str	r3, [r0, #100]
 1714 053e 7047     		bx	lr
 1715              		.cfi_endproc
 1716              	.LFE155:
 1718              		.align	1
 1719              		.global	ADC_ChannelOffset3Cmd
 1720              		.thumb
 1721              		.thumb_func
 1723              	ADC_ChannelOffset3Cmd:
 1724              	.LFB156:
1689:/home/user/Desktop/STM32-Projekte/FH-Vertibot/src/STM32F30x_StdPeriph_Driver/src/stm32f30x_adc.c ****   }
1690:/home/user/Desktop/STM32-Projekte/FH-Vertibot/src/STM32F30x_StdPeriph_Driver/src/stm32f30x_adc.c **** }
1691:/home/user/Desktop/STM32-Projekte/FH-Vertibot/src/STM32F30x_StdPeriph_Driver/src/stm32f30x_adc.c **** 
1692:/home/user/Desktop/STM32-Projekte/FH-Vertibot/src/STM32F30x_StdPeriph_Driver/src/stm32f30x_adc.c **** /**
1693:/home/user/Desktop/STM32-Projekte/FH-Vertibot/src/STM32F30x_StdPeriph_Driver/src/stm32f30x_adc.c ****   * @brief  Enables or disables the Offset3.
1694:/home/user/Desktop/STM32-Projekte/FH-Vertibot/src/STM32F30x_StdPeriph_Driver/src/stm32f30x_adc.c ****   * @param  ADCx: where x can be 1, 2, 3 or 4 to select the ADC peripheral.
1695:/home/user/Desktop/STM32-Projekte/FH-Vertibot/src/STM32F30x_StdPeriph_Driver/src/stm32f30x_adc.c ****   * @param  NewState: new state of the ADCx offset3.
1696:/home/user/Desktop/STM32-Projekte/FH-Vertibot/src/STM32F30x_StdPeriph_Driver/src/stm32f30x_adc.c ****   *   This parameter can be: ENABLE or DISABLE.
1697:/home/user/Desktop/STM32-Projekte/FH-Vertibot/src/STM32F30x_StdPeriph_Driver/src/stm32f30x_adc.c ****   * @retval None
1698:/home/user/Desktop/STM32-Projekte/FH-Vertibot/src/STM32F30x_StdPeriph_Driver/src/stm32f30x_adc.c ****   */
1699:/home/user/Desktop/STM32-Projekte/FH-Vertibot/src/STM32F30x_StdPeriph_Driver/src/stm32f30x_adc.c **** void ADC_ChannelOffset3Cmd(ADC_TypeDef* ADCx, FunctionalState NewState)
1700:/home/user/Desktop/STM32-Projekte/FH-Vertibot/src/STM32F30x_StdPeriph_Driver/src/stm32f30x_adc.c **** {
 1725              		.loc 1 1700 0
 1726              		.cfi_startproc
 1727              		@ args = 0, pretend = 0, frame = 0
 1728              		@ frame_needed = 0, uses_anonymous_args = 0
 1729              		@ link register save eliminated.
 1730              	.LVL150:
1701:/home/user/Desktop/STM32-Projekte/FH-Vertibot/src/STM32F30x_StdPeriph_Driver/src/stm32f30x_adc.c ****   /* Check the parameters */
1702:/home/user/Desktop/STM32-Projekte/FH-Vertibot/src/STM32F30x_StdPeriph_Driver/src/stm32f30x_adc.c ****   assert_param(IS_ADC_ALL_PERIPH(ADCx));
1703:/home/user/Desktop/STM32-Projekte/FH-Vertibot/src/STM32F30x_StdPeriph_Driver/src/stm32f30x_adc.c ****   assert_param(IS_FUNCTIONAL_STATE(NewState));
1704:/home/user/Desktop/STM32-Projekte/FH-Vertibot/src/STM32F30x_StdPeriph_Driver/src/stm32f30x_adc.c **** 
1705:/home/user/Desktop/STM32-Projekte/FH-Vertibot/src/STM32F30x_StdPeriph_Driver/src/stm32f30x_adc.c ****   if (NewState != DISABLE)
1706:/home/user/Desktop/STM32-Projekte/FH-Vertibot/src/STM32F30x_StdPeriph_Driver/src/stm32f30x_adc.c ****   {
1707:/home/user/Desktop/STM32-Projekte/FH-Vertibot/src/STM32F30x_StdPeriph_Driver/src/stm32f30x_adc.c ****     /* Set the OFFSET1_EN bit */
1708:/home/user/Desktop/STM32-Projekte/FH-Vertibot/src/STM32F30x_StdPeriph_Driver/src/stm32f30x_adc.c ****     ADCx->OFR3 |= ADC_OFR3_OFFSET3_EN;
 1731              		.loc 1 1708 0
 1732 0540 836E     		ldr	r3, [r0, #104]
1705:/home/user/Desktop/STM32-Projekte/FH-Vertibot/src/STM32F30x_StdPeriph_Driver/src/stm32f30x_adc.c ****   if (NewState != DISABLE)
 1733              		.loc 1 1705 0
 1734 0542 11B1     		cbz	r1, .L161
 1735              		.loc 1 1708 0
 1736 0544 43F00043 		orr	r3, r3, #-2147483648
 1737 0548 01E0     		b	.L163
 1738              	.L161:
1709:/home/user/Desktop/STM32-Projekte/FH-Vertibot/src/STM32F30x_StdPeriph_Driver/src/stm32f30x_adc.c ****   }
1710:/home/user/Desktop/STM32-Projekte/FH-Vertibot/src/STM32F30x_StdPeriph_Driver/src/stm32f30x_adc.c ****   else
1711:/home/user/Desktop/STM32-Projekte/FH-Vertibot/src/STM32F30x_StdPeriph_Driver/src/stm32f30x_adc.c ****   {
1712:/home/user/Desktop/STM32-Projekte/FH-Vertibot/src/STM32F30x_StdPeriph_Driver/src/stm32f30x_adc.c ****     /* Reset the OFFSET1_EN bit */
1713:/home/user/Desktop/STM32-Projekte/FH-Vertibot/src/STM32F30x_StdPeriph_Driver/src/stm32f30x_adc.c ****     ADCx->OFR3 &= ~(ADC_OFR3_OFFSET3_EN);
 1739              		.loc 1 1713 0
 1740 054a 23F00043 		bic	r3, r3, #-2147483648
 1741              	.L163:
 1742 054e 8366     		str	r3, [r0, #104]
 1743 0550 7047     		bx	lr
 1744              		.cfi_endproc
 1745              	.LFE156:
 1747              		.align	1
 1748              		.global	ADC_ChannelOffset4Cmd
 1749              		.thumb
 1750              		.thumb_func
 1752              	ADC_ChannelOffset4Cmd:
 1753              	.LFB157:
1714:/home/user/Desktop/STM32-Projekte/FH-Vertibot/src/STM32F30x_StdPeriph_Driver/src/stm32f30x_adc.c ****   }
1715:/home/user/Desktop/STM32-Projekte/FH-Vertibot/src/STM32F30x_StdPeriph_Driver/src/stm32f30x_adc.c **** }
1716:/home/user/Desktop/STM32-Projekte/FH-Vertibot/src/STM32F30x_StdPeriph_Driver/src/stm32f30x_adc.c **** 
1717:/home/user/Desktop/STM32-Projekte/FH-Vertibot/src/STM32F30x_StdPeriph_Driver/src/stm32f30x_adc.c **** /**
1718:/home/user/Desktop/STM32-Projekte/FH-Vertibot/src/STM32F30x_StdPeriph_Driver/src/stm32f30x_adc.c ****   * @brief  Enables or disables the Offset4.
1719:/home/user/Desktop/STM32-Projekte/FH-Vertibot/src/STM32F30x_StdPeriph_Driver/src/stm32f30x_adc.c ****   * @param  ADCx: where x can be 1, 2, 3 or 4 to select the ADC peripheral.
1720:/home/user/Desktop/STM32-Projekte/FH-Vertibot/src/STM32F30x_StdPeriph_Driver/src/stm32f30x_adc.c ****   * @param  NewState: new state of the ADCx offset4.
1721:/home/user/Desktop/STM32-Projekte/FH-Vertibot/src/STM32F30x_StdPeriph_Driver/src/stm32f30x_adc.c ****   *   This parameter can be: ENABLE or DISABLE.
1722:/home/user/Desktop/STM32-Projekte/FH-Vertibot/src/STM32F30x_StdPeriph_Driver/src/stm32f30x_adc.c ****   * @retval None
1723:/home/user/Desktop/STM32-Projekte/FH-Vertibot/src/STM32F30x_StdPeriph_Driver/src/stm32f30x_adc.c ****   */
1724:/home/user/Desktop/STM32-Projekte/FH-Vertibot/src/STM32F30x_StdPeriph_Driver/src/stm32f30x_adc.c **** void ADC_ChannelOffset4Cmd(ADC_TypeDef* ADCx, FunctionalState NewState)
1725:/home/user/Desktop/STM32-Projekte/FH-Vertibot/src/STM32F30x_StdPeriph_Driver/src/stm32f30x_adc.c **** {
 1754              		.loc 1 1725 0
 1755              		.cfi_startproc
 1756              		@ args = 0, pretend = 0, frame = 0
 1757              		@ frame_needed = 0, uses_anonymous_args = 0
 1758              		@ link register save eliminated.
 1759              	.LVL151:
1726:/home/user/Desktop/STM32-Projekte/FH-Vertibot/src/STM32F30x_StdPeriph_Driver/src/stm32f30x_adc.c ****   /* Check the parameters */
1727:/home/user/Desktop/STM32-Projekte/FH-Vertibot/src/STM32F30x_StdPeriph_Driver/src/stm32f30x_adc.c ****   assert_param(IS_ADC_ALL_PERIPH(ADCx));
1728:/home/user/Desktop/STM32-Projekte/FH-Vertibot/src/STM32F30x_StdPeriph_Driver/src/stm32f30x_adc.c ****   assert_param(IS_FUNCTIONAL_STATE(NewState));
1729:/home/user/Desktop/STM32-Projekte/FH-Vertibot/src/STM32F30x_StdPeriph_Driver/src/stm32f30x_adc.c **** 
1730:/home/user/Desktop/STM32-Projekte/FH-Vertibot/src/STM32F30x_StdPeriph_Driver/src/stm32f30x_adc.c ****   if (NewState != DISABLE)
1731:/home/user/Desktop/STM32-Projekte/FH-Vertibot/src/STM32F30x_StdPeriph_Driver/src/stm32f30x_adc.c ****   {
1732:/home/user/Desktop/STM32-Projekte/FH-Vertibot/src/STM32F30x_StdPeriph_Driver/src/stm32f30x_adc.c ****     /* Set the OFFSET1_EN bit */
1733:/home/user/Desktop/STM32-Projekte/FH-Vertibot/src/STM32F30x_StdPeriph_Driver/src/stm32f30x_adc.c ****     ADCx->OFR4 |= ADC_OFR4_OFFSET4_EN;
 1760              		.loc 1 1733 0
 1761 0552 C36E     		ldr	r3, [r0, #108]
1730:/home/user/Desktop/STM32-Projekte/FH-Vertibot/src/STM32F30x_StdPeriph_Driver/src/stm32f30x_adc.c ****   if (NewState != DISABLE)
 1762              		.loc 1 1730 0
 1763 0554 11B1     		cbz	r1, .L165
 1764              		.loc 1 1733 0
 1765 0556 43F00043 		orr	r3, r3, #-2147483648
 1766 055a 01E0     		b	.L167
 1767              	.L165:
1734:/home/user/Desktop/STM32-Projekte/FH-Vertibot/src/STM32F30x_StdPeriph_Driver/src/stm32f30x_adc.c ****   }
1735:/home/user/Desktop/STM32-Projekte/FH-Vertibot/src/STM32F30x_StdPeriph_Driver/src/stm32f30x_adc.c ****   else
1736:/home/user/Desktop/STM32-Projekte/FH-Vertibot/src/STM32F30x_StdPeriph_Driver/src/stm32f30x_adc.c ****   {
1737:/home/user/Desktop/STM32-Projekte/FH-Vertibot/src/STM32F30x_StdPeriph_Driver/src/stm32f30x_adc.c ****     /* Reset the OFFSET1_EN bit */
1738:/home/user/Desktop/STM32-Projekte/FH-Vertibot/src/STM32F30x_StdPeriph_Driver/src/stm32f30x_adc.c ****     ADCx->OFR4 &= ~(ADC_OFR4_OFFSET4_EN);
 1768              		.loc 1 1738 0
 1769 055c 23F00043 		bic	r3, r3, #-2147483648
 1770              	.L167:
 1771 0560 C366     		str	r3, [r0, #108]
 1772 0562 7047     		bx	lr
 1773              		.cfi_endproc
 1774              	.LFE157:
 1776              		.align	1
 1777              		.global	ADC_DMACmd
 1778              		.thumb
 1779              		.thumb_func
 1781              	ADC_DMACmd:
 1782              	.LFB158:
1739:/home/user/Desktop/STM32-Projekte/FH-Vertibot/src/STM32F30x_StdPeriph_Driver/src/stm32f30x_adc.c ****   }
1740:/home/user/Desktop/STM32-Projekte/FH-Vertibot/src/STM32F30x_StdPeriph_Driver/src/stm32f30x_adc.c **** }
1741:/home/user/Desktop/STM32-Projekte/FH-Vertibot/src/STM32F30x_StdPeriph_Driver/src/stm32f30x_adc.c **** 
1742:/home/user/Desktop/STM32-Projekte/FH-Vertibot/src/STM32F30x_StdPeriph_Driver/src/stm32f30x_adc.c **** /**
1743:/home/user/Desktop/STM32-Projekte/FH-Vertibot/src/STM32F30x_StdPeriph_Driver/src/stm32f30x_adc.c ****   * @}
1744:/home/user/Desktop/STM32-Projekte/FH-Vertibot/src/STM32F30x_StdPeriph_Driver/src/stm32f30x_adc.c ****   */
1745:/home/user/Desktop/STM32-Projekte/FH-Vertibot/src/STM32F30x_StdPeriph_Driver/src/stm32f30x_adc.c **** 
1746:/home/user/Desktop/STM32-Projekte/FH-Vertibot/src/STM32F30x_StdPeriph_Driver/src/stm32f30x_adc.c **** /** @defgroup ADC_Group5 Regular Channels DMA Configuration functions
1747:/home/user/Desktop/STM32-Projekte/FH-Vertibot/src/STM32F30x_StdPeriph_Driver/src/stm32f30x_adc.c ****  *  @brief   Regular Channels DMA Configuration functions 
1748:/home/user/Desktop/STM32-Projekte/FH-Vertibot/src/STM32F30x_StdPeriph_Driver/src/stm32f30x_adc.c ****  *
1749:/home/user/Desktop/STM32-Projekte/FH-Vertibot/src/STM32F30x_StdPeriph_Driver/src/stm32f30x_adc.c **** @verbatim   
1750:/home/user/Desktop/STM32-Projekte/FH-Vertibot/src/STM32F30x_StdPeriph_Driver/src/stm32f30x_adc.c ****  ===============================================================================
1751:/home/user/Desktop/STM32-Projekte/FH-Vertibot/src/STM32F30x_StdPeriph_Driver/src/stm32f30x_adc.c ****                    ##### Regular Channels DMA Configuration functions #####
1752:/home/user/Desktop/STM32-Projekte/FH-Vertibot/src/STM32F30x_StdPeriph_Driver/src/stm32f30x_adc.c ****  ===============================================================================  
1753:/home/user/Desktop/STM32-Projekte/FH-Vertibot/src/STM32F30x_StdPeriph_Driver/src/stm32f30x_adc.c **** 
1754:/home/user/Desktop/STM32-Projekte/FH-Vertibot/src/STM32F30x_StdPeriph_Driver/src/stm32f30x_adc.c ****   [..] This section provides functions allowing to configure the DMA for ADC regular 
1755:/home/user/Desktop/STM32-Projekte/FH-Vertibot/src/STM32F30x_StdPeriph_Driver/src/stm32f30x_adc.c ****   channels. Since converted regular channel values are stored into a unique data register, 
1756:/home/user/Desktop/STM32-Projekte/FH-Vertibot/src/STM32F30x_StdPeriph_Driver/src/stm32f30x_adc.c ****   it is useful to use DMA for conversion of more than one regular channel. This 
1757:/home/user/Desktop/STM32-Projekte/FH-Vertibot/src/STM32F30x_StdPeriph_Driver/src/stm32f30x_adc.c ****   avoids the loss of the data already stored in the ADC Data register. 
1758:/home/user/Desktop/STM32-Projekte/FH-Vertibot/src/STM32F30x_StdPeriph_Driver/src/stm32f30x_adc.c ****   
1759:/home/user/Desktop/STM32-Projekte/FH-Vertibot/src/STM32F30x_StdPeriph_Driver/src/stm32f30x_adc.c ****   (#) ADC_DMACmd() function is used to enable the ADC DMA mode, after each
1760:/home/user/Desktop/STM32-Projekte/FH-Vertibot/src/STM32F30x_StdPeriph_Driver/src/stm32f30x_adc.c ****       conversion of a regular channel, a DMA request is generated.
1761:/home/user/Desktop/STM32-Projekte/FH-Vertibot/src/STM32F30x_StdPeriph_Driver/src/stm32f30x_adc.c ****   (#) ADC_DMAConfig() function is used to select between the oneshot DMA mode 
1762:/home/user/Desktop/STM32-Projekte/FH-Vertibot/src/STM32F30x_StdPeriph_Driver/src/stm32f30x_adc.c ****       or the circular DMA mode
1763:/home/user/Desktop/STM32-Projekte/FH-Vertibot/src/STM32F30x_StdPeriph_Driver/src/stm32f30x_adc.c **** 
1764:/home/user/Desktop/STM32-Projekte/FH-Vertibot/src/STM32F30x_StdPeriph_Driver/src/stm32f30x_adc.c **** @endverbatim
1765:/home/user/Desktop/STM32-Projekte/FH-Vertibot/src/STM32F30x_StdPeriph_Driver/src/stm32f30x_adc.c ****   * @{
1766:/home/user/Desktop/STM32-Projekte/FH-Vertibot/src/STM32F30x_StdPeriph_Driver/src/stm32f30x_adc.c ****   */
1767:/home/user/Desktop/STM32-Projekte/FH-Vertibot/src/STM32F30x_StdPeriph_Driver/src/stm32f30x_adc.c **** 
1768:/home/user/Desktop/STM32-Projekte/FH-Vertibot/src/STM32F30x_StdPeriph_Driver/src/stm32f30x_adc.c **** /**
1769:/home/user/Desktop/STM32-Projekte/FH-Vertibot/src/STM32F30x_StdPeriph_Driver/src/stm32f30x_adc.c ****   * @brief  Enables or disables the specified ADC DMA request.
1770:/home/user/Desktop/STM32-Projekte/FH-Vertibot/src/STM32F30x_StdPeriph_Driver/src/stm32f30x_adc.c ****   * @param  ADCx: where x can be 1, 2, 3 or 4 to select the ADC peripheral.
1771:/home/user/Desktop/STM32-Projekte/FH-Vertibot/src/STM32F30x_StdPeriph_Driver/src/stm32f30x_adc.c ****   * @param  NewState: new state of the selected ADC DMA transfer.
1772:/home/user/Desktop/STM32-Projekte/FH-Vertibot/src/STM32F30x_StdPeriph_Driver/src/stm32f30x_adc.c ****   *   This parameter can be: ENABLE or DISABLE.
1773:/home/user/Desktop/STM32-Projekte/FH-Vertibot/src/STM32F30x_StdPeriph_Driver/src/stm32f30x_adc.c ****   * @retval None
1774:/home/user/Desktop/STM32-Projekte/FH-Vertibot/src/STM32F30x_StdPeriph_Driver/src/stm32f30x_adc.c ****   */
1775:/home/user/Desktop/STM32-Projekte/FH-Vertibot/src/STM32F30x_StdPeriph_Driver/src/stm32f30x_adc.c **** void ADC_DMACmd(ADC_TypeDef* ADCx, FunctionalState NewState)
1776:/home/user/Desktop/STM32-Projekte/FH-Vertibot/src/STM32F30x_StdPeriph_Driver/src/stm32f30x_adc.c **** {
 1783              		.loc 1 1776 0
 1784              		.cfi_startproc
 1785              		@ args = 0, pretend = 0, frame = 0
 1786              		@ frame_needed = 0, uses_anonymous_args = 0
 1787              		@ link register save eliminated.
 1788              	.LVL152:
1777:/home/user/Desktop/STM32-Projekte/FH-Vertibot/src/STM32F30x_StdPeriph_Driver/src/stm32f30x_adc.c ****   /* Check the parameters */
1778:/home/user/Desktop/STM32-Projekte/FH-Vertibot/src/STM32F30x_StdPeriph_Driver/src/stm32f30x_adc.c ****   assert_param(IS_ADC_DMA_PERIPH(ADCx));
1779:/home/user/Desktop/STM32-Projekte/FH-Vertibot/src/STM32F30x_StdPeriph_Driver/src/stm32f30x_adc.c ****   assert_param(IS_FUNCTIONAL_STATE(NewState));
1780:/home/user/Desktop/STM32-Projekte/FH-Vertibot/src/STM32F30x_StdPeriph_Driver/src/stm32f30x_adc.c ****   if (NewState != DISABLE)
1781:/home/user/Desktop/STM32-Projekte/FH-Vertibot/src/STM32F30x_StdPeriph_Driver/src/stm32f30x_adc.c ****   {
1782:/home/user/Desktop/STM32-Projekte/FH-Vertibot/src/STM32F30x_StdPeriph_Driver/src/stm32f30x_adc.c ****     /* Enable the selected ADC DMA request */
1783:/home/user/Desktop/STM32-Projekte/FH-Vertibot/src/STM32F30x_StdPeriph_Driver/src/stm32f30x_adc.c ****     ADCx->CFGR |= ADC_CFGR_DMAEN;
 1789              		.loc 1 1783 0
 1790 0564 C368     		ldr	r3, [r0, #12]
1780:/home/user/Desktop/STM32-Projekte/FH-Vertibot/src/STM32F30x_StdPeriph_Driver/src/stm32f30x_adc.c ****   if (NewState != DISABLE)
 1791              		.loc 1 1780 0
 1792 0566 11B1     		cbz	r1, .L169
 1793              		.loc 1 1783 0
 1794 0568 43F00103 		orr	r3, r3, #1
 1795 056c 01E0     		b	.L171
 1796              	.L169:
1784:/home/user/Desktop/STM32-Projekte/FH-Vertibot/src/STM32F30x_StdPeriph_Driver/src/stm32f30x_adc.c ****   }
1785:/home/user/Desktop/STM32-Projekte/FH-Vertibot/src/STM32F30x_StdPeriph_Driver/src/stm32f30x_adc.c ****   else
1786:/home/user/Desktop/STM32-Projekte/FH-Vertibot/src/STM32F30x_StdPeriph_Driver/src/stm32f30x_adc.c ****   {
1787:/home/user/Desktop/STM32-Projekte/FH-Vertibot/src/STM32F30x_StdPeriph_Driver/src/stm32f30x_adc.c ****     /* Disable the selected ADC DMA request */
1788:/home/user/Desktop/STM32-Projekte/FH-Vertibot/src/STM32F30x_StdPeriph_Driver/src/stm32f30x_adc.c ****     ADCx->CFGR &= ~(uint32_t)ADC_CFGR_DMAEN;
 1797              		.loc 1 1788 0
 1798 056e 23F00103 		bic	r3, r3, #1
 1799              	.L171:
 1800 0572 C360     		str	r3, [r0, #12]
 1801 0574 7047     		bx	lr
 1802              		.cfi_endproc
 1803              	.LFE158:
 1805              		.align	1
 1806              		.global	ADC_DMAConfig
 1807              		.thumb
 1808              		.thumb_func
 1810              	ADC_DMAConfig:
 1811              	.LFB159:
1789:/home/user/Desktop/STM32-Projekte/FH-Vertibot/src/STM32F30x_StdPeriph_Driver/src/stm32f30x_adc.c ****   }
1790:/home/user/Desktop/STM32-Projekte/FH-Vertibot/src/STM32F30x_StdPeriph_Driver/src/stm32f30x_adc.c **** }
1791:/home/user/Desktop/STM32-Projekte/FH-Vertibot/src/STM32F30x_StdPeriph_Driver/src/stm32f30x_adc.c **** 
1792:/home/user/Desktop/STM32-Projekte/FH-Vertibot/src/STM32F30x_StdPeriph_Driver/src/stm32f30x_adc.c **** /**
1793:/home/user/Desktop/STM32-Projekte/FH-Vertibot/src/STM32F30x_StdPeriph_Driver/src/stm32f30x_adc.c ****   * @brief  Enables or disables the specified ADC DMA request.
1794:/home/user/Desktop/STM32-Projekte/FH-Vertibot/src/STM32F30x_StdPeriph_Driver/src/stm32f30x_adc.c ****   * @param  ADCx: where x can be 1, 2, 3 or 4 to select the ADC peripheral.
1795:/home/user/Desktop/STM32-Projekte/FH-Vertibot/src/STM32F30x_StdPeriph_Driver/src/stm32f30x_adc.c ****   * @param  NewState: new state of the selected ADC DMA transfer.
1796:/home/user/Desktop/STM32-Projekte/FH-Vertibot/src/STM32F30x_StdPeriph_Driver/src/stm32f30x_adc.c ****   *   This parameter can be: ENABLE or DISABLE.
1797:/home/user/Desktop/STM32-Projekte/FH-Vertibot/src/STM32F30x_StdPeriph_Driver/src/stm32f30x_adc.c ****   * @retval None
1798:/home/user/Desktop/STM32-Projekte/FH-Vertibot/src/STM32F30x_StdPeriph_Driver/src/stm32f30x_adc.c ****   */
1799:/home/user/Desktop/STM32-Projekte/FH-Vertibot/src/STM32F30x_StdPeriph_Driver/src/stm32f30x_adc.c **** void ADC_DMAConfig(ADC_TypeDef* ADCx, uint32_t ADC_DMAMode)
1800:/home/user/Desktop/STM32-Projekte/FH-Vertibot/src/STM32F30x_StdPeriph_Driver/src/stm32f30x_adc.c **** {
 1812              		.loc 1 1800 0
 1813              		.cfi_startproc
 1814              		@ args = 0, pretend = 0, frame = 0
 1815              		@ frame_needed = 0, uses_anonymous_args = 0
 1816              		@ link register save eliminated.
 1817              	.LVL153:
1801:/home/user/Desktop/STM32-Projekte/FH-Vertibot/src/STM32F30x_StdPeriph_Driver/src/stm32f30x_adc.c ****   /* Check the parameters */
1802:/home/user/Desktop/STM32-Projekte/FH-Vertibot/src/STM32F30x_StdPeriph_Driver/src/stm32f30x_adc.c ****   assert_param(IS_ADC_DMA_PERIPH(ADCx));
1803:/home/user/Desktop/STM32-Projekte/FH-Vertibot/src/STM32F30x_StdPeriph_Driver/src/stm32f30x_adc.c ****   assert_param(IS_ADC_DMA_MODE(ADC_DMAMode));
1804:/home/user/Desktop/STM32-Projekte/FH-Vertibot/src/STM32F30x_StdPeriph_Driver/src/stm32f30x_adc.c **** 
1805:/home/user/Desktop/STM32-Projekte/FH-Vertibot/src/STM32F30x_StdPeriph_Driver/src/stm32f30x_adc.c ****   /* Set or reset the DMACFG bit */
1806:/home/user/Desktop/STM32-Projekte/FH-Vertibot/src/STM32F30x_StdPeriph_Driver/src/stm32f30x_adc.c ****    ADCx->CFGR &= ~(uint32_t)ADC_CFGR_DMACFG;
 1818              		.loc 1 1806 0
 1819 0576 C368     		ldr	r3, [r0, #12]
 1820 0578 23F00203 		bic	r3, r3, #2
 1821 057c C360     		str	r3, [r0, #12]
1807:/home/user/Desktop/STM32-Projekte/FH-Vertibot/src/STM32F30x_StdPeriph_Driver/src/stm32f30x_adc.c ****    ADCx->CFGR |= ADC_DMAMode;
 1822              		.loc 1 1807 0
 1823 057e C368     		ldr	r3, [r0, #12]
 1824 0580 1943     		orrs	r1, r1, r3
 1825              	.LVL154:
 1826 0582 C160     		str	r1, [r0, #12]
 1827 0584 7047     		bx	lr
 1828              		.cfi_endproc
 1829              	.LFE159:
 1831              		.align	1
 1832              		.global	ADC_InjectedChannelSampleTimeConfig
 1833              		.thumb
 1834              		.thumb_func
 1836              	ADC_InjectedChannelSampleTimeConfig:
 1837              	.LFB160:
1808:/home/user/Desktop/STM32-Projekte/FH-Vertibot/src/STM32F30x_StdPeriph_Driver/src/stm32f30x_adc.c **** }
1809:/home/user/Desktop/STM32-Projekte/FH-Vertibot/src/STM32F30x_StdPeriph_Driver/src/stm32f30x_adc.c **** 
1810:/home/user/Desktop/STM32-Projekte/FH-Vertibot/src/STM32F30x_StdPeriph_Driver/src/stm32f30x_adc.c **** /**
1811:/home/user/Desktop/STM32-Projekte/FH-Vertibot/src/STM32F30x_StdPeriph_Driver/src/stm32f30x_adc.c ****   * @}
1812:/home/user/Desktop/STM32-Projekte/FH-Vertibot/src/STM32F30x_StdPeriph_Driver/src/stm32f30x_adc.c ****   */
1813:/home/user/Desktop/STM32-Projekte/FH-Vertibot/src/STM32F30x_StdPeriph_Driver/src/stm32f30x_adc.c **** 
1814:/home/user/Desktop/STM32-Projekte/FH-Vertibot/src/STM32F30x_StdPeriph_Driver/src/stm32f30x_adc.c **** /** @defgroup ADC_Group6 Injected channels Configuration functions
1815:/home/user/Desktop/STM32-Projekte/FH-Vertibot/src/STM32F30x_StdPeriph_Driver/src/stm32f30x_adc.c ****  *  @brief   Injected channels Configuration functions 
1816:/home/user/Desktop/STM32-Projekte/FH-Vertibot/src/STM32F30x_StdPeriph_Driver/src/stm32f30x_adc.c ****  *
1817:/home/user/Desktop/STM32-Projekte/FH-Vertibot/src/STM32F30x_StdPeriph_Driver/src/stm32f30x_adc.c **** @verbatim   
1818:/home/user/Desktop/STM32-Projekte/FH-Vertibot/src/STM32F30x_StdPeriph_Driver/src/stm32f30x_adc.c ****  ===============================================================================
1819:/home/user/Desktop/STM32-Projekte/FH-Vertibot/src/STM32F30x_StdPeriph_Driver/src/stm32f30x_adc.c ****                      ##### Injected channels Configuration functions #####
1820:/home/user/Desktop/STM32-Projekte/FH-Vertibot/src/STM32F30x_StdPeriph_Driver/src/stm32f30x_adc.c ****  ===============================================================================  
1821:/home/user/Desktop/STM32-Projekte/FH-Vertibot/src/STM32F30x_StdPeriph_Driver/src/stm32f30x_adc.c **** 
1822:/home/user/Desktop/STM32-Projekte/FH-Vertibot/src/STM32F30x_StdPeriph_Driver/src/stm32f30x_adc.c ****   [..] This section provide functions allowing to manage the ADC Injected channels,
1823:/home/user/Desktop/STM32-Projekte/FH-Vertibot/src/STM32F30x_StdPeriph_Driver/src/stm32f30x_adc.c ****   it is composed of : 
1824:/home/user/Desktop/STM32-Projekte/FH-Vertibot/src/STM32F30x_StdPeriph_Driver/src/stm32f30x_adc.c ****     
1825:/home/user/Desktop/STM32-Projekte/FH-Vertibot/src/STM32F30x_StdPeriph_Driver/src/stm32f30x_adc.c ****    (#) Configuration functions for Injected channels sample time
1826:/home/user/Desktop/STM32-Projekte/FH-Vertibot/src/STM32F30x_StdPeriph_Driver/src/stm32f30x_adc.c ****    (#) Functions to start and stop the injected conversion
1827:/home/user/Desktop/STM32-Projekte/FH-Vertibot/src/STM32F30x_StdPeriph_Driver/src/stm32f30x_adc.c ****    (#) unction to select the discontinuous mode    
1828:/home/user/Desktop/STM32-Projekte/FH-Vertibot/src/STM32F30x_StdPeriph_Driver/src/stm32f30x_adc.c ****    (#) Function to get the Specified Injected channel conversion data: This subsection 
1829:/home/user/Desktop/STM32-Projekte/FH-Vertibot/src/STM32F30x_StdPeriph_Driver/src/stm32f30x_adc.c ****       provides an important function in the ADC peripheral since it returns the 
1830:/home/user/Desktop/STM32-Projekte/FH-Vertibot/src/STM32F30x_StdPeriph_Driver/src/stm32f30x_adc.c ****       converted data of the specific injected channel.
1831:/home/user/Desktop/STM32-Projekte/FH-Vertibot/src/STM32F30x_StdPeriph_Driver/src/stm32f30x_adc.c **** 
1832:/home/user/Desktop/STM32-Projekte/FH-Vertibot/src/STM32F30x_StdPeriph_Driver/src/stm32f30x_adc.c **** @endverbatim
1833:/home/user/Desktop/STM32-Projekte/FH-Vertibot/src/STM32F30x_StdPeriph_Driver/src/stm32f30x_adc.c ****   * @{
1834:/home/user/Desktop/STM32-Projekte/FH-Vertibot/src/STM32F30x_StdPeriph_Driver/src/stm32f30x_adc.c ****   */ 
1835:/home/user/Desktop/STM32-Projekte/FH-Vertibot/src/STM32F30x_StdPeriph_Driver/src/stm32f30x_adc.c **** 
1836:/home/user/Desktop/STM32-Projekte/FH-Vertibot/src/STM32F30x_StdPeriph_Driver/src/stm32f30x_adc.c **** /**
1837:/home/user/Desktop/STM32-Projekte/FH-Vertibot/src/STM32F30x_StdPeriph_Driver/src/stm32f30x_adc.c ****   * @brief  Configures for the selected ADC injected channel its corresponding
1838:/home/user/Desktop/STM32-Projekte/FH-Vertibot/src/STM32F30x_StdPeriph_Driver/src/stm32f30x_adc.c ****   *         sample time.
1839:/home/user/Desktop/STM32-Projekte/FH-Vertibot/src/STM32F30x_StdPeriph_Driver/src/stm32f30x_adc.c ****   * @param  ADCx: where x can be 1, 2, 3 or 4 to select the ADC peripheral.
1840:/home/user/Desktop/STM32-Projekte/FH-Vertibot/src/STM32F30x_StdPeriph_Driver/src/stm32f30x_adc.c ****   * @param  ADC_Channel: the ADC channel to configure. 
1841:/home/user/Desktop/STM32-Projekte/FH-Vertibot/src/STM32F30x_StdPeriph_Driver/src/stm32f30x_adc.c ****   *   This parameter can be one of the following values:
1842:/home/user/Desktop/STM32-Projekte/FH-Vertibot/src/STM32F30x_StdPeriph_Driver/src/stm32f30x_adc.c ****   *     @arg ADC_InjectedChannel_1: ADC Channel1 selected
1843:/home/user/Desktop/STM32-Projekte/FH-Vertibot/src/STM32F30x_StdPeriph_Driver/src/stm32f30x_adc.c ****   *     @arg ADC_InjectedChannel_2: ADC Channel2 selected
1844:/home/user/Desktop/STM32-Projekte/FH-Vertibot/src/STM32F30x_StdPeriph_Driver/src/stm32f30x_adc.c ****   *     @arg ADC_InjectedChannel_3: ADC Channel3 selected
1845:/home/user/Desktop/STM32-Projekte/FH-Vertibot/src/STM32F30x_StdPeriph_Driver/src/stm32f30x_adc.c ****   *     @arg ADC_InjectedChannel_4: ADC Channel4 selected
1846:/home/user/Desktop/STM32-Projekte/FH-Vertibot/src/STM32F30x_StdPeriph_Driver/src/stm32f30x_adc.c ****   *     @arg ADC_InjectedChannel_5: ADC Channel5 selected
1847:/home/user/Desktop/STM32-Projekte/FH-Vertibot/src/STM32F30x_StdPeriph_Driver/src/stm32f30x_adc.c ****   *     @arg ADC_InjectedChannel_6: ADC Channel6 selected
1848:/home/user/Desktop/STM32-Projekte/FH-Vertibot/src/STM32F30x_StdPeriph_Driver/src/stm32f30x_adc.c ****   *     @arg ADC_InjectedChannel_7: ADC Channel7 selected
1849:/home/user/Desktop/STM32-Projekte/FH-Vertibot/src/STM32F30x_StdPeriph_Driver/src/stm32f30x_adc.c ****   *     @arg ADC_InjectedChannel_8: ADC Channel8 selected
1850:/home/user/Desktop/STM32-Projekte/FH-Vertibot/src/STM32F30x_StdPeriph_Driver/src/stm32f30x_adc.c ****   *     @arg ADC_InjectedChannel_9: ADC Channel9 selected
1851:/home/user/Desktop/STM32-Projekte/FH-Vertibot/src/STM32F30x_StdPeriph_Driver/src/stm32f30x_adc.c ****   *     @arg ADC_InjectedChannel_10: ADC Channel10 selected
1852:/home/user/Desktop/STM32-Projekte/FH-Vertibot/src/STM32F30x_StdPeriph_Driver/src/stm32f30x_adc.c ****   *     @arg ADC_InjectedChannel_11: ADC Channel11 selected
1853:/home/user/Desktop/STM32-Projekte/FH-Vertibot/src/STM32F30x_StdPeriph_Driver/src/stm32f30x_adc.c ****   *     @arg ADC_InjectedChannel_12: ADC Channel12 selected
1854:/home/user/Desktop/STM32-Projekte/FH-Vertibot/src/STM32F30x_StdPeriph_Driver/src/stm32f30x_adc.c ****   *     @arg ADC_InjectedChannel_13: ADC Channel13 selected
1855:/home/user/Desktop/STM32-Projekte/FH-Vertibot/src/STM32F30x_StdPeriph_Driver/src/stm32f30x_adc.c ****   *     @arg ADC_InjectedChannel_14: ADC Channel14 selected
1856:/home/user/Desktop/STM32-Projekte/FH-Vertibot/src/STM32F30x_StdPeriph_Driver/src/stm32f30x_adc.c ****   *     @arg ADC_InjectedChannel_15: ADC Channel15 selected
1857:/home/user/Desktop/STM32-Projekte/FH-Vertibot/src/STM32F30x_StdPeriph_Driver/src/stm32f30x_adc.c ****   *     @arg ADC_InjectedChannel_16: ADC Channel16 selected
1858:/home/user/Desktop/STM32-Projekte/FH-Vertibot/src/STM32F30x_StdPeriph_Driver/src/stm32f30x_adc.c ****   *     @arg ADC_InjectedChannel_17: ADC Channel17 selected
1859:/home/user/Desktop/STM32-Projekte/FH-Vertibot/src/STM32F30x_StdPeriph_Driver/src/stm32f30x_adc.c ****   *     @arg ADC_InjectedChannel_18: ADC Channel18 selected
1860:/home/user/Desktop/STM32-Projekte/FH-Vertibot/src/STM32F30x_StdPeriph_Driver/src/stm32f30x_adc.c ****   * @param  ADC_SampleTime: The sample time value to be set for the selected channel. 
1861:/home/user/Desktop/STM32-Projekte/FH-Vertibot/src/STM32F30x_StdPeriph_Driver/src/stm32f30x_adc.c ****   *   This parameter can be one of the following values:
1862:/home/user/Desktop/STM32-Projekte/FH-Vertibot/src/STM32F30x_StdPeriph_Driver/src/stm32f30x_adc.c ****   *     @arg ADC_SampleTime_1Cycles5: Sample time equal to 1.5 cycles
1863:/home/user/Desktop/STM32-Projekte/FH-Vertibot/src/STM32F30x_StdPeriph_Driver/src/stm32f30x_adc.c ****   *     @arg ADC_SampleTime_2Cycles5: Sample time equal to 2.5 cycles
1864:/home/user/Desktop/STM32-Projekte/FH-Vertibot/src/STM32F30x_StdPeriph_Driver/src/stm32f30x_adc.c ****   *     @arg ADC_SampleTime_4Cycles5: Sample time equal to 4.5 cycles
1865:/home/user/Desktop/STM32-Projekte/FH-Vertibot/src/STM32F30x_StdPeriph_Driver/src/stm32f30x_adc.c ****   *     @arg ADC_SampleTime_7Cycles5: Sample time equal to 7.5 cycles	
1866:/home/user/Desktop/STM32-Projekte/FH-Vertibot/src/STM32F30x_StdPeriph_Driver/src/stm32f30x_adc.c ****   *     @arg ADC_SampleTime_19Cycles5: Sample time equal to 19.5 cycles	
1867:/home/user/Desktop/STM32-Projekte/FH-Vertibot/src/STM32F30x_StdPeriph_Driver/src/stm32f30x_adc.c ****   *     @arg ADC_SampleTime_61Cycles5: Sample time equal to 61.5 cycles	
1868:/home/user/Desktop/STM32-Projekte/FH-Vertibot/src/STM32F30x_StdPeriph_Driver/src/stm32f30x_adc.c ****   *     @arg ADC_SampleTime_181Cycles5: Sample time equal to 181.5 cycles	
1869:/home/user/Desktop/STM32-Projekte/FH-Vertibot/src/STM32F30x_StdPeriph_Driver/src/stm32f30x_adc.c ****   *     @arg ADC_SampleTime_601Cycles5: Sample time equal to 601.5 cycles	
1870:/home/user/Desktop/STM32-Projekte/FH-Vertibot/src/STM32F30x_StdPeriph_Driver/src/stm32f30x_adc.c ****   * @retval None
1871:/home/user/Desktop/STM32-Projekte/FH-Vertibot/src/STM32F30x_StdPeriph_Driver/src/stm32f30x_adc.c ****   */
1872:/home/user/Desktop/STM32-Projekte/FH-Vertibot/src/STM32F30x_StdPeriph_Driver/src/stm32f30x_adc.c **** void ADC_InjectedChannelSampleTimeConfig(ADC_TypeDef* ADCx, uint8_t ADC_InjectedChannel, uint8_t AD
1873:/home/user/Desktop/STM32-Projekte/FH-Vertibot/src/STM32F30x_StdPeriph_Driver/src/stm32f30x_adc.c **** {
 1838              		.loc 1 1873 0
 1839              		.cfi_startproc
 1840              		@ args = 0, pretend = 0, frame = 0
 1841              		@ frame_needed = 0, uses_anonymous_args = 0
 1842              	.LVL155:
1874:/home/user/Desktop/STM32-Projekte/FH-Vertibot/src/STM32F30x_StdPeriph_Driver/src/stm32f30x_adc.c ****   uint32_t tmpreg1 = 0;
1875:/home/user/Desktop/STM32-Projekte/FH-Vertibot/src/STM32F30x_StdPeriph_Driver/src/stm32f30x_adc.c ****   /* Check the parameters */
1876:/home/user/Desktop/STM32-Projekte/FH-Vertibot/src/STM32F30x_StdPeriph_Driver/src/stm32f30x_adc.c ****   assert_param(IS_ADC_ALL_PERIPH(ADCx));
1877:/home/user/Desktop/STM32-Projekte/FH-Vertibot/src/STM32F30x_StdPeriph_Driver/src/stm32f30x_adc.c ****   assert_param(IS_ADC_INJECTED_CHANNEL(ADC_InjectedChannel));
1878:/home/user/Desktop/STM32-Projekte/FH-Vertibot/src/STM32F30x_StdPeriph_Driver/src/stm32f30x_adc.c ****   assert_param(IS_ADC_SAMPLE_TIME(ADC_SampleTime));
1879:/home/user/Desktop/STM32-Projekte/FH-Vertibot/src/STM32F30x_StdPeriph_Driver/src/stm32f30x_adc.c **** 
1880:/home/user/Desktop/STM32-Projekte/FH-Vertibot/src/STM32F30x_StdPeriph_Driver/src/stm32f30x_adc.c ****   /* Channel sampling configuration */
1881:/home/user/Desktop/STM32-Projekte/FH-Vertibot/src/STM32F30x_StdPeriph_Driver/src/stm32f30x_adc.c ****   /* if ADC_InjectedChannel_10 ... ADC_InjectedChannel_18 is selected */
1882:/home/user/Desktop/STM32-Projekte/FH-Vertibot/src/STM32F30x_StdPeriph_Driver/src/stm32f30x_adc.c ****   if (ADC_InjectedChannel > ADC_InjectedChannel_9)
 1843              		.loc 1 1882 0
 1844 0586 0929     		cmp	r1, #9
1873:/home/user/Desktop/STM32-Projekte/FH-Vertibot/src/STM32F30x_StdPeriph_Driver/src/stm32f30x_adc.c **** {
 1845              		.loc 1 1873 0
 1846 0588 10B5     		push	{r4, lr}
 1847              	.LCFI4:
 1848              		.cfi_def_cfa_offset 8
 1849              		.cfi_offset 4, -8
 1850              		.cfi_offset 14, -4
 1851              		.loc 1 1882 0
 1852 058a 0ED9     		bls	.L174
1883:/home/user/Desktop/STM32-Projekte/FH-Vertibot/src/STM32F30x_StdPeriph_Driver/src/stm32f30x_adc.c ****   {
1884:/home/user/Desktop/STM32-Projekte/FH-Vertibot/src/STM32F30x_StdPeriph_Driver/src/stm32f30x_adc.c ****     /* Calculate the mask to clear */
1885:/home/user/Desktop/STM32-Projekte/FH-Vertibot/src/STM32F30x_StdPeriph_Driver/src/stm32f30x_adc.c ****     tmpreg1 = ADC_SMPR2_SMP10 << (3 * (ADC_InjectedChannel - 10));
 1853              		.loc 1 1885 0
 1854 058c 0A39     		subs	r1, r1, #10
 1855              	.LVL156:
1886:/home/user/Desktop/STM32-Projekte/FH-Vertibot/src/STM32F30x_StdPeriph_Driver/src/stm32f30x_adc.c ****     /* Clear the old channel sample time */
1887:/home/user/Desktop/STM32-Projekte/FH-Vertibot/src/STM32F30x_StdPeriph_Driver/src/stm32f30x_adc.c **** 	ADCx->SMPR2 &= ~tmpreg1;
 1856              		.loc 1 1887 0
 1857 058e 8469     		ldr	r4, [r0, #24]
1885:/home/user/Desktop/STM32-Projekte/FH-Vertibot/src/STM32F30x_StdPeriph_Driver/src/stm32f30x_adc.c ****     tmpreg1 = ADC_SMPR2_SMP10 << (3 * (ADC_InjectedChannel - 10));
 1858              		.loc 1 1885 0
 1859 0590 01EB4101 		add	r1, r1, r1, lsl #1
 1860              	.LVL157:
 1861 0594 0723     		movs	r3, #7
 1862 0596 8B40     		lsls	r3, r3, r1
 1863              	.LVL158:
 1864              		.loc 1 1887 0
 1865 0598 24EA0303 		bic	r3, r4, r3
 1866              	.LVL159:
 1867 059c 8361     		str	r3, [r0, #24]
1888:/home/user/Desktop/STM32-Projekte/FH-Vertibot/src/STM32F30x_StdPeriph_Driver/src/stm32f30x_adc.c ****     /* Calculate the mask to set */
1889:/home/user/Desktop/STM32-Projekte/FH-Vertibot/src/STM32F30x_StdPeriph_Driver/src/stm32f30x_adc.c **** 	ADCx->SMPR2 |= (uint32_t)ADC_SampleTime << (3 * (ADC_InjectedChannel - 10));
 1868              		.loc 1 1889 0
 1869 059e 8369     		ldr	r3, [r0, #24]
 1870 05a0 02FA01F1 		lsl	r1, r2, r1
 1871              	.LVL160:
 1872 05a4 1943     		orrs	r1, r1, r3
 1873 05a6 8161     		str	r1, [r0, #24]
 1874 05a8 10BD     		pop	{r4, pc}
 1875              	.LVL161:
 1876              	.L174:
1890:/home/user/Desktop/STM32-Projekte/FH-Vertibot/src/STM32F30x_StdPeriph_Driver/src/stm32f30x_adc.c **** 
1891:/home/user/Desktop/STM32-Projekte/FH-Vertibot/src/STM32F30x_StdPeriph_Driver/src/stm32f30x_adc.c ****   }
1892:/home/user/Desktop/STM32-Projekte/FH-Vertibot/src/STM32F30x_StdPeriph_Driver/src/stm32f30x_adc.c ****   else /* ADC_InjectedChannel include in ADC_InjectedChannel_[0..9] */
1893:/home/user/Desktop/STM32-Projekte/FH-Vertibot/src/STM32F30x_StdPeriph_Driver/src/stm32f30x_adc.c ****   {
1894:/home/user/Desktop/STM32-Projekte/FH-Vertibot/src/STM32F30x_StdPeriph_Driver/src/stm32f30x_adc.c ****     /* Calculate the mask to clear */
1895:/home/user/Desktop/STM32-Projekte/FH-Vertibot/src/STM32F30x_StdPeriph_Driver/src/stm32f30x_adc.c ****     tmpreg1 = ADC_SMPR1_SMP1 << (3 * (ADC_InjectedChannel - 1));
 1877              		.loc 1 1895 0
 1878 05aa 0139     		subs	r1, r1, #1
 1879              	.LVL162:
1896:/home/user/Desktop/STM32-Projekte/FH-Vertibot/src/STM32F30x_StdPeriph_Driver/src/stm32f30x_adc.c ****     /* Clear the old channel sample time */
1897:/home/user/Desktop/STM32-Projekte/FH-Vertibot/src/STM32F30x_StdPeriph_Driver/src/stm32f30x_adc.c **** 	ADCx->SMPR1 &= ~tmpreg1;
 1880              		.loc 1 1897 0
 1881 05ac 4469     		ldr	r4, [r0, #20]
1895:/home/user/Desktop/STM32-Projekte/FH-Vertibot/src/STM32F30x_StdPeriph_Driver/src/stm32f30x_adc.c ****     tmpreg1 = ADC_SMPR1_SMP1 << (3 * (ADC_InjectedChannel - 1));
 1882              		.loc 1 1895 0
 1883 05ae 01EB4101 		add	r1, r1, r1, lsl #1
 1884              	.LVL163:
 1885 05b2 3823     		movs	r3, #56
 1886 05b4 8B40     		lsls	r3, r3, r1
 1887              	.LVL164:
 1888              		.loc 1 1897 0
 1889 05b6 24EA0303 		bic	r3, r4, r3
 1890              	.LVL165:
 1891 05ba 4361     		str	r3, [r0, #20]
1898:/home/user/Desktop/STM32-Projekte/FH-Vertibot/src/STM32F30x_StdPeriph_Driver/src/stm32f30x_adc.c ****     /* Calculate the mask to set */
1899:/home/user/Desktop/STM32-Projekte/FH-Vertibot/src/STM32F30x_StdPeriph_Driver/src/stm32f30x_adc.c **** 	ADCx->SMPR1 |= (uint32_t)ADC_SampleTime << (3 * (ADC_InjectedChannel));
 1892              		.loc 1 1899 0
 1893 05bc 4369     		ldr	r3, [r0, #20]
 1894 05be 0331     		adds	r1, r1, #3
 1895              	.LVL166:
 1896 05c0 8A40     		lsls	r2, r2, r1
 1897              	.LVL167:
 1898 05c2 1A43     		orrs	r2, r2, r3
 1899 05c4 4261     		str	r2, [r0, #20]
 1900 05c6 10BD     		pop	{r4, pc}
 1901              		.cfi_endproc
 1902              	.LFE160:
 1904              		.align	1
 1905              		.global	ADC_StartInjectedConversion
 1906              		.thumb
 1907              		.thumb_func
 1909              	ADC_StartInjectedConversion:
 1910              	.LFB161:
1900:/home/user/Desktop/STM32-Projekte/FH-Vertibot/src/STM32F30x_StdPeriph_Driver/src/stm32f30x_adc.c ****   }  
1901:/home/user/Desktop/STM32-Projekte/FH-Vertibot/src/STM32F30x_StdPeriph_Driver/src/stm32f30x_adc.c **** }
1902:/home/user/Desktop/STM32-Projekte/FH-Vertibot/src/STM32F30x_StdPeriph_Driver/src/stm32f30x_adc.c **** 
1903:/home/user/Desktop/STM32-Projekte/FH-Vertibot/src/STM32F30x_StdPeriph_Driver/src/stm32f30x_adc.c **** /**
1904:/home/user/Desktop/STM32-Projekte/FH-Vertibot/src/STM32F30x_StdPeriph_Driver/src/stm32f30x_adc.c ****   * @brief  Enables or disables the selected ADC start of the injected 
1905:/home/user/Desktop/STM32-Projekte/FH-Vertibot/src/STM32F30x_StdPeriph_Driver/src/stm32f30x_adc.c ****   *         channels conversion.
1906:/home/user/Desktop/STM32-Projekte/FH-Vertibot/src/STM32F30x_StdPeriph_Driver/src/stm32f30x_adc.c ****   * @param  ADCx: where x can be 1, 2, 3 or 4 to select the ADC peripheral.
1907:/home/user/Desktop/STM32-Projekte/FH-Vertibot/src/STM32F30x_StdPeriph_Driver/src/stm32f30x_adc.c ****   * @param  NewState: new state of the selected ADC software start injected conversion.
1908:/home/user/Desktop/STM32-Projekte/FH-Vertibot/src/STM32F30x_StdPeriph_Driver/src/stm32f30x_adc.c ****   *   This parameter can be: ENABLE or DISABLE.
1909:/home/user/Desktop/STM32-Projekte/FH-Vertibot/src/STM32F30x_StdPeriph_Driver/src/stm32f30x_adc.c ****   * @retval None
1910:/home/user/Desktop/STM32-Projekte/FH-Vertibot/src/STM32F30x_StdPeriph_Driver/src/stm32f30x_adc.c ****   */
1911:/home/user/Desktop/STM32-Projekte/FH-Vertibot/src/STM32F30x_StdPeriph_Driver/src/stm32f30x_adc.c **** void ADC_StartInjectedConversion(ADC_TypeDef* ADCx)
1912:/home/user/Desktop/STM32-Projekte/FH-Vertibot/src/STM32F30x_StdPeriph_Driver/src/stm32f30x_adc.c **** {
 1911              		.loc 1 1912 0
 1912              		.cfi_startproc
 1913              		@ args = 0, pretend = 0, frame = 0
 1914              		@ frame_needed = 0, uses_anonymous_args = 0
 1915              		@ link register save eliminated.
 1916              	.LVL168:
1913:/home/user/Desktop/STM32-Projekte/FH-Vertibot/src/STM32F30x_StdPeriph_Driver/src/stm32f30x_adc.c ****   /* Check the parameters */
1914:/home/user/Desktop/STM32-Projekte/FH-Vertibot/src/STM32F30x_StdPeriph_Driver/src/stm32f30x_adc.c ****   assert_param(IS_ADC_ALL_PERIPH(ADCx));
1915:/home/user/Desktop/STM32-Projekte/FH-Vertibot/src/STM32F30x_StdPeriph_Driver/src/stm32f30x_adc.c **** 
1916:/home/user/Desktop/STM32-Projekte/FH-Vertibot/src/STM32F30x_StdPeriph_Driver/src/stm32f30x_adc.c ****   /* Enable the selected ADC conversion for injected group on external event and start the selected
1917:/home/user/Desktop/STM32-Projekte/FH-Vertibot/src/STM32F30x_StdPeriph_Driver/src/stm32f30x_adc.c ****      ADC injected conversion */
1918:/home/user/Desktop/STM32-Projekte/FH-Vertibot/src/STM32F30x_StdPeriph_Driver/src/stm32f30x_adc.c ****   ADCx->CR |= ADC_CR_JADSTART;
 1917              		.loc 1 1918 0
 1918 05c8 8368     		ldr	r3, [r0, #8]
 1919 05ca 43F00803 		orr	r3, r3, #8
 1920 05ce 8360     		str	r3, [r0, #8]
 1921 05d0 7047     		bx	lr
 1922              		.cfi_endproc
 1923              	.LFE161:
 1925              		.align	1
 1926              		.global	ADC_StopInjectedConversion
 1927              		.thumb
 1928              		.thumb_func
 1930              	ADC_StopInjectedConversion:
 1931              	.LFB162:
1919:/home/user/Desktop/STM32-Projekte/FH-Vertibot/src/STM32F30x_StdPeriph_Driver/src/stm32f30x_adc.c **** }
1920:/home/user/Desktop/STM32-Projekte/FH-Vertibot/src/STM32F30x_StdPeriph_Driver/src/stm32f30x_adc.c **** 
1921:/home/user/Desktop/STM32-Projekte/FH-Vertibot/src/STM32F30x_StdPeriph_Driver/src/stm32f30x_adc.c **** /**
1922:/home/user/Desktop/STM32-Projekte/FH-Vertibot/src/STM32F30x_StdPeriph_Driver/src/stm32f30x_adc.c ****   * @brief  Stops the selected ADC ongoing injected conversion.
1923:/home/user/Desktop/STM32-Projekte/FH-Vertibot/src/STM32F30x_StdPeriph_Driver/src/stm32f30x_adc.c ****   * @param  ADCx: where x can be 1, 2, 3 or 4 to select the ADC peripheral.
1924:/home/user/Desktop/STM32-Projekte/FH-Vertibot/src/STM32F30x_StdPeriph_Driver/src/stm32f30x_adc.c ****   * @retval None
1925:/home/user/Desktop/STM32-Projekte/FH-Vertibot/src/STM32F30x_StdPeriph_Driver/src/stm32f30x_adc.c ****   */
1926:/home/user/Desktop/STM32-Projekte/FH-Vertibot/src/STM32F30x_StdPeriph_Driver/src/stm32f30x_adc.c **** void ADC_StopInjectedConversion(ADC_TypeDef* ADCx)
1927:/home/user/Desktop/STM32-Projekte/FH-Vertibot/src/STM32F30x_StdPeriph_Driver/src/stm32f30x_adc.c **** {
 1932              		.loc 1 1927 0
 1933              		.cfi_startproc
 1934              		@ args = 0, pretend = 0, frame = 0
 1935              		@ frame_needed = 0, uses_anonymous_args = 0
 1936              		@ link register save eliminated.
 1937              	.LVL169:
1928:/home/user/Desktop/STM32-Projekte/FH-Vertibot/src/STM32F30x_StdPeriph_Driver/src/stm32f30x_adc.c ****   /* Check the parameters */
1929:/home/user/Desktop/STM32-Projekte/FH-Vertibot/src/STM32F30x_StdPeriph_Driver/src/stm32f30x_adc.c ****   assert_param(IS_ADC_ALL_PERIPH(ADCx));
1930:/home/user/Desktop/STM32-Projekte/FH-Vertibot/src/STM32F30x_StdPeriph_Driver/src/stm32f30x_adc.c **** 
1931:/home/user/Desktop/STM32-Projekte/FH-Vertibot/src/STM32F30x_StdPeriph_Driver/src/stm32f30x_adc.c ****   /* Set the JADSTP bit */
1932:/home/user/Desktop/STM32-Projekte/FH-Vertibot/src/STM32F30x_StdPeriph_Driver/src/stm32f30x_adc.c ****    ADCx->CR |= ADC_CR_JADSTP;
 1938              		.loc 1 1932 0
 1939 05d2 8368     		ldr	r3, [r0, #8]
 1940 05d4 43F02003 		orr	r3, r3, #32
 1941 05d8 8360     		str	r3, [r0, #8]
 1942 05da 7047     		bx	lr
 1943              		.cfi_endproc
 1944              	.LFE162:
 1946              		.align	1
 1947              		.global	ADC_GetStartInjectedConversionStatus
 1948              		.thumb
 1949              		.thumb_func
 1951              	ADC_GetStartInjectedConversionStatus:
 1952              	.LFB163:
1933:/home/user/Desktop/STM32-Projekte/FH-Vertibot/src/STM32F30x_StdPeriph_Driver/src/stm32f30x_adc.c **** }
1934:/home/user/Desktop/STM32-Projekte/FH-Vertibot/src/STM32F30x_StdPeriph_Driver/src/stm32f30x_adc.c **** 
1935:/home/user/Desktop/STM32-Projekte/FH-Vertibot/src/STM32F30x_StdPeriph_Driver/src/stm32f30x_adc.c **** /**
1936:/home/user/Desktop/STM32-Projekte/FH-Vertibot/src/STM32F30x_StdPeriph_Driver/src/stm32f30x_adc.c ****   * @brief  Gets the selected ADC Software start injected conversion Status.
1937:/home/user/Desktop/STM32-Projekte/FH-Vertibot/src/STM32F30x_StdPeriph_Driver/src/stm32f30x_adc.c ****   * @param  ADCx: where x can be 1, 2, 3 or 4 to select the ADC peripheral.
1938:/home/user/Desktop/STM32-Projekte/FH-Vertibot/src/STM32F30x_StdPeriph_Driver/src/stm32f30x_adc.c ****   * @retval The new state of ADC start injected conversion (SET or RESET).
1939:/home/user/Desktop/STM32-Projekte/FH-Vertibot/src/STM32F30x_StdPeriph_Driver/src/stm32f30x_adc.c ****   */
1940:/home/user/Desktop/STM32-Projekte/FH-Vertibot/src/STM32F30x_StdPeriph_Driver/src/stm32f30x_adc.c **** FlagStatus ADC_GetStartInjectedConversionStatus(ADC_TypeDef* ADCx)
1941:/home/user/Desktop/STM32-Projekte/FH-Vertibot/src/STM32F30x_StdPeriph_Driver/src/stm32f30x_adc.c **** {
 1953              		.loc 1 1941 0
 1954              		.cfi_startproc
 1955              		@ args = 0, pretend = 0, frame = 0
 1956              		@ frame_needed = 0, uses_anonymous_args = 0
 1957              		@ link register save eliminated.
 1958              	.LVL170:
1942:/home/user/Desktop/STM32-Projekte/FH-Vertibot/src/STM32F30x_StdPeriph_Driver/src/stm32f30x_adc.c ****   FlagStatus bitstatus = RESET;
1943:/home/user/Desktop/STM32-Projekte/FH-Vertibot/src/STM32F30x_StdPeriph_Driver/src/stm32f30x_adc.c ****   /* Check the parameters */
1944:/home/user/Desktop/STM32-Projekte/FH-Vertibot/src/STM32F30x_StdPeriph_Driver/src/stm32f30x_adc.c ****   assert_param(IS_ADC_ALL_PERIPH(ADCx));
1945:/home/user/Desktop/STM32-Projekte/FH-Vertibot/src/STM32F30x_StdPeriph_Driver/src/stm32f30x_adc.c **** 
1946:/home/user/Desktop/STM32-Projekte/FH-Vertibot/src/STM32F30x_StdPeriph_Driver/src/stm32f30x_adc.c ****   /* Check the status of JADSTART bit */
1947:/home/user/Desktop/STM32-Projekte/FH-Vertibot/src/STM32F30x_StdPeriph_Driver/src/stm32f30x_adc.c ****   if ((ADCx->CR & ADC_CR_JADSTART) != (uint32_t)RESET)
 1959              		.loc 1 1947 0
 1960 05dc 8068     		ldr	r0, [r0, #8]
 1961              	.LVL171:
1948:/home/user/Desktop/STM32-Projekte/FH-Vertibot/src/STM32F30x_StdPeriph_Driver/src/stm32f30x_adc.c ****   {
1949:/home/user/Desktop/STM32-Projekte/FH-Vertibot/src/STM32F30x_StdPeriph_Driver/src/stm32f30x_adc.c ****     /* JADSTART bit is set */
1950:/home/user/Desktop/STM32-Projekte/FH-Vertibot/src/STM32F30x_StdPeriph_Driver/src/stm32f30x_adc.c ****     bitstatus = SET;
1951:/home/user/Desktop/STM32-Projekte/FH-Vertibot/src/STM32F30x_StdPeriph_Driver/src/stm32f30x_adc.c ****   }
1952:/home/user/Desktop/STM32-Projekte/FH-Vertibot/src/STM32F30x_StdPeriph_Driver/src/stm32f30x_adc.c ****   else
1953:/home/user/Desktop/STM32-Projekte/FH-Vertibot/src/STM32F30x_StdPeriph_Driver/src/stm32f30x_adc.c ****   {
1954:/home/user/Desktop/STM32-Projekte/FH-Vertibot/src/STM32F30x_StdPeriph_Driver/src/stm32f30x_adc.c ****     /* JADSTART bit is reset */
1955:/home/user/Desktop/STM32-Projekte/FH-Vertibot/src/STM32F30x_StdPeriph_Driver/src/stm32f30x_adc.c ****     bitstatus = RESET;
1956:/home/user/Desktop/STM32-Projekte/FH-Vertibot/src/STM32F30x_StdPeriph_Driver/src/stm32f30x_adc.c ****   }
1957:/home/user/Desktop/STM32-Projekte/FH-Vertibot/src/STM32F30x_StdPeriph_Driver/src/stm32f30x_adc.c ****   /* Return the JADSTART bit status */
1958:/home/user/Desktop/STM32-Projekte/FH-Vertibot/src/STM32F30x_StdPeriph_Driver/src/stm32f30x_adc.c ****   return  bitstatus;
1959:/home/user/Desktop/STM32-Projekte/FH-Vertibot/src/STM32F30x_StdPeriph_Driver/src/stm32f30x_adc.c **** }
 1962              		.loc 1 1959 0
 1963 05de C0F3C000 		ubfx	r0, r0, #3, #1
 1964              	.LVL172:
 1965 05e2 7047     		bx	lr
 1966              		.cfi_endproc
 1967              	.LFE163:
 1969              		.align	1
 1970              		.global	ADC_AutoInjectedConvCmd
 1971              		.thumb
 1972              		.thumb_func
 1974              	ADC_AutoInjectedConvCmd:
 1975              	.LFB164:
1960:/home/user/Desktop/STM32-Projekte/FH-Vertibot/src/STM32F30x_StdPeriph_Driver/src/stm32f30x_adc.c **** 
1961:/home/user/Desktop/STM32-Projekte/FH-Vertibot/src/STM32F30x_StdPeriph_Driver/src/stm32f30x_adc.c **** /**
1962:/home/user/Desktop/STM32-Projekte/FH-Vertibot/src/STM32F30x_StdPeriph_Driver/src/stm32f30x_adc.c ****   * @brief  Enables or disables the selected ADC automatic injected group
1963:/home/user/Desktop/STM32-Projekte/FH-Vertibot/src/STM32F30x_StdPeriph_Driver/src/stm32f30x_adc.c ****   *         conversion after regular one.
1964:/home/user/Desktop/STM32-Projekte/FH-Vertibot/src/STM32F30x_StdPeriph_Driver/src/stm32f30x_adc.c ****   * @param  ADCx: where x can be 1, 2, 3 or 4 to select the ADC peripheral.
1965:/home/user/Desktop/STM32-Projekte/FH-Vertibot/src/STM32F30x_StdPeriph_Driver/src/stm32f30x_adc.c ****   * @param  NewState: new state of the selected ADC auto injected conversion
1966:/home/user/Desktop/STM32-Projekte/FH-Vertibot/src/STM32F30x_StdPeriph_Driver/src/stm32f30x_adc.c ****   *   This parameter can be: ENABLE or DISABLE.
1967:/home/user/Desktop/STM32-Projekte/FH-Vertibot/src/STM32F30x_StdPeriph_Driver/src/stm32f30x_adc.c ****   * @retval None
1968:/home/user/Desktop/STM32-Projekte/FH-Vertibot/src/STM32F30x_StdPeriph_Driver/src/stm32f30x_adc.c ****   */
1969:/home/user/Desktop/STM32-Projekte/FH-Vertibot/src/STM32F30x_StdPeriph_Driver/src/stm32f30x_adc.c **** void ADC_AutoInjectedConvCmd(ADC_TypeDef* ADCx, FunctionalState NewState)
1970:/home/user/Desktop/STM32-Projekte/FH-Vertibot/src/STM32F30x_StdPeriph_Driver/src/stm32f30x_adc.c **** {
 1976              		.loc 1 1970 0
 1977              		.cfi_startproc
 1978              		@ args = 0, pretend = 0, frame = 0
 1979              		@ frame_needed = 0, uses_anonymous_args = 0
 1980              		@ link register save eliminated.
 1981              	.LVL173:
1971:/home/user/Desktop/STM32-Projekte/FH-Vertibot/src/STM32F30x_StdPeriph_Driver/src/stm32f30x_adc.c ****   /* Check the parameters */
1972:/home/user/Desktop/STM32-Projekte/FH-Vertibot/src/STM32F30x_StdPeriph_Driver/src/stm32f30x_adc.c ****   assert_param(IS_ADC_ALL_PERIPH(ADCx));
1973:/home/user/Desktop/STM32-Projekte/FH-Vertibot/src/STM32F30x_StdPeriph_Driver/src/stm32f30x_adc.c ****   assert_param(IS_FUNCTIONAL_STATE(NewState));
1974:/home/user/Desktop/STM32-Projekte/FH-Vertibot/src/STM32F30x_StdPeriph_Driver/src/stm32f30x_adc.c ****   if (NewState != DISABLE)
1975:/home/user/Desktop/STM32-Projekte/FH-Vertibot/src/STM32F30x_StdPeriph_Driver/src/stm32f30x_adc.c ****   {
1976:/home/user/Desktop/STM32-Projekte/FH-Vertibot/src/STM32F30x_StdPeriph_Driver/src/stm32f30x_adc.c ****     /* Enable the selected ADC automatic injected group conversion */
1977:/home/user/Desktop/STM32-Projekte/FH-Vertibot/src/STM32F30x_StdPeriph_Driver/src/stm32f30x_adc.c ****     ADCx->CFGR |= ADC_CFGR_JAUTO;
 1982              		.loc 1 1977 0
 1983 05e4 C368     		ldr	r3, [r0, #12]
1974:/home/user/Desktop/STM32-Projekte/FH-Vertibot/src/STM32F30x_StdPeriph_Driver/src/stm32f30x_adc.c ****   if (NewState != DISABLE)
 1984              		.loc 1 1974 0
 1985 05e6 11B1     		cbz	r1, .L180
 1986              		.loc 1 1977 0
 1987 05e8 43F00073 		orr	r3, r3, #33554432
 1988 05ec 01E0     		b	.L182
 1989              	.L180:
1978:/home/user/Desktop/STM32-Projekte/FH-Vertibot/src/STM32F30x_StdPeriph_Driver/src/stm32f30x_adc.c ****   }
1979:/home/user/Desktop/STM32-Projekte/FH-Vertibot/src/STM32F30x_StdPeriph_Driver/src/stm32f30x_adc.c ****   else
1980:/home/user/Desktop/STM32-Projekte/FH-Vertibot/src/STM32F30x_StdPeriph_Driver/src/stm32f30x_adc.c ****   {
1981:/home/user/Desktop/STM32-Projekte/FH-Vertibot/src/STM32F30x_StdPeriph_Driver/src/stm32f30x_adc.c ****     /* Disable the selected ADC automatic injected group conversion */
1982:/home/user/Desktop/STM32-Projekte/FH-Vertibot/src/STM32F30x_StdPeriph_Driver/src/stm32f30x_adc.c ****     ADCx->CFGR &= ~ADC_CFGR_JAUTO;
 1990              		.loc 1 1982 0
 1991 05ee 23F00073 		bic	r3, r3, #33554432
 1992              	.L182:
 1993 05f2 C360     		str	r3, [r0, #12]
 1994 05f4 7047     		bx	lr
 1995              		.cfi_endproc
 1996              	.LFE164:
 1998              		.align	1
 1999              		.global	ADC_InjectedDiscModeCmd
 2000              		.thumb
 2001              		.thumb_func
 2003              	ADC_InjectedDiscModeCmd:
 2004              	.LFB165:
1983:/home/user/Desktop/STM32-Projekte/FH-Vertibot/src/STM32F30x_StdPeriph_Driver/src/stm32f30x_adc.c ****   }
1984:/home/user/Desktop/STM32-Projekte/FH-Vertibot/src/STM32F30x_StdPeriph_Driver/src/stm32f30x_adc.c **** }
1985:/home/user/Desktop/STM32-Projekte/FH-Vertibot/src/STM32F30x_StdPeriph_Driver/src/stm32f30x_adc.c **** 
1986:/home/user/Desktop/STM32-Projekte/FH-Vertibot/src/STM32F30x_StdPeriph_Driver/src/stm32f30x_adc.c **** /**
1987:/home/user/Desktop/STM32-Projekte/FH-Vertibot/src/STM32F30x_StdPeriph_Driver/src/stm32f30x_adc.c ****   * @brief  Enables or disables the discontinuous mode for injected group
1988:/home/user/Desktop/STM32-Projekte/FH-Vertibot/src/STM32F30x_StdPeriph_Driver/src/stm32f30x_adc.c ****   *         channel for the specified ADC
1989:/home/user/Desktop/STM32-Projekte/FH-Vertibot/src/STM32F30x_StdPeriph_Driver/src/stm32f30x_adc.c ****   * @param  ADCx: where x can be 1, 2, 3 or 4 to select the ADC peripheral.
1990:/home/user/Desktop/STM32-Projekte/FH-Vertibot/src/STM32F30x_StdPeriph_Driver/src/stm32f30x_adc.c ****   * @param  NewState: new state of the selected ADC discontinuous mode
1991:/home/user/Desktop/STM32-Projekte/FH-Vertibot/src/STM32F30x_StdPeriph_Driver/src/stm32f30x_adc.c ****   *         on injected group channel.
1992:/home/user/Desktop/STM32-Projekte/FH-Vertibot/src/STM32F30x_StdPeriph_Driver/src/stm32f30x_adc.c ****   *   This parameter can be: ENABLE or DISABLE.
1993:/home/user/Desktop/STM32-Projekte/FH-Vertibot/src/STM32F30x_StdPeriph_Driver/src/stm32f30x_adc.c ****   * @retval None
1994:/home/user/Desktop/STM32-Projekte/FH-Vertibot/src/STM32F30x_StdPeriph_Driver/src/stm32f30x_adc.c ****   */
1995:/home/user/Desktop/STM32-Projekte/FH-Vertibot/src/STM32F30x_StdPeriph_Driver/src/stm32f30x_adc.c **** void ADC_InjectedDiscModeCmd(ADC_TypeDef* ADCx, FunctionalState NewState)
1996:/home/user/Desktop/STM32-Projekte/FH-Vertibot/src/STM32F30x_StdPeriph_Driver/src/stm32f30x_adc.c **** {
 2005              		.loc 1 1996 0
 2006              		.cfi_startproc
 2007              		@ args = 0, pretend = 0, frame = 0
 2008              		@ frame_needed = 0, uses_anonymous_args = 0
 2009              		@ link register save eliminated.
 2010              	.LVL174:
1997:/home/user/Desktop/STM32-Projekte/FH-Vertibot/src/STM32F30x_StdPeriph_Driver/src/stm32f30x_adc.c ****   /* Check the parameters */
1998:/home/user/Desktop/STM32-Projekte/FH-Vertibot/src/STM32F30x_StdPeriph_Driver/src/stm32f30x_adc.c ****   assert_param(IS_ADC_ALL_PERIPH(ADCx));
1999:/home/user/Desktop/STM32-Projekte/FH-Vertibot/src/STM32F30x_StdPeriph_Driver/src/stm32f30x_adc.c ****   assert_param(IS_FUNCTIONAL_STATE(NewState));
2000:/home/user/Desktop/STM32-Projekte/FH-Vertibot/src/STM32F30x_StdPeriph_Driver/src/stm32f30x_adc.c ****   if (NewState != DISABLE)
2001:/home/user/Desktop/STM32-Projekte/FH-Vertibot/src/STM32F30x_StdPeriph_Driver/src/stm32f30x_adc.c ****   {
2002:/home/user/Desktop/STM32-Projekte/FH-Vertibot/src/STM32F30x_StdPeriph_Driver/src/stm32f30x_adc.c ****     /* Enable the selected ADC injected discontinuous mode */
2003:/home/user/Desktop/STM32-Projekte/FH-Vertibot/src/STM32F30x_StdPeriph_Driver/src/stm32f30x_adc.c ****     ADCx->CFGR |= ADC_CFGR_JDISCEN;
 2011              		.loc 1 2003 0
 2012 05f6 C368     		ldr	r3, [r0, #12]
2000:/home/user/Desktop/STM32-Projekte/FH-Vertibot/src/STM32F30x_StdPeriph_Driver/src/stm32f30x_adc.c ****   if (NewState != DISABLE)
 2013              		.loc 1 2000 0
 2014 05f8 11B1     		cbz	r1, .L184
 2015              		.loc 1 2003 0
 2016 05fa 43F48013 		orr	r3, r3, #1048576
 2017 05fe 01E0     		b	.L186
 2018              	.L184:
2004:/home/user/Desktop/STM32-Projekte/FH-Vertibot/src/STM32F30x_StdPeriph_Driver/src/stm32f30x_adc.c ****   }
2005:/home/user/Desktop/STM32-Projekte/FH-Vertibot/src/STM32F30x_StdPeriph_Driver/src/stm32f30x_adc.c ****   else
2006:/home/user/Desktop/STM32-Projekte/FH-Vertibot/src/STM32F30x_StdPeriph_Driver/src/stm32f30x_adc.c ****   {
2007:/home/user/Desktop/STM32-Projekte/FH-Vertibot/src/STM32F30x_StdPeriph_Driver/src/stm32f30x_adc.c ****     /* Disable the selected ADC injected discontinuous mode */
2008:/home/user/Desktop/STM32-Projekte/FH-Vertibot/src/STM32F30x_StdPeriph_Driver/src/stm32f30x_adc.c ****     ADCx->CFGR &= ~ADC_CFGR_JDISCEN;
 2019              		.loc 1 2008 0
 2020 0600 23F48013 		bic	r3, r3, #1048576
 2021              	.L186:
 2022 0604 C360     		str	r3, [r0, #12]
 2023 0606 7047     		bx	lr
 2024              		.cfi_endproc
 2025              	.LFE165:
 2027              		.align	1
 2028              		.global	ADC_GetInjectedConversionValue
 2029              		.thumb
 2030              		.thumb_func
 2032              	ADC_GetInjectedConversionValue:
 2033              	.LFB166:
2009:/home/user/Desktop/STM32-Projekte/FH-Vertibot/src/STM32F30x_StdPeriph_Driver/src/stm32f30x_adc.c ****   }
2010:/home/user/Desktop/STM32-Projekte/FH-Vertibot/src/STM32F30x_StdPeriph_Driver/src/stm32f30x_adc.c **** }
2011:/home/user/Desktop/STM32-Projekte/FH-Vertibot/src/STM32F30x_StdPeriph_Driver/src/stm32f30x_adc.c **** 
2012:/home/user/Desktop/STM32-Projekte/FH-Vertibot/src/STM32F30x_StdPeriph_Driver/src/stm32f30x_adc.c **** /**
2013:/home/user/Desktop/STM32-Projekte/FH-Vertibot/src/STM32F30x_StdPeriph_Driver/src/stm32f30x_adc.c ****   * @brief  Returns the ADC injected channel conversion result
2014:/home/user/Desktop/STM32-Projekte/FH-Vertibot/src/STM32F30x_StdPeriph_Driver/src/stm32f30x_adc.c ****   * @param  ADCx: where x can be 1, 2, 3 or 4 to select the ADC peripheral.
2015:/home/user/Desktop/STM32-Projekte/FH-Vertibot/src/STM32F30x_StdPeriph_Driver/src/stm32f30x_adc.c ****   * @param  ADC_InjectedSequence: the converted ADC injected sequence.
2016:/home/user/Desktop/STM32-Projekte/FH-Vertibot/src/STM32F30x_StdPeriph_Driver/src/stm32f30x_adc.c ****   *   This parameter can be one of the following values:
2017:/home/user/Desktop/STM32-Projekte/FH-Vertibot/src/STM32F30x_StdPeriph_Driver/src/stm32f30x_adc.c ****   *     @arg ADC_InjectedSequence_1: Injected Sequence1 selected
2018:/home/user/Desktop/STM32-Projekte/FH-Vertibot/src/STM32F30x_StdPeriph_Driver/src/stm32f30x_adc.c ****   *     @arg ADC_InjectedSequence_2: Injected Sequence2 selected
2019:/home/user/Desktop/STM32-Projekte/FH-Vertibot/src/STM32F30x_StdPeriph_Driver/src/stm32f30x_adc.c ****   *     @arg ADC_InjectedSequence_3: Injected Sequence3 selected
2020:/home/user/Desktop/STM32-Projekte/FH-Vertibot/src/STM32F30x_StdPeriph_Driver/src/stm32f30x_adc.c ****   *     @arg ADC_InjectedSequence_4: Injected Sequence4 selected
2021:/home/user/Desktop/STM32-Projekte/FH-Vertibot/src/STM32F30x_StdPeriph_Driver/src/stm32f30x_adc.c ****   * @retval The Data conversion value.
2022:/home/user/Desktop/STM32-Projekte/FH-Vertibot/src/STM32F30x_StdPeriph_Driver/src/stm32f30x_adc.c ****   */
2023:/home/user/Desktop/STM32-Projekte/FH-Vertibot/src/STM32F30x_StdPeriph_Driver/src/stm32f30x_adc.c **** uint16_t ADC_GetInjectedConversionValue(ADC_TypeDef* ADCx, uint8_t ADC_InjectedSequence)
2024:/home/user/Desktop/STM32-Projekte/FH-Vertibot/src/STM32F30x_StdPeriph_Driver/src/stm32f30x_adc.c **** {
 2034              		.loc 1 2024 0
 2035              		.cfi_startproc
 2036              		@ args = 0, pretend = 0, frame = 8
 2037              		@ frame_needed = 0, uses_anonymous_args = 0
 2038              		@ link register save eliminated.
 2039              	.LVL175:
 2040 0608 82B0     		sub	sp, sp, #8
 2041              	.LCFI5:
 2042              		.cfi_def_cfa_offset 8
2025:/home/user/Desktop/STM32-Projekte/FH-Vertibot/src/STM32F30x_StdPeriph_Driver/src/stm32f30x_adc.c ****   __IO uint32_t tmp = 0;
 2043              		.loc 1 2025 0
 2044 060a 0023     		movs	r3, #0
 2045 060c 0193     		str	r3, [sp, #4]
2026:/home/user/Desktop/STM32-Projekte/FH-Vertibot/src/STM32F30x_StdPeriph_Driver/src/stm32f30x_adc.c ****   
2027:/home/user/Desktop/STM32-Projekte/FH-Vertibot/src/STM32F30x_StdPeriph_Driver/src/stm32f30x_adc.c ****   /* Check the parameters */
2028:/home/user/Desktop/STM32-Projekte/FH-Vertibot/src/STM32F30x_StdPeriph_Driver/src/stm32f30x_adc.c ****   assert_param(IS_ADC_ALL_PERIPH(ADCx));
2029:/home/user/Desktop/STM32-Projekte/FH-Vertibot/src/STM32F30x_StdPeriph_Driver/src/stm32f30x_adc.c ****   assert_param(IS_ADC_INJECTED_SEQUENCE(ADC_InjectedSequence));
2030:/home/user/Desktop/STM32-Projekte/FH-Vertibot/src/STM32F30x_StdPeriph_Driver/src/stm32f30x_adc.c **** 
2031:/home/user/Desktop/STM32-Projekte/FH-Vertibot/src/STM32F30x_StdPeriph_Driver/src/stm32f30x_adc.c ****   tmp = (uint32_t)ADCx;
 2046              		.loc 1 2031 0
 2047 060e 0190     		str	r0, [sp, #4]
2032:/home/user/Desktop/STM32-Projekte/FH-Vertibot/src/STM32F30x_StdPeriph_Driver/src/stm32f30x_adc.c ****   tmp += ((ADC_InjectedSequence - 1 )<< 2) + JDR_Offset;
 2048              		.loc 1 2032 0
 2049 0610 019B     		ldr	r3, [sp, #4]
 2050 0612 03EB8101 		add	r1, r3, r1, lsl #2
 2051              	.LVL176:
 2052 0616 01F17C03 		add	r3, r1, #124
 2053 061a 0193     		str	r3, [sp, #4]
2033:/home/user/Desktop/STM32-Projekte/FH-Vertibot/src/STM32F30x_StdPeriph_Driver/src/stm32f30x_adc.c ****   
2034:/home/user/Desktop/STM32-Projekte/FH-Vertibot/src/STM32F30x_StdPeriph_Driver/src/stm32f30x_adc.c ****   /* Returns the selected injected channel conversion data value */
2035:/home/user/Desktop/STM32-Projekte/FH-Vertibot/src/STM32F30x_StdPeriph_Driver/src/stm32f30x_adc.c ****   return (uint16_t) (*(__IO uint32_t*)  tmp);   
 2054              		.loc 1 2035 0
 2055 061c 019B     		ldr	r3, [sp, #4]
 2056 061e 1868     		ldr	r0, [r3]
 2057              	.LVL177:
2036:/home/user/Desktop/STM32-Projekte/FH-Vertibot/src/STM32F30x_StdPeriph_Driver/src/stm32f30x_adc.c **** }
 2058              		.loc 1 2036 0
 2059 0620 80B2     		uxth	r0, r0
 2060 0622 02B0     		add	sp, sp, #8
 2061              		@ sp needed
 2062 0624 7047     		bx	lr
 2063              		.cfi_endproc
 2064              	.LFE166:
 2066              		.align	1
 2067              		.global	ADC_ITConfig
 2068              		.thumb
 2069              		.thumb_func
 2071              	ADC_ITConfig:
 2072              	.LFB167:
2037:/home/user/Desktop/STM32-Projekte/FH-Vertibot/src/STM32F30x_StdPeriph_Driver/src/stm32f30x_adc.c **** 
2038:/home/user/Desktop/STM32-Projekte/FH-Vertibot/src/STM32F30x_StdPeriph_Driver/src/stm32f30x_adc.c **** /**
2039:/home/user/Desktop/STM32-Projekte/FH-Vertibot/src/STM32F30x_StdPeriph_Driver/src/stm32f30x_adc.c ****   * @}
2040:/home/user/Desktop/STM32-Projekte/FH-Vertibot/src/STM32F30x_StdPeriph_Driver/src/stm32f30x_adc.c ****   */
2041:/home/user/Desktop/STM32-Projekte/FH-Vertibot/src/STM32F30x_StdPeriph_Driver/src/stm32f30x_adc.c **** 
2042:/home/user/Desktop/STM32-Projekte/FH-Vertibot/src/STM32F30x_StdPeriph_Driver/src/stm32f30x_adc.c **** /** @defgroup ADC_Group7 Interrupts and flags management functions
2043:/home/user/Desktop/STM32-Projekte/FH-Vertibot/src/STM32F30x_StdPeriph_Driver/src/stm32f30x_adc.c ****  *  @brief   Interrupts and flags management functions
2044:/home/user/Desktop/STM32-Projekte/FH-Vertibot/src/STM32F30x_StdPeriph_Driver/src/stm32f30x_adc.c ****  *
2045:/home/user/Desktop/STM32-Projekte/FH-Vertibot/src/STM32F30x_StdPeriph_Driver/src/stm32f30x_adc.c **** @verbatim   
2046:/home/user/Desktop/STM32-Projekte/FH-Vertibot/src/STM32F30x_StdPeriph_Driver/src/stm32f30x_adc.c ****  ===============================================================================
2047:/home/user/Desktop/STM32-Projekte/FH-Vertibot/src/STM32F30x_StdPeriph_Driver/src/stm32f30x_adc.c ****                    ##### Interrupts and flags management functions #####
2048:/home/user/Desktop/STM32-Projekte/FH-Vertibot/src/STM32F30x_StdPeriph_Driver/src/stm32f30x_adc.c ****  ===============================================================================  
2049:/home/user/Desktop/STM32-Projekte/FH-Vertibot/src/STM32F30x_StdPeriph_Driver/src/stm32f30x_adc.c **** 
2050:/home/user/Desktop/STM32-Projekte/FH-Vertibot/src/STM32F30x_StdPeriph_Driver/src/stm32f30x_adc.c ****   [..] This section provides functions allowing to configure the ADC Interrupts, get 
2051:/home/user/Desktop/STM32-Projekte/FH-Vertibot/src/STM32F30x_StdPeriph_Driver/src/stm32f30x_adc.c ****         the status and clear flags and Interrupts pending bits.
2052:/home/user/Desktop/STM32-Projekte/FH-Vertibot/src/STM32F30x_StdPeriph_Driver/src/stm32f30x_adc.c ****   
2053:/home/user/Desktop/STM32-Projekte/FH-Vertibot/src/STM32F30x_StdPeriph_Driver/src/stm32f30x_adc.c ****   [..] The ADC provide 11 Interrupts sources and 11 Flags which can be divided into 3 groups:
2054:/home/user/Desktop/STM32-Projekte/FH-Vertibot/src/STM32F30x_StdPeriph_Driver/src/stm32f30x_adc.c ****   
2055:/home/user/Desktop/STM32-Projekte/FH-Vertibot/src/STM32F30x_StdPeriph_Driver/src/stm32f30x_adc.c ****   (#) Flags and Interrupts for ADC regular channels
2056:/home/user/Desktop/STM32-Projekte/FH-Vertibot/src/STM32F30x_StdPeriph_Driver/src/stm32f30x_adc.c ****   (##)Flags
2057:/home/user/Desktop/STM32-Projekte/FH-Vertibot/src/STM32F30x_StdPeriph_Driver/src/stm32f30x_adc.c ****       (+) ADC_FLAG_RDY: ADC Ready flag
2058:/home/user/Desktop/STM32-Projekte/FH-Vertibot/src/STM32F30x_StdPeriph_Driver/src/stm32f30x_adc.c ****       (+) ADC_FLAG_EOSMP: ADC End of Sampling flag
2059:/home/user/Desktop/STM32-Projekte/FH-Vertibot/src/STM32F30x_StdPeriph_Driver/src/stm32f30x_adc.c ****       (+) ADC_FLAG_EOC: ADC End of Regular Conversion flag.
2060:/home/user/Desktop/STM32-Projekte/FH-Vertibot/src/STM32F30x_StdPeriph_Driver/src/stm32f30x_adc.c ****       (+) ADC_FLAG_EOS: ADC End of Regular sequence of Conversions flag
2061:/home/user/Desktop/STM32-Projekte/FH-Vertibot/src/STM32F30x_StdPeriph_Driver/src/stm32f30x_adc.c ****       (+) ADC_FLAG_OVR: ADC overrun flag
2062:/home/user/Desktop/STM32-Projekte/FH-Vertibot/src/STM32F30x_StdPeriph_Driver/src/stm32f30x_adc.c ****      
2063:/home/user/Desktop/STM32-Projekte/FH-Vertibot/src/STM32F30x_StdPeriph_Driver/src/stm32f30x_adc.c ****   (##) Interrupts
2064:/home/user/Desktop/STM32-Projekte/FH-Vertibot/src/STM32F30x_StdPeriph_Driver/src/stm32f30x_adc.c ****       (+) ADC_IT_RDY: ADC Ready interrupt source 
2065:/home/user/Desktop/STM32-Projekte/FH-Vertibot/src/STM32F30x_StdPeriph_Driver/src/stm32f30x_adc.c ****       (+) ADC_IT_EOSMP: ADC End of Sampling interrupt source
2066:/home/user/Desktop/STM32-Projekte/FH-Vertibot/src/STM32F30x_StdPeriph_Driver/src/stm32f30x_adc.c ****       (+) ADC_IT_EOC: ADC End of Regular Conversion interrupt source
2067:/home/user/Desktop/STM32-Projekte/FH-Vertibot/src/STM32F30x_StdPeriph_Driver/src/stm32f30x_adc.c ****       (+) ADC_IT_EOS: ADC End of Regular sequence of Conversions interrupt
2068:/home/user/Desktop/STM32-Projekte/FH-Vertibot/src/STM32F30x_StdPeriph_Driver/src/stm32f30x_adc.c ****       (+) ADC_IT_OVR: ADC overrun interrupt source
2069:/home/user/Desktop/STM32-Projekte/FH-Vertibot/src/STM32F30x_StdPeriph_Driver/src/stm32f30x_adc.c ****   
2070:/home/user/Desktop/STM32-Projekte/FH-Vertibot/src/STM32F30x_StdPeriph_Driver/src/stm32f30x_adc.c ****   
2071:/home/user/Desktop/STM32-Projekte/FH-Vertibot/src/STM32F30x_StdPeriph_Driver/src/stm32f30x_adc.c ****   (#) Flags and Interrupts for ADC regular channels
2072:/home/user/Desktop/STM32-Projekte/FH-Vertibot/src/STM32F30x_StdPeriph_Driver/src/stm32f30x_adc.c ****   (##)Flags
2073:/home/user/Desktop/STM32-Projekte/FH-Vertibot/src/STM32F30x_StdPeriph_Driver/src/stm32f30x_adc.c ****       (+) ADC_FLAG_JEOC: ADC Ready flag
2074:/home/user/Desktop/STM32-Projekte/FH-Vertibot/src/STM32F30x_StdPeriph_Driver/src/stm32f30x_adc.c ****       (+) ADC_FLAG_JEOS: ADC End of Sampling flag
2075:/home/user/Desktop/STM32-Projekte/FH-Vertibot/src/STM32F30x_StdPeriph_Driver/src/stm32f30x_adc.c ****       (+) ADC_FLAG_JQOVF: ADC End of Regular Conversion flag.
2076:/home/user/Desktop/STM32-Projekte/FH-Vertibot/src/STM32F30x_StdPeriph_Driver/src/stm32f30x_adc.c ****      
2077:/home/user/Desktop/STM32-Projekte/FH-Vertibot/src/STM32F30x_StdPeriph_Driver/src/stm32f30x_adc.c ****   (##) Interrupts
2078:/home/user/Desktop/STM32-Projekte/FH-Vertibot/src/STM32F30x_StdPeriph_Driver/src/stm32f30x_adc.c ****       (+) ADC_IT_JEOC: ADC End of Injected Conversion interrupt source 
2079:/home/user/Desktop/STM32-Projekte/FH-Vertibot/src/STM32F30x_StdPeriph_Driver/src/stm32f30x_adc.c ****       (+) ADC_IT_JEOS: ADC End of Injected sequence of Conversions interrupt source
2080:/home/user/Desktop/STM32-Projekte/FH-Vertibot/src/STM32F30x_StdPeriph_Driver/src/stm32f30x_adc.c ****       (+) ADC_IT_JQOVF: ADC Injected Context Queue Overflow interrupt source   
2081:/home/user/Desktop/STM32-Projekte/FH-Vertibot/src/STM32F30x_StdPeriph_Driver/src/stm32f30x_adc.c **** 
2082:/home/user/Desktop/STM32-Projekte/FH-Vertibot/src/STM32F30x_StdPeriph_Driver/src/stm32f30x_adc.c ****   (#) General Flags and Interrupts for the ADC
2083:/home/user/Desktop/STM32-Projekte/FH-Vertibot/src/STM32F30x_StdPeriph_Driver/src/stm32f30x_adc.c ****   (##)Flags 
2084:/home/user/Desktop/STM32-Projekte/FH-Vertibot/src/STM32F30x_StdPeriph_Driver/src/stm32f30x_adc.c ****      (+)  ADC_FLAG_AWD1: ADC Analog watchdog 1 flag
2085:/home/user/Desktop/STM32-Projekte/FH-Vertibot/src/STM32F30x_StdPeriph_Driver/src/stm32f30x_adc.c ****      (+) ADC_FLAG_AWD2: ADC Analog watchdog 2 flag
2086:/home/user/Desktop/STM32-Projekte/FH-Vertibot/src/STM32F30x_StdPeriph_Driver/src/stm32f30x_adc.c ****      (+) ADC_FLAG_AWD3: ADC Analog watchdog 3 flag
2087:/home/user/Desktop/STM32-Projekte/FH-Vertibot/src/STM32F30x_StdPeriph_Driver/src/stm32f30x_adc.c ****     
2088:/home/user/Desktop/STM32-Projekte/FH-Vertibot/src/STM32F30x_StdPeriph_Driver/src/stm32f30x_adc.c ****   (##)Flags 
2089:/home/user/Desktop/STM32-Projekte/FH-Vertibot/src/STM32F30x_StdPeriph_Driver/src/stm32f30x_adc.c ****      (+)  ADC_IT_AWD1: ADC Analog watchdog 1 interrupt source
2090:/home/user/Desktop/STM32-Projekte/FH-Vertibot/src/STM32F30x_StdPeriph_Driver/src/stm32f30x_adc.c ****      (+) ADC_IT_AWD2: ADC Analog watchdog 2 interrupt source
2091:/home/user/Desktop/STM32-Projekte/FH-Vertibot/src/STM32F30x_StdPeriph_Driver/src/stm32f30x_adc.c ****      (+) ADC_IT_AWD3: ADC Analog watchdog 3 interrupt source
2092:/home/user/Desktop/STM32-Projekte/FH-Vertibot/src/STM32F30x_StdPeriph_Driver/src/stm32f30x_adc.c ****      
2093:/home/user/Desktop/STM32-Projekte/FH-Vertibot/src/STM32F30x_StdPeriph_Driver/src/stm32f30x_adc.c ****   (#) Flags  for ADC dual mode
2094:/home/user/Desktop/STM32-Projekte/FH-Vertibot/src/STM32F30x_StdPeriph_Driver/src/stm32f30x_adc.c ****   (##)Flags for Master
2095:/home/user/Desktop/STM32-Projekte/FH-Vertibot/src/STM32F30x_StdPeriph_Driver/src/stm32f30x_adc.c ****      (+) ADC_FLAG_MSTRDY: ADC master Ready (ADRDY) flag 
2096:/home/user/Desktop/STM32-Projekte/FH-Vertibot/src/STM32F30x_StdPeriph_Driver/src/stm32f30x_adc.c ****      (+) ADC_FLAG_MSTEOSMP: ADC master End of Sampling flag 
2097:/home/user/Desktop/STM32-Projekte/FH-Vertibot/src/STM32F30x_StdPeriph_Driver/src/stm32f30x_adc.c ****      (+) ADC_FLAG_MSTEOC: ADC master End of Regular Conversion flag 
2098:/home/user/Desktop/STM32-Projekte/FH-Vertibot/src/STM32F30x_StdPeriph_Driver/src/stm32f30x_adc.c ****      (+) ADC_FLAG_MSTEOS: ADC master End of Regular sequence of Conversions flag 
2099:/home/user/Desktop/STM32-Projekte/FH-Vertibot/src/STM32F30x_StdPeriph_Driver/src/stm32f30x_adc.c ****      (+) ADC_FLAG_MSTOVR: ADC master overrun flag 
2100:/home/user/Desktop/STM32-Projekte/FH-Vertibot/src/STM32F30x_StdPeriph_Driver/src/stm32f30x_adc.c ****      (+) ADC_FLAG_MSTJEOC: ADC master End of Injected Conversion flag 
2101:/home/user/Desktop/STM32-Projekte/FH-Vertibot/src/STM32F30x_StdPeriph_Driver/src/stm32f30x_adc.c ****      (+) ADC_FLAG_MSTJEOS: ADC master End of Injected sequence of Conversions flag 
2102:/home/user/Desktop/STM32-Projekte/FH-Vertibot/src/STM32F30x_StdPeriph_Driver/src/stm32f30x_adc.c ****      (+) ADC_FLAG_MSTAWD1: ADC master Analog watchdog 1 flag 
2103:/home/user/Desktop/STM32-Projekte/FH-Vertibot/src/STM32F30x_StdPeriph_Driver/src/stm32f30x_adc.c ****      (+) ADC_FLAG_MSTAWD2: ADC master Analog watchdog 2 flag 
2104:/home/user/Desktop/STM32-Projekte/FH-Vertibot/src/STM32F30x_StdPeriph_Driver/src/stm32f30x_adc.c ****      (+) ADC_FLAG_MSTAWD3: ADC master Analog watchdog 3 flag 
2105:/home/user/Desktop/STM32-Projekte/FH-Vertibot/src/STM32F30x_StdPeriph_Driver/src/stm32f30x_adc.c ****      (+) ADC_FLAG_MSTJQOVF: ADC master Injected Context Queue Overflow flag       
2106:/home/user/Desktop/STM32-Projekte/FH-Vertibot/src/STM32F30x_StdPeriph_Driver/src/stm32f30x_adc.c ****      
2107:/home/user/Desktop/STM32-Projekte/FH-Vertibot/src/STM32F30x_StdPeriph_Driver/src/stm32f30x_adc.c ****   (##) Flags for Slave
2108:/home/user/Desktop/STM32-Projekte/FH-Vertibot/src/STM32F30x_StdPeriph_Driver/src/stm32f30x_adc.c ****      (+) ADC_FLAG_SLVRDY: ADC slave Ready (ADRDY) flag 
2109:/home/user/Desktop/STM32-Projekte/FH-Vertibot/src/STM32F30x_StdPeriph_Driver/src/stm32f30x_adc.c ****      (+) ADC_FLAG_SLVEOSMP: ADC slave End of Sampling flag 
2110:/home/user/Desktop/STM32-Projekte/FH-Vertibot/src/STM32F30x_StdPeriph_Driver/src/stm32f30x_adc.c ****      (+) ADC_FLAG_SLVEOC: ADC slave End of Regular Conversion flag 
2111:/home/user/Desktop/STM32-Projekte/FH-Vertibot/src/STM32F30x_StdPeriph_Driver/src/stm32f30x_adc.c ****      (+) ADC_FLAG_SLVEOS: ADC slave End of Regular sequence of Conversions flag 
2112:/home/user/Desktop/STM32-Projekte/FH-Vertibot/src/STM32F30x_StdPeriph_Driver/src/stm32f30x_adc.c ****      (+) ADC_FLAG_SLVOVR: ADC slave overrun flag 
2113:/home/user/Desktop/STM32-Projekte/FH-Vertibot/src/STM32F30x_StdPeriph_Driver/src/stm32f30x_adc.c ****      (+) ADC_FLAG_SLVJEOC: ADC slave End of Injected Conversion flag 
2114:/home/user/Desktop/STM32-Projekte/FH-Vertibot/src/STM32F30x_StdPeriph_Driver/src/stm32f30x_adc.c ****      (+) ADC_FLAG_SLVJEOS: ADC slave End of Injected sequence of Conversions flag 
2115:/home/user/Desktop/STM32-Projekte/FH-Vertibot/src/STM32F30x_StdPeriph_Driver/src/stm32f30x_adc.c ****      (+) ADC_FLAG_SLVAWD1: ADC slave Analog watchdog 1 flag 
2116:/home/user/Desktop/STM32-Projekte/FH-Vertibot/src/STM32F30x_StdPeriph_Driver/src/stm32f30x_adc.c ****      (+) ADC_FLAG_SLVAWD2: ADC slave Analog watchdog 2 flag 
2117:/home/user/Desktop/STM32-Projekte/FH-Vertibot/src/STM32F30x_StdPeriph_Driver/src/stm32f30x_adc.c ****      (+) ADC_FLAG_SLVAWD3: ADC slave Analog watchdog 3 flag 
2118:/home/user/Desktop/STM32-Projekte/FH-Vertibot/src/STM32F30x_StdPeriph_Driver/src/stm32f30x_adc.c ****      (+) ADC_FLAG_SLVJQOVF: ADC slave Injected Context Queue Overflow flag 
2119:/home/user/Desktop/STM32-Projekte/FH-Vertibot/src/STM32F30x_StdPeriph_Driver/src/stm32f30x_adc.c ****      
2120:/home/user/Desktop/STM32-Projekte/FH-Vertibot/src/STM32F30x_StdPeriph_Driver/src/stm32f30x_adc.c ****   The user should identify which mode will be used in his application to manage   
2121:/home/user/Desktop/STM32-Projekte/FH-Vertibot/src/STM32F30x_StdPeriph_Driver/src/stm32f30x_adc.c ****   the ADC controller events: Polling mode or Interrupt mode.
2122:/home/user/Desktop/STM32-Projekte/FH-Vertibot/src/STM32F30x_StdPeriph_Driver/src/stm32f30x_adc.c ****   
2123:/home/user/Desktop/STM32-Projekte/FH-Vertibot/src/STM32F30x_StdPeriph_Driver/src/stm32f30x_adc.c ****   In the Polling Mode it is advised to use the following functions:
2124:/home/user/Desktop/STM32-Projekte/FH-Vertibot/src/STM32F30x_StdPeriph_Driver/src/stm32f30x_adc.c ****       - ADC_GetFlagStatus() : to check if flags events occur. 
2125:/home/user/Desktop/STM32-Projekte/FH-Vertibot/src/STM32F30x_StdPeriph_Driver/src/stm32f30x_adc.c ****       - ADC_ClearFlag()     : to clear the flags events.
2126:/home/user/Desktop/STM32-Projekte/FH-Vertibot/src/STM32F30x_StdPeriph_Driver/src/stm32f30x_adc.c ****       
2127:/home/user/Desktop/STM32-Projekte/FH-Vertibot/src/STM32F30x_StdPeriph_Driver/src/stm32f30x_adc.c ****   In the Interrupt Mode it is advised to use the following functions:
2128:/home/user/Desktop/STM32-Projekte/FH-Vertibot/src/STM32F30x_StdPeriph_Driver/src/stm32f30x_adc.c ****      - ADC_ITConfig()       : to enable or disable the interrupt source.
2129:/home/user/Desktop/STM32-Projekte/FH-Vertibot/src/STM32F30x_StdPeriph_Driver/src/stm32f30x_adc.c ****      - ADC_GetITStatus()    : to check if Interrupt occurs.
2130:/home/user/Desktop/STM32-Projekte/FH-Vertibot/src/STM32F30x_StdPeriph_Driver/src/stm32f30x_adc.c ****      - ADC_ClearITPendingBit() : to clear the Interrupt pending Bit 
2131:/home/user/Desktop/STM32-Projekte/FH-Vertibot/src/STM32F30x_StdPeriph_Driver/src/stm32f30x_adc.c ****                                 (corresponding Flag). 
2132:/home/user/Desktop/STM32-Projekte/FH-Vertibot/src/STM32F30x_StdPeriph_Driver/src/stm32f30x_adc.c **** @endverbatim
2133:/home/user/Desktop/STM32-Projekte/FH-Vertibot/src/STM32F30x_StdPeriph_Driver/src/stm32f30x_adc.c ****   * @{
2134:/home/user/Desktop/STM32-Projekte/FH-Vertibot/src/STM32F30x_StdPeriph_Driver/src/stm32f30x_adc.c ****   */ 
2135:/home/user/Desktop/STM32-Projekte/FH-Vertibot/src/STM32F30x_StdPeriph_Driver/src/stm32f30x_adc.c **** 
2136:/home/user/Desktop/STM32-Projekte/FH-Vertibot/src/STM32F30x_StdPeriph_Driver/src/stm32f30x_adc.c **** /**
2137:/home/user/Desktop/STM32-Projekte/FH-Vertibot/src/STM32F30x_StdPeriph_Driver/src/stm32f30x_adc.c ****   * @brief  Enables or disables the specified ADC interrupts.
2138:/home/user/Desktop/STM32-Projekte/FH-Vertibot/src/STM32F30x_StdPeriph_Driver/src/stm32f30x_adc.c ****   * @param  ADCx: where x can be 1, 2 or 3 to select the ADC peripheral.
2139:/home/user/Desktop/STM32-Projekte/FH-Vertibot/src/STM32F30x_StdPeriph_Driver/src/stm32f30x_adc.c ****   * @param  ADC_IT: specifies the ADC interrupt sources to be enabled or disabled. 
2140:/home/user/Desktop/STM32-Projekte/FH-Vertibot/src/STM32F30x_StdPeriph_Driver/src/stm32f30x_adc.c ****   *   This parameter can be any combination of the following values:
2141:/home/user/Desktop/STM32-Projekte/FH-Vertibot/src/STM32F30x_StdPeriph_Driver/src/stm32f30x_adc.c ****   *     @arg ADC_IT_RDY: ADC Ready (ADRDY) interrupt source 
2142:/home/user/Desktop/STM32-Projekte/FH-Vertibot/src/STM32F30x_StdPeriph_Driver/src/stm32f30x_adc.c ****   *     @arg ADC_IT_EOSMP: ADC End of Sampling interrupt source 
2143:/home/user/Desktop/STM32-Projekte/FH-Vertibot/src/STM32F30x_StdPeriph_Driver/src/stm32f30x_adc.c ****   *     @arg ADC_IT_EOC: ADC End of Regular Conversion interrupt source 
2144:/home/user/Desktop/STM32-Projekte/FH-Vertibot/src/STM32F30x_StdPeriph_Driver/src/stm32f30x_adc.c ****   *     @arg ADC_IT_EOS: ADC End of Regular sequence of Conversions interrupt source 
2145:/home/user/Desktop/STM32-Projekte/FH-Vertibot/src/STM32F30x_StdPeriph_Driver/src/stm32f30x_adc.c ****   *     @arg ADC_IT_OVR: ADC overrun interrupt source 
2146:/home/user/Desktop/STM32-Projekte/FH-Vertibot/src/STM32F30x_StdPeriph_Driver/src/stm32f30x_adc.c ****   *     @arg ADC_IT_JEOC: ADC End of Injected Conversion interrupt source 
2147:/home/user/Desktop/STM32-Projekte/FH-Vertibot/src/STM32F30x_StdPeriph_Driver/src/stm32f30x_adc.c ****   *     @arg ADC_IT_JEOS: ADC End of Injected sequence of Conversions interrupt source 
2148:/home/user/Desktop/STM32-Projekte/FH-Vertibot/src/STM32F30x_StdPeriph_Driver/src/stm32f30x_adc.c ****   *     @arg ADC_IT_AWD1: ADC Analog watchdog 1 interrupt source 
2149:/home/user/Desktop/STM32-Projekte/FH-Vertibot/src/STM32F30x_StdPeriph_Driver/src/stm32f30x_adc.c ****   *     @arg ADC_IT_AWD2: ADC Analog watchdog 2 interrupt source 
2150:/home/user/Desktop/STM32-Projekte/FH-Vertibot/src/STM32F30x_StdPeriph_Driver/src/stm32f30x_adc.c ****   *     @arg ADC_IT_AWD3: ADC Analog watchdog 3 interrupt source 
2151:/home/user/Desktop/STM32-Projekte/FH-Vertibot/src/STM32F30x_StdPeriph_Driver/src/stm32f30x_adc.c ****   *     @arg ADC_IT_JQOVF: ADC Injected Context Queue Overflow interrupt source 
2152:/home/user/Desktop/STM32-Projekte/FH-Vertibot/src/STM32F30x_StdPeriph_Driver/src/stm32f30x_adc.c ****   * @param  NewState: new state of the specified ADC interrupts.
2153:/home/user/Desktop/STM32-Projekte/FH-Vertibot/src/STM32F30x_StdPeriph_Driver/src/stm32f30x_adc.c ****   *   This parameter can be: ENABLE or DISABLE.
2154:/home/user/Desktop/STM32-Projekte/FH-Vertibot/src/STM32F30x_StdPeriph_Driver/src/stm32f30x_adc.c ****   * @retval None
2155:/home/user/Desktop/STM32-Projekte/FH-Vertibot/src/STM32F30x_StdPeriph_Driver/src/stm32f30x_adc.c ****   */
2156:/home/user/Desktop/STM32-Projekte/FH-Vertibot/src/STM32F30x_StdPeriph_Driver/src/stm32f30x_adc.c **** void ADC_ITConfig(ADC_TypeDef* ADCx, uint32_t ADC_IT, FunctionalState NewState)
2157:/home/user/Desktop/STM32-Projekte/FH-Vertibot/src/STM32F30x_StdPeriph_Driver/src/stm32f30x_adc.c **** {
 2073              		.loc 1 2157 0
 2074              		.cfi_startproc
 2075              		@ args = 0, pretend = 0, frame = 0
 2076              		@ frame_needed = 0, uses_anonymous_args = 0
 2077              		@ link register save eliminated.
 2078              	.LVL178:
2158:/home/user/Desktop/STM32-Projekte/FH-Vertibot/src/STM32F30x_StdPeriph_Driver/src/stm32f30x_adc.c ****   /* Check the parameters */
2159:/home/user/Desktop/STM32-Projekte/FH-Vertibot/src/STM32F30x_StdPeriph_Driver/src/stm32f30x_adc.c ****   assert_param(IS_ADC_ALL_PERIPH(ADCx));
2160:/home/user/Desktop/STM32-Projekte/FH-Vertibot/src/STM32F30x_StdPeriph_Driver/src/stm32f30x_adc.c ****   assert_param(IS_FUNCTIONAL_STATE(NewState));
2161:/home/user/Desktop/STM32-Projekte/FH-Vertibot/src/STM32F30x_StdPeriph_Driver/src/stm32f30x_adc.c ****   assert_param(IS_ADC_IT(ADC_IT));
2162:/home/user/Desktop/STM32-Projekte/FH-Vertibot/src/STM32F30x_StdPeriph_Driver/src/stm32f30x_adc.c **** 
2163:/home/user/Desktop/STM32-Projekte/FH-Vertibot/src/STM32F30x_StdPeriph_Driver/src/stm32f30x_adc.c ****   if (NewState != DISABLE)
2164:/home/user/Desktop/STM32-Projekte/FH-Vertibot/src/STM32F30x_StdPeriph_Driver/src/stm32f30x_adc.c ****   {
2165:/home/user/Desktop/STM32-Projekte/FH-Vertibot/src/STM32F30x_StdPeriph_Driver/src/stm32f30x_adc.c ****     /* Enable the selected ADC interrupts */
2166:/home/user/Desktop/STM32-Projekte/FH-Vertibot/src/STM32F30x_StdPeriph_Driver/src/stm32f30x_adc.c ****     ADCx->IER |= ADC_IT;
 2079              		.loc 1 2166 0
 2080 0626 4368     		ldr	r3, [r0, #4]
2163:/home/user/Desktop/STM32-Projekte/FH-Vertibot/src/STM32F30x_StdPeriph_Driver/src/stm32f30x_adc.c ****   if (NewState != DISABLE)
 2081              		.loc 1 2163 0
 2082 0628 0AB1     		cbz	r2, .L189
 2083              		.loc 1 2166 0
 2084 062a 1943     		orrs	r1, r1, r3
 2085              	.LVL179:
 2086 062c 01E0     		b	.L191
 2087              	.LVL180:
 2088              	.L189:
2167:/home/user/Desktop/STM32-Projekte/FH-Vertibot/src/STM32F30x_StdPeriph_Driver/src/stm32f30x_adc.c ****   }
2168:/home/user/Desktop/STM32-Projekte/FH-Vertibot/src/STM32F30x_StdPeriph_Driver/src/stm32f30x_adc.c ****   else
2169:/home/user/Desktop/STM32-Projekte/FH-Vertibot/src/STM32F30x_StdPeriph_Driver/src/stm32f30x_adc.c ****   {
2170:/home/user/Desktop/STM32-Projekte/FH-Vertibot/src/STM32F30x_StdPeriph_Driver/src/stm32f30x_adc.c ****     /* Disable the selected ADC interrupts */
2171:/home/user/Desktop/STM32-Projekte/FH-Vertibot/src/STM32F30x_StdPeriph_Driver/src/stm32f30x_adc.c ****     ADCx->IER &= (~(uint32_t)ADC_IT);
 2089              		.loc 1 2171 0
 2090 062e 23EA0101 		bic	r1, r3, r1
 2091              	.LVL181:
 2092              	.L191:
 2093 0632 4160     		str	r1, [r0, #4]
 2094 0634 7047     		bx	lr
 2095              		.cfi_endproc
 2096              	.LFE167:
 2098              		.align	1
 2099              		.global	ADC_GetFlagStatus
 2100              		.thumb
 2101              		.thumb_func
 2103              	ADC_GetFlagStatus:
 2104              	.LFB168:
2172:/home/user/Desktop/STM32-Projekte/FH-Vertibot/src/STM32F30x_StdPeriph_Driver/src/stm32f30x_adc.c ****   }
2173:/home/user/Desktop/STM32-Projekte/FH-Vertibot/src/STM32F30x_StdPeriph_Driver/src/stm32f30x_adc.c **** }
2174:/home/user/Desktop/STM32-Projekte/FH-Vertibot/src/STM32F30x_StdPeriph_Driver/src/stm32f30x_adc.c **** 
2175:/home/user/Desktop/STM32-Projekte/FH-Vertibot/src/STM32F30x_StdPeriph_Driver/src/stm32f30x_adc.c **** /**
2176:/home/user/Desktop/STM32-Projekte/FH-Vertibot/src/STM32F30x_StdPeriph_Driver/src/stm32f30x_adc.c ****   * @brief  Checks whether the specified ADC flag is set or not.
2177:/home/user/Desktop/STM32-Projekte/FH-Vertibot/src/STM32F30x_StdPeriph_Driver/src/stm32f30x_adc.c ****   * @param  ADCx: where x can be 1, 2, 3 or 4 to select the ADC peripheral.
2178:/home/user/Desktop/STM32-Projekte/FH-Vertibot/src/STM32F30x_StdPeriph_Driver/src/stm32f30x_adc.c ****   * @param  ADC_FLAG: specifies the flag to check. 
2179:/home/user/Desktop/STM32-Projekte/FH-Vertibot/src/STM32F30x_StdPeriph_Driver/src/stm32f30x_adc.c ****   *   This parameter can be one of the following values:
2180:/home/user/Desktop/STM32-Projekte/FH-Vertibot/src/STM32F30x_StdPeriph_Driver/src/stm32f30x_adc.c ****   *     @arg ADC_FLAG_RDY: ADC Ready (ADRDY) flag 
2181:/home/user/Desktop/STM32-Projekte/FH-Vertibot/src/STM32F30x_StdPeriph_Driver/src/stm32f30x_adc.c ****   *     @arg ADC_FLAG_EOSMP: ADC End of Sampling flag 
2182:/home/user/Desktop/STM32-Projekte/FH-Vertibot/src/STM32F30x_StdPeriph_Driver/src/stm32f30x_adc.c ****   *     @arg ADC_FLAG_EOC: ADC End of Regular Conversion flag 
2183:/home/user/Desktop/STM32-Projekte/FH-Vertibot/src/STM32F30x_StdPeriph_Driver/src/stm32f30x_adc.c ****   *     @arg ADC_FLAG_EOS: ADC End of Regular sequence of Conversions flag 
2184:/home/user/Desktop/STM32-Projekte/FH-Vertibot/src/STM32F30x_StdPeriph_Driver/src/stm32f30x_adc.c ****   *     @arg ADC_FLAG_OVR: ADC overrun flag 
2185:/home/user/Desktop/STM32-Projekte/FH-Vertibot/src/STM32F30x_StdPeriph_Driver/src/stm32f30x_adc.c ****   *     @arg ADC_FLAG_JEOC: ADC End of Injected Conversion flag 
2186:/home/user/Desktop/STM32-Projekte/FH-Vertibot/src/STM32F30x_StdPeriph_Driver/src/stm32f30x_adc.c ****   *     @arg ADC_FLAG_JEOS: ADC End of Injected sequence of Conversions flag 
2187:/home/user/Desktop/STM32-Projekte/FH-Vertibot/src/STM32F30x_StdPeriph_Driver/src/stm32f30x_adc.c ****   *     @arg ADC_FLAG_AWD1: ADC Analog watchdog 1 flag 
2188:/home/user/Desktop/STM32-Projekte/FH-Vertibot/src/STM32F30x_StdPeriph_Driver/src/stm32f30x_adc.c ****   *     @arg ADC_FLAG_AWD2: ADC Analog watchdog 2 flag 
2189:/home/user/Desktop/STM32-Projekte/FH-Vertibot/src/STM32F30x_StdPeriph_Driver/src/stm32f30x_adc.c ****   *     @arg ADC_FLAG_AWD3: ADC Analog watchdog 3 flag 
2190:/home/user/Desktop/STM32-Projekte/FH-Vertibot/src/STM32F30x_StdPeriph_Driver/src/stm32f30x_adc.c ****   *     @arg ADC_FLAG_JQOVF: ADC Injected Context Queue Overflow flag 
2191:/home/user/Desktop/STM32-Projekte/FH-Vertibot/src/STM32F30x_StdPeriph_Driver/src/stm32f30x_adc.c ****   * @retval The new state of ADC_FLAG (SET or RESET).
2192:/home/user/Desktop/STM32-Projekte/FH-Vertibot/src/STM32F30x_StdPeriph_Driver/src/stm32f30x_adc.c ****   */
2193:/home/user/Desktop/STM32-Projekte/FH-Vertibot/src/STM32F30x_StdPeriph_Driver/src/stm32f30x_adc.c **** FlagStatus ADC_GetFlagStatus(ADC_TypeDef* ADCx, uint32_t ADC_FLAG)
2194:/home/user/Desktop/STM32-Projekte/FH-Vertibot/src/STM32F30x_StdPeriph_Driver/src/stm32f30x_adc.c **** {
 2105              		.loc 1 2194 0
 2106              		.cfi_startproc
 2107              		@ args = 0, pretend = 0, frame = 0
 2108              		@ frame_needed = 0, uses_anonymous_args = 0
 2109              		@ link register save eliminated.
 2110              	.LVL182:
2195:/home/user/Desktop/STM32-Projekte/FH-Vertibot/src/STM32F30x_StdPeriph_Driver/src/stm32f30x_adc.c ****   FlagStatus bitstatus = RESET;
2196:/home/user/Desktop/STM32-Projekte/FH-Vertibot/src/STM32F30x_StdPeriph_Driver/src/stm32f30x_adc.c ****   /* Check the parameters */
2197:/home/user/Desktop/STM32-Projekte/FH-Vertibot/src/STM32F30x_StdPeriph_Driver/src/stm32f30x_adc.c ****   assert_param(IS_ADC_ALL_PERIPH(ADCx));
2198:/home/user/Desktop/STM32-Projekte/FH-Vertibot/src/STM32F30x_StdPeriph_Driver/src/stm32f30x_adc.c ****   assert_param(IS_ADC_GET_FLAG(ADC_FLAG));
2199:/home/user/Desktop/STM32-Projekte/FH-Vertibot/src/STM32F30x_StdPeriph_Driver/src/stm32f30x_adc.c **** 
2200:/home/user/Desktop/STM32-Projekte/FH-Vertibot/src/STM32F30x_StdPeriph_Driver/src/stm32f30x_adc.c ****   /* Check the status of the specified ADC flag */
2201:/home/user/Desktop/STM32-Projekte/FH-Vertibot/src/STM32F30x_StdPeriph_Driver/src/stm32f30x_adc.c ****   if ((ADCx->ISR & ADC_FLAG) != (uint32_t)RESET)
 2111              		.loc 1 2201 0
 2112 0636 0368     		ldr	r3, [r0]
 2113              	.LVL183:
 2114 0638 1942     		tst	r1, r3
2202:/home/user/Desktop/STM32-Projekte/FH-Vertibot/src/STM32F30x_StdPeriph_Driver/src/stm32f30x_adc.c ****   {
2203:/home/user/Desktop/STM32-Projekte/FH-Vertibot/src/STM32F30x_StdPeriph_Driver/src/stm32f30x_adc.c ****     /* ADC_FLAG is set */
2204:/home/user/Desktop/STM32-Projekte/FH-Vertibot/src/STM32F30x_StdPeriph_Driver/src/stm32f30x_adc.c ****     bitstatus = SET;
2205:/home/user/Desktop/STM32-Projekte/FH-Vertibot/src/STM32F30x_StdPeriph_Driver/src/stm32f30x_adc.c ****   }
2206:/home/user/Desktop/STM32-Projekte/FH-Vertibot/src/STM32F30x_StdPeriph_Driver/src/stm32f30x_adc.c ****   else
2207:/home/user/Desktop/STM32-Projekte/FH-Vertibot/src/STM32F30x_StdPeriph_Driver/src/stm32f30x_adc.c ****   {
2208:/home/user/Desktop/STM32-Projekte/FH-Vertibot/src/STM32F30x_StdPeriph_Driver/src/stm32f30x_adc.c ****     /* ADC_FLAG is reset */
2209:/home/user/Desktop/STM32-Projekte/FH-Vertibot/src/STM32F30x_StdPeriph_Driver/src/stm32f30x_adc.c ****     bitstatus = RESET;
2210:/home/user/Desktop/STM32-Projekte/FH-Vertibot/src/STM32F30x_StdPeriph_Driver/src/stm32f30x_adc.c ****   }
2211:/home/user/Desktop/STM32-Projekte/FH-Vertibot/src/STM32F30x_StdPeriph_Driver/src/stm32f30x_adc.c ****   /* Return the ADC_FLAG status */
2212:/home/user/Desktop/STM32-Projekte/FH-Vertibot/src/STM32F30x_StdPeriph_Driver/src/stm32f30x_adc.c ****   return  bitstatus;
2213:/home/user/Desktop/STM32-Projekte/FH-Vertibot/src/STM32F30x_StdPeriph_Driver/src/stm32f30x_adc.c **** }
 2115              		.loc 1 2213 0
 2116 063a 0CBF     		ite	eq
 2117 063c 0020     		moveq	r0, #0
 2118 063e 0120     		movne	r0, #1
 2119              	.LVL184:
 2120 0640 7047     		bx	lr
 2121              		.cfi_endproc
 2122              	.LFE168:
 2124              		.align	1
 2125              		.global	ADC_ClearFlag
 2126              		.thumb
 2127              		.thumb_func
 2129              	ADC_ClearFlag:
 2130              	.LFB169:
2214:/home/user/Desktop/STM32-Projekte/FH-Vertibot/src/STM32F30x_StdPeriph_Driver/src/stm32f30x_adc.c **** 
2215:/home/user/Desktop/STM32-Projekte/FH-Vertibot/src/STM32F30x_StdPeriph_Driver/src/stm32f30x_adc.c **** /**
2216:/home/user/Desktop/STM32-Projekte/FH-Vertibot/src/STM32F30x_StdPeriph_Driver/src/stm32f30x_adc.c ****   * @brief  Clears the ADCx's pending flags.
2217:/home/user/Desktop/STM32-Projekte/FH-Vertibot/src/STM32F30x_StdPeriph_Driver/src/stm32f30x_adc.c ****   * @param  ADCx: where x can be 1, 2, 3 or 4 to select the ADC peripheral.
2218:/home/user/Desktop/STM32-Projekte/FH-Vertibot/src/STM32F30x_StdPeriph_Driver/src/stm32f30x_adc.c ****   * @param  ADC_FLAG: specifies the flag to clear. 
2219:/home/user/Desktop/STM32-Projekte/FH-Vertibot/src/STM32F30x_StdPeriph_Driver/src/stm32f30x_adc.c ****   *   This parameter can be any combination of the following values:
2220:/home/user/Desktop/STM32-Projekte/FH-Vertibot/src/STM32F30x_StdPeriph_Driver/src/stm32f30x_adc.c ****   *     @arg ADC_FLAG_RDY: ADC Ready (ADRDY) flag 
2221:/home/user/Desktop/STM32-Projekte/FH-Vertibot/src/STM32F30x_StdPeriph_Driver/src/stm32f30x_adc.c ****   *     @arg ADC_FLAG_EOSMP: ADC End of Sampling flag 
2222:/home/user/Desktop/STM32-Projekte/FH-Vertibot/src/STM32F30x_StdPeriph_Driver/src/stm32f30x_adc.c ****   *     @arg ADC_FLAG_EOC: ADC End of Regular Conversion flag 
2223:/home/user/Desktop/STM32-Projekte/FH-Vertibot/src/STM32F30x_StdPeriph_Driver/src/stm32f30x_adc.c ****   *     @arg ADC_FLAG_EOS: ADC End of Regular sequence of Conversions flag 
2224:/home/user/Desktop/STM32-Projekte/FH-Vertibot/src/STM32F30x_StdPeriph_Driver/src/stm32f30x_adc.c ****   *     @arg ADC_FLAG_OVR: ADC overrun flag 
2225:/home/user/Desktop/STM32-Projekte/FH-Vertibot/src/STM32F30x_StdPeriph_Driver/src/stm32f30x_adc.c ****   *     @arg ADC_FLAG_JEOC: ADC End of Injected Conversion flag 
2226:/home/user/Desktop/STM32-Projekte/FH-Vertibot/src/STM32F30x_StdPeriph_Driver/src/stm32f30x_adc.c ****   *     @arg ADC_FLAG_JEOS: ADC End of Injected sequence of Conversions flag 
2227:/home/user/Desktop/STM32-Projekte/FH-Vertibot/src/STM32F30x_StdPeriph_Driver/src/stm32f30x_adc.c ****   *     @arg ADC_FLAG_AWD1: ADC Analog watchdog 1 flag 
2228:/home/user/Desktop/STM32-Projekte/FH-Vertibot/src/STM32F30x_StdPeriph_Driver/src/stm32f30x_adc.c ****   *     @arg ADC_FLAG_AWD2: ADC Analog watchdog 2 flag 
2229:/home/user/Desktop/STM32-Projekte/FH-Vertibot/src/STM32F30x_StdPeriph_Driver/src/stm32f30x_adc.c ****   *     @arg ADC_FLAG_AWD3: ADC Analog watchdog 3 flag 
2230:/home/user/Desktop/STM32-Projekte/FH-Vertibot/src/STM32F30x_StdPeriph_Driver/src/stm32f30x_adc.c ****   *     @arg ADC_FLAG_JQOVF: ADC Injected Context Queue Overflow flag 
2231:/home/user/Desktop/STM32-Projekte/FH-Vertibot/src/STM32F30x_StdPeriph_Driver/src/stm32f30x_adc.c ****   * @retval None
2232:/home/user/Desktop/STM32-Projekte/FH-Vertibot/src/STM32F30x_StdPeriph_Driver/src/stm32f30x_adc.c ****   */
2233:/home/user/Desktop/STM32-Projekte/FH-Vertibot/src/STM32F30x_StdPeriph_Driver/src/stm32f30x_adc.c **** void ADC_ClearFlag(ADC_TypeDef* ADCx, uint32_t ADC_FLAG)
2234:/home/user/Desktop/STM32-Projekte/FH-Vertibot/src/STM32F30x_StdPeriph_Driver/src/stm32f30x_adc.c **** {
 2131              		.loc 1 2234 0
 2132              		.cfi_startproc
 2133              		@ args = 0, pretend = 0, frame = 0
 2134              		@ frame_needed = 0, uses_anonymous_args = 0
 2135              		@ link register save eliminated.
 2136              	.LVL185:
2235:/home/user/Desktop/STM32-Projekte/FH-Vertibot/src/STM32F30x_StdPeriph_Driver/src/stm32f30x_adc.c ****   /* Check the parameters */
2236:/home/user/Desktop/STM32-Projekte/FH-Vertibot/src/STM32F30x_StdPeriph_Driver/src/stm32f30x_adc.c ****   assert_param(IS_ADC_ALL_PERIPH(ADCx));
2237:/home/user/Desktop/STM32-Projekte/FH-Vertibot/src/STM32F30x_StdPeriph_Driver/src/stm32f30x_adc.c ****   assert_param(IS_ADC_CLEAR_FLAG(ADC_FLAG));
2238:/home/user/Desktop/STM32-Projekte/FH-Vertibot/src/STM32F30x_StdPeriph_Driver/src/stm32f30x_adc.c ****   /* Clear the selected ADC flags */
2239:/home/user/Desktop/STM32-Projekte/FH-Vertibot/src/STM32F30x_StdPeriph_Driver/src/stm32f30x_adc.c ****   ADCx->ISR = (uint32_t)ADC_FLAG;
 2137              		.loc 1 2239 0
 2138 0642 0160     		str	r1, [r0]
 2139 0644 7047     		bx	lr
 2140              		.cfi_endproc
 2141              	.LFE169:
 2143              		.align	1
 2144              		.global	ADC_GetCommonFlagStatus
 2145              		.thumb
 2146              		.thumb_func
 2148              	ADC_GetCommonFlagStatus:
 2149              	.LFB170:
2240:/home/user/Desktop/STM32-Projekte/FH-Vertibot/src/STM32F30x_StdPeriph_Driver/src/stm32f30x_adc.c **** }
2241:/home/user/Desktop/STM32-Projekte/FH-Vertibot/src/STM32F30x_StdPeriph_Driver/src/stm32f30x_adc.c **** 
2242:/home/user/Desktop/STM32-Projekte/FH-Vertibot/src/STM32F30x_StdPeriph_Driver/src/stm32f30x_adc.c **** /**
2243:/home/user/Desktop/STM32-Projekte/FH-Vertibot/src/STM32F30x_StdPeriph_Driver/src/stm32f30x_adc.c ****   * @brief  Checks whether the specified ADC flag is set or not.
2244:/home/user/Desktop/STM32-Projekte/FH-Vertibot/src/STM32F30x_StdPeriph_Driver/src/stm32f30x_adc.c ****   * @param  ADCx: where x can be 1, 2, 3 or 4 to select the ADC peripheral.
2245:/home/user/Desktop/STM32-Projekte/FH-Vertibot/src/STM32F30x_StdPeriph_Driver/src/stm32f30x_adc.c ****   * @param  ADC_FLAG: specifies the master or slave flag to check. 
2246:/home/user/Desktop/STM32-Projekte/FH-Vertibot/src/STM32F30x_StdPeriph_Driver/src/stm32f30x_adc.c ****   *   This parameter can be one of the following values:
2247:/home/user/Desktop/STM32-Projekte/FH-Vertibot/src/STM32F30x_StdPeriph_Driver/src/stm32f30x_adc.c ****   *     @arg ADC_FLAG_MSTRDY: ADC master Ready (ADRDY) flag 
2248:/home/user/Desktop/STM32-Projekte/FH-Vertibot/src/STM32F30x_StdPeriph_Driver/src/stm32f30x_adc.c ****   *     @arg ADC_FLAG_MSTEOSMP: ADC master End of Sampling flag 
2249:/home/user/Desktop/STM32-Projekte/FH-Vertibot/src/STM32F30x_StdPeriph_Driver/src/stm32f30x_adc.c ****   *     @arg ADC_FLAG_MSTEOC: ADC master End of Regular Conversion flag 
2250:/home/user/Desktop/STM32-Projekte/FH-Vertibot/src/STM32F30x_StdPeriph_Driver/src/stm32f30x_adc.c ****   *     @arg ADC_FLAG_MSTEOS: ADC master End of Regular sequence of Conversions flag 
2251:/home/user/Desktop/STM32-Projekte/FH-Vertibot/src/STM32F30x_StdPeriph_Driver/src/stm32f30x_adc.c ****   *     @arg ADC_FLAG_MSTOVR: ADC master overrun flag 
2252:/home/user/Desktop/STM32-Projekte/FH-Vertibot/src/STM32F30x_StdPeriph_Driver/src/stm32f30x_adc.c ****   *     @arg ADC_FLAG_MSTJEOC: ADC master End of Injected Conversion flag 
2253:/home/user/Desktop/STM32-Projekte/FH-Vertibot/src/STM32F30x_StdPeriph_Driver/src/stm32f30x_adc.c ****   *     @arg ADC_FLAG_MSTJEOS: ADC master End of Injected sequence of Conversions flag 
2254:/home/user/Desktop/STM32-Projekte/FH-Vertibot/src/STM32F30x_StdPeriph_Driver/src/stm32f30x_adc.c ****   *     @arg ADC_FLAG_MSTAWD1: ADC master Analog watchdog 1 flag 
2255:/home/user/Desktop/STM32-Projekte/FH-Vertibot/src/STM32F30x_StdPeriph_Driver/src/stm32f30x_adc.c ****   *     @arg ADC_FLAG_MSTAWD2: ADC master Analog watchdog 2 flag 
2256:/home/user/Desktop/STM32-Projekte/FH-Vertibot/src/STM32F30x_StdPeriph_Driver/src/stm32f30x_adc.c ****   *     @arg ADC_FLAG_MSTAWD3: ADC master Analog watchdog 3 flag 
2257:/home/user/Desktop/STM32-Projekte/FH-Vertibot/src/STM32F30x_StdPeriph_Driver/src/stm32f30x_adc.c ****   *     @arg ADC_FLAG_MSTJQOVF: ADC master Injected Context Queue Overflow flag 
2258:/home/user/Desktop/STM32-Projekte/FH-Vertibot/src/STM32F30x_StdPeriph_Driver/src/stm32f30x_adc.c ****   *     @arg ADC_FLAG_SLVRDY: ADC slave Ready (ADRDY) flag 
2259:/home/user/Desktop/STM32-Projekte/FH-Vertibot/src/STM32F30x_StdPeriph_Driver/src/stm32f30x_adc.c ****   *     @arg ADC_FLAG_SLVEOSMP: ADC slave End of Sampling flag 
2260:/home/user/Desktop/STM32-Projekte/FH-Vertibot/src/STM32F30x_StdPeriph_Driver/src/stm32f30x_adc.c ****   *     @arg ADC_FLAG_SLVEOC: ADC slave End of Regular Conversion flag 
2261:/home/user/Desktop/STM32-Projekte/FH-Vertibot/src/STM32F30x_StdPeriph_Driver/src/stm32f30x_adc.c ****   *     @arg ADC_FLAG_SLVEOS: ADC slave End of Regular sequence of Conversions flag 
2262:/home/user/Desktop/STM32-Projekte/FH-Vertibot/src/STM32F30x_StdPeriph_Driver/src/stm32f30x_adc.c ****   *     @arg ADC_FLAG_SLVOVR: ADC slave overrun flag 
2263:/home/user/Desktop/STM32-Projekte/FH-Vertibot/src/STM32F30x_StdPeriph_Driver/src/stm32f30x_adc.c ****   *     @arg ADC_FLAG_SLVJEOC: ADC slave End of Injected Conversion flag 
2264:/home/user/Desktop/STM32-Projekte/FH-Vertibot/src/STM32F30x_StdPeriph_Driver/src/stm32f30x_adc.c ****   *     @arg ADC_FLAG_SLVJEOS: ADC slave End of Injected sequence of Conversions flag 
2265:/home/user/Desktop/STM32-Projekte/FH-Vertibot/src/STM32F30x_StdPeriph_Driver/src/stm32f30x_adc.c ****   *     @arg ADC_FLAG_SLVAWD1: ADC slave Analog watchdog 1 flag 
2266:/home/user/Desktop/STM32-Projekte/FH-Vertibot/src/STM32F30x_StdPeriph_Driver/src/stm32f30x_adc.c ****   *     @arg ADC_FLAG_SLVAWD2: ADC slave Analog watchdog 2 flag 
2267:/home/user/Desktop/STM32-Projekte/FH-Vertibot/src/STM32F30x_StdPeriph_Driver/src/stm32f30x_adc.c ****   *     @arg ADC_FLAG_SLVAWD3: ADC slave Analog watchdog 3 flag 
2268:/home/user/Desktop/STM32-Projekte/FH-Vertibot/src/STM32F30x_StdPeriph_Driver/src/stm32f30x_adc.c ****   *     @arg ADC_FLAG_SLVJQOVF: ADC slave Injected Context Queue Overflow flag 
2269:/home/user/Desktop/STM32-Projekte/FH-Vertibot/src/STM32F30x_StdPeriph_Driver/src/stm32f30x_adc.c ****   * @retval The new state of ADC_FLAG (SET or RESET).
2270:/home/user/Desktop/STM32-Projekte/FH-Vertibot/src/STM32F30x_StdPeriph_Driver/src/stm32f30x_adc.c ****   */
2271:/home/user/Desktop/STM32-Projekte/FH-Vertibot/src/STM32F30x_StdPeriph_Driver/src/stm32f30x_adc.c **** FlagStatus ADC_GetCommonFlagStatus(ADC_TypeDef* ADCx, uint32_t ADC_FLAG)
2272:/home/user/Desktop/STM32-Projekte/FH-Vertibot/src/STM32F30x_StdPeriph_Driver/src/stm32f30x_adc.c **** {
 2150              		.loc 1 2272 0
 2151              		.cfi_startproc
 2152              		@ args = 0, pretend = 0, frame = 0
 2153              		@ frame_needed = 0, uses_anonymous_args = 0
 2154              		@ link register save eliminated.
 2155              	.LVL186:
2273:/home/user/Desktop/STM32-Projekte/FH-Vertibot/src/STM32F30x_StdPeriph_Driver/src/stm32f30x_adc.c ****   uint32_t tmpreg1 = 0;
2274:/home/user/Desktop/STM32-Projekte/FH-Vertibot/src/STM32F30x_StdPeriph_Driver/src/stm32f30x_adc.c ****   FlagStatus bitstatus = RESET;
2275:/home/user/Desktop/STM32-Projekte/FH-Vertibot/src/STM32F30x_StdPeriph_Driver/src/stm32f30x_adc.c **** 
2276:/home/user/Desktop/STM32-Projekte/FH-Vertibot/src/STM32F30x_StdPeriph_Driver/src/stm32f30x_adc.c ****   /* Check the parameters */
2277:/home/user/Desktop/STM32-Projekte/FH-Vertibot/src/STM32F30x_StdPeriph_Driver/src/stm32f30x_adc.c ****   assert_param(IS_ADC_ALL_PERIPH(ADCx));
2278:/home/user/Desktop/STM32-Projekte/FH-Vertibot/src/STM32F30x_StdPeriph_Driver/src/stm32f30x_adc.c ****   assert_param(IS_ADC_GET_COMMONFLAG(ADC_FLAG));
2279:/home/user/Desktop/STM32-Projekte/FH-Vertibot/src/STM32F30x_StdPeriph_Driver/src/stm32f30x_adc.c **** 
2280:/home/user/Desktop/STM32-Projekte/FH-Vertibot/src/STM32F30x_StdPeriph_Driver/src/stm32f30x_adc.c ****   if((ADCx == ADC1) || (ADCx == ADC2))
 2156              		.loc 1 2280 0
 2157 0646 B0F1A04F 		cmp	r0, #1342177280
 2158 064a 02D0     		beq	.L195
 2159              		.loc 1 2280 0 is_stmt 0 discriminator 1
 2160 064c 054B     		ldr	r3, .L202
 2161 064e 9842     		cmp	r0, r3
 2162 0650 01D1     		bne	.L196
 2163              	.L195:
2281:/home/user/Desktop/STM32-Projekte/FH-Vertibot/src/STM32F30x_StdPeriph_Driver/src/stm32f30x_adc.c ****   {
2282:/home/user/Desktop/STM32-Projekte/FH-Vertibot/src/STM32F30x_StdPeriph_Driver/src/stm32f30x_adc.c ****     tmpreg1 = ADC1_2->CSR;
 2164              		.loc 1 2282 0 is_stmt 1
 2165 0652 054B     		ldr	r3, .L202+4
 2166 0654 00E0     		b	.L201
 2167              	.L196:
2283:/home/user/Desktop/STM32-Projekte/FH-Vertibot/src/STM32F30x_StdPeriph_Driver/src/stm32f30x_adc.c ****   }
2284:/home/user/Desktop/STM32-Projekte/FH-Vertibot/src/STM32F30x_StdPeriph_Driver/src/stm32f30x_adc.c ****   else
2285:/home/user/Desktop/STM32-Projekte/FH-Vertibot/src/STM32F30x_StdPeriph_Driver/src/stm32f30x_adc.c ****   {
2286:/home/user/Desktop/STM32-Projekte/FH-Vertibot/src/STM32F30x_StdPeriph_Driver/src/stm32f30x_adc.c ****     tmpreg1 = ADC3_4->CSR;
 2168              		.loc 1 2286 0
 2169 0656 054B     		ldr	r3, .L202+8
 2170              	.L201:
 2171 0658 1B68     		ldr	r3, [r3]
 2172              	.LVL187:
2287:/home/user/Desktop/STM32-Projekte/FH-Vertibot/src/STM32F30x_StdPeriph_Driver/src/stm32f30x_adc.c ****   }  
2288:/home/user/Desktop/STM32-Projekte/FH-Vertibot/src/STM32F30x_StdPeriph_Driver/src/stm32f30x_adc.c ****   /* Check the status of the specified ADC flag */
2289:/home/user/Desktop/STM32-Projekte/FH-Vertibot/src/STM32F30x_StdPeriph_Driver/src/stm32f30x_adc.c ****   if ((tmpreg1 & ADC_FLAG) != (uint32_t)RESET)
 2173              		.loc 1 2289 0
 2174 065a 0B42     		tst	r3, r1
2290:/home/user/Desktop/STM32-Projekte/FH-Vertibot/src/STM32F30x_StdPeriph_Driver/src/stm32f30x_adc.c ****   {
2291:/home/user/Desktop/STM32-Projekte/FH-Vertibot/src/STM32F30x_StdPeriph_Driver/src/stm32f30x_adc.c ****     /* ADC_FLAG is set */
2292:/home/user/Desktop/STM32-Projekte/FH-Vertibot/src/STM32F30x_StdPeriph_Driver/src/stm32f30x_adc.c ****     bitstatus = SET;
2293:/home/user/Desktop/STM32-Projekte/FH-Vertibot/src/STM32F30x_StdPeriph_Driver/src/stm32f30x_adc.c ****   }
2294:/home/user/Desktop/STM32-Projekte/FH-Vertibot/src/STM32F30x_StdPeriph_Driver/src/stm32f30x_adc.c ****   else
2295:/home/user/Desktop/STM32-Projekte/FH-Vertibot/src/STM32F30x_StdPeriph_Driver/src/stm32f30x_adc.c ****   {
2296:/home/user/Desktop/STM32-Projekte/FH-Vertibot/src/STM32F30x_StdPeriph_Driver/src/stm32f30x_adc.c ****     /* ADC_FLAG is reset */
2297:/home/user/Desktop/STM32-Projekte/FH-Vertibot/src/STM32F30x_StdPeriph_Driver/src/stm32f30x_adc.c ****     bitstatus = RESET;
2298:/home/user/Desktop/STM32-Projekte/FH-Vertibot/src/STM32F30x_StdPeriph_Driver/src/stm32f30x_adc.c ****   }
2299:/home/user/Desktop/STM32-Projekte/FH-Vertibot/src/STM32F30x_StdPeriph_Driver/src/stm32f30x_adc.c ****   /* Return the ADC_FLAG status */
2300:/home/user/Desktop/STM32-Projekte/FH-Vertibot/src/STM32F30x_StdPeriph_Driver/src/stm32f30x_adc.c ****   return  bitstatus;
2301:/home/user/Desktop/STM32-Projekte/FH-Vertibot/src/STM32F30x_StdPeriph_Driver/src/stm32f30x_adc.c **** }
 2175              		.loc 1 2301 0
 2176 065c 0CBF     		ite	eq
 2177 065e 0020     		moveq	r0, #0
 2178 0660 0120     		movne	r0, #1
 2179              	.LVL188:
 2180 0662 7047     		bx	lr
 2181              	.L203:
 2182              		.align	2
 2183              	.L202:
 2184 0664 00010050 		.word	1342177536
 2185 0668 00030050 		.word	1342178048
 2186 066c 00070050 		.word	1342179072
 2187              		.cfi_endproc
 2188              	.LFE170:
 2190              		.align	1
 2191              		.global	ADC_ClearCommonFlag
 2192              		.thumb
 2193              		.thumb_func
 2195              	ADC_ClearCommonFlag:
 2196              	.LFB171:
2302:/home/user/Desktop/STM32-Projekte/FH-Vertibot/src/STM32F30x_StdPeriph_Driver/src/stm32f30x_adc.c **** 
2303:/home/user/Desktop/STM32-Projekte/FH-Vertibot/src/STM32F30x_StdPeriph_Driver/src/stm32f30x_adc.c **** /**
2304:/home/user/Desktop/STM32-Projekte/FH-Vertibot/src/STM32F30x_StdPeriph_Driver/src/stm32f30x_adc.c ****   * @brief  Clears the ADCx's pending flags.
2305:/home/user/Desktop/STM32-Projekte/FH-Vertibot/src/STM32F30x_StdPeriph_Driver/src/stm32f30x_adc.c ****   * @param  ADCx: where x can be 1, 2, 3 or 4 to select the ADC peripheral.
2306:/home/user/Desktop/STM32-Projekte/FH-Vertibot/src/STM32F30x_StdPeriph_Driver/src/stm32f30x_adc.c ****   * @param  ADC_FLAG: specifies the master or slave flag to clear. 
2307:/home/user/Desktop/STM32-Projekte/FH-Vertibot/src/STM32F30x_StdPeriph_Driver/src/stm32f30x_adc.c ****   *   This parameter can be one of the following values:
2308:/home/user/Desktop/STM32-Projekte/FH-Vertibot/src/STM32F30x_StdPeriph_Driver/src/stm32f30x_adc.c ****   *     @arg ADC_FLAG_MSTRDY: ADC master Ready (ADRDY) flag 
2309:/home/user/Desktop/STM32-Projekte/FH-Vertibot/src/STM32F30x_StdPeriph_Driver/src/stm32f30x_adc.c ****   *     @arg ADC_FLAG_MSTEOSMP: ADC master End of Sampling flag 
2310:/home/user/Desktop/STM32-Projekte/FH-Vertibot/src/STM32F30x_StdPeriph_Driver/src/stm32f30x_adc.c ****   *     @arg ADC_FLAG_MSTEOC: ADC master End of Regular Conversion flag 
2311:/home/user/Desktop/STM32-Projekte/FH-Vertibot/src/STM32F30x_StdPeriph_Driver/src/stm32f30x_adc.c ****   *     @arg ADC_FLAG_MSTEOS: ADC master End of Regular sequence of Conversions flag 
2312:/home/user/Desktop/STM32-Projekte/FH-Vertibot/src/STM32F30x_StdPeriph_Driver/src/stm32f30x_adc.c ****   *     @arg ADC_FLAG_MSTOVR: ADC master overrun flag 
2313:/home/user/Desktop/STM32-Projekte/FH-Vertibot/src/STM32F30x_StdPeriph_Driver/src/stm32f30x_adc.c ****   *     @arg ADC_FLAG_MSTJEOC: ADC master End of Injected Conversion flag 
2314:/home/user/Desktop/STM32-Projekte/FH-Vertibot/src/STM32F30x_StdPeriph_Driver/src/stm32f30x_adc.c ****   *     @arg ADC_FLAG_MSTJEOS: ADC master End of Injected sequence of Conversions flag 
2315:/home/user/Desktop/STM32-Projekte/FH-Vertibot/src/STM32F30x_StdPeriph_Driver/src/stm32f30x_adc.c ****   *     @arg ADC_FLAG_MSTAWD1: ADC master Analog watchdog 1 flag 
2316:/home/user/Desktop/STM32-Projekte/FH-Vertibot/src/STM32F30x_StdPeriph_Driver/src/stm32f30x_adc.c ****   *     @arg ADC_FLAG_MSTAWD2: ADC master Analog watchdog 2 flag 
2317:/home/user/Desktop/STM32-Projekte/FH-Vertibot/src/STM32F30x_StdPeriph_Driver/src/stm32f30x_adc.c ****   *     @arg ADC_FLAG_MSTAWD3: ADC master Analog watchdog 3 flag 
2318:/home/user/Desktop/STM32-Projekte/FH-Vertibot/src/STM32F30x_StdPeriph_Driver/src/stm32f30x_adc.c ****   *     @arg ADC_FLAG_MSTJQOVF: ADC master Injected Context Queue Overflow flag 
2319:/home/user/Desktop/STM32-Projekte/FH-Vertibot/src/STM32F30x_StdPeriph_Driver/src/stm32f30x_adc.c ****   *     @arg ADC_FLAG_SLVRDY: ADC slave Ready (ADRDY) flag 
2320:/home/user/Desktop/STM32-Projekte/FH-Vertibot/src/STM32F30x_StdPeriph_Driver/src/stm32f30x_adc.c ****   *     @arg ADC_FLAG_SLVEOSMP: ADC slave End of Sampling flag 
2321:/home/user/Desktop/STM32-Projekte/FH-Vertibot/src/STM32F30x_StdPeriph_Driver/src/stm32f30x_adc.c ****   *     @arg ADC_FLAG_SLVEOC: ADC slave End of Regular Conversion flag 
2322:/home/user/Desktop/STM32-Projekte/FH-Vertibot/src/STM32F30x_StdPeriph_Driver/src/stm32f30x_adc.c ****   *     @arg ADC_FLAG_SLVEOS: ADC slave End of Regular sequence of Conversions flag 
2323:/home/user/Desktop/STM32-Projekte/FH-Vertibot/src/STM32F30x_StdPeriph_Driver/src/stm32f30x_adc.c ****   *     @arg ADC_FLAG_SLVOVR: ADC slave overrun flag 
2324:/home/user/Desktop/STM32-Projekte/FH-Vertibot/src/STM32F30x_StdPeriph_Driver/src/stm32f30x_adc.c ****   *     @arg ADC_FLAG_SLVJEOC: ADC slave End of Injected Conversion flag 
2325:/home/user/Desktop/STM32-Projekte/FH-Vertibot/src/STM32F30x_StdPeriph_Driver/src/stm32f30x_adc.c ****   *     @arg ADC_FLAG_SLVJEOS: ADC slave End of Injected sequence of Conversions flag 
2326:/home/user/Desktop/STM32-Projekte/FH-Vertibot/src/STM32F30x_StdPeriph_Driver/src/stm32f30x_adc.c ****   *     @arg ADC_FLAG_SLVAWD1: ADC slave Analog watchdog 1 flag 
2327:/home/user/Desktop/STM32-Projekte/FH-Vertibot/src/STM32F30x_StdPeriph_Driver/src/stm32f30x_adc.c ****   *     @arg ADC_FLAG_SLVAWD2: ADC slave Analog watchdog 2 flag 
2328:/home/user/Desktop/STM32-Projekte/FH-Vertibot/src/STM32F30x_StdPeriph_Driver/src/stm32f30x_adc.c ****   *     @arg ADC_FLAG_SLVAWD3: ADC slave Analog watchdog 3 flag 
2329:/home/user/Desktop/STM32-Projekte/FH-Vertibot/src/STM32F30x_StdPeriph_Driver/src/stm32f30x_adc.c ****   *     @arg ADC_FLAG_SLVJQOVF: ADC slave Injected Context Queue Overflow flag 
2330:/home/user/Desktop/STM32-Projekte/FH-Vertibot/src/STM32F30x_StdPeriph_Driver/src/stm32f30x_adc.c ****   * @retval None
2331:/home/user/Desktop/STM32-Projekte/FH-Vertibot/src/STM32F30x_StdPeriph_Driver/src/stm32f30x_adc.c ****   */
2332:/home/user/Desktop/STM32-Projekte/FH-Vertibot/src/STM32F30x_StdPeriph_Driver/src/stm32f30x_adc.c **** void ADC_ClearCommonFlag(ADC_TypeDef* ADCx, uint32_t ADC_FLAG)
2333:/home/user/Desktop/STM32-Projekte/FH-Vertibot/src/STM32F30x_StdPeriph_Driver/src/stm32f30x_adc.c **** {
 2197              		.loc 1 2333 0
 2198              		.cfi_startproc
 2199              		@ args = 0, pretend = 0, frame = 0
 2200              		@ frame_needed = 0, uses_anonymous_args = 0
 2201              		@ link register save eliminated.
 2202              	.LVL189:
2334:/home/user/Desktop/STM32-Projekte/FH-Vertibot/src/STM32F30x_StdPeriph_Driver/src/stm32f30x_adc.c ****   /* Check the parameters */
2335:/home/user/Desktop/STM32-Projekte/FH-Vertibot/src/STM32F30x_StdPeriph_Driver/src/stm32f30x_adc.c ****   assert_param(IS_ADC_ALL_PERIPH(ADCx));
2336:/home/user/Desktop/STM32-Projekte/FH-Vertibot/src/STM32F30x_StdPeriph_Driver/src/stm32f30x_adc.c ****   assert_param(IS_ADC_CLEAR_COMMONFLAG(ADC_FLAG));
2337:/home/user/Desktop/STM32-Projekte/FH-Vertibot/src/STM32F30x_StdPeriph_Driver/src/stm32f30x_adc.c **** 
2338:/home/user/Desktop/STM32-Projekte/FH-Vertibot/src/STM32F30x_StdPeriph_Driver/src/stm32f30x_adc.c ****   if((ADCx == ADC1) || (ADCx == ADC2))
 2203              		.loc 1 2338 0
 2204 0670 B0F1A04F 		cmp	r0, #1342177280
 2205 0674 02D0     		beq	.L205
 2206              		.loc 1 2338 0 is_stmt 0 discriminator 1
 2207 0676 054B     		ldr	r3, .L212
 2208 0678 9842     		cmp	r0, r3
 2209 067a 01D1     		bne	.L206
 2210              	.L205:
2339:/home/user/Desktop/STM32-Projekte/FH-Vertibot/src/STM32F30x_StdPeriph_Driver/src/stm32f30x_adc.c ****   {
2340:/home/user/Desktop/STM32-Projekte/FH-Vertibot/src/STM32F30x_StdPeriph_Driver/src/stm32f30x_adc.c ****     /* Clear the selected ADC flags */
2341:/home/user/Desktop/STM32-Projekte/FH-Vertibot/src/STM32F30x_StdPeriph_Driver/src/stm32f30x_adc.c ****     ADC1_2->CSR |= (uint32_t)ADC_FLAG;
 2211              		.loc 1 2341 0 is_stmt 1
 2212 067c 044B     		ldr	r3, .L212+4
 2213 067e 00E0     		b	.L211
 2214              	.L206:
2342:/home/user/Desktop/STM32-Projekte/FH-Vertibot/src/STM32F30x_StdPeriph_Driver/src/stm32f30x_adc.c ****   }
2343:/home/user/Desktop/STM32-Projekte/FH-Vertibot/src/STM32F30x_StdPeriph_Driver/src/stm32f30x_adc.c ****   else
2344:/home/user/Desktop/STM32-Projekte/FH-Vertibot/src/STM32F30x_StdPeriph_Driver/src/stm32f30x_adc.c ****   {
2345:/home/user/Desktop/STM32-Projekte/FH-Vertibot/src/STM32F30x_StdPeriph_Driver/src/stm32f30x_adc.c ****     /* Clear the selected ADC flags */
2346:/home/user/Desktop/STM32-Projekte/FH-Vertibot/src/STM32F30x_StdPeriph_Driver/src/stm32f30x_adc.c ****     ADC3_4->CSR |= (uint32_t)ADC_FLAG;
 2215              		.loc 1 2346 0
 2216 0680 044B     		ldr	r3, .L212+8
 2217              	.L211:
 2218 0682 1A68     		ldr	r2, [r3]
 2219 0684 1143     		orrs	r1, r1, r2
 2220              	.LVL190:
 2221 0686 1960     		str	r1, [r3]
 2222 0688 7047     		bx	lr
 2223              	.L213:
 2224 068a 00BF     		.align	2
 2225              	.L212:
 2226 068c 00010050 		.word	1342177536
 2227 0690 00030050 		.word	1342178048
 2228 0694 00070050 		.word	1342179072
 2229              		.cfi_endproc
 2230              	.LFE171:
 2232              		.align	1
 2233              		.global	ADC_GetITStatus
 2234              		.thumb
 2235              		.thumb_func
 2237              	ADC_GetITStatus:
 2238              	.LFB172:
2347:/home/user/Desktop/STM32-Projekte/FH-Vertibot/src/STM32F30x_StdPeriph_Driver/src/stm32f30x_adc.c ****   }  
2348:/home/user/Desktop/STM32-Projekte/FH-Vertibot/src/STM32F30x_StdPeriph_Driver/src/stm32f30x_adc.c **** }
2349:/home/user/Desktop/STM32-Projekte/FH-Vertibot/src/STM32F30x_StdPeriph_Driver/src/stm32f30x_adc.c **** 
2350:/home/user/Desktop/STM32-Projekte/FH-Vertibot/src/STM32F30x_StdPeriph_Driver/src/stm32f30x_adc.c **** /**
2351:/home/user/Desktop/STM32-Projekte/FH-Vertibot/src/STM32F30x_StdPeriph_Driver/src/stm32f30x_adc.c ****   * @brief  Checks whether the specified ADC interrupt has occurred or not.
2352:/home/user/Desktop/STM32-Projekte/FH-Vertibot/src/STM32F30x_StdPeriph_Driver/src/stm32f30x_adc.c ****   * @param  ADCx: where x can be 1, 2 or 3 to select the ADC peripheral.
2353:/home/user/Desktop/STM32-Projekte/FH-Vertibot/src/STM32F30x_StdPeriph_Driver/src/stm32f30x_adc.c ****   * @param  ADC_IT: specifies the ADC interrupt source to check. 
2354:/home/user/Desktop/STM32-Projekte/FH-Vertibot/src/STM32F30x_StdPeriph_Driver/src/stm32f30x_adc.c ****   *   This parameter can be one of the following values:
2355:/home/user/Desktop/STM32-Projekte/FH-Vertibot/src/STM32F30x_StdPeriph_Driver/src/stm32f30x_adc.c ****   *     @arg ADC_IT_RDY: ADC Ready (ADRDY) interrupt source 
2356:/home/user/Desktop/STM32-Projekte/FH-Vertibot/src/STM32F30x_StdPeriph_Driver/src/stm32f30x_adc.c ****   *     @arg ADC_IT_EOSMP: ADC End of Sampling interrupt source 
2357:/home/user/Desktop/STM32-Projekte/FH-Vertibot/src/STM32F30x_StdPeriph_Driver/src/stm32f30x_adc.c ****   *     @arg ADC_IT_EOC: ADC End of Regular Conversion interrupt source 
2358:/home/user/Desktop/STM32-Projekte/FH-Vertibot/src/STM32F30x_StdPeriph_Driver/src/stm32f30x_adc.c ****   *     @arg ADC_IT_EOS: ADC End of Regular sequence of Conversions interrupt source 
2359:/home/user/Desktop/STM32-Projekte/FH-Vertibot/src/STM32F30x_StdPeriph_Driver/src/stm32f30x_adc.c ****   *     @arg ADC_IT_OVR: ADC overrun interrupt source 
2360:/home/user/Desktop/STM32-Projekte/FH-Vertibot/src/STM32F30x_StdPeriph_Driver/src/stm32f30x_adc.c ****   *     @arg ADC_IT_JEOC: ADC End of Injected Conversion interrupt source 
2361:/home/user/Desktop/STM32-Projekte/FH-Vertibot/src/STM32F30x_StdPeriph_Driver/src/stm32f30x_adc.c ****   *     @arg ADC_IT_JEOS: ADC End of Injected sequence of Conversions interrupt source 
2362:/home/user/Desktop/STM32-Projekte/FH-Vertibot/src/STM32F30x_StdPeriph_Driver/src/stm32f30x_adc.c ****   *     @arg ADC_IT_AWD1: ADC Analog watchdog 1 interrupt source 
2363:/home/user/Desktop/STM32-Projekte/FH-Vertibot/src/STM32F30x_StdPeriph_Driver/src/stm32f30x_adc.c ****   *     @arg ADC_IT_AWD2: ADC Analog watchdog 2 interrupt source 
2364:/home/user/Desktop/STM32-Projekte/FH-Vertibot/src/STM32F30x_StdPeriph_Driver/src/stm32f30x_adc.c ****   *     @arg ADC_IT_AWD3: ADC Analog watchdog 3 interrupt source 
2365:/home/user/Desktop/STM32-Projekte/FH-Vertibot/src/STM32F30x_StdPeriph_Driver/src/stm32f30x_adc.c ****   *     @arg ADC_IT_JQOVF: ADC Injected Context Queue Overflow interrupt source 
2366:/home/user/Desktop/STM32-Projekte/FH-Vertibot/src/STM32F30x_StdPeriph_Driver/src/stm32f30x_adc.c ****   * @retval The new state of ADC_IT (SET or RESET).
2367:/home/user/Desktop/STM32-Projekte/FH-Vertibot/src/STM32F30x_StdPeriph_Driver/src/stm32f30x_adc.c ****   */
2368:/home/user/Desktop/STM32-Projekte/FH-Vertibot/src/STM32F30x_StdPeriph_Driver/src/stm32f30x_adc.c **** ITStatus ADC_GetITStatus(ADC_TypeDef* ADCx, uint32_t ADC_IT)
2369:/home/user/Desktop/STM32-Projekte/FH-Vertibot/src/STM32F30x_StdPeriph_Driver/src/stm32f30x_adc.c **** {
 2239              		.loc 1 2369 0
 2240              		.cfi_startproc
 2241              		@ args = 0, pretend = 0, frame = 0
 2242              		@ frame_needed = 0, uses_anonymous_args = 0
 2243              		@ link register save eliminated.
 2244              	.LVL191:
2370:/home/user/Desktop/STM32-Projekte/FH-Vertibot/src/STM32F30x_StdPeriph_Driver/src/stm32f30x_adc.c ****   ITStatus bitstatus = RESET;  
2371:/home/user/Desktop/STM32-Projekte/FH-Vertibot/src/STM32F30x_StdPeriph_Driver/src/stm32f30x_adc.c ****   uint16_t itstatus = 0x0, itenable = 0x0;
2372:/home/user/Desktop/STM32-Projekte/FH-Vertibot/src/STM32F30x_StdPeriph_Driver/src/stm32f30x_adc.c ****   /* Check the parameters */
2373:/home/user/Desktop/STM32-Projekte/FH-Vertibot/src/STM32F30x_StdPeriph_Driver/src/stm32f30x_adc.c ****   assert_param(IS_ADC_ALL_PERIPH(ADCx));
2374:/home/user/Desktop/STM32-Projekte/FH-Vertibot/src/STM32F30x_StdPeriph_Driver/src/stm32f30x_adc.c ****   assert_param(IS_ADC_GET_IT(ADC_IT));
2375:/home/user/Desktop/STM32-Projekte/FH-Vertibot/src/STM32F30x_StdPeriph_Driver/src/stm32f30x_adc.c ****    
2376:/home/user/Desktop/STM32-Projekte/FH-Vertibot/src/STM32F30x_StdPeriph_Driver/src/stm32f30x_adc.c ****   itstatus = ADCx->ISR & ADC_IT;
 2245              		.loc 1 2376 0
 2246 0698 0368     		ldr	r3, [r0]
2377:/home/user/Desktop/STM32-Projekte/FH-Vertibot/src/STM32F30x_StdPeriph_Driver/src/stm32f30x_adc.c ****   
2378:/home/user/Desktop/STM32-Projekte/FH-Vertibot/src/STM32F30x_StdPeriph_Driver/src/stm32f30x_adc.c ****   itenable = ADCx->IER & ADC_IT;
 2247              		.loc 1 2378 0
 2248 069a 4268     		ldr	r2, [r0, #4]
2376:/home/user/Desktop/STM32-Projekte/FH-Vertibot/src/STM32F30x_StdPeriph_Driver/src/stm32f30x_adc.c ****   itstatus = ADCx->ISR & ADC_IT;
 2249              		.loc 1 2376 0
 2250 069c 89B2     		uxth	r1, r1
 2251              	.LVL192:
2379:/home/user/Desktop/STM32-Projekte/FH-Vertibot/src/STM32F30x_StdPeriph_Driver/src/stm32f30x_adc.c ****   if ((itstatus != (uint32_t)RESET) && (itenable != (uint32_t)RESET))
 2252              		.loc 1 2379 0
 2253 069e 11EA0300 		ands	r0, r1, r3
 2254              	.LVL193:
 2255 06a2 03D0     		beq	.L215
 2256              		.loc 1 2379 0 is_stmt 0 discriminator 1
 2257 06a4 1142     		tst	r1, r2
2380:/home/user/Desktop/STM32-Projekte/FH-Vertibot/src/STM32F30x_StdPeriph_Driver/src/stm32f30x_adc.c ****   {
2381:/home/user/Desktop/STM32-Projekte/FH-Vertibot/src/STM32F30x_StdPeriph_Driver/src/stm32f30x_adc.c ****     bitstatus = SET;
 2258              		.loc 1 2381 0 is_stmt 1 discriminator 1
 2259 06a6 0CBF     		ite	eq
 2260 06a8 0020     		moveq	r0, #0
 2261 06aa 0120     		movne	r0, #1
 2262              	.L215:
 2263              	.LVL194:
2382:/home/user/Desktop/STM32-Projekte/FH-Vertibot/src/STM32F30x_StdPeriph_Driver/src/stm32f30x_adc.c ****   }
2383:/home/user/Desktop/STM32-Projekte/FH-Vertibot/src/STM32F30x_StdPeriph_Driver/src/stm32f30x_adc.c ****   else
2384:/home/user/Desktop/STM32-Projekte/FH-Vertibot/src/STM32F30x_StdPeriph_Driver/src/stm32f30x_adc.c ****   {
2385:/home/user/Desktop/STM32-Projekte/FH-Vertibot/src/STM32F30x_StdPeriph_Driver/src/stm32f30x_adc.c ****     bitstatus = RESET;
2386:/home/user/Desktop/STM32-Projekte/FH-Vertibot/src/STM32F30x_StdPeriph_Driver/src/stm32f30x_adc.c ****   }
2387:/home/user/Desktop/STM32-Projekte/FH-Vertibot/src/STM32F30x_StdPeriph_Driver/src/stm32f30x_adc.c ****   return bitstatus;
2388:/home/user/Desktop/STM32-Projekte/FH-Vertibot/src/STM32F30x_StdPeriph_Driver/src/stm32f30x_adc.c **** }
 2264              		.loc 1 2388 0
 2265 06ac 7047     		bx	lr
 2266              		.cfi_endproc
 2267              	.LFE172:
 2269              		.align	1
 2270              		.global	ADC_ClearITPendingBit
 2271              		.thumb
 2272              		.thumb_func
 2274              	ADC_ClearITPendingBit:
 2275              	.LFB173:
2389:/home/user/Desktop/STM32-Projekte/FH-Vertibot/src/STM32F30x_StdPeriph_Driver/src/stm32f30x_adc.c **** 
2390:/home/user/Desktop/STM32-Projekte/FH-Vertibot/src/STM32F30x_StdPeriph_Driver/src/stm32f30x_adc.c **** /**
2391:/home/user/Desktop/STM32-Projekte/FH-Vertibot/src/STM32F30x_StdPeriph_Driver/src/stm32f30x_adc.c ****   * @brief  Clears the ADCx's interrupt pending bits.
2392:/home/user/Desktop/STM32-Projekte/FH-Vertibot/src/STM32F30x_StdPeriph_Driver/src/stm32f30x_adc.c ****   * @param  ADCx: where x can be 1, 2 or 3 to select the ADC peripheral.
2393:/home/user/Desktop/STM32-Projekte/FH-Vertibot/src/STM32F30x_StdPeriph_Driver/src/stm32f30x_adc.c ****   * @param  ADC_IT: specifies the ADC interrupt pending bit to clear.
2394:/home/user/Desktop/STM32-Projekte/FH-Vertibot/src/STM32F30x_StdPeriph_Driver/src/stm32f30x_adc.c ****   *   This parameter can be any combination of the following values:
2395:/home/user/Desktop/STM32-Projekte/FH-Vertibot/src/STM32F30x_StdPeriph_Driver/src/stm32f30x_adc.c ****   *     @arg ADC_IT_RDY: ADC Ready (ADRDY) interrupt source 
2396:/home/user/Desktop/STM32-Projekte/FH-Vertibot/src/STM32F30x_StdPeriph_Driver/src/stm32f30x_adc.c ****   *     @arg ADC_IT_EOSMP: ADC End of Sampling interrupt source 
2397:/home/user/Desktop/STM32-Projekte/FH-Vertibot/src/STM32F30x_StdPeriph_Driver/src/stm32f30x_adc.c ****   *     @arg ADC_IT_EOC: ADC End of Regular Conversion interrupt source 
2398:/home/user/Desktop/STM32-Projekte/FH-Vertibot/src/STM32F30x_StdPeriph_Driver/src/stm32f30x_adc.c ****   *     @arg ADC_IT_EOS: ADC End of Regular sequence of Conversions interrupt source 
2399:/home/user/Desktop/STM32-Projekte/FH-Vertibot/src/STM32F30x_StdPeriph_Driver/src/stm32f30x_adc.c ****   *     @arg ADC_IT_OVR: ADC overrun interrupt source 
2400:/home/user/Desktop/STM32-Projekte/FH-Vertibot/src/STM32F30x_StdPeriph_Driver/src/stm32f30x_adc.c ****   *     @arg ADC_IT_JEOC: ADC End of Injected Conversion interrupt source 
2401:/home/user/Desktop/STM32-Projekte/FH-Vertibot/src/STM32F30x_StdPeriph_Driver/src/stm32f30x_adc.c ****   *     @arg ADC_IT_JEOS: ADC End of Injected sequence of Conversions interrupt source 
2402:/home/user/Desktop/STM32-Projekte/FH-Vertibot/src/STM32F30x_StdPeriph_Driver/src/stm32f30x_adc.c ****   *     @arg ADC_IT_AWD1: ADC Analog watchdog 1 interrupt source 
2403:/home/user/Desktop/STM32-Projekte/FH-Vertibot/src/STM32F30x_StdPeriph_Driver/src/stm32f30x_adc.c ****   *     @arg ADC_IT_AWD2: ADC Analog watchdog 2 interrupt source 
2404:/home/user/Desktop/STM32-Projekte/FH-Vertibot/src/STM32F30x_StdPeriph_Driver/src/stm32f30x_adc.c ****   *     @arg ADC_IT_AWD3: ADC Analog watchdog 3 interrupt source 
2405:/home/user/Desktop/STM32-Projekte/FH-Vertibot/src/STM32F30x_StdPeriph_Driver/src/stm32f30x_adc.c ****   *     @arg ADC_IT_JQOVF: ADC Injected Context Queue Overflow interrupt source
2406:/home/user/Desktop/STM32-Projekte/FH-Vertibot/src/STM32F30x_StdPeriph_Driver/src/stm32f30x_adc.c ****   * @retval None
2407:/home/user/Desktop/STM32-Projekte/FH-Vertibot/src/STM32F30x_StdPeriph_Driver/src/stm32f30x_adc.c ****   */
2408:/home/user/Desktop/STM32-Projekte/FH-Vertibot/src/STM32F30x_StdPeriph_Driver/src/stm32f30x_adc.c **** void ADC_ClearITPendingBit(ADC_TypeDef* ADCx, uint32_t ADC_IT)
2409:/home/user/Desktop/STM32-Projekte/FH-Vertibot/src/STM32F30x_StdPeriph_Driver/src/stm32f30x_adc.c **** {
 2276              		.loc 1 2409 0
 2277              		.cfi_startproc
 2278              		@ args = 0, pretend = 0, frame = 0
 2279              		@ frame_needed = 0, uses_anonymous_args = 0
 2280              		@ link register save eliminated.
 2281              	.LVL195:
2410:/home/user/Desktop/STM32-Projekte/FH-Vertibot/src/STM32F30x_StdPeriph_Driver/src/stm32f30x_adc.c ****   /* Check the parameters */
2411:/home/user/Desktop/STM32-Projekte/FH-Vertibot/src/STM32F30x_StdPeriph_Driver/src/stm32f30x_adc.c ****   assert_param(IS_ADC_ALL_PERIPH(ADCx));
2412:/home/user/Desktop/STM32-Projekte/FH-Vertibot/src/STM32F30x_StdPeriph_Driver/src/stm32f30x_adc.c ****   assert_param(IS_ADC_IT(ADC_IT));
2413:/home/user/Desktop/STM32-Projekte/FH-Vertibot/src/STM32F30x_StdPeriph_Driver/src/stm32f30x_adc.c ****   /* Clear the selected ADC interrupt pending bit */
2414:/home/user/Desktop/STM32-Projekte/FH-Vertibot/src/STM32F30x_StdPeriph_Driver/src/stm32f30x_adc.c ****   ADCx->ISR |= (uint32_t)ADC_IT;
 2282              		.loc 1 2414 0
 2283 06ae 0368     		ldr	r3, [r0]
 2284 06b0 1943     		orrs	r1, r1, r3
 2285              	.LVL196:
 2286 06b2 0160     		str	r1, [r0]
 2287 06b4 7047     		bx	lr
 2288              		.cfi_endproc
 2289              	.LFE173:
 2291              	.Letext0:
 2292              		.file 2 "/home/user/gcc-arm-none-eabi-4_8-2013q4/arm-none-eabi/include/stdint.h"
 2293              		.file 3 "/home/user/Desktop/STM32-Projekte/FH-Vertibot/src/CMSIS/Device/ST/STM32F30x/Include/stm32
 2294              		.file 4 "/home/user/Desktop/STM32-Projekte/FH-Vertibot/src/STM32F30x_StdPeriph_Driver/inc/stm32f30
 2295              		.file 5 "/home/user/Desktop/STM32-Projekte/FH-Vertibot/src/CMSIS/Include/core_cm4.h"
 2296              		.file 6 "/home/user/Desktop/STM32-Projekte/FH-Vertibot/src/STM32F30x_StdPeriph_Driver/inc/stm32f30
DEFINED SYMBOLS
                            *ABS*:00000000 stm32f30x_adc.c
     /tmp/ccvnclOp.s:20     .text:00000000 $t
     /tmp/ccvnclOp.s:25     .text:00000000 ADC_DeInit
     /tmp/ccvnclOp.s:88     .text:00000048 $d
     /tmp/ccvnclOp.s:93     .text:00000050 $t
     /tmp/ccvnclOp.s:98     .text:00000050 ADC_Init
     /tmp/ccvnclOp.s:160    .text:00000088 $d
     /tmp/ccvnclOp.s:164    .text:0000008c $t
     /tmp/ccvnclOp.s:169    .text:0000008c ADC_StructInit
     /tmp/ccvnclOp.s:204    .text:000000a2 ADC_InjectedInit
     /tmp/ccvnclOp.s:250    .text:000000cc ADC_InjectedStructInit
     /tmp/ccvnclOp.s:283    .text:000000e0 ADC_CommonInit
     /tmp/ccvnclOp.s:357    .text:0000012c $d
     /tmp/ccvnclOp.s:364    .text:0000013c $t
     /tmp/ccvnclOp.s:369    .text:0000013c ADC_CommonStructInit
     /tmp/ccvnclOp.s:397    .text:0000014a ADC_Cmd
     /tmp/ccvnclOp.s:426    .text:0000015c ADC_StartCalibration
     /tmp/ccvnclOp.s:447    .text:00000166 ADC_GetCalibrationValue
     /tmp/ccvnclOp.s:468    .text:0000016c ADC_SetCalibrationValue
     /tmp/ccvnclOp.s:487    .text:00000172 ADC_SelectCalibrationMode
     /tmp/ccvnclOp.s:513    .text:00000182 ADC_GetCalibrationStatus
     /tmp/ccvnclOp.s:535    .text:00000188 ADC_DisableCmd
     /tmp/ccvnclOp.s:556    .text:00000192 ADC_GetDisableCmdStatus
     /tmp/ccvnclOp.s:579    .text:0000019a ADC_VoltageRegulatorCmd
     /tmp/ccvnclOp.s:612    .text:000001b4 ADC_SelectDifferentialMode
     /tmp/ccvnclOp.s:647    .text:000001d2 ADC_SelectQueueOfContextMode
     /tmp/ccvnclOp.s:676    .text:000001e4 ADC_AutoDelayCmd
     /tmp/ccvnclOp.s:705    .text:000001f6 ADC_AnalogWatchdogCmd
     /tmp/ccvnclOp.s:733    .text:00000202 ADC_AnalogWatchdog1ThresholdsConfig
     /tmp/ccvnclOp.s:770    .text:0000022a ADC_AnalogWatchdog2ThresholdsConfig
     /tmp/ccvnclOp.s:805    .text:0000024a ADC_AnalogWatchdog3ThresholdsConfig
     /tmp/ccvnclOp.s:840    .text:0000026a ADC_AnalogWatchdog1SingleChannelConfig
     /tmp/ccvnclOp.s:868    .text:00000278 ADC_AnalogWatchdog2SingleChannelConfig
     /tmp/ccvnclOp.s:898    .text:00000294 $d
     /tmp/ccvnclOp.s:902    .text:00000298 $t
     /tmp/ccvnclOp.s:907    .text:00000298 ADC_AnalogWatchdog3SingleChannelConfig
     /tmp/ccvnclOp.s:937    .text:000002b4 $d
     /tmp/ccvnclOp.s:941    .text:000002b8 $t
     /tmp/ccvnclOp.s:946    .text:000002b8 ADC_TempSensorCmd
     /tmp/ccvnclOp.s:983    .text:000002dc $d
     /tmp/ccvnclOp.s:989    .text:000002e8 $t
     /tmp/ccvnclOp.s:994    .text:000002e8 ADC_VrefintCmd
     /tmp/ccvnclOp.s:1031   .text:0000030c $d
     /tmp/ccvnclOp.s:1037   .text:00000318 $t
     /tmp/ccvnclOp.s:1042   .text:00000318 ADC_VbatCmd
     /tmp/ccvnclOp.s:1079   .text:0000033c $d
     /tmp/ccvnclOp.s:1085   .text:00000348 $t
     /tmp/ccvnclOp.s:1090   .text:00000348 ADC_RegularChannelConfig
     /tmp/ccvnclOp.s:1279   .text:00000400 ADC_RegularChannelSequencerLengthConfig
     /tmp/ccvnclOp.s:1306   .text:00000412 ADC_ExternalTriggerConfig
     /tmp/ccvnclOp.s:1333   .text:00000424 ADC_StartConversion
     /tmp/ccvnclOp.s:1354   .text:0000042e ADC_GetStartConversionStatus
     /tmp/ccvnclOp.s:1377   .text:00000436 ADC_StopConversion
     /tmp/ccvnclOp.s:1398   .text:00000440 ADC_DiscModeChannelCountConfig
     /tmp/ccvnclOp.s:1429   .text:00000450 ADC_DiscModeCmd
     /tmp/ccvnclOp.s:1458   .text:00000462 ADC_GetConversionValue
     /tmp/ccvnclOp.s:1480   .text:00000468 ADC_GetDualModeConversionValue
     /tmp/ccvnclOp.s:1510   .text:00000480 $d
     /tmp/ccvnclOp.s:1516   .text:0000048c $t
     /tmp/ccvnclOp.s:1521   .text:0000048c ADC_SetChannelOffset1
     /tmp/ccvnclOp.s:1557   .text:000004b0 ADC_SetChannelOffset2
     /tmp/ccvnclOp.s:1593   .text:000004d4 ADC_SetChannelOffset3
     /tmp/ccvnclOp.s:1629   .text:000004f8 ADC_SetChannelOffset4
     /tmp/ccvnclOp.s:1665   .text:0000051c ADC_ChannelOffset1Cmd
     /tmp/ccvnclOp.s:1694   .text:0000052e ADC_ChannelOffset2Cmd
     /tmp/ccvnclOp.s:1723   .text:00000540 ADC_ChannelOffset3Cmd
     /tmp/ccvnclOp.s:1752   .text:00000552 ADC_ChannelOffset4Cmd
     /tmp/ccvnclOp.s:1781   .text:00000564 ADC_DMACmd
     /tmp/ccvnclOp.s:1810   .text:00000576 ADC_DMAConfig
     /tmp/ccvnclOp.s:1836   .text:00000586 ADC_InjectedChannelSampleTimeConfig
     /tmp/ccvnclOp.s:1909   .text:000005c8 ADC_StartInjectedConversion
     /tmp/ccvnclOp.s:1930   .text:000005d2 ADC_StopInjectedConversion
     /tmp/ccvnclOp.s:1951   .text:000005dc ADC_GetStartInjectedConversionStatus
     /tmp/ccvnclOp.s:1974   .text:000005e4 ADC_AutoInjectedConvCmd
     /tmp/ccvnclOp.s:2003   .text:000005f6 ADC_InjectedDiscModeCmd
     /tmp/ccvnclOp.s:2032   .text:00000608 ADC_GetInjectedConversionValue
     /tmp/ccvnclOp.s:2071   .text:00000626 ADC_ITConfig
     /tmp/ccvnclOp.s:2103   .text:00000636 ADC_GetFlagStatus
     /tmp/ccvnclOp.s:2129   .text:00000642 ADC_ClearFlag
     /tmp/ccvnclOp.s:2148   .text:00000646 ADC_GetCommonFlagStatus
     /tmp/ccvnclOp.s:2184   .text:00000664 $d
     /tmp/ccvnclOp.s:2190   .text:00000670 $t
     /tmp/ccvnclOp.s:2195   .text:00000670 ADC_ClearCommonFlag
     /tmp/ccvnclOp.s:2226   .text:0000068c $d
     /tmp/ccvnclOp.s:2232   .text:00000698 $t
     /tmp/ccvnclOp.s:2237   .text:00000698 ADC_GetITStatus
     /tmp/ccvnclOp.s:2274   .text:000006ae ADC_ClearITPendingBit
                     .debug_frame:00000010 $d
                           .group:00000000 wm4.1.e41257821655b1beb88e1ee583b76eae
                           .group:00000000 wm4.stm32f30x.h.54.c7b24f715ee55ef38656f44540ae3be6
                           .group:00000000 wm4.core_cm4.h.32.1434cd257ff5806b1b03cd32ab0641e9
                           .group:00000000 wm4.newlib.h.8.384a112feabb3bef7b573ae48cde2e3b
                           .group:00000000 wm4.features.h.22.6a4ca7cd053637cc1d0db6c16f39b2d7
                           .group:00000000 wm4.config.h.212.4163ef2871a828c674038d036b081cfd
                           .group:00000000 wm4._ansi.h.23.5644b60c990a4800b02a6e654e88f93a
                           .group:00000000 wm4.stdint.h.20.54ad762faa59e3c05491630641c8d8bf
                           .group:00000000 wm4.core_cmInstr.h.25.d8165482ef3061013a2fc83e2d85f3d9
                           .group:00000000 wm4.core_cm4_simd.h.29.013e5bcf58dba2d27c60184174208e07
                           .group:00000000 wm4.core_cm4.h.155.cf7c793e178943e1bbf613f1b21cd51a
                           .group:00000000 wm4.stm32f30x.h.292.5f9271075d54fc48f1e25ff79df85cb2
                           .group:00000000 wm4.stm32f30x_comp.h.91.06ae44150aaaa82c077b71df8db3541a
                           .group:00000000 wm4.stm32f30x_dma.h.31.73d173fa6d60026d432f3cf1d2fc4407
                           .group:00000000 wm4.stm32f30x_exti.h.31.22e280aa6e095108654ac8d3c74a2409
                           .group:00000000 wm4.stm32f30x_flash.h.31.bee86dc3079b7049419bdbeec073e2cd
                           .group:00000000 wm4.stm32f30x_gpio.h.31.3745297fee3728b346ad4d2a2467e40f
                           .group:00000000 wm4.stm32f30x_syscfg.h.31.96b023b7dbc3641f358604478433eb5c
                           .group:00000000 wm4.stm32f30x_i2c.h.31.52025acd7f154308042bf46a2835e9d3
                           .group:00000000 wm4.stm32f30x_pwr.h.31.cdef322c6e7f25cfc29954045d24e9b8
                           .group:00000000 wm4.stm32f30x_rcc.h.31.3b94c1144b21d1e4fe780e4d1a02d257
                           .group:00000000 wm4.stm32f30x_spi.h.31.c1ebebab897d23cecc617ec8ad9fd534
                           .group:00000000 wm4.stm32f30x_tim.h.31.336f9cd855fb4e2cd819ac260ded6518
                           .group:00000000 wm4.stm32f30x_usart.h.31.cd85313e29c0a128555b4a7b8ec0f487
                           .group:00000000 wm4.stm32f30x_misc.h.31.f08b0e9f53f0471613b5131bb95f8725
                           .group:00000000 wm4.stm32f30x.h.6173.8b641ba1d9b0040eda9120fe8a414b2d
                           .group:00000000 wm4.stm32f30x_adc.h.130.cbebad91f78fb87381fe0860eea6104e

UNDEFINED SYMBOLS
RCC_AHBPeriphResetCmd
